ARM GAS  C:\Users\kroko\AppData\Local\Temp\ccOkN8ni.s 			page 1


   1              		.cpu cortex-m4
   2              		.arch armv7e-m
   3              		.fpu fpv4-sp-d16
   4              		.eabi_attribute 27, 1
   5              		.eabi_attribute 28, 1
   6              		.eabi_attribute 20, 1
   7              		.eabi_attribute 21, 1
   8              		.eabi_attribute 23, 3
   9              		.eabi_attribute 24, 1
  10              		.eabi_attribute 25, 1
  11              		.eabi_attribute 26, 1
  12              		.eabi_attribute 30, 1
  13              		.eabi_attribute 34, 1
  14              		.eabi_attribute 18, 4
  15              		.file	"main.c"
  16              		.text
  17              	.Ltext0:
  18              		.cfi_sections	.debug_frame
  19              		.file 1 "Core/Src/main.c"
  20              		.section	.text.MX_GPIO_Init,"ax",%progbits
  21              		.align	1
  22              		.syntax unified
  23              		.thumb
  24              		.thumb_func
  26              	MX_GPIO_Init:
  27              	.LFB330:
   1:Core/Src/main.c **** /* USER CODE BEGIN Header */
   2:Core/Src/main.c **** /**
   3:Core/Src/main.c ****   ******************************************************************************
   4:Core/Src/main.c ****   * @file           : main.c
   5:Core/Src/main.c ****   * @brief          : Main program body
   6:Core/Src/main.c ****   ******************************************************************************
   7:Core/Src/main.c ****   * @attention
   8:Core/Src/main.c ****   *
   9:Core/Src/main.c ****   * Copyright (c) 2025 STMicroelectronics.
  10:Core/Src/main.c ****   * All rights reserved.
  11:Core/Src/main.c ****   *
  12:Core/Src/main.c ****   * This software is licensed under terms that can be found in the LICENSE file
  13:Core/Src/main.c ****   * in the root directory of this software component.
  14:Core/Src/main.c ****   * If no LICENSE file comes with this software, it is provided AS-IS.
  15:Core/Src/main.c ****   *
  16:Core/Src/main.c ****   ******************************************************************************
  17:Core/Src/main.c ****   */
  18:Core/Src/main.c **** /* USER CODE END Header */
  19:Core/Src/main.c **** /* Includes ------------------------------------------------------------------*/
  20:Core/Src/main.c **** #include "main.h"
  21:Core/Src/main.c **** #include "usb_device.h"
  22:Core/Src/main.c **** 
  23:Core/Src/main.c **** /* Private includes ----------------------------------------------------------*/
  24:Core/Src/main.c **** /* USER CODE BEGIN Includes */
  25:Core/Src/main.c **** #include "EPD.h"
  26:Core/Src/main.c **** #include "EPD_GUI.h"
  27:Core/Src/main.c **** #include "../Fonts/fonts.h"
  28:Core/Src/main.c **** #include "bitmaps.h"
  29:Core/Src/main.c **** #include "stdlib.h"
  30:Core/Src/main.c **** #include "stdbool.h"
  31:Core/Src/main.c **** #include "ds18b20.h"
ARM GAS  C:\Users\kroko\AppData\Local\Temp\ccOkN8ni.s 			page 2


  32:Core/Src/main.c **** #include "queue.h"
  33:Core/Src/main.c **** #include "buttons.h"
  34:Core/Src/main.c **** #include "time.h"
  35:Core/Src/main.c **** #include "usbd_cdc_if.h"
  36:Core/Src/main.c **** #include "USB_storage.h"
  37:Core/Src/main.c **** // #include "USB_storage.h"
  38:Core/Src/main.c **** /* USER CODE END Includes */
  39:Core/Src/main.c **** 
  40:Core/Src/main.c **** /* Private typedef -----------------------------------------------------------*/
  41:Core/Src/main.c **** /* USER CODE BEGIN PTD */
  42:Core/Src/main.c **** 
  43:Core/Src/main.c **** /* USER CODE END PTD */
  44:Core/Src/main.c **** 
  45:Core/Src/main.c **** /* Private define ------------------------------------------------------------*/
  46:Core/Src/main.c **** /* USER CODE BEGIN PD */
  47:Core/Src/main.c **** // #define VREFINT_CAL_ADDR    ((uint32_t*)0x1FFF75AA)
  48:Core/Src/main.c **** #define MEASURMENTS_DELTA_SEC 10
  49:Core/Src/main.c **** #define SAMPLES_PER_GRAPH 48
  50:Core/Src/main.c **** #define IMG_SIZE  ((EPD_WIDTH % 8 == 0)? (EPD_WIDTH / 8 ): (EPD_WIDTH / 8 + 1)) * EPD_HEIGHT
  51:Core/Src/main.c **** /* USER CODE END PD */
  52:Core/Src/main.c **** 
  53:Core/Src/main.c **** /* Private macro -------------------------------------------------------------*/
  54:Core/Src/main.c **** /* USER CODE BEGIN PM */
  55:Core/Src/main.c **** #define roundUpToDiv(x, div) (((x) + ((x) < 0 ? -(div - 1) : (div - 1))) / (div) * (div))
  56:Core/Src/main.c **** /* USER CODE END PM */
  57:Core/Src/main.c **** 
  58:Core/Src/main.c **** /* Private variables ---------------------------------------------------------*/
  59:Core/Src/main.c **** ADC_HandleTypeDef hadc1;
  60:Core/Src/main.c **** DMA_HandleTypeDef hdma_adc1;
  61:Core/Src/main.c **** 
  62:Core/Src/main.c **** RTC_HandleTypeDef hrtc;
  63:Core/Src/main.c **** 
  64:Core/Src/main.c **** SPI_HandleTypeDef hspi1;
  65:Core/Src/main.c **** 
  66:Core/Src/main.c **** UART_HandleTypeDef huart2;
  67:Core/Src/main.c **** 
  68:Core/Src/main.c **** /* USER CODE BEGIN PV */
  69:Core/Src/main.c **** // int16_t data[60];
  70:Core/Src/main.c **** // uint8_t data_write_ptr = 0;
  71:Core/Src/main.c **** // bool is_first_writing = true;
  72:Core/Src/main.c **** 
  73:Core/Src/main.c **** float mcuVoltage = 0;
  74:Core/Src/main.c **** uint16_t adcData = 0;
  75:Core/Src/main.c **** 
  76:Core/Src/main.c **** DS18B20 temperatureSensor;
  77:Core/Src/main.c **** 
  78:Core/Src/main.c **** float temp;
  79:Core/Src/main.c **** 
  80:Core/Src/main.c **** //uint8_t *BlackImage;
  81:Core/Src/main.c **** // uint16_t Imagesize = ((EPD_WIDTH % 8 == 0)? (EPD_WIDTH / 8 ): (EPD_WIDTH / 8 + 1)) * EPD_HEIGHT;
  82:Core/Src/main.c **** uint8_t BlackImage[IMG_SIZE];
  83:Core/Src/main.c **** /* USER CODE END PV */
  84:Core/Src/main.c **** 
  85:Core/Src/main.c **** /* Private function prototypes -----------------------------------------------*/
  86:Core/Src/main.c **** void SystemClock_Config(void);
  87:Core/Src/main.c **** static void MX_GPIO_Init(void);
  88:Core/Src/main.c **** static void MX_DMA_Init(void);
ARM GAS  C:\Users\kroko\AppData\Local\Temp\ccOkN8ni.s 			page 3


  89:Core/Src/main.c **** static void MX_SPI1_Init(void);
  90:Core/Src/main.c **** static void MX_RTC_Init(void);
  91:Core/Src/main.c **** static void MX_USART2_UART_Init(void);
  92:Core/Src/main.c **** static void MX_ADC1_Init(void);
  93:Core/Src/main.c **** /* USER CODE BEGIN PFP */
  94:Core/Src/main.c **** long map(long x, long in_min, long in_max, long out_min, long out_max);
  95:Core/Src/main.c **** void plot();
  96:Core/Src/main.c **** void shutdown(bool skipRTC);
  97:Core/Src/main.c **** void power_on();
  98:Core/Src/main.c **** float DS18_GET();
  99:Core/Src/main.c **** void DS18_INIT();
 100:Core/Src/main.c **** void set_time();
 101:Core/Src/main.c **** void get_data(bool goto_sleep);
 102:Core/Src/main.c **** void timestamp_to_time(uint32_t timestamp, uint8_t* hours, uint8_t* minutes);
 103:Core/Src/main.c **** bool USB_DEVICE_IsConnected();
 104:Core/Src/main.c **** void USB_SendAllData();
 105:Core/Src/main.c **** void syncRTC();
 106:Core/Src/main.c **** /* USER CODE END PFP */
 107:Core/Src/main.c **** 
 108:Core/Src/main.c **** /* Private user code ---------------------------------------------------------*/
 109:Core/Src/main.c **** /* USER CODE BEGIN 0 */
 110:Core/Src/main.c **** bool send_usb;
 111:Core/Src/main.c **** bool send_usb_data;
 112:Core/Src/main.c **** bool measure;
 113:Core/Src/main.c **** bool initialise_usb_connection;
 114:Core/Src/main.c **** bool set_rtc;
 115:Core/Src/main.c **** char rtc_buf[25];
 116:Core/Src/main.c **** uint32_t usb_conn_tmr;
 117:Core/Src/main.c **** /* USER CODE END 0 */
 118:Core/Src/main.c **** 
 119:Core/Src/main.c **** /**
 120:Core/Src/main.c ****   * @brief  The application entry point.
 121:Core/Src/main.c ****   * @retval int
 122:Core/Src/main.c ****   */
 123:Core/Src/main.c **** int main(void)
 124:Core/Src/main.c **** {
 125:Core/Src/main.c **** 
 126:Core/Src/main.c ****   /* USER CODE BEGIN 1 */
 127:Core/Src/main.c ****   
 128:Core/Src/main.c ****   /* USER CODE END 1 */
 129:Core/Src/main.c **** 
 130:Core/Src/main.c ****   /* MCU Configuration--------------------------------------------------------*/
 131:Core/Src/main.c **** 
 132:Core/Src/main.c ****   /* Reset of all peripherals, Initializes the Flash interface and the Systick. */
 133:Core/Src/main.c ****   HAL_Init();
 134:Core/Src/main.c **** 
 135:Core/Src/main.c ****   /* USER CODE BEGIN Init */
 136:Core/Src/main.c **** 
 137:Core/Src/main.c ****   /* USER CODE END Init */
 138:Core/Src/main.c **** 
 139:Core/Src/main.c ****   /* Configure the system clock */
 140:Core/Src/main.c ****   SystemClock_Config();
 141:Core/Src/main.c **** 
 142:Core/Src/main.c ****   /* USER CODE BEGIN SysInit */
 143:Core/Src/main.c **** 
 144:Core/Src/main.c ****   /* USER CODE END SysInit */
 145:Core/Src/main.c **** 
ARM GAS  C:\Users\kroko\AppData\Local\Temp\ccOkN8ni.s 			page 4


 146:Core/Src/main.c ****   /* Initialize all configured peripherals */
 147:Core/Src/main.c ****   MX_GPIO_Init();
 148:Core/Src/main.c ****   MX_DMA_Init();
 149:Core/Src/main.c ****   MX_SPI1_Init();
 150:Core/Src/main.c ****   MX_RTC_Init();
 151:Core/Src/main.c ****   MX_USART2_UART_Init();
 152:Core/Src/main.c ****   MX_ADC1_Init();
 153:Core/Src/main.c ****   MX_USB_DEVICE_Init();
 154:Core/Src/main.c ****   /* USER CODE BEGIN 2 */
 155:Core/Src/main.c ****   HAL_ADC_Start_DMA(&hadc1, (uint32_t*)&adcData, 1);
 156:Core/Src/main.c ****   DS18_INIT();
 157:Core/Src/main.c ****   EPD_Init();
 158:Core/Src/main.c **** 
 159:Core/Src/main.c ****   q_init();
 160:Core/Src/main.c **** 
 161:Core/Src/main.c ****  bool is_RTC_retained = q_load();
 162:Core/Src/main.c **** 
 163:Core/Src/main.c ****  bool old_usb_state = false;
 164:Core/Src/main.c **** 
 165:Core/Src/main.c ****   if (is_RTC_retained) {
 166:Core/Src/main.c ****     shutdown(true);
 167:Core/Src/main.c ****     power_on();
 168:Core/Src/main.c ****   }else{
 169:Core/Src/main.c ****     set_time();
 170:Core/Src/main.c ****   }
 171:Core/Src/main.c **** 
 172:Core/Src/main.c ****   q_push(DS18_GET()*100);
 173:Core/Src/main.c ****   q_push(DS18_GET()*100);
 174:Core/Src/main.c ****   q_push(DS18_GET()*100);
 175:Core/Src/main.c ****   q_push(DS18_GET()*100);
 176:Core/Src/main.c ****   q_save();
 177:Core/Src/main.c ****   plot();
 178:Core/Src/main.c ****   if(!USB_DEVICE_IsConnected()){
 179:Core/Src/main.c ****     shutdown(false);
 180:Core/Src/main.c ****   }
 181:Core/Src/main.c ****   /* USER CODE END 2 */
 182:Core/Src/main.c **** 
 183:Core/Src/main.c ****   /* Infinite loop */
 184:Core/Src/main.c ****   /* USER CODE BEGIN WHILE */
 185:Core/Src/main.c ****   while (1)
 186:Core/Src/main.c ****   { 
 187:Core/Src/main.c ****     if(measure){
 188:Core/Src/main.c ****       measure = false;
 189:Core/Src/main.c ****       get_data(!send_usb);
 190:Core/Src/main.c ****       send_usb = false;
 191:Core/Src/main.c ****     }
 192:Core/Src/main.c ****     
 193:Core/Src/main.c ****     if(initialise_usb_connection){
 194:Core/Src/main.c ****       initialise_usb_connection = false;
 195:Core/Src/main.c ****       power_on();
 196:Core/Src/main.c ****       usb_conn_tmr = HAL_GetTick();
 197:Core/Src/main.c **** 
 198:Core/Src/main.c ****       // uint32_t usbinit_tmr = HAL_GetTick();
 199:Core/Src/main.c ****       // while(HAL_GetTick()-usbinit_tmr < 5000){
 200:Core/Src/main.c ****       //   if(measure){
 201:Core/Src/main.c ****       //     measure = false;
 202:Core/Src/main.c ****       //     get_data(!send_usb);
ARM GAS  C:\Users\kroko\AppData\Local\Temp\ccOkN8ni.s 			page 5


 203:Core/Src/main.c ****       //     send_usb = false;
 204:Core/Src/main.c ****       //   }
 205:Core/Src/main.c ****       //   if(USB_DEVICE_IsConnected()){break;}
 206:Core/Src/main.c ****       // }
 207:Core/Src/main.c **** 
 208:Core/Src/main.c ****       // uint32_t sleep_time = HAL_RTCEx_GetWakeUpTimer(&hrtc);
 209:Core/Src/main.c ****       // HAL_RTCEx_SetWakeUpTimer_IT(&hrtc, sleep_time, RTC_WAKEUPCLOCK_CK_SPRE_16BITS, 0);
 210:Core/Src/main.c ****     }
 211:Core/Src/main.c **** 
 212:Core/Src/main.c ****     if(send_usb_data){
 213:Core/Src/main.c ****       send_usb_data = false;
 214:Core/Src/main.c ****       USB_SendAllData();
 215:Core/Src/main.c ****     }
 216:Core/Src/main.c **** 
 217:Core/Src/main.c ****     if(set_rtc){
 218:Core/Src/main.c ****       set_rtc = false;
 219:Core/Src/main.c ****       syncRTC();
 220:Core/Src/main.c ****     }
 221:Core/Src/main.c **** 
 222:Core/Src/main.c ****     if(!USB_DEVICE_IsConnected() && old_usb_state && HAL_GetTick()-usb_conn_tmr>150){
 223:Core/Src/main.c ****       shutdown(true);
 224:Core/Src/main.c ****     }
 225:Core/Src/main.c ****     old_usb_state = USB_DEVICE_IsConnected();
 226:Core/Src/main.c ****     /* USER CODE END WHILE */
 227:Core/Src/main.c **** 
 228:Core/Src/main.c ****     /* USER CODE BEGIN 3 */
 229:Core/Src/main.c ****   }
 230:Core/Src/main.c ****   /* USER CODE END 3 */
 231:Core/Src/main.c **** }
 232:Core/Src/main.c **** 
 233:Core/Src/main.c **** /**
 234:Core/Src/main.c ****   * @brief System Clock Configuration
 235:Core/Src/main.c ****   * @retval None
 236:Core/Src/main.c ****   */
 237:Core/Src/main.c **** void SystemClock_Config(void)
 238:Core/Src/main.c **** {
 239:Core/Src/main.c ****   RCC_OscInitTypeDef RCC_OscInitStruct = {0};
 240:Core/Src/main.c ****   RCC_ClkInitTypeDef RCC_ClkInitStruct = {0};
 241:Core/Src/main.c **** 
 242:Core/Src/main.c ****   /** Configure the main internal regulator output voltage
 243:Core/Src/main.c ****   */
 244:Core/Src/main.c ****   if (HAL_PWREx_ControlVoltageScaling(PWR_REGULATOR_VOLTAGE_SCALE1) != HAL_OK)
 245:Core/Src/main.c ****   {
 246:Core/Src/main.c ****     Error_Handler();
 247:Core/Src/main.c ****   }
 248:Core/Src/main.c **** 
 249:Core/Src/main.c ****   /** Configure LSE Drive Capability
 250:Core/Src/main.c ****   */
 251:Core/Src/main.c ****   HAL_PWR_EnableBkUpAccess();
 252:Core/Src/main.c ****   __HAL_RCC_LSEDRIVE_CONFIG(RCC_LSEDRIVE_LOW);
 253:Core/Src/main.c **** 
 254:Core/Src/main.c ****   /** Initializes the RCC Oscillators according to the specified parameters
 255:Core/Src/main.c ****   * in the RCC_OscInitTypeDef structure.
 256:Core/Src/main.c ****   */
 257:Core/Src/main.c ****   RCC_OscInitStruct.OscillatorType = RCC_OSCILLATORTYPE_HSI48|RCC_OSCILLATORTYPE_LSE
 258:Core/Src/main.c ****                               |RCC_OSCILLATORTYPE_MSI;
 259:Core/Src/main.c ****   RCC_OscInitStruct.LSEState = RCC_LSE_ON;
ARM GAS  C:\Users\kroko\AppData\Local\Temp\ccOkN8ni.s 			page 6


 260:Core/Src/main.c ****   RCC_OscInitStruct.HSI48State = RCC_HSI48_ON;
 261:Core/Src/main.c ****   RCC_OscInitStruct.MSIState = RCC_MSI_ON;
 262:Core/Src/main.c ****   RCC_OscInitStruct.MSICalibrationValue = 0;
 263:Core/Src/main.c ****   RCC_OscInitStruct.MSIClockRange = RCC_MSIRANGE_8;
 264:Core/Src/main.c ****   RCC_OscInitStruct.PLL.PLLState = RCC_PLL_NONE;
 265:Core/Src/main.c ****   if (HAL_RCC_OscConfig(&RCC_OscInitStruct) != HAL_OK)
 266:Core/Src/main.c ****   {
 267:Core/Src/main.c ****     Error_Handler();
 268:Core/Src/main.c ****   }
 269:Core/Src/main.c **** 
 270:Core/Src/main.c ****   /** Initializes the CPU, AHB and APB buses clocks
 271:Core/Src/main.c ****   */
 272:Core/Src/main.c ****   RCC_ClkInitStruct.ClockType = RCC_CLOCKTYPE_HCLK|RCC_CLOCKTYPE_SYSCLK
 273:Core/Src/main.c ****                               |RCC_CLOCKTYPE_PCLK1|RCC_CLOCKTYPE_PCLK2;
 274:Core/Src/main.c ****   RCC_ClkInitStruct.SYSCLKSource = RCC_SYSCLKSOURCE_MSI;
 275:Core/Src/main.c ****   RCC_ClkInitStruct.AHBCLKDivider = RCC_SYSCLK_DIV1;
 276:Core/Src/main.c ****   RCC_ClkInitStruct.APB1CLKDivider = RCC_HCLK_DIV1;
 277:Core/Src/main.c ****   RCC_ClkInitStruct.APB2CLKDivider = RCC_HCLK_DIV1;
 278:Core/Src/main.c **** 
 279:Core/Src/main.c ****   if (HAL_RCC_ClockConfig(&RCC_ClkInitStruct, FLASH_LATENCY_0) != HAL_OK)
 280:Core/Src/main.c ****   {
 281:Core/Src/main.c ****     Error_Handler();
 282:Core/Src/main.c ****   }
 283:Core/Src/main.c **** 
 284:Core/Src/main.c ****   /** Enable MSI Auto calibration
 285:Core/Src/main.c ****   */
 286:Core/Src/main.c ****   HAL_RCCEx_EnableMSIPLLMode();
 287:Core/Src/main.c **** }
 288:Core/Src/main.c **** 
 289:Core/Src/main.c **** /**
 290:Core/Src/main.c ****   * @brief ADC1 Initialization Function
 291:Core/Src/main.c ****   * @param None
 292:Core/Src/main.c ****   * @retval None
 293:Core/Src/main.c ****   */
 294:Core/Src/main.c **** static void MX_ADC1_Init(void)
 295:Core/Src/main.c **** {
 296:Core/Src/main.c **** 
 297:Core/Src/main.c ****   /* USER CODE BEGIN ADC1_Init 0 */
 298:Core/Src/main.c **** 
 299:Core/Src/main.c ****   /* USER CODE END ADC1_Init 0 */
 300:Core/Src/main.c **** 
 301:Core/Src/main.c ****   ADC_MultiModeTypeDef multimode = {0};
 302:Core/Src/main.c ****   ADC_ChannelConfTypeDef sConfig = {0};
 303:Core/Src/main.c **** 
 304:Core/Src/main.c ****   /* USER CODE BEGIN ADC1_Init 1 */
 305:Core/Src/main.c **** 
 306:Core/Src/main.c ****   /* USER CODE END ADC1_Init 1 */
 307:Core/Src/main.c **** 
 308:Core/Src/main.c ****   /** Common config
 309:Core/Src/main.c ****   */
 310:Core/Src/main.c ****   hadc1.Instance = ADC1;
 311:Core/Src/main.c ****   hadc1.Init.ClockPrescaler = ADC_CLOCK_ASYNC_DIV1;
 312:Core/Src/main.c ****   hadc1.Init.Resolution = ADC_RESOLUTION_12B;
 313:Core/Src/main.c ****   hadc1.Init.DataAlign = ADC_DATAALIGN_RIGHT;
 314:Core/Src/main.c ****   hadc1.Init.ScanConvMode = ADC_SCAN_DISABLE;
 315:Core/Src/main.c ****   hadc1.Init.EOCSelection = ADC_EOC_SINGLE_CONV;
 316:Core/Src/main.c ****   hadc1.Init.LowPowerAutoWait = DISABLE;
ARM GAS  C:\Users\kroko\AppData\Local\Temp\ccOkN8ni.s 			page 7


 317:Core/Src/main.c ****   hadc1.Init.ContinuousConvMode = ENABLE;
 318:Core/Src/main.c ****   hadc1.Init.NbrOfConversion = 1;
 319:Core/Src/main.c ****   hadc1.Init.DiscontinuousConvMode = DISABLE;
 320:Core/Src/main.c ****   hadc1.Init.ExternalTrigConv = ADC_SOFTWARE_START;
 321:Core/Src/main.c ****   hadc1.Init.ExternalTrigConvEdge = ADC_EXTERNALTRIGCONVEDGE_NONE;
 322:Core/Src/main.c ****   hadc1.Init.DMAContinuousRequests = DISABLE;
 323:Core/Src/main.c ****   hadc1.Init.Overrun = ADC_OVR_DATA_PRESERVED;
 324:Core/Src/main.c ****   hadc1.Init.OversamplingMode = DISABLE;
 325:Core/Src/main.c ****   if (HAL_ADC_Init(&hadc1) != HAL_OK)
 326:Core/Src/main.c ****   {
 327:Core/Src/main.c ****     Error_Handler();
 328:Core/Src/main.c ****   }
 329:Core/Src/main.c **** 
 330:Core/Src/main.c ****   /** Configure the ADC multi-mode
 331:Core/Src/main.c ****   */
 332:Core/Src/main.c ****   multimode.Mode = ADC_MODE_INDEPENDENT;
 333:Core/Src/main.c ****   if (HAL_ADCEx_MultiModeConfigChannel(&hadc1, &multimode) != HAL_OK)
 334:Core/Src/main.c ****   {
 335:Core/Src/main.c ****     Error_Handler();
 336:Core/Src/main.c ****   }
 337:Core/Src/main.c **** 
 338:Core/Src/main.c ****   /** Configure Regular Channel
 339:Core/Src/main.c ****   */
 340:Core/Src/main.c ****   sConfig.Channel = ADC_CHANNEL_VREFINT;
 341:Core/Src/main.c ****   sConfig.Rank = ADC_REGULAR_RANK_1;
 342:Core/Src/main.c ****   sConfig.SamplingTime = ADC_SAMPLETIME_2CYCLES_5;
 343:Core/Src/main.c ****   sConfig.SingleDiff = ADC_SINGLE_ENDED;
 344:Core/Src/main.c ****   sConfig.OffsetNumber = ADC_OFFSET_NONE;
 345:Core/Src/main.c ****   sConfig.Offset = 0;
 346:Core/Src/main.c ****   if (HAL_ADC_ConfigChannel(&hadc1, &sConfig) != HAL_OK)
 347:Core/Src/main.c ****   {
 348:Core/Src/main.c ****     Error_Handler();
 349:Core/Src/main.c ****   }
 350:Core/Src/main.c ****   /* USER CODE BEGIN ADC1_Init 2 */
 351:Core/Src/main.c **** 
 352:Core/Src/main.c ****   /* USER CODE END ADC1_Init 2 */
 353:Core/Src/main.c **** 
 354:Core/Src/main.c **** }
 355:Core/Src/main.c **** 
 356:Core/Src/main.c **** /**
 357:Core/Src/main.c ****   * @brief RTC Initialization Function
 358:Core/Src/main.c ****   * @param None
 359:Core/Src/main.c ****   * @retval None
 360:Core/Src/main.c ****   */
 361:Core/Src/main.c **** static void MX_RTC_Init(void)
 362:Core/Src/main.c **** {
 363:Core/Src/main.c **** 
 364:Core/Src/main.c ****   /* USER CODE BEGIN RTC_Init 0 */
 365:Core/Src/main.c ****   uint32_t RTC_key =  0xAAFF55FF;
 366:Core/Src/main.c ****   /* USER CODE END RTC_Init 0 */
 367:Core/Src/main.c **** 
 368:Core/Src/main.c ****   RTC_TimeTypeDef sTime = {0};
 369:Core/Src/main.c ****   RTC_DateTypeDef sDate = {0};
 370:Core/Src/main.c **** 
 371:Core/Src/main.c ****   /* USER CODE BEGIN RTC_Init 1 */
 372:Core/Src/main.c ****   if (HAL_RTCEx_BKUPRead(&hrtc, RTC_BKP_DR6) == RTC_key){
 373:Core/Src/main.c **** 
ARM GAS  C:\Users\kroko\AppData\Local\Temp\ccOkN8ni.s 			page 8


 374:Core/Src/main.c ****   }
 375:Core/Src/main.c ****   /* USER CODE END RTC_Init 1 */
 376:Core/Src/main.c **** 
 377:Core/Src/main.c ****   /** Initialize RTC Only
 378:Core/Src/main.c ****   */
 379:Core/Src/main.c ****   hrtc.Instance = RTC;
 380:Core/Src/main.c ****   hrtc.Init.HourFormat = RTC_HOURFORMAT_24;
 381:Core/Src/main.c ****   hrtc.Init.AsynchPrediv = 127;
 382:Core/Src/main.c ****   hrtc.Init.SynchPrediv = 255;
 383:Core/Src/main.c ****   hrtc.Init.OutPut = RTC_OUTPUT_DISABLE;
 384:Core/Src/main.c ****   hrtc.Init.OutPutRemap = RTC_OUTPUT_REMAP_NONE;
 385:Core/Src/main.c ****   hrtc.Init.OutPutPolarity = RTC_OUTPUT_POLARITY_HIGH;
 386:Core/Src/main.c ****   hrtc.Init.OutPutType = RTC_OUTPUT_TYPE_OPENDRAIN;
 387:Core/Src/main.c ****   hrtc.Init.OutPutPullUp = RTC_OUTPUT_PULLUP_NONE;
 388:Core/Src/main.c ****   if (HAL_RTC_Init(&hrtc) != HAL_OK)
 389:Core/Src/main.c ****   {
 390:Core/Src/main.c ****     Error_Handler();
 391:Core/Src/main.c ****   }
 392:Core/Src/main.c **** 
 393:Core/Src/main.c ****   /* USER CODE BEGIN Check_RTC_BKUP */
 394:Core/Src/main.c **** 
 395:Core/Src/main.c ****   /* USER CODE END Check_RTC_BKUP */
 396:Core/Src/main.c **** 
 397:Core/Src/main.c ****   /** Initialize RTC and set the Time and Date
 398:Core/Src/main.c ****   */
 399:Core/Src/main.c ****   sTime.Hours = 0x0;
 400:Core/Src/main.c ****   sTime.Minutes = 0x0;
 401:Core/Src/main.c ****   sTime.Seconds = 0x0;
 402:Core/Src/main.c ****   sTime.DayLightSaving = RTC_DAYLIGHTSAVING_ADD1H;
 403:Core/Src/main.c ****   sTime.StoreOperation = RTC_STOREOPERATION_RESET;
 404:Core/Src/main.c ****   if (HAL_RTC_SetTime(&hrtc, &sTime, RTC_FORMAT_BCD) != HAL_OK)
 405:Core/Src/main.c ****   {
 406:Core/Src/main.c ****     Error_Handler();
 407:Core/Src/main.c ****   }
 408:Core/Src/main.c ****   sDate.WeekDay = RTC_WEEKDAY_MONDAY;
 409:Core/Src/main.c ****   sDate.Month = RTC_MONTH_JANUARY;
 410:Core/Src/main.c ****   sDate.Date = 0x1;
 411:Core/Src/main.c ****   sDate.Year = 0x25;
 412:Core/Src/main.c **** 
 413:Core/Src/main.c ****   if (HAL_RTC_SetDate(&hrtc, &sDate, RTC_FORMAT_BCD) != HAL_OK)
 414:Core/Src/main.c ****   {
 415:Core/Src/main.c ****     Error_Handler();
 416:Core/Src/main.c ****   }
 417:Core/Src/main.c **** 
 418:Core/Src/main.c ****   /** Enable the WakeUp
 419:Core/Src/main.c ****   */
 420:Core/Src/main.c ****   if (HAL_RTCEx_SetWakeUpTimer_IT(&hrtc, 10, RTC_WAKEUPCLOCK_CK_SPRE_16BITS, 0) != HAL_OK)
 421:Core/Src/main.c ****   {
 422:Core/Src/main.c ****     Error_Handler();
 423:Core/Src/main.c ****   }
 424:Core/Src/main.c ****   /* USER CODE BEGIN RTC_Init 2 */
 425:Core/Src/main.c **** 
 426:Core/Src/main.c ****   /* USER CODE END RTC_Init 2 */
 427:Core/Src/main.c **** 
 428:Core/Src/main.c **** }
 429:Core/Src/main.c **** 
 430:Core/Src/main.c **** /**
ARM GAS  C:\Users\kroko\AppData\Local\Temp\ccOkN8ni.s 			page 9


 431:Core/Src/main.c ****   * @brief SPI1 Initialization Function
 432:Core/Src/main.c ****   * @param None
 433:Core/Src/main.c ****   * @retval None
 434:Core/Src/main.c ****   */
 435:Core/Src/main.c **** static void MX_SPI1_Init(void)
 436:Core/Src/main.c **** {
 437:Core/Src/main.c **** 
 438:Core/Src/main.c ****   /* USER CODE BEGIN SPI1_Init 0 */
 439:Core/Src/main.c **** 
 440:Core/Src/main.c ****   /* USER CODE END SPI1_Init 0 */
 441:Core/Src/main.c **** 
 442:Core/Src/main.c ****   /* USER CODE BEGIN SPI1_Init 1 */
 443:Core/Src/main.c **** 
 444:Core/Src/main.c ****   /* USER CODE END SPI1_Init 1 */
 445:Core/Src/main.c ****   /* SPI1 parameter configuration*/
 446:Core/Src/main.c ****   hspi1.Instance = SPI1;
 447:Core/Src/main.c ****   hspi1.Init.Mode = SPI_MODE_MASTER;
 448:Core/Src/main.c ****   hspi1.Init.Direction = SPI_DIRECTION_1LINE;
 449:Core/Src/main.c ****   hspi1.Init.DataSize = SPI_DATASIZE_8BIT;
 450:Core/Src/main.c ****   hspi1.Init.CLKPolarity = SPI_POLARITY_LOW;
 451:Core/Src/main.c ****   hspi1.Init.CLKPhase = SPI_PHASE_1EDGE;
 452:Core/Src/main.c ****   hspi1.Init.NSS = SPI_NSS_SOFT;
 453:Core/Src/main.c ****   hspi1.Init.BaudRatePrescaler = SPI_BAUDRATEPRESCALER_16;
 454:Core/Src/main.c ****   hspi1.Init.FirstBit = SPI_FIRSTBIT_MSB;
 455:Core/Src/main.c ****   hspi1.Init.TIMode = SPI_TIMODE_DISABLE;
 456:Core/Src/main.c ****   hspi1.Init.CRCCalculation = SPI_CRCCALCULATION_DISABLE;
 457:Core/Src/main.c ****   hspi1.Init.CRCPolynomial = 7;
 458:Core/Src/main.c ****   hspi1.Init.CRCLength = SPI_CRC_LENGTH_DATASIZE;
 459:Core/Src/main.c ****   hspi1.Init.NSSPMode = SPI_NSS_PULSE_ENABLE;
 460:Core/Src/main.c ****   if (HAL_SPI_Init(&hspi1) != HAL_OK)
 461:Core/Src/main.c ****   {
 462:Core/Src/main.c ****     Error_Handler();
 463:Core/Src/main.c ****   }
 464:Core/Src/main.c ****   /* USER CODE BEGIN SPI1_Init 2 */
 465:Core/Src/main.c **** 
 466:Core/Src/main.c ****   /* USER CODE END SPI1_Init 2 */
 467:Core/Src/main.c **** 
 468:Core/Src/main.c **** }
 469:Core/Src/main.c **** 
 470:Core/Src/main.c **** /**
 471:Core/Src/main.c ****   * @brief USART2 Initialization Function
 472:Core/Src/main.c ****   * @param None
 473:Core/Src/main.c ****   * @retval None
 474:Core/Src/main.c ****   */
 475:Core/Src/main.c **** static void MX_USART2_UART_Init(void)
 476:Core/Src/main.c **** {
 477:Core/Src/main.c **** 
 478:Core/Src/main.c ****   /* USER CODE BEGIN USART2_Init 0 */
 479:Core/Src/main.c **** 
 480:Core/Src/main.c ****   /* USER CODE END USART2_Init 0 */
 481:Core/Src/main.c **** 
 482:Core/Src/main.c ****   /* USER CODE BEGIN USART2_Init 1 */
 483:Core/Src/main.c **** 
 484:Core/Src/main.c ****   /* USER CODE END USART2_Init 1 */
 485:Core/Src/main.c ****   huart2.Instance = USART2;
 486:Core/Src/main.c ****   huart2.Init.BaudRate = 115200;
 487:Core/Src/main.c ****   huart2.Init.WordLength = UART_WORDLENGTH_8B;
ARM GAS  C:\Users\kroko\AppData\Local\Temp\ccOkN8ni.s 			page 10


 488:Core/Src/main.c ****   huart2.Init.StopBits = UART_STOPBITS_1;
 489:Core/Src/main.c ****   huart2.Init.Parity = UART_PARITY_NONE;
 490:Core/Src/main.c ****   huart2.Init.Mode = UART_MODE_TX_RX;
 491:Core/Src/main.c ****   huart2.Init.HwFlowCtl = UART_HWCONTROL_NONE;
 492:Core/Src/main.c ****   huart2.Init.OverSampling = UART_OVERSAMPLING_16;
 493:Core/Src/main.c ****   huart2.Init.OneBitSampling = UART_ONE_BIT_SAMPLE_DISABLE;
 494:Core/Src/main.c ****   huart2.AdvancedInit.AdvFeatureInit = UART_ADVFEATURE_NO_INIT;
 495:Core/Src/main.c ****   if (HAL_HalfDuplex_Init(&huart2) != HAL_OK)
 496:Core/Src/main.c ****   {
 497:Core/Src/main.c ****     Error_Handler();
 498:Core/Src/main.c ****   }
 499:Core/Src/main.c ****   /* USER CODE BEGIN USART2_Init 2 */
 500:Core/Src/main.c **** 
 501:Core/Src/main.c ****   /* USER CODE END USART2_Init 2 */
 502:Core/Src/main.c **** 
 503:Core/Src/main.c **** }
 504:Core/Src/main.c **** 
 505:Core/Src/main.c **** /**
 506:Core/Src/main.c ****   * Enable DMA controller clock
 507:Core/Src/main.c ****   */
 508:Core/Src/main.c **** static void MX_DMA_Init(void)
 509:Core/Src/main.c **** {
 510:Core/Src/main.c **** 
 511:Core/Src/main.c ****   /* DMA controller clock enable */
 512:Core/Src/main.c ****   __HAL_RCC_DMA1_CLK_ENABLE();
 513:Core/Src/main.c **** 
 514:Core/Src/main.c ****   /* DMA interrupt init */
 515:Core/Src/main.c ****   /* DMA1_Channel1_IRQn interrupt configuration */
 516:Core/Src/main.c ****   HAL_NVIC_SetPriority(DMA1_Channel1_IRQn, 0, 0);
 517:Core/Src/main.c ****   HAL_NVIC_EnableIRQ(DMA1_Channel1_IRQn);
 518:Core/Src/main.c **** 
 519:Core/Src/main.c **** }
 520:Core/Src/main.c **** 
 521:Core/Src/main.c **** /**
 522:Core/Src/main.c ****   * @brief GPIO Initialization Function
 523:Core/Src/main.c ****   * @param None
 524:Core/Src/main.c ****   * @retval None
 525:Core/Src/main.c ****   */
 526:Core/Src/main.c **** static void MX_GPIO_Init(void)
 527:Core/Src/main.c **** {
  28              		.loc 1 527 1 view -0
  29              		.cfi_startproc
  30              		@ args = 0, pretend = 0, frame = 40
  31              		@ frame_needed = 0, uses_anonymous_args = 0
  32 0000 2DE9F047 		push	{r4, r5, r6, r7, r8, r9, r10, lr}
  33              		.cfi_def_cfa_offset 32
  34              		.cfi_offset 4, -32
  35              		.cfi_offset 5, -28
  36              		.cfi_offset 6, -24
  37              		.cfi_offset 7, -20
  38              		.cfi_offset 8, -16
  39              		.cfi_offset 9, -12
  40              		.cfi_offset 10, -8
  41              		.cfi_offset 14, -4
  42 0004 8AB0     		sub	sp, sp, #40
  43              		.cfi_def_cfa_offset 72
 528:Core/Src/main.c ****   GPIO_InitTypeDef GPIO_InitStruct = {0};
ARM GAS  C:\Users\kroko\AppData\Local\Temp\ccOkN8ni.s 			page 11


  44              		.loc 1 528 3 view .LVU1
  45              		.loc 1 528 20 is_stmt 0 view .LVU2
  46 0006 05AD     		add	r5, sp, #20
  47 0008 0024     		movs	r4, #0
  48 000a 0594     		str	r4, [sp, #20]
  49 000c 0694     		str	r4, [sp, #24]
  50 000e 0794     		str	r4, [sp, #28]
  51 0010 0894     		str	r4, [sp, #32]
  52 0012 0994     		str	r4, [sp, #36]
 529:Core/Src/main.c **** /* USER CODE BEGIN MX_GPIO_Init_1 */
 530:Core/Src/main.c **** /* USER CODE END MX_GPIO_Init_1 */
 531:Core/Src/main.c **** 
 532:Core/Src/main.c ****   /* GPIO Ports Clock Enable */
 533:Core/Src/main.c ****   __HAL_RCC_GPIOC_CLK_ENABLE();
  53              		.loc 1 533 3 is_stmt 1 view .LVU3
  54              	.LBB4:
  55              		.loc 1 533 3 view .LVU4
  56              		.loc 1 533 3 view .LVU5
  57 0014 504B     		ldr	r3, .L3
  58 0016 DA6C     		ldr	r2, [r3, #76]
  59 0018 42F00402 		orr	r2, r2, #4
  60 001c DA64     		str	r2, [r3, #76]
  61              		.loc 1 533 3 view .LVU6
  62 001e DA6C     		ldr	r2, [r3, #76]
  63 0020 02F00402 		and	r2, r2, #4
  64 0024 0192     		str	r2, [sp, #4]
  65              		.loc 1 533 3 view .LVU7
  66 0026 019A     		ldr	r2, [sp, #4]
  67              	.LBE4:
  68              		.loc 1 533 3 view .LVU8
 534:Core/Src/main.c ****   __HAL_RCC_GPIOA_CLK_ENABLE();
  69              		.loc 1 534 3 view .LVU9
  70              	.LBB5:
  71              		.loc 1 534 3 view .LVU10
  72              		.loc 1 534 3 view .LVU11
  73 0028 DA6C     		ldr	r2, [r3, #76]
  74 002a 42F00102 		orr	r2, r2, #1
  75 002e DA64     		str	r2, [r3, #76]
  76              		.loc 1 534 3 view .LVU12
  77 0030 DA6C     		ldr	r2, [r3, #76]
  78 0032 02F00102 		and	r2, r2, #1
  79 0036 0292     		str	r2, [sp, #8]
  80              		.loc 1 534 3 view .LVU13
  81 0038 029A     		ldr	r2, [sp, #8]
  82              	.LBE5:
  83              		.loc 1 534 3 view .LVU14
 535:Core/Src/main.c ****   __HAL_RCC_GPIOB_CLK_ENABLE();
  84              		.loc 1 535 3 view .LVU15
  85              	.LBB6:
  86              		.loc 1 535 3 view .LVU16
  87              		.loc 1 535 3 view .LVU17
  88 003a DA6C     		ldr	r2, [r3, #76]
  89 003c 42F00202 		orr	r2, r2, #2
  90 0040 DA64     		str	r2, [r3, #76]
  91              		.loc 1 535 3 view .LVU18
  92 0042 DA6C     		ldr	r2, [r3, #76]
  93 0044 02F00202 		and	r2, r2, #2
ARM GAS  C:\Users\kroko\AppData\Local\Temp\ccOkN8ni.s 			page 12


  94 0048 0392     		str	r2, [sp, #12]
  95              		.loc 1 535 3 view .LVU19
  96 004a 039A     		ldr	r2, [sp, #12]
  97              	.LBE6:
  98              		.loc 1 535 3 view .LVU20
 536:Core/Src/main.c ****   __HAL_RCC_GPIOH_CLK_ENABLE();
  99              		.loc 1 536 3 view .LVU21
 100              	.LBB7:
 101              		.loc 1 536 3 view .LVU22
 102              		.loc 1 536 3 view .LVU23
 103 004c DA6C     		ldr	r2, [r3, #76]
 104 004e 42F08002 		orr	r2, r2, #128
 105 0052 DA64     		str	r2, [r3, #76]
 106              		.loc 1 536 3 view .LVU24
 107 0054 DB6C     		ldr	r3, [r3, #76]
 108 0056 03F08003 		and	r3, r3, #128
 109 005a 0493     		str	r3, [sp, #16]
 110              		.loc 1 536 3 view .LVU25
 111 005c 049B     		ldr	r3, [sp, #16]
 112              	.LBE7:
 113              		.loc 1 536 3 view .LVU26
 537:Core/Src/main.c **** 
 538:Core/Src/main.c ****   /*Configure GPIO pin Output Level */
 539:Core/Src/main.c ****   HAL_GPIO_WritePin(GPIOA, RST_Pin|CS_Pin|DC_Pin, GPIO_PIN_RESET);
 114              		.loc 1 539 3 view .LVU27
 115 005e 2246     		mov	r2, r4
 116 0060 5821     		movs	r1, #88
 117 0062 4FF09040 		mov	r0, #1207959552
 118 0066 FFF7FEFF 		bl	HAL_GPIO_WritePin
 119              	.LVL0:
 540:Core/Src/main.c **** 
 541:Core/Src/main.c ****   /*Configure GPIO pin Output Level */
 542:Core/Src/main.c ****   HAL_GPIO_WritePin(PWR_GPIO_Port, PWR_Pin, GPIO_PIN_RESET);
 120              		.loc 1 542 3 view .LVU28
 121 006a 3C4F     		ldr	r7, .L3+4
 122 006c 2246     		mov	r2, r4
 123 006e 0221     		movs	r1, #2
 124 0070 3846     		mov	r0, r7
 125 0072 FFF7FEFF 		bl	HAL_GPIO_WritePin
 126              	.LVL1:
 543:Core/Src/main.c **** 
 544:Core/Src/main.c ****   /*Configure GPIO pin : OK_Pin */
 545:Core/Src/main.c ****   GPIO_InitStruct.Pin = OK_Pin;
 127              		.loc 1 545 3 view .LVU29
 128              		.loc 1 545 23 is_stmt 0 view .LVU30
 129 0076 0126     		movs	r6, #1
 130 0078 0596     		str	r6, [sp, #20]
 546:Core/Src/main.c ****   GPIO_InitStruct.Mode = GPIO_MODE_IT_RISING;
 131              		.loc 1 546 3 is_stmt 1 view .LVU31
 132              		.loc 1 546 24 is_stmt 0 view .LVU32
 133 007a 4FF4881A 		mov	r10, #1114112
 134 007e CDF818A0 		str	r10, [sp, #24]
 547:Core/Src/main.c ****   GPIO_InitStruct.Pull = GPIO_NOPULL;
 135              		.loc 1 547 3 is_stmt 1 view .LVU33
 136              		.loc 1 547 24 is_stmt 0 view .LVU34
 137 0082 0794     		str	r4, [sp, #28]
 548:Core/Src/main.c ****   HAL_GPIO_Init(OK_GPIO_Port, &GPIO_InitStruct);
ARM GAS  C:\Users\kroko\AppData\Local\Temp\ccOkN8ni.s 			page 13


 138              		.loc 1 548 3 is_stmt 1 view .LVU35
 139 0084 2946     		mov	r1, r5
 140 0086 4FF09040 		mov	r0, #1207959552
 141 008a FFF7FEFF 		bl	HAL_GPIO_Init
 142              	.LVL2:
 549:Core/Src/main.c **** 
 550:Core/Src/main.c ****   /*Configure GPIO pin : RST_Pin */
 551:Core/Src/main.c ****   GPIO_InitStruct.Pin = RST_Pin;
 143              		.loc 1 551 3 view .LVU36
 144              		.loc 1 551 23 is_stmt 0 view .LVU37
 145 008e 4FF00809 		mov	r9, #8
 146 0092 CDF81490 		str	r9, [sp, #20]
 552:Core/Src/main.c ****   GPIO_InitStruct.Mode = GPIO_MODE_OUTPUT_PP;
 147              		.loc 1 552 3 is_stmt 1 view .LVU38
 148              		.loc 1 552 24 is_stmt 0 view .LVU39
 149 0096 0696     		str	r6, [sp, #24]
 553:Core/Src/main.c ****   GPIO_InitStruct.Pull = GPIO_PULLUP;
 150              		.loc 1 553 3 is_stmt 1 view .LVU40
 151              		.loc 1 553 24 is_stmt 0 view .LVU41
 152 0098 0796     		str	r6, [sp, #28]
 554:Core/Src/main.c ****   GPIO_InitStruct.Speed = GPIO_SPEED_FREQ_LOW;
 153              		.loc 1 554 3 is_stmt 1 view .LVU42
 154              		.loc 1 554 25 is_stmt 0 view .LVU43
 155 009a 0894     		str	r4, [sp, #32]
 555:Core/Src/main.c ****   HAL_GPIO_Init(RST_GPIO_Port, &GPIO_InitStruct);
 156              		.loc 1 555 3 is_stmt 1 view .LVU44
 157 009c 2946     		mov	r1, r5
 158 009e 4FF09040 		mov	r0, #1207959552
 159 00a2 FFF7FEFF 		bl	HAL_GPIO_Init
 160              	.LVL3:
 556:Core/Src/main.c **** 
 557:Core/Src/main.c ****   /*Configure GPIO pins : CS_Pin DC_Pin */
 558:Core/Src/main.c ****   GPIO_InitStruct.Pin = CS_Pin|DC_Pin;
 161              		.loc 1 558 3 view .LVU45
 162              		.loc 1 558 23 is_stmt 0 view .LVU46
 163 00a6 5023     		movs	r3, #80
 164 00a8 0593     		str	r3, [sp, #20]
 559:Core/Src/main.c ****   GPIO_InitStruct.Mode = GPIO_MODE_OUTPUT_PP;
 165              		.loc 1 559 3 is_stmt 1 view .LVU47
 166              		.loc 1 559 24 is_stmt 0 view .LVU48
 167 00aa 0696     		str	r6, [sp, #24]
 560:Core/Src/main.c ****   GPIO_InitStruct.Pull = GPIO_NOPULL;
 168              		.loc 1 560 3 is_stmt 1 view .LVU49
 169              		.loc 1 560 24 is_stmt 0 view .LVU50
 170 00ac 0794     		str	r4, [sp, #28]
 561:Core/Src/main.c ****   GPIO_InitStruct.Speed = GPIO_SPEED_FREQ_LOW;
 171              		.loc 1 561 3 is_stmt 1 view .LVU51
 172              		.loc 1 561 25 is_stmt 0 view .LVU52
 173 00ae 0894     		str	r4, [sp, #32]
 562:Core/Src/main.c ****   HAL_GPIO_Init(GPIOA, &GPIO_InitStruct);
 174              		.loc 1 562 3 is_stmt 1 view .LVU53
 175 00b0 2946     		mov	r1, r5
 176 00b2 4FF09040 		mov	r0, #1207959552
 177 00b6 FFF7FEFF 		bl	HAL_GPIO_Init
 178              	.LVL4:
 563:Core/Src/main.c **** 
 564:Core/Src/main.c ****   /*Configure GPIO pins : BUSY_Pin DOWN_Pin UP_Pin */
ARM GAS  C:\Users\kroko\AppData\Local\Temp\ccOkN8ni.s 			page 14


 565:Core/Src/main.c ****   GPIO_InitStruct.Pin = BUSY_Pin|DOWN_Pin|UP_Pin;
 179              		.loc 1 565 3 view .LVU54
 180              		.loc 1 565 23 is_stmt 0 view .LVU55
 181 00ba 4FF44873 		mov	r3, #800
 182 00be 0593     		str	r3, [sp, #20]
 566:Core/Src/main.c ****   GPIO_InitStruct.Mode = GPIO_MODE_INPUT;
 183              		.loc 1 566 3 is_stmt 1 view .LVU56
 184              		.loc 1 566 24 is_stmt 0 view .LVU57
 185 00c0 0694     		str	r4, [sp, #24]
 567:Core/Src/main.c ****   GPIO_InitStruct.Pull = GPIO_NOPULL;
 186              		.loc 1 567 3 is_stmt 1 view .LVU58
 187              		.loc 1 567 24 is_stmt 0 view .LVU59
 188 00c2 0794     		str	r4, [sp, #28]
 568:Core/Src/main.c ****   HAL_GPIO_Init(GPIOA, &GPIO_InitStruct);
 189              		.loc 1 568 3 is_stmt 1 view .LVU60
 190 00c4 2946     		mov	r1, r5
 191 00c6 4FF09040 		mov	r0, #1207959552
 192 00ca FFF7FEFF 		bl	HAL_GPIO_Init
 193              	.LVL5:
 569:Core/Src/main.c **** 
 570:Core/Src/main.c ****   /*Configure GPIO pins : PB0 PB4 PB6 PB7 */
 571:Core/Src/main.c ****   GPIO_InitStruct.Pin = GPIO_PIN_0|GPIO_PIN_4|GPIO_PIN_6|GPIO_PIN_7;
 194              		.loc 1 571 3 view .LVU61
 195              		.loc 1 571 23 is_stmt 0 view .LVU62
 196 00ce D123     		movs	r3, #209
 197 00d0 0593     		str	r3, [sp, #20]
 572:Core/Src/main.c ****   GPIO_InitStruct.Mode = GPIO_MODE_ANALOG;
 198              		.loc 1 572 3 is_stmt 1 view .LVU63
 199              		.loc 1 572 24 is_stmt 0 view .LVU64
 200 00d2 4FF00308 		mov	r8, #3
 201 00d6 CDF81880 		str	r8, [sp, #24]
 573:Core/Src/main.c ****   GPIO_InitStruct.Pull = GPIO_NOPULL;
 202              		.loc 1 573 3 is_stmt 1 view .LVU65
 203              		.loc 1 573 24 is_stmt 0 view .LVU66
 204 00da 0794     		str	r4, [sp, #28]
 574:Core/Src/main.c ****   HAL_GPIO_Init(GPIOB, &GPIO_InitStruct);
 205              		.loc 1 574 3 is_stmt 1 view .LVU67
 206 00dc 2946     		mov	r1, r5
 207 00de 3846     		mov	r0, r7
 208 00e0 FFF7FEFF 		bl	HAL_GPIO_Init
 209              	.LVL6:
 575:Core/Src/main.c **** 
 576:Core/Src/main.c ****   /*Configure GPIO pin : PWR_Pin */
 577:Core/Src/main.c ****   GPIO_InitStruct.Pin = PWR_Pin;
 210              		.loc 1 577 3 view .LVU68
 211              		.loc 1 577 23 is_stmt 0 view .LVU69
 212 00e4 0223     		movs	r3, #2
 213 00e6 0593     		str	r3, [sp, #20]
 578:Core/Src/main.c ****   GPIO_InitStruct.Mode = GPIO_MODE_OUTPUT_PP;
 214              		.loc 1 578 3 is_stmt 1 view .LVU70
 215              		.loc 1 578 24 is_stmt 0 view .LVU71
 216 00e8 0696     		str	r6, [sp, #24]
 579:Core/Src/main.c ****   GPIO_InitStruct.Pull = GPIO_NOPULL;
 217              		.loc 1 579 3 is_stmt 1 view .LVU72
 218              		.loc 1 579 24 is_stmt 0 view .LVU73
 219 00ea 0794     		str	r4, [sp, #28]
 580:Core/Src/main.c ****   GPIO_InitStruct.Speed = GPIO_SPEED_FREQ_LOW;
ARM GAS  C:\Users\kroko\AppData\Local\Temp\ccOkN8ni.s 			page 15


 220              		.loc 1 580 3 is_stmt 1 view .LVU74
 221              		.loc 1 580 25 is_stmt 0 view .LVU75
 222 00ec 0894     		str	r4, [sp, #32]
 581:Core/Src/main.c ****   HAL_GPIO_Init(PWR_GPIO_Port, &GPIO_InitStruct);
 223              		.loc 1 581 3 is_stmt 1 view .LVU76
 224 00ee 2946     		mov	r1, r5
 225 00f0 3846     		mov	r0, r7
 226 00f2 FFF7FEFF 		bl	HAL_GPIO_Init
 227              	.LVL7:
 582:Core/Src/main.c **** 
 583:Core/Src/main.c ****   /*Configure GPIO pins : PA10 PA15 */
 584:Core/Src/main.c ****   GPIO_InitStruct.Pin = GPIO_PIN_10|GPIO_PIN_15;
 228              		.loc 1 584 3 view .LVU77
 229              		.loc 1 584 23 is_stmt 0 view .LVU78
 230 00f6 4FF40443 		mov	r3, #33792
 231 00fa 0593     		str	r3, [sp, #20]
 585:Core/Src/main.c ****   GPIO_InitStruct.Mode = GPIO_MODE_ANALOG;
 232              		.loc 1 585 3 is_stmt 1 view .LVU79
 233              		.loc 1 585 24 is_stmt 0 view .LVU80
 234 00fc CDF81880 		str	r8, [sp, #24]
 586:Core/Src/main.c ****   GPIO_InitStruct.Pull = GPIO_NOPULL;
 235              		.loc 1 586 3 is_stmt 1 view .LVU81
 236              		.loc 1 586 24 is_stmt 0 view .LVU82
 237 0100 0794     		str	r4, [sp, #28]
 587:Core/Src/main.c ****   HAL_GPIO_Init(GPIOA, &GPIO_InitStruct);
 238              		.loc 1 587 3 is_stmt 1 view .LVU83
 239 0102 2946     		mov	r1, r5
 240 0104 4FF09040 		mov	r0, #1207959552
 241 0108 FFF7FEFF 		bl	HAL_GPIO_Init
 242              	.LVL8:
 588:Core/Src/main.c **** 
 589:Core/Src/main.c ****   /*Configure GPIO pin : USB_WKUP_Pin */
 590:Core/Src/main.c ****   GPIO_InitStruct.Pin = USB_WKUP_Pin;
 243              		.loc 1 590 3 view .LVU84
 244              		.loc 1 590 23 is_stmt 0 view .LVU85
 245 010c 2023     		movs	r3, #32
 246 010e 0593     		str	r3, [sp, #20]
 591:Core/Src/main.c ****   GPIO_InitStruct.Mode = GPIO_MODE_IT_RISING;
 247              		.loc 1 591 3 is_stmt 1 view .LVU86
 248              		.loc 1 591 24 is_stmt 0 view .LVU87
 249 0110 CDF818A0 		str	r10, [sp, #24]
 592:Core/Src/main.c ****   GPIO_InitStruct.Pull = GPIO_NOPULL;
 250              		.loc 1 592 3 is_stmt 1 view .LVU88
 251              		.loc 1 592 24 is_stmt 0 view .LVU89
 252 0114 0794     		str	r4, [sp, #28]
 593:Core/Src/main.c ****   HAL_GPIO_Init(USB_WKUP_GPIO_Port, &GPIO_InitStruct);
 253              		.loc 1 593 3 is_stmt 1 view .LVU90
 254 0116 2946     		mov	r1, r5
 255 0118 3846     		mov	r0, r7
 256 011a FFF7FEFF 		bl	HAL_GPIO_Init
 257              	.LVL9:
 594:Core/Src/main.c **** 
 595:Core/Src/main.c ****   /*Configure GPIO pin : PH3 */
 596:Core/Src/main.c ****   GPIO_InitStruct.Pin = GPIO_PIN_3;
 258              		.loc 1 596 3 view .LVU91
 259              		.loc 1 596 23 is_stmt 0 view .LVU92
 260 011e CDF81490 		str	r9, [sp, #20]
ARM GAS  C:\Users\kroko\AppData\Local\Temp\ccOkN8ni.s 			page 16


 597:Core/Src/main.c ****   GPIO_InitStruct.Mode = GPIO_MODE_ANALOG;
 261              		.loc 1 597 3 is_stmt 1 view .LVU93
 262              		.loc 1 597 24 is_stmt 0 view .LVU94
 263 0122 CDF81880 		str	r8, [sp, #24]
 598:Core/Src/main.c ****   GPIO_InitStruct.Pull = GPIO_NOPULL;
 264              		.loc 1 598 3 is_stmt 1 view .LVU95
 265              		.loc 1 598 24 is_stmt 0 view .LVU96
 266 0126 0794     		str	r4, [sp, #28]
 599:Core/Src/main.c ****   HAL_GPIO_Init(GPIOH, &GPIO_InitStruct);
 267              		.loc 1 599 3 is_stmt 1 view .LVU97
 268 0128 2946     		mov	r1, r5
 269 012a 0D48     		ldr	r0, .L3+8
 270 012c FFF7FEFF 		bl	HAL_GPIO_Init
 271              	.LVL10:
 600:Core/Src/main.c **** 
 601:Core/Src/main.c ****   /* EXTI interrupt init*/
 602:Core/Src/main.c ****   HAL_NVIC_SetPriority(EXTI0_IRQn, 0, 0);
 272              		.loc 1 602 3 view .LVU98
 273 0130 2246     		mov	r2, r4
 274 0132 2146     		mov	r1, r4
 275 0134 0620     		movs	r0, #6
 276 0136 FFF7FEFF 		bl	HAL_NVIC_SetPriority
 277              	.LVL11:
 603:Core/Src/main.c ****   HAL_NVIC_EnableIRQ(EXTI0_IRQn);
 278              		.loc 1 603 3 view .LVU99
 279 013a 0620     		movs	r0, #6
 280 013c FFF7FEFF 		bl	HAL_NVIC_EnableIRQ
 281              	.LVL12:
 604:Core/Src/main.c **** 
 605:Core/Src/main.c ****   HAL_NVIC_SetPriority(EXTI9_5_IRQn, 0, 0);
 282              		.loc 1 605 3 view .LVU100
 283 0140 2246     		mov	r2, r4
 284 0142 2146     		mov	r1, r4
 285 0144 1720     		movs	r0, #23
 286 0146 FFF7FEFF 		bl	HAL_NVIC_SetPriority
 287              	.LVL13:
 606:Core/Src/main.c ****   HAL_NVIC_EnableIRQ(EXTI9_5_IRQn);
 288              		.loc 1 606 3 view .LVU101
 289 014a 1720     		movs	r0, #23
 290 014c FFF7FEFF 		bl	HAL_NVIC_EnableIRQ
 291              	.LVL14:
 607:Core/Src/main.c **** 
 608:Core/Src/main.c **** /* USER CODE BEGIN MX_GPIO_Init_2 */
 609:Core/Src/main.c **** /* USER CODE END MX_GPIO_Init_2 */
 610:Core/Src/main.c **** }
 292              		.loc 1 610 1 is_stmt 0 view .LVU102
 293 0150 0AB0     		add	sp, sp, #40
 294              		.cfi_def_cfa_offset 32
 295              		@ sp needed
 296 0152 BDE8F087 		pop	{r4, r5, r6, r7, r8, r9, r10, pc}
 297              	.L4:
 298 0156 00BF     		.align	2
 299              	.L3:
 300 0158 00100240 		.word	1073876992
 301 015c 00040048 		.word	1207960576
 302 0160 001C0048 		.word	1207966720
 303              		.cfi_endproc
ARM GAS  C:\Users\kroko\AppData\Local\Temp\ccOkN8ni.s 			page 17


 304              	.LFE330:
 306              		.section	.text.MX_DMA_Init,"ax",%progbits
 307              		.align	1
 308              		.syntax unified
 309              		.thumb
 310              		.thumb_func
 312              	MX_DMA_Init:
 313              	.LFB329:
 509:Core/Src/main.c **** 
 314              		.loc 1 509 1 is_stmt 1 view -0
 315              		.cfi_startproc
 316              		@ args = 0, pretend = 0, frame = 8
 317              		@ frame_needed = 0, uses_anonymous_args = 0
 318 0000 00B5     		push	{lr}
 319              		.cfi_def_cfa_offset 4
 320              		.cfi_offset 14, -4
 321 0002 83B0     		sub	sp, sp, #12
 322              		.cfi_def_cfa_offset 16
 512:Core/Src/main.c **** 
 323              		.loc 1 512 3 view .LVU104
 324              	.LBB8:
 512:Core/Src/main.c **** 
 325              		.loc 1 512 3 view .LVU105
 512:Core/Src/main.c **** 
 326              		.loc 1 512 3 view .LVU106
 327 0004 0A4B     		ldr	r3, .L7
 328 0006 9A6C     		ldr	r2, [r3, #72]
 329 0008 42F00102 		orr	r2, r2, #1
 330 000c 9A64     		str	r2, [r3, #72]
 512:Core/Src/main.c **** 
 331              		.loc 1 512 3 view .LVU107
 332 000e 9B6C     		ldr	r3, [r3, #72]
 333 0010 03F00103 		and	r3, r3, #1
 334 0014 0193     		str	r3, [sp, #4]
 512:Core/Src/main.c **** 
 335              		.loc 1 512 3 view .LVU108
 336 0016 019B     		ldr	r3, [sp, #4]
 337              	.LBE8:
 512:Core/Src/main.c **** 
 338              		.loc 1 512 3 view .LVU109
 516:Core/Src/main.c ****   HAL_NVIC_EnableIRQ(DMA1_Channel1_IRQn);
 339              		.loc 1 516 3 view .LVU110
 340 0018 0022     		movs	r2, #0
 341 001a 1146     		mov	r1, r2
 342 001c 0B20     		movs	r0, #11
 343 001e FFF7FEFF 		bl	HAL_NVIC_SetPriority
 344              	.LVL15:
 517:Core/Src/main.c **** 
 345              		.loc 1 517 3 view .LVU111
 346 0022 0B20     		movs	r0, #11
 347 0024 FFF7FEFF 		bl	HAL_NVIC_EnableIRQ
 348              	.LVL16:
 519:Core/Src/main.c **** 
 349              		.loc 1 519 1 is_stmt 0 view .LVU112
 350 0028 03B0     		add	sp, sp, #12
 351              		.cfi_def_cfa_offset 4
 352              		@ sp needed
ARM GAS  C:\Users\kroko\AppData\Local\Temp\ccOkN8ni.s 			page 18


 353 002a 5DF804FB 		ldr	pc, [sp], #4
 354              	.L8:
 355 002e 00BF     		.align	2
 356              	.L7:
 357 0030 00100240 		.word	1073876992
 358              		.cfi_endproc
 359              	.LFE329:
 361              		.section	.text.map,"ax",%progbits
 362              		.align	1
 363              		.global	map
 364              		.syntax unified
 365              		.thumb
 366              		.thumb_func
 368              	map:
 369              	.LVL17:
 370              	.LFB332:
 611:Core/Src/main.c **** 
 612:Core/Src/main.c **** /* USER CODE BEGIN 4 */
 613:Core/Src/main.c **** void plot(){
 614:Core/Src/main.c ****   EPD_NewImage(BlackImage, EPD_WIDTH, EPD_HEIGHT, 90, WHITE);  	
 615:Core/Src/main.c ****   EPD_SelectImage(BlackImage);
 616:Core/Src/main.c ****   EPD_Clear(WHITE);
 617:Core/Src/main.c ****   int16_t min = q_get(0);
 618:Core/Src/main.c ****   int16_t max = q_get(0);
 619:Core/Src/main.c **** 
 620:Core/Src/main.c ****   for (uint8_t i = 0; i < q_len(); i++){
 621:Core/Src/main.c ****     if(q_get(i) <= min){
 622:Core/Src/main.c ****       min = q_get(i);
 623:Core/Src/main.c ****     }
 624:Core/Src/main.c ****     if(q_get(i) >= max){
 625:Core/Src/main.c ****       max = q_get(i);
 626:Core/Src/main.c ****     }
 627:Core/Src/main.c ****   }
 628:Core/Src/main.c **** 
 629:Core/Src/main.c ****   if(min == max){
 630:Core/Src/main.c ****     min-=10;
 631:Core/Src/main.c ****     max+=10;
 632:Core/Src/main.c ****   }
 633:Core/Src/main.c **** 
 634:Core/Src/main.c ****   if(min < 0 && max > 0){
 635:Core/Src/main.c ****     EPD_DrawLine(10, map(0, min, max, 110, 22), 250, map(0, min, max, 110, 22), BLACK, DOT_PIXEL_1X
 636:Core/Src/main.c ****   }
 637:Core/Src/main.c **** 
 638:Core/Src/main.c ****   uint16_t dt;
 639:Core/Src/main.c ****   switch (max - min)
 640:Core/Src/main.c ****   {
 641:Core/Src/main.c ****   case 2000 ... 4000:
 642:Core/Src/main.c ****     dt = 1000;
 643:Core/Src/main.c ****     break;
 644:Core/Src/main.c ****   case 800 ... 1999:
 645:Core/Src/main.c ****     dt = 500;
 646:Core/Src/main.c ****     break;
 647:Core/Src/main.c ****   case 400 ... 799:
 648:Core/Src/main.c ****     dt = 200;
 649:Core/Src/main.c ****     break;
 650:Core/Src/main.c ****   case 250 ... 399:
 651:Core/Src/main.c ****     dt = 100;
ARM GAS  C:\Users\kroko\AppData\Local\Temp\ccOkN8ni.s 			page 19


 652:Core/Src/main.c ****     break;
 653:Core/Src/main.c ****   case 100 ... 249:
 654:Core/Src/main.c ****     dt = 50;
 655:Core/Src/main.c ****     break;
 656:Core/Src/main.c ****   case 50 ... 99:
 657:Core/Src/main.c ****     dt = 20;
 658:Core/Src/main.c ****     break;
 659:Core/Src/main.c ****   case 25 ... 49:
 660:Core/Src/main.c ****     dt = 10;
 661:Core/Src/main.c ****     break;
 662:Core/Src/main.c ****   case 0 ... 24:
 663:Core/Src/main.c ****     dt = 5;
 664:Core/Src/main.c ****     break;
 665:Core/Src/main.c ****   default:
 666:Core/Src/main.c ****     dt = 2000;
 667:Core/Src/main.c ****     break;
 668:Core/Src/main.c ****   }
 669:Core/Src/main.c **** 
 670:Core/Src/main.c ****   for (int16_t x = roundUpToDiv(min, dt); x < max+dt; x += dt){
 671:Core/Src/main.c ****     bool st = LINE_STYLE_DOTTED;
 672:Core/Src/main.c ****     if(x == 0){st = LINE_STYLE_SOLID;}
 673:Core/Src/main.c ****     if(x > max && map(x, min, max, 110, 22) < 22){break;}
 674:Core/Src/main.c ****     EPD_DrawLine(10, map(x, min, max, 110, 22), 250, map(x, min, max, 110, 22), BLACK, DOT_PIXEL_1X
 675:Core/Src/main.c ****     char buf[15];
 676:Core/Src/main.c ****     uint8_t ln;
 677:Core/Src/main.c ****     if(x%100 == 0){
 678:Core/Src/main.c ****       ln = sprintf(buf, "%d", x/100);
 679:Core/Src/main.c ****     }
 680:Core/Src/main.c ****     else if(x%10 == 0 && max-min < 100){
 681:Core/Src/main.c ****       uint16_t rounded = (x + 5) / 10;
 682:Core/Src/main.c ****       uint8_t int_part = rounded / 10;
 683:Core/Src/main.c ****       uint8_t frac_part = rounded % 10;
 684:Core/Src/main.c ****       ln = sprintf(buf, "%d.%d", int_part, frac_part);
 685:Core/Src/main.c ****     }else if(x%5 == 0 && max-min < 10){
 686:Core/Src/main.c ****       uint8_t int_part = x / 100;
 687:Core/Src/main.c ****       uint8_t frac_part = x % 100;
 688:Core/Src/main.c ****       ln = sprintf(buf, "%d.%d", int_part, frac_part);
 689:Core/Src/main.c ****     }
 690:Core/Src/main.c ****     else{continue;}
 691:Core/Src/main.c ****     
 692:Core/Src/main.c ****     EPD_SetRotate(0);
 693:Core/Src/main.c ****     EPD_DrawString_EN(map(x, min, max, 2, 88)+8-(2*ln), 0,  buf, &Font8, WHITE, BLACK);
 694:Core/Src/main.c ****     EPD_SetRotate(90);
 695:Core/Src/main.c ****   }
 696:Core/Src/main.c **** 
 697:Core/Src/main.c ****   // Plot graf
 698:Core/Src/main.c ****   uint32_t timestamp = HAL_RTCEx_BKUPRead(&hrtc, RTC_BKP_DR5);
 699:Core/Src/main.c ****   for (uint8_t i = 0; i < q_len(); i++){
 700:Core/Src/main.c ****     EPD_DrawLine(10+(i*5), map(q_get(i), min, max, 110, 22), 10+((i+1)*5), map(q_get(i+1), min, max
 701:Core/Src/main.c ****   }
 702:Core/Src/main.c ****   
 703:Core/Src/main.c ****   for (int8_t i = q_len(); i > 0; i-=8){
 704:Core/Src/main.c ****     if(i == q_len()){continue;}
 705:Core/Src/main.c ****     EPD_DrawLine(10+(i*5), 20, 10+(i*5), 112, BLACK, DOT_PIXEL_1X1, LINE_STYLE_DOTTED);
 706:Core/Src/main.c ****     uint32_t this_time = timestamp - 1800*(q_len()-i-1);
 707:Core/Src/main.c ****     // struct tm  ts;
 708:Core/Src/main.c ****     // ts = *localtime((time_t*) &this_time);
ARM GAS  C:\Users\kroko\AppData\Local\Temp\ccOkN8ni.s 			page 20


 709:Core/Src/main.c ****     // char t_buf[15];
 710:Core/Src/main.c ****     // sprintf(t_buf, "%.2d:%.2d", ts.tm_hour, ts.tm_min); 
 711:Core/Src/main.c ****     // EPD_DrawString_EN(10+(i*5), 114, t_buf, &Font8, WHITE, BLACK);
 712:Core/Src/main.c **** 
 713:Core/Src/main.c ****     char timest_buf[15];
 714:Core/Src/main.c ****     // sprintf(timest_buf, "%d", this_time-1740000000);
 715:Core/Src/main.c ****     // EPD_DrawString_EN(10+(i*5), 114, timest_buf, &Font8, WHITE, BLACK);
 716:Core/Src/main.c **** 
 717:Core/Src/main.c ****     uint8_t hours, minutes;
 718:Core/Src/main.c ****     timestamp_to_time(this_time, &hours, &minutes);
 719:Core/Src/main.c ****     sprintf(timest_buf, "%d:%d", hours, minutes);
 720:Core/Src/main.c ****     EPD_DrawString_EN(10+(i*5), 114, timest_buf, &Font8, WHITE, BLACK);
 721:Core/Src/main.c ****   }
 722:Core/Src/main.c **** 
 723:Core/Src/main.c ****   char buf[12];
 724:Core/Src/main.c ****   if(dt < 100 && dt >= 10){
 725:Core/Src/main.c ****     sprintf(buf, "%d.%d*C/div", dt/100, dt-(dt/100));
 726:Core/Src/main.c ****   }else if(dt < 10){
 727:Core/Src/main.c ****     sprintf(buf, "%d.0%d*C/div", dt/100, dt-(dt/100));
 728:Core/Src/main.c ****   }else{
 729:Core/Src/main.c ****     sprintf(buf, "%d*C/div", dt/100);
 730:Core/Src/main.c ****   }
 731:Core/Src/main.c ****   EPD_DrawString_EN(0, 0, buf, &Font12, WHITE, BLACK);
 732:Core/Src/main.c **** 
 733:Core/Src/main.c ****   mcuVoltage = 0xFFF * 1.18 / adcData;
 734:Core/Src/main.c **** 
 735:Core/Src/main.c ****   // char v_buf[20];
 736:Core/Src/main.c ****   // sprintf(v_buf, "%d %d", (uint32_t)(mcuVoltage*100), adcData);
 737:Core/Src/main.c ****   // EPD_DrawString_EN(80, 0, v_buf, &Font12, WHITE, BLACK);
 738:Core/Src/main.c ****   if(mcuVoltage < 2.25){
 739:Core/Src/main.c ****     EPD_SetRotate(0);
 740:Core/Src/main.c ****     EPD_DrawBMP(107, 95, 16, 26, dead_batt_26x16);
 741:Core/Src/main.c ****     EPD_SetRotate(90);
 742:Core/Src/main.c ****   }
 743:Core/Src/main.c **** 
 744:Core/Src/main.c **** 
 745:Core/Src/main.c ****   EPD_DrawLine(10, 112, 250, 112, BLACK, DOT_PIXEL_1X1, LINE_STYLE_SOLID);
 746:Core/Src/main.c ****   EPD_DrawLine(10, 20, 10, 112, BLACK, DOT_PIXEL_1X1, LINE_STYLE_SOLID);
 747:Core/Src/main.c **** 
 748:Core/Src/main.c ****   RTC_TimeTypeDef sTime = {0};
 749:Core/Src/main.c ****   RTC_DateTypeDef sDate = {0};
 750:Core/Src/main.c **** 
 751:Core/Src/main.c ****   HAL_RTC_GetTime(&hrtc, &sTime, RTC_FORMAT_BIN);
 752:Core/Src/main.c ****   HAL_RTC_GetDate(&hrtc, &sDate, RTC_FORMAT_BIN);
 753:Core/Src/main.c **** 
 754:Core/Src/main.c ****   EPD_TIME time;
 755:Core/Src/main.c ****   time.Day = sDate.Date;
 756:Core/Src/main.c ****   time.Month = sDate.Month;
 757:Core/Src/main.c ****   time.Year = sDate.Year;
 758:Core/Src/main.c ****   EPD_DrawDate(175, 0, &time, &Font16, WHITE, BLACK);
 759:Core/Src/main.c **** 
 760:Core/Src/main.c ****   //
 761:Core/Src/main.c ****   // char timest_buf[15];
 762:Core/Src/main.c ****   // sprintf(timest_buf, "%d",  UDISK_get(0));
 763:Core/Src/main.c ****   // EPD_DrawString_EN(85, 35, rtc_buf, &Font12, WHITE, BLACK);
 764:Core/Src/main.c ****   //
 765:Core/Src/main.c ****   char temp_buf[10];
ARM GAS  C:\Users\kroko\AppData\Local\Temp\ccOkN8ni.s 			page 21


 766:Core/Src/main.c ****   sprintf(temp_buf, "%d.%dC", q_get(q_len()-1)/100, q_get(q_len()-1)%100);
 767:Core/Src/main.c ****   EPD_DrawString_EN(85, 0, temp_buf, &Font16, WHITE, BLACK);
 768:Core/Src/main.c ****   
 769:Core/Src/main.c ****   EPD_Display_Base(BlackImage);
 770:Core/Src/main.c ****   HAL_Delay(100);
 771:Core/Src/main.c **** }
 772:Core/Src/main.c **** 
 773:Core/Src/main.c **** long map(long x, long in_min, long in_max, long out_min, long out_max) {
 371              		.loc 1 773 72 is_stmt 1 view -0
 372              		.cfi_startproc
 373              		@ args = 4, pretend = 0, frame = 0
 374              		@ frame_needed = 0, uses_anonymous_args = 0
 375              		@ link register save eliminated.
 376              		.loc 1 773 72 is_stmt 0 view .LVU114
 377 0000 10B4     		push	{r4}
 378              		.cfi_def_cfa_offset 4
 379              		.cfi_offset 4, -4
 774:Core/Src/main.c ****   if(in_min == in_max){
 380              		.loc 1 774 3 is_stmt 1 view .LVU115
 381              		.loc 1 774 5 is_stmt 0 view .LVU116
 382 0002 9142     		cmp	r1, r2
 383 0004 0CD0     		beq	.L13
 775:Core/Src/main.c ****     return (out_max+out_min)/2;
 776:Core/Src/main.c ****   }
 777:Core/Src/main.c ****   return (x - in_min) * (out_max - out_min) / (in_max - in_min) + out_min;
 384              		.loc 1 777 3 is_stmt 1 view .LVU117
 385              		.loc 1 777 13 is_stmt 0 view .LVU118
 386 0006 401A     		subs	r0, r0, r1
 387              	.LVL18:
 388              		.loc 1 777 34 view .LVU119
 389 0008 019C     		ldr	r4, [sp, #4]
 390 000a A4EB030C 		sub	ip, r4, r3
 391              		.loc 1 777 23 view .LVU120
 392 000e 0CFB00F0 		mul	r0, ip, r0
 393              		.loc 1 777 55 view .LVU121
 394 0012 521A     		subs	r2, r2, r1
 395              	.LVL19:
 396              		.loc 1 777 45 view .LVU122
 397 0014 90FBF2F0 		sdiv	r0, r0, r2
 398              		.loc 1 777 65 view .LVU123
 399 0018 1844     		add	r0, r0, r3
 400              	.LVL20:
 401              	.L9:
 778:Core/Src/main.c **** }
 402              		.loc 1 778 1 view .LVU124
 403 001a 5DF8044B 		ldr	r4, [sp], #4
 404              		.cfi_remember_state
 405              		.cfi_restore 4
 406              		.cfi_def_cfa_offset 0
 407              	.LVL21:
 408              		.loc 1 778 1 view .LVU125
 409 001e 7047     		bx	lr
 410              	.LVL22:
 411              	.L13:
 412              		.cfi_restore_state
 775:Core/Src/main.c ****     return (out_max+out_min)/2;
 413              		.loc 1 775 5 is_stmt 1 view .LVU126
ARM GAS  C:\Users\kroko\AppData\Local\Temp\ccOkN8ni.s 			page 22


 775:Core/Src/main.c ****     return (out_max+out_min)/2;
 414              		.loc 1 775 20 is_stmt 0 view .LVU127
 415 0020 019A     		ldr	r2, [sp, #4]
 416              	.LVL23:
 775:Core/Src/main.c ****     return (out_max+out_min)/2;
 417              		.loc 1 775 20 view .LVU128
 418 0022 1344     		add	r3, r3, r2
 419              	.LVL24:
 775:Core/Src/main.c ****     return (out_max+out_min)/2;
 420              		.loc 1 775 29 view .LVU129
 421 0024 03EBD373 		add	r3, r3, r3, lsr #31
 422 0028 5810     		asrs	r0, r3, #1
 423              	.LVL25:
 775:Core/Src/main.c ****     return (out_max+out_min)/2;
 424              		.loc 1 775 29 view .LVU130
 425 002a F6E7     		b	.L9
 426              		.cfi_endproc
 427              	.LFE332:
 429              		.section	.text.shutdown,"ax",%progbits
 430              		.align	1
 431              		.global	shutdown
 432              		.syntax unified
 433              		.thumb
 434              		.thumb_func
 436              	shutdown:
 437              	.LVL26:
 438              	.LFB333:
 779:Core/Src/main.c **** 
 780:Core/Src/main.c **** void shutdown(bool skipRTC){
 439              		.loc 1 780 28 is_stmt 1 view -0
 440              		.cfi_startproc
 441              		@ args = 0, pretend = 0, frame = 24
 442              		@ frame_needed = 0, uses_anonymous_args = 0
 443              		.loc 1 780 28 is_stmt 0 view .LVU132
 444 0000 00B5     		push	{lr}
 445              		.cfi_def_cfa_offset 4
 446              		.cfi_offset 14, -4
 447 0002 87B0     		sub	sp, sp, #28
 448              		.cfi_def_cfa_offset 32
 781:Core/Src/main.c ****   EPD_Sleep();
 449              		.loc 1 781 3 is_stmt 1 view .LVU133
 450 0004 FFF7FEFF 		bl	EPD_Sleep
 451              	.LVL27:
 782:Core/Src/main.c ****   EPD_Exit();
 452              		.loc 1 782 3 view .LVU134
 453 0008 FFF7FEFF 		bl	EPD_Exit
 454              	.LVL28:
 783:Core/Src/main.c **** 
 784:Core/Src/main.c ****   __HAL_RCC_SPI1_CLK_DISABLE();
 455              		.loc 1 784 3 view .LVU135
 456 000c 124A     		ldr	r2, .L16
 457 000e 136E     		ldr	r3, [r2, #96]
 458 0010 23F48053 		bic	r3, r3, #4096
 459 0014 1366     		str	r3, [r2, #96]
 785:Core/Src/main.c ****   HAL_SPI_DeInit(&hspi1);
 460              		.loc 1 785 3 view .LVU136
 461 0016 1148     		ldr	r0, .L16+4
ARM GAS  C:\Users\kroko\AppData\Local\Temp\ccOkN8ni.s 			page 23


 462 0018 FFF7FEFF 		bl	HAL_SPI_DeInit
 463              	.LVL29:
 786:Core/Src/main.c ****   GPIO_InitTypeDef GPIO_InitStruct = {0};
 464              		.loc 1 786 3 view .LVU137
 465              		.loc 1 786 20 is_stmt 0 view .LVU138
 466 001c 01A9     		add	r1, sp, #4
 467 001e 0023     		movs	r3, #0
 468 0020 0193     		str	r3, [sp, #4]
 469 0022 4B60     		str	r3, [r1, #4]
 470 0024 8B60     		str	r3, [r1, #8]
 471 0026 CB60     		str	r3, [r1, #12]
 472 0028 0B61     		str	r3, [r1, #16]
 787:Core/Src/main.c ****   GPIO_InitStruct.Pin = GPIO_PIN_1 | GPIO_PIN_7 | GPIO_PIN_5 | GPIO_PIN_4 | GPIO_PIN_3 | GPIO_PIN_6
 473              		.loc 1 787 3 is_stmt 1 view .LVU139
 474              		.loc 1 787 23 is_stmt 0 view .LVU140
 475 002a FA23     		movs	r3, #250
 476 002c 0193     		str	r3, [sp, #4]
 788:Core/Src/main.c ****   GPIO_InitStruct.Mode = GPIO_MODE_ANALOG;
 477              		.loc 1 788 3 is_stmt 1 view .LVU141
 478              		.loc 1 788 24 is_stmt 0 view .LVU142
 479 002e 0323     		movs	r3, #3
 480 0030 0293     		str	r3, [sp, #8]
 789:Core/Src/main.c ****   GPIO_InitStruct.Pull = GPIO_NOPULL;
 481              		.loc 1 789 3 is_stmt 1 view .LVU143
 790:Core/Src/main.c ****   HAL_GPIO_Init(GPIOA, &GPIO_InitStruct);
 482              		.loc 1 790 3 view .LVU144
 483 0032 4FF09040 		mov	r0, #1207959552
 484 0036 FFF7FEFF 		bl	HAL_GPIO_Init
 485              	.LVL30:
 791:Core/Src/main.c **** 
 792:Core/Src/main.c ****   HAL_SuspendTick();
 486              		.loc 1 792 3 view .LVU145
 487 003a FFF7FEFF 		bl	HAL_SuspendTick
 488              	.LVL31:
 793:Core/Src/main.c ****   HAL_NVIC_DisableIRQ(SysTick_IRQn);
 489              		.loc 1 793 3 view .LVU146
 490 003e 4FF0FF30 		mov	r0, #-1
 491 0042 FFF7FEFF 		bl	HAL_NVIC_DisableIRQ
 492              	.LVL32:
 794:Core/Src/main.c ****   // uint32_t sleep_time = MEASURMENTS_DELTA_SEC;
 795:Core/Src/main.c ****   // if(skipRTC && ((RTC->CR & RTC_CR_WUTE) != 0)){
 796:Core/Src/main.c ****   //   sleep_time = HAL_RTCEx_GetWakeUpTimer(&hrtc);
 797:Core/Src/main.c ****   // }
 798:Core/Src/main.c ****   // HAL_RTCEx_SetWakeUpTimer_IT(&hrtc, sleep_time, RTC_WAKEUPCLOCK_CK_SPRE_16BITS, 0);
 799:Core/Src/main.c ****   HAL_PWREx_EnableLowPowerRunMode();
 493              		.loc 1 799 3 view .LVU147
 494 0046 FFF7FEFF 		bl	HAL_PWREx_EnableLowPowerRunMode
 495              	.LVL33:
 800:Core/Src/main.c ****   HAL_PWREx_EnterSTOP2Mode(PWR_STOPENTRY_WFI);
 496              		.loc 1 800 3 view .LVU148
 497 004a 0120     		movs	r0, #1
 498 004c FFF7FEFF 		bl	HAL_PWREx_EnterSTOP2Mode
 499              	.LVL34:
 801:Core/Src/main.c **** }
 500              		.loc 1 801 1 is_stmt 0 view .LVU149
 501 0050 07B0     		add	sp, sp, #28
 502              		.cfi_def_cfa_offset 4
ARM GAS  C:\Users\kroko\AppData\Local\Temp\ccOkN8ni.s 			page 24


 503              		@ sp needed
 504 0052 5DF804FB 		ldr	pc, [sp], #4
 505              	.L17:
 506 0056 00BF     		.align	2
 507              	.L16:
 508 0058 00100240 		.word	1073876992
 509 005c 00000000 		.word	hspi1
 510              		.cfi_endproc
 511              	.LFE333:
 513              		.section	.text.DS18_INIT,"ax",%progbits
 514              		.align	1
 515              		.global	DS18_INIT
 516              		.syntax unified
 517              		.thumb
 518              		.thumb_func
 520              	DS18_INIT:
 521              	.LFB335:
 802:Core/Src/main.c **** 
 803:Core/Src/main.c **** void power_on(void){
 804:Core/Src/main.c ****   // HAL_RTCEx_DeactivateWakeUpTimer(&hrtc);
 805:Core/Src/main.c ****   HAL_ResumeTick();
 806:Core/Src/main.c ****   SystemClock_Config();
 807:Core/Src/main.c ****   MX_GPIO_Init();
 808:Core/Src/main.c ****   MX_SPI1_Init();
 809:Core/Src/main.c ****   MX_USB_DEVICE_Init();
 810:Core/Src/main.c ****   EPD_Init();
 811:Core/Src/main.c **** }
 812:Core/Src/main.c **** 
 813:Core/Src/main.c **** void DS18_INIT(){
 522              		.loc 1 813 17 is_stmt 1 view -0
 523              		.cfi_startproc
 524              		@ args = 0, pretend = 0, frame = 8
 525              		@ frame_needed = 0, uses_anonymous_args = 0
 526 0000 10B5     		push	{r4, lr}
 527              		.cfi_def_cfa_offset 8
 528              		.cfi_offset 4, -8
 529              		.cfi_offset 14, -4
 530 0002 82B0     		sub	sp, sp, #8
 531              		.cfi_def_cfa_offset 16
 814:Core/Src/main.c ****   DS18B20_Init(&temperatureSensor, &huart2);
 532              		.loc 1 814 3 view .LVU151
 533 0004 114C     		ldr	r4, .L20
 534 0006 1249     		ldr	r1, .L20+4
 535 0008 2046     		mov	r0, r4
 536 000a FFF7FEFF 		bl	DS18B20_Init
 537              	.LVL35:
 815:Core/Src/main.c ****   DS18B20_InitializationCommand(&temperatureSensor);
 538              		.loc 1 815 3 view .LVU152
 539 000e 2046     		mov	r0, r4
 540 0010 FFF7FEFF 		bl	DS18B20_InitializationCommand
 541              	.LVL36:
 816:Core/Src/main.c ****   DS18B20_ReadRom(&temperatureSensor);
 542              		.loc 1 816 3 view .LVU153
 543 0014 2046     		mov	r0, r4
 544 0016 FFF7FEFF 		bl	DS18B20_ReadRom
 545              	.LVL37:
 817:Core/Src/main.c ****   DS18B20_ReadScratchpad(&temperatureSensor);
ARM GAS  C:\Users\kroko\AppData\Local\Temp\ccOkN8ni.s 			page 25


 546              		.loc 1 817 3 view .LVU154
 547 001a 2046     		mov	r0, r4
 548 001c FFF7FEFF 		bl	DS18B20_ReadScratchpad
 549              	.LVL38:
 818:Core/Src/main.c ****   uint8_t settings[3];
 550              		.loc 1 818 3 view .LVU155
 819:Core/Src/main.c ****   settings[0] = temperatureSensor.temperatureLimitHigh;
 551              		.loc 1 819 3 view .LVU156
 552              		.loc 1 819 34 is_stmt 0 view .LVU157
 553 0020 E37B     		ldrb	r3, [r4, #15]	@ zero_extendqisi2
 554              		.loc 1 819 15 view .LVU158
 555 0022 8DF80430 		strb	r3, [sp, #4]
 820:Core/Src/main.c ****   settings[1] = temperatureSensor.temperatureLimitLow;
 556              		.loc 1 820 3 is_stmt 1 view .LVU159
 557              		.loc 1 820 34 is_stmt 0 view .LVU160
 558 0026 A37B     		ldrb	r3, [r4, #14]	@ zero_extendqisi2
 559              		.loc 1 820 15 view .LVU161
 560 0028 8DF80530 		strb	r3, [sp, #5]
 821:Core/Src/main.c ****   settings[2] = DS18B20_12_BITS_CONFIG;
 561              		.loc 1 821 3 is_stmt 1 view .LVU162
 562              		.loc 1 821 15 is_stmt 0 view .LVU163
 563 002c 7F23     		movs	r3, #127
 564 002e 8DF80630 		strb	r3, [sp, #6]
 822:Core/Src/main.c ****   DS18B20_InitializationCommand(&temperatureSensor);
 565              		.loc 1 822 3 is_stmt 1 view .LVU164
 566 0032 2046     		mov	r0, r4
 567 0034 FFF7FEFF 		bl	DS18B20_InitializationCommand
 568              	.LVL39:
 823:Core/Src/main.c ****   DS18B20_SkipRom(&temperatureSensor);
 569              		.loc 1 823 3 view .LVU165
 570 0038 2046     		mov	r0, r4
 571 003a FFF7FEFF 		bl	DS18B20_SkipRom
 572              	.LVL40:
 824:Core/Src/main.c ****   DS18B20_WriteScratchpad(&temperatureSensor, settings);
 573              		.loc 1 824 3 view .LVU166
 574 003e 01A9     		add	r1, sp, #4
 575 0040 2046     		mov	r0, r4
 576 0042 FFF7FEFF 		bl	DS18B20_WriteScratchpad
 577              	.LVL41:
 825:Core/Src/main.c **** }
 578              		.loc 1 825 1 is_stmt 0 view .LVU167
 579 0046 02B0     		add	sp, sp, #8
 580              		.cfi_def_cfa_offset 8
 581              		@ sp needed
 582 0048 10BD     		pop	{r4, pc}
 583              	.L21:
 584 004a 00BF     		.align	2
 585              	.L20:
 586 004c 00000000 		.word	temperatureSensor
 587 0050 00000000 		.word	huart2
 588              		.cfi_endproc
 589              	.LFE335:
 591              		.section	.text.DS18_GET,"ax",%progbits
 592              		.align	1
 593              		.global	DS18_GET
 594              		.syntax unified
 595              		.thumb
ARM GAS  C:\Users\kroko\AppData\Local\Temp\ccOkN8ni.s 			page 26


 596              		.thumb_func
 598              	DS18_GET:
 599              	.LFB336:
 826:Core/Src/main.c **** 
 827:Core/Src/main.c **** float DS18_GET(){
 600              		.loc 1 827 17 is_stmt 1 view -0
 601              		.cfi_startproc
 602              		@ args = 0, pretend = 0, frame = 0
 603              		@ frame_needed = 0, uses_anonymous_args = 0
 604 0000 10B5     		push	{r4, lr}
 605              		.cfi_def_cfa_offset 8
 606              		.cfi_offset 4, -8
 607              		.cfi_offset 14, -4
 828:Core/Src/main.c **** 	DS18B20_InitializationCommand(&temperatureSensor);
 608              		.loc 1 828 2 view .LVU169
 609 0002 0B4C     		ldr	r4, .L24
 610 0004 2046     		mov	r0, r4
 611 0006 FFF7FEFF 		bl	DS18B20_InitializationCommand
 612              	.LVL42:
 829:Core/Src/main.c **** 	DS18B20_SkipRom(&temperatureSensor);
 613              		.loc 1 829 2 view .LVU170
 614 000a 2046     		mov	r0, r4
 615 000c FFF7FEFF 		bl	DS18B20_SkipRom
 616              	.LVL43:
 830:Core/Src/main.c **** 	DS18B20_ConvertT(&temperatureSensor, DS18B20_DATA);
 617              		.loc 1 830 2 view .LVU171
 618 0010 0121     		movs	r1, #1
 619 0012 2046     		mov	r0, r4
 620 0014 FFF7FEFF 		bl	DS18B20_ConvertT
 621              	.LVL44:
 831:Core/Src/main.c **** 	DS18B20_InitializationCommand(&temperatureSensor);
 622              		.loc 1 831 2 view .LVU172
 623 0018 2046     		mov	r0, r4
 624 001a FFF7FEFF 		bl	DS18B20_InitializationCommand
 625              	.LVL45:
 832:Core/Src/main.c **** 	DS18B20_SkipRom(&temperatureSensor);
 626              		.loc 1 832 2 view .LVU173
 627 001e 2046     		mov	r0, r4
 628 0020 FFF7FEFF 		bl	DS18B20_SkipRom
 629              	.LVL46:
 833:Core/Src/main.c **** 	DS18B20_ReadScratchpad(&temperatureSensor);
 630              		.loc 1 833 2 view .LVU174
 631 0024 2046     		mov	r0, r4
 632 0026 FFF7FEFF 		bl	DS18B20_ReadScratchpad
 633              	.LVL47:
 834:Core/Src/main.c **** 	return temperatureSensor.temperature;
 634              		.loc 1 834 2 view .LVU175
 835:Core/Src/main.c **** }
 635              		.loc 1 835 1 is_stmt 0 view .LVU176
 636 002a 94ED050A 		vldr.32	s0, [r4, #20]
 637 002e 10BD     		pop	{r4, pc}
 638              	.L25:
 639              		.align	2
 640              	.L24:
 641 0030 00000000 		.word	temperatureSensor
 642              		.cfi_endproc
 643              	.LFE336:
ARM GAS  C:\Users\kroko\AppData\Local\Temp\ccOkN8ni.s 			page 27


 645              		.section	.rodata.set_time.str1.4,"aMS",%progbits,1
 646              		.align	2
 647              	.LC0:
 648 0000 630C1F17 		.ascii	"c\014\037\027;\000"
 648      3B00
 649              		.section	.text.set_time,"ax",%progbits
 650              		.align	1
 651              		.global	set_time
 652              		.syntax unified
 653              		.thumb
 654              		.thumb_func
 656              	set_time:
 657              	.LFB337:
 836:Core/Src/main.c **** 
 837:Core/Src/main.c **** void set_time(){
 658              		.loc 1 837 16 is_stmt 1 view -0
 659              		.cfi_startproc
 660              		@ args = 0, pretend = 0, frame = 112
 661              		@ frame_needed = 0, uses_anonymous_args = 0
 662 0000 2DE9F041 		push	{r4, r5, r6, r7, r8, lr}
 663              		.cfi_def_cfa_offset 24
 664              		.cfi_offset 4, -24
 665              		.cfi_offset 5, -20
 666              		.cfi_offset 6, -16
 667              		.cfi_offset 7, -12
 668              		.cfi_offset 8, -8
 669              		.cfi_offset 14, -4
 670 0004 9CB0     		sub	sp, sp, #112
 671              		.cfi_def_cfa_offset 136
 838:Core/Src/main.c ****   bool flag = true; // true ONLY FOR DEBUG!!!
 672              		.loc 1 838 3 view .LVU178
 673              	.LVL48:
 839:Core/Src/main.c ****   Button bt_ok = {GPIOA, GPIO_PIN_0, TYPE_LOW_PULL};
 674              		.loc 1 839 3 view .LVU179
 675              		.loc 1 839 10 is_stmt 0 view .LVU180
 676 0006 17AF     		add	r7, sp, #92
 677 0008 0024     		movs	r4, #0
 678 000a 1794     		str	r4, [sp, #92]
 679 000c 1894     		str	r4, [sp, #96]
 680 000e 1994     		str	r4, [sp, #100]
 681 0010 1A94     		str	r4, [sp, #104]
 682 0012 1B94     		str	r4, [sp, #108]
 683 0014 4FF09043 		mov	r3, #1207959552
 684 0018 1793     		str	r3, [sp, #92]
 685 001a 4FF00108 		mov	r8, #1
 686 001e ADF86080 		strh	r8, [sp, #96]	@ movhi
 840:Core/Src/main.c ****   Button bt_down = {GPIOA, GPIO_PIN_8, TYPE_LOW_PULL};
 687              		.loc 1 840 3 is_stmt 1 view .LVU181
 688              		.loc 1 840 10 is_stmt 0 view .LVU182
 689 0022 12AE     		add	r6, sp, #72
 690 0024 1294     		str	r4, [sp, #72]
 691 0026 1394     		str	r4, [sp, #76]
 692 0028 1494     		str	r4, [sp, #80]
 693 002a 1594     		str	r4, [sp, #84]
 694 002c 1694     		str	r4, [sp, #88]
 695 002e 1293     		str	r3, [sp, #72]
 696 0030 4FF48072 		mov	r2, #256
ARM GAS  C:\Users\kroko\AppData\Local\Temp\ccOkN8ni.s 			page 28


 697 0034 ADF84C20 		strh	r2, [sp, #76]	@ movhi
 841:Core/Src/main.c ****   Button bt_up = {GPIOA, GPIO_PIN_9, TYPE_LOW_PULL};
 698              		.loc 1 841 3 is_stmt 1 view .LVU183
 699              		.loc 1 841 10 is_stmt 0 view .LVU184
 700 0038 0DAD     		add	r5, sp, #52
 701 003a 0D94     		str	r4, [sp, #52]
 702 003c 0E94     		str	r4, [sp, #56]
 703 003e 0F94     		str	r4, [sp, #60]
 704 0040 1094     		str	r4, [sp, #64]
 705 0042 1194     		str	r4, [sp, #68]
 706 0044 0D93     		str	r3, [sp, #52]
 707 0046 4FF40073 		mov	r3, #512
 708 004a ADF83830 		strh	r3, [sp, #56]	@ movhi
 842:Core/Src/main.c **** 
 843:Core/Src/main.c ****   int8_t d_time[5] = {25, 03, 24, 12, 00};
 709              		.loc 1 843 3 is_stmt 1 view .LVU185
 710              		.loc 1 843 10 is_stmt 0 view .LVU186
 711 004e 244B     		ldr	r3, .L28
 712 0050 0B93     		str	r3, [sp, #44]
 713 0052 8DF83040 		strb	r4, [sp, #48]
 844:Core/Src/main.c ****   uint8_t up_lim[5] = {99, 12, 31, 23, 59};
 714              		.loc 1 844 3 is_stmt 1 view .LVU187
 715              		.loc 1 844 11 is_stmt 0 view .LVU188
 716 0056 234B     		ldr	r3, .L28+4
 717 0058 93E80300 		ldm	r3, {r0, r1}
 718 005c 0990     		str	r0, [sp, #36]
 719 005e 8DF82810 		strb	r1, [sp, #40]
 845:Core/Src/main.c ****   uint8_t down_lim[5] = {0, 1, 1, 0, 0};
 720              		.loc 1 845 3 is_stmt 1 view .LVU189
 721              		.loc 1 845 11 is_stmt 0 view .LVU190
 722 0062 214B     		ldr	r3, .L28+8
 723 0064 0793     		str	r3, [sp, #28]
 724 0066 8DF82040 		strb	r4, [sp, #32]
 846:Core/Src/main.c ****   uint8_t edit_ptr = 0;
 725              		.loc 1 846 3 is_stmt 1 view .LVU191
 726              	.LVL49:
 847:Core/Src/main.c **** 
 848:Core/Src/main.c ****   uint32_t upd_tmr = HAL_GetTick();
 727              		.loc 1 848 3 view .LVU192
 728              		.loc 1 848 22 is_stmt 0 view .LVU193
 729 006a FFF7FEFF 		bl	HAL_GetTick
 730              	.LVL50:
 849:Core/Src/main.c ****   bool edited;
 731              		.loc 1 849 3 is_stmt 1 view .LVU194
 850:Core/Src/main.c ****   // FIX THIS
 851:Core/Src/main.c ****   tick(&bt_ok);
 732              		.loc 1 851 3 view .LVU195
 733 006e 3846     		mov	r0, r7
 734 0070 FFF7FEFF 		bl	tick
 735              	.LVL51:
 852:Core/Src/main.c ****   tick(&bt_up);
 736              		.loc 1 852 3 view .LVU196
 737 0074 2846     		mov	r0, r5
 738 0076 FFF7FEFF 		bl	tick
 739              	.LVL52:
 853:Core/Src/main.c ****   tick(&bt_down);
 740              		.loc 1 853 3 view .LVU197
ARM GAS  C:\Users\kroko\AppData\Local\Temp\ccOkN8ni.s 			page 29


 741 007a 3046     		mov	r0, r6
 742 007c FFF7FEFF 		bl	tick
 743              	.LVL53:
 854:Core/Src/main.c ****   isClicked(&bt_ok);
 744              		.loc 1 854 3 view .LVU198
 745 0080 3846     		mov	r0, r7
 746 0082 FFF7FEFF 		bl	isClicked
 747              	.LVL54:
 855:Core/Src/main.c ****   isClicked(&bt_down);
 748              		.loc 1 855 3 view .LVU199
 749 0086 3046     		mov	r0, r6
 750 0088 FFF7FEFF 		bl	isClicked
 751              	.LVL55:
 856:Core/Src/main.c ****   isClicked(&bt_up);
 752              		.loc 1 856 3 view .LVU200
 753 008c 2846     		mov	r0, r5
 754 008e FFF7FEFF 		bl	isClicked
 755              	.LVL56:
 857:Core/Src/main.c ****   /*                 */
 858:Core/Src/main.c ****   while(!flag){
 756              		.loc 1 858 3 view .LVU201
 757              		.loc 1 858 9 view .LVU202
 859:Core/Src/main.c ****     EPD_NewImage(BlackImage, EPD_WIDTH, EPD_HEIGHT, 90, WHITE);  	
 860:Core/Src/main.c ****     EPD_SelectImage(BlackImage);
 861:Core/Src/main.c ****     EPD_Clear(WHITE);
 862:Core/Src/main.c **** 
 863:Core/Src/main.c ****     EPD_TIME datetime;
 864:Core/Src/main.c ****     datetime.Day = d_time[2];
 865:Core/Src/main.c ****     datetime.Month = d_time[1];
 866:Core/Src/main.c ****     datetime.Year = d_time[0];
 867:Core/Src/main.c ****     datetime.Hour = d_time[3];
 868:Core/Src/main.c ****     datetime.Min = d_time[4];
 869:Core/Src/main.c **** 
 870:Core/Src/main.c ****     EPD_DrawDate(64, 32, &datetime, &Font24, WHITE, BLACK);
 871:Core/Src/main.c ****     EPD_DrawTime(86, 64, &datetime, &Font24, WHITE, BLACK);
 872:Core/Src/main.c ****     
 873:Core/Src/main.c ****     if(edit_ptr < 3){
 874:Core/Src/main.c ****       EPD_DrawLine(150-(edit_ptr*42), 52, 150-(edit_ptr*42)+30, 52, BLACK, 2, LINE_STYLE_SOLID);
 875:Core/Src/main.c ****     }else{
 876:Core/Src/main.c ****       EPD_DrawLine(-38+(edit_ptr*42), 84, -38+(edit_ptr*42)+30, 84, BLACK, 2, LINE_STYLE_SOLID);
 877:Core/Src/main.c ****     } 
 878:Core/Src/main.c ****     EPD_Display_Base(BlackImage);
 879:Core/Src/main.c **** 
 880:Core/Src/main.c ****     edited = false;
 881:Core/Src/main.c ****     for(;;){
 882:Core/Src/main.c ****       tick(&bt_ok);
 883:Core/Src/main.c ****       tick(&bt_up);
 884:Core/Src/main.c ****       tick(&bt_down);
 885:Core/Src/main.c ****       if(isClicked(&bt_ok)){
 886:Core/Src/main.c ****         edit_ptr++;
 887:Core/Src/main.c ****         if(edit_ptr == 5){
 888:Core/Src/main.c ****           flag = true;
 889:Core/Src/main.c ****         }
 890:Core/Src/main.c ****         break;
 891:Core/Src/main.c ****       }
 892:Core/Src/main.c ****       if(isClicked(&bt_up)){
 893:Core/Src/main.c ****         d_time[edit_ptr]++;
ARM GAS  C:\Users\kroko\AppData\Local\Temp\ccOkN8ni.s 			page 30


 894:Core/Src/main.c ****         if(d_time[edit_ptr]> up_lim[edit_ptr]){
 895:Core/Src/main.c ****           d_time[edit_ptr] = down_lim[edit_ptr];
 896:Core/Src/main.c ****         }
 897:Core/Src/main.c ****         edited = true;
 898:Core/Src/main.c ****         upd_tmr = HAL_GetTick();
 899:Core/Src/main.c ****       }
 900:Core/Src/main.c ****       if(isClicked(&bt_down)){
 901:Core/Src/main.c ****         d_time[edit_ptr]--;
 902:Core/Src/main.c ****         if(d_time[edit_ptr]< down_lim[edit_ptr]){
 903:Core/Src/main.c ****           d_time[edit_ptr] = up_lim[edit_ptr];
 904:Core/Src/main.c ****         }
 905:Core/Src/main.c ****         edited = true;
 906:Core/Src/main.c ****         upd_tmr = HAL_GetTick();
 907:Core/Src/main.c ****       }
 908:Core/Src/main.c **** 
 909:Core/Src/main.c ****       if(HAL_GetTick() - upd_tmr > 1000 && edited){
 910:Core/Src/main.c ****         break;
 911:Core/Src/main.c ****       }
 912:Core/Src/main.c ****     }
 913:Core/Src/main.c ****   }
 914:Core/Src/main.c ****   RTC_TimeTypeDef sTime = {0};
 758              		.loc 1 914 3 view .LVU203
 759              		.loc 1 914 19 is_stmt 0 view .LVU204
 760 0092 02AD     		add	r5, sp, #8
 761 0094 0294     		str	r4, [sp, #8]
 762 0096 0394     		str	r4, [sp, #12]
 763 0098 0494     		str	r4, [sp, #16]
 764 009a 0594     		str	r4, [sp, #20]
 765 009c 0694     		str	r4, [sp, #24]
 915:Core/Src/main.c ****   RTC_DateTypeDef sDate = {0};
 766              		.loc 1 915 3 is_stmt 1 view .LVU205
 767              		.loc 1 915 19 is_stmt 0 view .LVU206
 768 009e 0194     		str	r4, [sp, #4]
 916:Core/Src/main.c **** 
 917:Core/Src/main.c ****   sTime.Hours = d_time[3];
 769              		.loc 1 917 3 is_stmt 1 view .LVU207
 770              		.loc 1 917 15 is_stmt 0 view .LVU208
 771 00a0 0C23     		movs	r3, #12
 772 00a2 8DF80830 		strb	r3, [sp, #8]
 918:Core/Src/main.c ****   sTime.Minutes = d_time[4];
 773              		.loc 1 918 3 is_stmt 1 view .LVU209
 919:Core/Src/main.c ****   sDate.Year = d_time[0];
 774              		.loc 1 919 3 view .LVU210
 775              		.loc 1 919 14 is_stmt 0 view .LVU211
 776 00a6 1923     		movs	r3, #25
 777 00a8 8DF80730 		strb	r3, [sp, #7]
 920:Core/Src/main.c ****   sDate.Month = d_time[1];
 778              		.loc 1 920 3 is_stmt 1 view .LVU212
 779              		.loc 1 920 15 is_stmt 0 view .LVU213
 780 00ac 0323     		movs	r3, #3
 781 00ae 8DF80530 		strb	r3, [sp, #5]
 921:Core/Src/main.c ****   sDate.Date = d_time[2];
 782              		.loc 1 921 3 is_stmt 1 view .LVU214
 783              		.loc 1 921 14 is_stmt 0 view .LVU215
 784 00b2 1823     		movs	r3, #24
 785 00b4 8DF80630 		strb	r3, [sp, #6]
 922:Core/Src/main.c ****   sDate.WeekDay = RTC_WEEKDAY_MONDAY;
ARM GAS  C:\Users\kroko\AppData\Local\Temp\ccOkN8ni.s 			page 31


 786              		.loc 1 922 3 is_stmt 1 view .LVU216
 787              		.loc 1 922 17 is_stmt 0 view .LVU217
 788 00b8 8DF80480 		strb	r8, [sp, #4]
 923:Core/Src/main.c ****   sTime.DayLightSaving = RTC_DAYLIGHTSAVING_ADD1H;
 789              		.loc 1 923 3 is_stmt 1 view .LVU218
 790              		.loc 1 923 24 is_stmt 0 view .LVU219
 791 00bc 4FF48033 		mov	r3, #65536
 792 00c0 0593     		str	r3, [sp, #20]
 924:Core/Src/main.c **** 	sTime.StoreOperation = RTC_STOREOPERATION_RESET;
 793              		.loc 1 924 2 is_stmt 1 view .LVU220
 925:Core/Src/main.c **** 
 926:Core/Src/main.c ****   HAL_RTC_SetDate(&hrtc, &sDate, RTC_FORMAT_BIN);
 794              		.loc 1 926 3 view .LVU221
 795 00c2 0A4E     		ldr	r6, .L28+12
 796 00c4 2246     		mov	r2, r4
 797 00c6 01A9     		add	r1, sp, #4
 798 00c8 3046     		mov	r0, r6
 799 00ca FFF7FEFF 		bl	HAL_RTC_SetDate
 800              	.LVL57:
 927:Core/Src/main.c ****   HAL_RTC_SetTime(&hrtc, &sTime, RTC_FORMAT_BIN);
 801              		.loc 1 927 3 view .LVU222
 802 00ce 2246     		mov	r2, r4
 803 00d0 2946     		mov	r1, r5
 804 00d2 3046     		mov	r0, r6
 805 00d4 FFF7FEFF 		bl	HAL_RTC_SetTime
 806              	.LVL58:
 928:Core/Src/main.c **** }
 807              		.loc 1 928 1 is_stmt 0 view .LVU223
 808 00d8 1CB0     		add	sp, sp, #112
 809              		.cfi_def_cfa_offset 24
 810              		@ sp needed
 811 00da BDE8F081 		pop	{r4, r5, r6, r7, r8, pc}
 812              	.L29:
 813 00de 00BF     		.align	2
 814              	.L28:
 815 00e0 1903180C 		.word	202900249
 816 00e4 00000000 		.word	.LC0
 817 00e8 00010100 		.word	65792
 818 00ec 00000000 		.word	hrtc
 819              		.cfi_endproc
 820              	.LFE337:
 822              		.section	.text.timestamp_to_time,"ax",%progbits
 823              		.align	1
 824              		.global	timestamp_to_time
 825              		.syntax unified
 826              		.thumb
 827              		.thumb_func
 829              	timestamp_to_time:
 830              	.LVL59:
 831              	.LFB339:
 929:Core/Src/main.c **** 
 930:Core/Src/main.c **** void get_data(bool goto_sleep){
 931:Core/Src/main.c ****   if(goto_sleep){
 932:Core/Src/main.c ****     power_on();
 933:Core/Src/main.c ****   }
 934:Core/Src/main.c **** 
 935:Core/Src/main.c ****   q_load();
ARM GAS  C:\Users\kroko\AppData\Local\Temp\ccOkN8ni.s 			page 32


 936:Core/Src/main.c ****   q_push(DS18_GET()*100);
 937:Core/Src/main.c ****   q_push(DS18_GET()*100);
 938:Core/Src/main.c ****   q_push(DS18_GET()*100);
 939:Core/Src/main.c ****   q_push(DS18_GET()*100);
 940:Core/Src/main.c ****   plot();
 941:Core/Src/main.c ****   q_save();
 942:Core/Src/main.c **** 
 943:Core/Src/main.c ****   if(goto_sleep){
 944:Core/Src/main.c ****     shutdown(false);
 945:Core/Src/main.c ****   }
 946:Core/Src/main.c **** }
 947:Core/Src/main.c **** 
 948:Core/Src/main.c **** void timestamp_to_time(uint32_t timestamp, uint8_t* hours, uint8_t* minutes) {
 832              		.loc 1 948 78 is_stmt 1 view -0
 833              		.cfi_startproc
 834              		@ args = 0, pretend = 0, frame = 0
 835              		@ frame_needed = 0, uses_anonymous_args = 0
 836              		@ link register save eliminated.
 837              		.loc 1 948 78 is_stmt 0 view .LVU225
 838 0000 10B4     		push	{r4}
 839              		.cfi_def_cfa_offset 4
 840              		.cfi_offset 4, -4
 949:Core/Src/main.c ****   uint32_t seconds_in_day = 86400;
 841              		.loc 1 949 3 is_stmt 1 view .LVU226
 842              	.LVL60:
 950:Core/Src/main.c ****   uint32_t seconds_in_hour = 3600;
 843              		.loc 1 950 3 view .LVU227
 951:Core/Src/main.c ****   uint32_t seconds_in_minute = 60;
 844              		.loc 1 951 3 view .LVU228
 952:Core/Src/main.c **** 
 953:Core/Src/main.c ****   // Get seconds since midnight (UTC)
 954:Core/Src/main.c ****   uint32_t time_of_day = timestamp % seconds_in_day;
 845              		.loc 1 954 3 view .LVU229
 846              		.loc 1 954 12 is_stmt 0 view .LVU230
 847 0002 0C4B     		ldr	r3, .L32
 848 0004 A3FB0043 		umull	r4, r3, r3, r0
 849 0008 1B0C     		lsrs	r3, r3, #16
 850 000a 0B4C     		ldr	r4, .L32+4
 851 000c 04FB1303 		mls	r3, r4, r3, r0
 852              	.LVL61:
 955:Core/Src/main.c **** 
 956:Core/Src/main.c ****   *hours = time_of_day / seconds_in_hour;
 853              		.loc 1 956 3 is_stmt 1 view .LVU231
 854              		.loc 1 956 24 is_stmt 0 view .LVU232
 855 0010 0A48     		ldr	r0, .L32+8
 856              	.LVL62:
 857              		.loc 1 956 24 view .LVU233
 858 0012 A0FB0340 		umull	r4, r0, r0, r3
 859 0016 C00A     		lsrs	r0, r0, #11
 860              		.loc 1 956 10 view .LVU234
 861 0018 0870     		strb	r0, [r1]
 957:Core/Src/main.c ****   *minutes = (time_of_day % seconds_in_hour) / seconds_in_minute;
 862              		.loc 1 957 3 is_stmt 1 view .LVU235
 863              		.loc 1 957 27 is_stmt 0 view .LVU236
 864 001a 4FF46161 		mov	r1, #3600
 865              	.LVL63:
 866              		.loc 1 957 27 view .LVU237
ARM GAS  C:\Users\kroko\AppData\Local\Temp\ccOkN8ni.s 			page 33


 867 001e 01FB1033 		mls	r3, r1, r0, r3
 868              	.LVL64:
 869              		.loc 1 957 46 view .LVU238
 870 0022 0749     		ldr	r1, .L32+12
 871 0024 A1FB0313 		umull	r1, r3, r1, r3
 872 0028 5B09     		lsrs	r3, r3, #5
 873              		.loc 1 957 12 view .LVU239
 874 002a 1370     		strb	r3, [r2]
 958:Core/Src/main.c **** }
 875              		.loc 1 958 1 view .LVU240
 876 002c 5DF8044B 		ldr	r4, [sp], #4
 877              		.cfi_restore 4
 878              		.cfi_def_cfa_offset 0
 879 0030 7047     		bx	lr
 880              	.L33:
 881 0032 00BF     		.align	2
 882              	.L32:
 883 0034 07452EC2 		.word	-1037155065
 884 0038 80510100 		.word	86400
 885 003c C5B3A291 		.word	-1851608123
 886 0040 89888888 		.word	-2004318071
 887              		.cfi_endproc
 888              	.LFE339:
 890              		.section	.rodata.plot.str1.4,"aMS",%progbits,1
 891              		.align	2
 892              	.LC1:
 893 0000 256400   		.ascii	"%d\000"
 894 0003 00       		.align	2
 895              	.LC2:
 896 0004 25642E25 		.ascii	"%d.%d\000"
 896      6400
 897 000a 0000     		.align	2
 898              	.LC3:
 899 000c 25643A25 		.ascii	"%d:%d\000"
 899      6400
 900 0012 0000     		.align	2
 901              	.LC4:
 902 0014 25642E25 		.ascii	"%d.%d*C/div\000"
 902      642A432F 
 902      64697600 
 903              		.align	2
 904              	.LC5:
 905 0020 25642E30 		.ascii	"%d.0%d*C/div\000"
 905      25642A43 
 905      2F646976 
 905      00
 906 002d 000000   		.align	2
 907              	.LC6:
 908 0030 25642A43 		.ascii	"%d*C/div\000"
 908      2F646976 
 908      00
 909 0039 000000   		.align	2
 910              	.LC7:
 911 003c 25642E25 		.ascii	"%d.%dC\000"
 911      644300
 912              		.section	.text.plot,"ax",%progbits
 913              		.align	1
ARM GAS  C:\Users\kroko\AppData\Local\Temp\ccOkN8ni.s 			page 34


 914              		.global	plot
 915              		.syntax unified
 916              		.thumb
 917              		.thumb_func
 919              	plot:
 920              	.LFB331:
 613:Core/Src/main.c ****   EPD_NewImage(BlackImage, EPD_WIDTH, EPD_HEIGHT, 90, WHITE);  	
 921              		.loc 1 613 12 is_stmt 1 view -0
 922              		.cfi_startproc
 923              		@ args = 0, pretend = 0, frame = 88
 924              		@ frame_needed = 0, uses_anonymous_args = 0
 925 0000 2DE9F04F 		push	{r4, r5, r6, r7, r8, r9, r10, fp, lr}
 926              		.cfi_def_cfa_offset 36
 927              		.cfi_offset 4, -36
 928              		.cfi_offset 5, -32
 929              		.cfi_offset 6, -28
 930              		.cfi_offset 7, -24
 931              		.cfi_offset 8, -20
 932              		.cfi_offset 9, -16
 933              		.cfi_offset 10, -12
 934              		.cfi_offset 11, -8
 935              		.cfi_offset 14, -4
 936 0004 9BB0     		sub	sp, sp, #108
 937              		.cfi_def_cfa_offset 144
 614:Core/Src/main.c ****   EPD_SelectImage(BlackImage);
 938              		.loc 1 614 3 view .LVU242
 939 0006 B54D     		ldr	r5, .L95
 940 0008 FF24     		movs	r4, #255
 941 000a 0094     		str	r4, [sp]
 942 000c 5A23     		movs	r3, #90
 943 000e FA22     		movs	r2, #250
 944 0010 7A21     		movs	r1, #122
 945 0012 2846     		mov	r0, r5
 946 0014 FFF7FEFF 		bl	EPD_NewImage
 947              	.LVL65:
 615:Core/Src/main.c ****   EPD_Clear(WHITE);
 948              		.loc 1 615 3 view .LVU243
 949 0018 2846     		mov	r0, r5
 950 001a FFF7FEFF 		bl	EPD_SelectImage
 951              	.LVL66:
 616:Core/Src/main.c ****   int16_t min = q_get(0);
 952              		.loc 1 616 3 view .LVU244
 953 001e 2046     		mov	r0, r4
 954 0020 FFF7FEFF 		bl	EPD_Clear
 955              	.LVL67:
 617:Core/Src/main.c ****   int16_t max = q_get(0);
 956              		.loc 1 617 3 view .LVU245
 617:Core/Src/main.c ****   int16_t max = q_get(0);
 957              		.loc 1 617 17 is_stmt 0 view .LVU246
 958 0024 0020     		movs	r0, #0
 959 0026 FFF7FEFF 		bl	q_get
 960              	.LVL68:
 961 002a 0546     		mov	r5, r0
 962              	.LVL69:
 618:Core/Src/main.c **** 
 963              		.loc 1 618 3 is_stmt 1 view .LVU247
 618:Core/Src/main.c **** 
ARM GAS  C:\Users\kroko\AppData\Local\Temp\ccOkN8ni.s 			page 35


 964              		.loc 1 618 17 is_stmt 0 view .LVU248
 965 002c 0020     		movs	r0, #0
 966 002e FFF7FEFF 		bl	q_get
 967              	.LVL70:
 968 0032 0746     		mov	r7, r0
 969              	.LVL71:
 620:Core/Src/main.c ****     if(q_get(i) <= min){
 970              		.loc 1 620 3 is_stmt 1 view .LVU249
 971              	.LBB9:
 620:Core/Src/main.c ****     if(q_get(i) <= min){
 972              		.loc 1 620 8 view .LVU250
 620:Core/Src/main.c ****     if(q_get(i) <= min){
 973              		.loc 1 620 16 is_stmt 0 view .LVU251
 974 0034 0024     		movs	r4, #0
 620:Core/Src/main.c ****     if(q_get(i) <= min){
 975              		.loc 1 620 3 view .LVU252
 976 0036 06E0     		b	.L35
 977              	.LVL72:
 978              	.L82:
 622:Core/Src/main.c ****     }
 979              		.loc 1 622 7 is_stmt 1 view .LVU253
 622:Core/Src/main.c ****     }
 980              		.loc 1 622 13 is_stmt 0 view .LVU254
 981 0038 2046     		mov	r0, r4
 982 003a FFF7FEFF 		bl	q_get
 983              	.LVL73:
 984 003e 0546     		mov	r5, r0
 985              	.LVL74:
 622:Core/Src/main.c ****     }
 986              		.loc 1 622 13 view .LVU255
 987 0040 0AE0     		b	.L36
 988              	.LVL75:
 989              	.L37:
 620:Core/Src/main.c ****     if(q_get(i) <= min){
 990              		.loc 1 620 37 is_stmt 1 discriminator 2 view .LVU256
 991 0042 0134     		adds	r4, r4, #1
 992              	.LVL76:
 620:Core/Src/main.c ****     if(q_get(i) <= min){
 993              		.loc 1 620 37 is_stmt 0 discriminator 2 view .LVU257
 994 0044 E4B2     		uxtb	r4, r4
 995              	.LVL77:
 996              	.L35:
 620:Core/Src/main.c ****     if(q_get(i) <= min){
 997              		.loc 1 620 25 is_stmt 1 discriminator 1 view .LVU258
 620:Core/Src/main.c ****     if(q_get(i) <= min){
 998              		.loc 1 620 27 is_stmt 0 discriminator 1 view .LVU259
 999 0046 FFF7FEFF 		bl	q_len
 1000              	.LVL78:
 620:Core/Src/main.c ****     if(q_get(i) <= min){
 1001              		.loc 1 620 25 discriminator 1 view .LVU260
 1002 004a 8442     		cmp	r4, r0
 1003 004c 0ED2     		bcs	.L81
 621:Core/Src/main.c ****       min = q_get(i);
 1004              		.loc 1 621 5 is_stmt 1 view .LVU261
 621:Core/Src/main.c ****       min = q_get(i);
 1005              		.loc 1 621 8 is_stmt 0 view .LVU262
 1006 004e 2046     		mov	r0, r4
ARM GAS  C:\Users\kroko\AppData\Local\Temp\ccOkN8ni.s 			page 36


 1007 0050 FFF7FEFF 		bl	q_get
 1008              	.LVL79:
 621:Core/Src/main.c ****       min = q_get(i);
 1009              		.loc 1 621 7 discriminator 1 view .LVU263
 1010 0054 A842     		cmp	r0, r5
 1011 0056 EFDD     		ble	.L82
 1012              	.LVL80:
 1013              	.L36:
 624:Core/Src/main.c ****       max = q_get(i);
 1014              		.loc 1 624 5 is_stmt 1 view .LVU264
 624:Core/Src/main.c ****       max = q_get(i);
 1015              		.loc 1 624 8 is_stmt 0 view .LVU265
 1016 0058 2046     		mov	r0, r4
 1017 005a FFF7FEFF 		bl	q_get
 1018              	.LVL81:
 624:Core/Src/main.c ****       max = q_get(i);
 1019              		.loc 1 624 7 discriminator 1 view .LVU266
 1020 005e B842     		cmp	r0, r7
 1021 0060 EFDB     		blt	.L37
 625:Core/Src/main.c ****     }
 1022              		.loc 1 625 7 is_stmt 1 view .LVU267
 625:Core/Src/main.c ****     }
 1023              		.loc 1 625 13 is_stmt 0 view .LVU268
 1024 0062 2046     		mov	r0, r4
 1025 0064 FFF7FEFF 		bl	q_get
 1026              	.LVL82:
 1027 0068 0746     		mov	r7, r0
 1028              	.LVL83:
 625:Core/Src/main.c ****     }
 1029              		.loc 1 625 13 view .LVU269
 1030 006a EAE7     		b	.L37
 1031              	.LVL84:
 1032              	.L81:
 625:Core/Src/main.c ****     }
 1033              		.loc 1 625 13 view .LVU270
 1034              	.LBE9:
 629:Core/Src/main.c ****     min-=10;
 1035              		.loc 1 629 3 is_stmt 1 view .LVU271
 629:Core/Src/main.c ****     min-=10;
 1036              		.loc 1 629 5 is_stmt 0 view .LVU272
 1037 006c BD42     		cmp	r5, r7
 1038 006e 1AD0     		beq	.L83
 1039              	.LVL85:
 1040              	.L39:
 634:Core/Src/main.c ****     EPD_DrawLine(10, map(0, min, max, 110, 22), 250, map(0, min, max, 110, 22), BLACK, DOT_PIXEL_1X
 1041              		.loc 1 634 3 is_stmt 1 view .LVU273
 634:Core/Src/main.c ****     EPD_DrawLine(10, map(0, min, max, 110, 22), 250, map(0, min, max, 110, 22), BLACK, DOT_PIXEL_1X
 1042              		.loc 1 634 5 is_stmt 0 view .LVU274
 1043 0070 002D     		cmp	r5, #0
 1044 0072 1DDB     		blt	.L84
 1045              	.L40:
 638:Core/Src/main.c ****   switch (max - min)
 1046              		.loc 1 638 3 is_stmt 1 view .LVU275
 639:Core/Src/main.c ****   {
 1047              		.loc 1 639 3 view .LVU276
 639:Core/Src/main.c ****   {
 1048              		.loc 1 639 15 is_stmt 0 view .LVU277
ARM GAS  C:\Users\kroko\AppData\Local\Temp\ccOkN8ni.s 			page 37


 1049 0074 3E46     		mov	r6, r7
 1050 0076 A846     		mov	r8, r5
 1051 0078 A7EB050C 		sub	ip, r7, r5
 639:Core/Src/main.c ****   {
 1052              		.loc 1 639 3 view .LVU278
 1053 007c BCF5C87F 		cmp	ip, #400
 1054 0080 40DA     		bge	.L41
 1055 0082 BCF1FA0F 		cmp	ip, #250
 1056 0086 59DA     		bge	.L70
 1057 0088 BCF1630F 		cmp	ip, #99
 1058 008c 30DC     		bgt	.L43
 1059 008e BCF1320F 		cmp	ip, #50
 1060 0092 63DA     		bge	.L71
 1061 0094 BCF1180F 		cmp	ip, #24
 1062 0098 20DC     		bgt	.L44
 1063 009a BCF1000F 		cmp	ip, #0
 1064 009e 60DB     		blt	.L72
 663:Core/Src/main.c ****     break;
 1065              		.loc 1 663 8 view .LVU279
 1066 00a0 4FF00509 		mov	r9, #5
 1067 00a4 4CE0     		b	.L42
 1068              	.L83:
 630:Core/Src/main.c ****     max+=10;
 1069              		.loc 1 630 5 is_stmt 1 view .LVU280
 630:Core/Src/main.c ****     max+=10;
 1070              		.loc 1 630 8 is_stmt 0 view .LVU281
 1071 00a6 0A3D     		subs	r5, r5, #10
 1072              	.LVL86:
 630:Core/Src/main.c ****     max+=10;
 1073              		.loc 1 630 8 view .LVU282
 1074 00a8 2DB2     		sxth	r5, r5
 1075              	.LVL87:
 631:Core/Src/main.c ****   }
 1076              		.loc 1 631 5 is_stmt 1 view .LVU283
 631:Core/Src/main.c ****   }
 1077              		.loc 1 631 8 is_stmt 0 view .LVU284
 1078 00aa 0A37     		adds	r7, r7, #10
 1079              	.LVL88:
 631:Core/Src/main.c ****   }
 1080              		.loc 1 631 8 view .LVU285
 1081 00ac 3FB2     		sxth	r7, r7
 1082 00ae DFE7     		b	.L39
 1083              	.LVL89:
 1084              	.L84:
 634:Core/Src/main.c ****     EPD_DrawLine(10, map(0, min, max, 110, 22), 250, map(0, min, max, 110, 22), BLACK, DOT_PIXEL_1X
 1085              		.loc 1 634 14 discriminator 1 view .LVU286
 1086 00b0 002F     		cmp	r7, #0
 1087 00b2 DFDD     		ble	.L40
 635:Core/Src/main.c ****   }
 1088              		.loc 1 635 5 is_stmt 1 view .LVU287
 635:Core/Src/main.c ****   }
 1089              		.loc 1 635 22 is_stmt 0 view .LVU288
 1090 00b4 1623     		movs	r3, #22
 1091 00b6 0093     		str	r3, [sp]
 1092 00b8 6E23     		movs	r3, #110
 1093 00ba 3A46     		mov	r2, r7
 1094 00bc 2946     		mov	r1, r5
ARM GAS  C:\Users\kroko\AppData\Local\Temp\ccOkN8ni.s 			page 38


 1095 00be 0020     		movs	r0, #0
 1096 00c0 FFF7FEFF 		bl	map
 1097              	.LVL90:
 635:Core/Src/main.c ****   }
 1098              		.loc 1 635 5 discriminator 1 view .LVU289
 1099 00c4 81B2     		uxth	r1, r0
 635:Core/Src/main.c ****   }
 1100              		.loc 1 635 5 discriminator 2 view .LVU290
 1101 00c6 0023     		movs	r3, #0
 1102 00c8 0293     		str	r3, [sp, #8]
 1103 00ca 0122     		movs	r2, #1
 1104 00cc 0192     		str	r2, [sp, #4]
 1105 00ce 0093     		str	r3, [sp]
 1106 00d0 0B46     		mov	r3, r1
 1107 00d2 FA22     		movs	r2, #250
 1108 00d4 0A20     		movs	r0, #10
 1109 00d6 FFF7FEFF 		bl	EPD_DrawLine
 1110              	.LVL91:
 1111 00da CBE7     		b	.L40
 1112              	.L44:
 639:Core/Src/main.c ****   {
 1113              		.loc 1 639 3 view .LVU291
 1114 00dc ACF11903 		sub	r3, ip, #25
 1115 00e0 182B     		cmp	r3, #24
 1116 00e2 02D8     		bhi	.L85
 660:Core/Src/main.c ****     break;
 1117              		.loc 1 660 8 view .LVU292
 1118 00e4 4FF00A09 		mov	r9, #10
 1119 00e8 2AE0     		b	.L42
 1120              	.L85:
 666:Core/Src/main.c ****     break;
 1121              		.loc 1 666 8 view .LVU293
 1122 00ea 4FF4FA69 		mov	r9, #2000
 1123 00ee 27E0     		b	.L42
 1124              	.L43:
 639:Core/Src/main.c ****   {
 1125              		.loc 1 639 3 view .LVU294
 1126 00f0 ACF16403 		sub	r3, ip, #100
 1127 00f4 952B     		cmp	r3, #149
 1128 00f6 02D8     		bhi	.L86
 654:Core/Src/main.c ****     break;
 1129              		.loc 1 654 8 view .LVU295
 1130 00f8 4FF03209 		mov	r9, #50
 1131 00fc 20E0     		b	.L42
 1132              	.L86:
 666:Core/Src/main.c ****     break;
 1133              		.loc 1 666 8 view .LVU296
 1134 00fe 4FF4FA69 		mov	r9, #2000
 1135 0102 1DE0     		b	.L42
 1136              	.L41:
 639:Core/Src/main.c ****   {
 1137              		.loc 1 639 3 view .LVU297
 1138 0104 BCF5FA6F 		cmp	ip, #2000
 1139 0108 0DDA     		bge	.L45
 1140 010a BCF5487F 		cmp	ip, #800
 1141 010e 2BDA     		bge	.L75
 1142 0110 ACF5C873 		sub	r3, ip, #400
ARM GAS  C:\Users\kroko\AppData\Local\Temp\ccOkN8ni.s 			page 39


 1143 0114 B3F5C87F 		cmp	r3, #400
 1144 0118 02D2     		bcs	.L87
 648:Core/Src/main.c ****     break;
 1145              		.loc 1 648 8 view .LVU298
 1146 011a 4FF0C809 		mov	r9, #200
 1147 011e 0FE0     		b	.L42
 1148              	.L87:
 666:Core/Src/main.c ****     break;
 1149              		.loc 1 666 8 view .LVU299
 1150 0120 4FF4FA69 		mov	r9, #2000
 1151 0124 0CE0     		b	.L42
 1152              	.L45:
 639:Core/Src/main.c ****   {
 1153              		.loc 1 639 3 view .LVU300
 1154 0126 ACF5FA63 		sub	r3, ip, #2000
 1155 012a B3F5FA6F 		cmp	r3, #2000
 1156 012e 02D8     		bhi	.L88
 1157 0130 4FF47A79 		mov	r9, #1000
 1158 0134 04E0     		b	.L42
 1159              	.L88:
 666:Core/Src/main.c ****     break;
 1160              		.loc 1 666 8 view .LVU301
 1161 0136 4FF4FA69 		mov	r9, #2000
 1162 013a 01E0     		b	.L42
 1163              	.L70:
 651:Core/Src/main.c ****     break;
 1164              		.loc 1 651 8 view .LVU302
 1165 013c 4FF06409 		mov	r9, #100
 1166              	.L42:
 1167              	.LVL92:
 670:Core/Src/main.c ****     bool st = LINE_STYLE_DOTTED;
 1168              		.loc 1 670 3 is_stmt 1 view .LVU303
 1169              	.LBB10:
 670:Core/Src/main.c ****     bool st = LINE_STYLE_DOTTED;
 1170              		.loc 1 670 8 view .LVU304
 670:Core/Src/main.c ****     bool st = LINE_STYLE_DOTTED;
 1171              		.loc 1 670 20 is_stmt 0 view .LVU305
 1172 0140 002D     		cmp	r5, #0
 1173 0142 14DB     		blt	.L89
 670:Core/Src/main.c ****     bool st = LINE_STYLE_DOTTED;
 1174              		.loc 1 670 20 discriminator 2 view .LVU306
 1175 0144 09F1FF34 		add	r4, r9, #-1
 1176              	.LVL93:
 1177              	.L47:
 670:Core/Src/main.c ****     bool st = LINE_STYLE_DOTTED;
 1178              		.loc 1 670 20 discriminator 4 view .LVU307
 1179 0148 4444     		add	r4, r4, r8
 1180 014a CA46     		mov	r10, r9
 1181 014c 94FBF9F4 		sdiv	r4, r4, r9
 670:Core/Src/main.c ****     bool st = LINE_STYLE_DOTTED;
 1182              		.loc 1 670 16 discriminator 4 view .LVU308
 1183 0150 14FB09F4 		smulbb	r4, r4, r9
 1184 0154 24B2     		sxth	r4, r4
 1185              	.LVL94:
 670:Core/Src/main.c ****     bool st = LINE_STYLE_DOTTED;
 1186              		.loc 1 670 16 discriminator 4 view .LVU309
 1187 0156 CDF810C0 		str	ip, [sp, #16]
ARM GAS  C:\Users\kroko\AppData\Local\Temp\ccOkN8ni.s 			page 40


 670:Core/Src/main.c ****     bool st = LINE_STYLE_DOTTED;
 1188              		.loc 1 670 3 view .LVU310
 1189 015a 38E0     		b	.L48
 1190              	.LVL95:
 1191              	.L71:
 670:Core/Src/main.c ****     bool st = LINE_STYLE_DOTTED;
 1192              		.loc 1 670 3 view .LVU311
 1193              	.LBE10:
 657:Core/Src/main.c ****     break;
 1194              		.loc 1 657 8 view .LVU312
 1195 015c 4FF01409 		mov	r9, #20
 1196 0160 EEE7     		b	.L42
 1197              	.L72:
 666:Core/Src/main.c ****     break;
 1198              		.loc 1 666 8 view .LVU313
 1199 0162 4FF4FA69 		mov	r9, #2000
 1200 0166 EBE7     		b	.L42
 1201              	.L75:
 645:Core/Src/main.c ****     break;
 1202              		.loc 1 645 8 view .LVU314
 1203 0168 4FF4FA79 		mov	r9, #500
 1204 016c E8E7     		b	.L42
 1205              	.LVL96:
 1206              	.L89:
 1207              	.LBB15:
 670:Core/Src/main.c ****     bool st = LINE_STYLE_DOTTED;
 1208              		.loc 1 670 20 discriminator 1 view .LVU315
 1209 016e C9F10104 		rsb	r4, r9, #1
 1210              	.LVL97:
 670:Core/Src/main.c ****     bool st = LINE_STYLE_DOTTED;
 1211              		.loc 1 670 20 discriminator 1 view .LVU316
 1212 0172 E9E7     		b	.L47
 1213              	.LVL98:
 1214              	.L78:
 1215              	.LBB11:
 672:Core/Src/main.c ****     if(x > max && map(x, min, max, 110, 22) < 22){break;}
 1216              		.loc 1 672 19 discriminator 1 view .LVU317
 1217 0174 4FF0000B 		mov	fp, #0
 1218 0178 32E0     		b	.L49
 1219              	.LVL99:
 1220              	.L90:
 678:Core/Src/main.c ****     }
 1221              		.loc 1 678 7 is_stmt 1 view .LVU318
 678:Core/Src/main.c ****     }
 1222              		.loc 1 678 12 is_stmt 0 view .LVU319
 1223 017a 594B     		ldr	r3, .L95+4
 1224 017c 83FB0423 		smull	r2, r3, r3, r4
 1225 0180 E217     		asrs	r2, r4, #31
 1226 0182 C2EB6312 		rsb	r2, r2, r3, asr #5
 1227 0186 12B2     		sxth	r2, r2
 1228 0188 5649     		ldr	r1, .L95+8
 1229 018a 08A8     		add	r0, sp, #32
 1230 018c FFF7FEFF 		bl	sprintf
 1231              	.LVL100:
 678:Core/Src/main.c ****     }
 1232              		.loc 1 678 10 discriminator 1 view .LVU320
 1233 0190 5FFA80FB 		uxtb	fp, r0
ARM GAS  C:\Users\kroko\AppData\Local\Temp\ccOkN8ni.s 			page 41


 1234              	.LVL101:
 1235              	.L53:
 692:Core/Src/main.c ****     EPD_DrawString_EN(map(x, min, max, 2, 88)+8-(2*ln), 0,  buf, &Font8, WHITE, BLACK);
 1236              		.loc 1 692 5 is_stmt 1 view .LVU321
 1237 0194 0020     		movs	r0, #0
 1238 0196 FFF7FEFF 		bl	EPD_SetRotate
 1239              	.LVL102:
 693:Core/Src/main.c ****     EPD_SetRotate(90);
 1240              		.loc 1 693 5 view .LVU322
 693:Core/Src/main.c ****     EPD_SetRotate(90);
 1241              		.loc 1 693 23 is_stmt 0 view .LVU323
 1242 019a 5823     		movs	r3, #88
 1243 019c 0093     		str	r3, [sp]
 1244 019e 0223     		movs	r3, #2
 1245 01a0 3246     		mov	r2, r6
 1246 01a2 4146     		mov	r1, r8
 1247 01a4 2846     		mov	r0, r5
 1248 01a6 FFF7FEFF 		bl	map
 1249              	.LVL103:
 693:Core/Src/main.c ****     EPD_SetRotate(90);
 1250              		.loc 1 693 48 discriminator 1 view .LVU324
 1251 01aa A0EB4B00 		sub	r0, r0, fp, lsl #1
 1252 01ae 80B2     		uxth	r0, r0
 693:Core/Src/main.c ****     EPD_SetRotate(90);
 1253              		.loc 1 693 5 discriminator 1 view .LVU325
 1254 01b0 0830     		adds	r0, r0, #8
 1255 01b2 0021     		movs	r1, #0
 1256 01b4 0191     		str	r1, [sp, #4]
 1257 01b6 FF23     		movs	r3, #255
 1258 01b8 0093     		str	r3, [sp]
 1259 01ba 4B4B     		ldr	r3, .L95+12
 1260 01bc 08AA     		add	r2, sp, #32
 1261 01be 80B2     		uxth	r0, r0
 1262 01c0 FFF7FEFF 		bl	EPD_DrawString_EN
 1263              	.LVL104:
 694:Core/Src/main.c ****   }
 1264              		.loc 1 694 5 is_stmt 1 view .LVU326
 1265 01c4 5A20     		movs	r0, #90
 1266 01c6 FFF7FEFF 		bl	EPD_SetRotate
 1267              	.LVL105:
 1268              	.L56:
 694:Core/Src/main.c ****   }
 1269              		.loc 1 694 5 is_stmt 0 view .LVU327
 1270              	.LBE11:
 670:Core/Src/main.c ****     bool st = LINE_STYLE_DOTTED;
 1271              		.loc 1 670 57 is_stmt 1 discriminator 6 view .LVU328
 1272 01ca 4C44     		add	r4, r4, r9
 1273              	.LVL106:
 670:Core/Src/main.c ****     bool st = LINE_STYLE_DOTTED;
 1274              		.loc 1 670 57 is_stmt 0 discriminator 6 view .LVU329
 1275 01cc 24B2     		sxth	r4, r4
 1276              	.LVL107:
 1277              	.L48:
 670:Core/Src/main.c ****     bool st = LINE_STYLE_DOTTED;
 1278              		.loc 1 670 45 is_stmt 1 discriminator 5 view .LVU330
 1279 01ce 2546     		mov	r5, r4
 670:Core/Src/main.c ****     bool st = LINE_STYLE_DOTTED;
ARM GAS  C:\Users\kroko\AppData\Local\Temp\ccOkN8ni.s 			page 42


 1280              		.loc 1 670 50 is_stmt 0 discriminator 5 view .LVU331
 1281 01d0 06EB0A03 		add	r3, r6, r10
 670:Core/Src/main.c ****     bool st = LINE_STYLE_DOTTED;
 1282              		.loc 1 670 45 discriminator 5 view .LVU332
 1283 01d4 9C42     		cmp	r4, r3
 1284 01d6 76DA     		bge	.L57
 1285              	.LBB14:
 671:Core/Src/main.c ****     if(x == 0){st = LINE_STYLE_SOLID;}
 1286              		.loc 1 671 5 is_stmt 1 view .LVU333
 1287              	.LVL108:
 672:Core/Src/main.c ****     if(x > max && map(x, min, max, 110, 22) < 22){break;}
 1288              		.loc 1 672 5 view .LVU334
 672:Core/Src/main.c ****     if(x > max && map(x, min, max, 110, 22) < 22){break;}
 1289              		.loc 1 672 7 is_stmt 0 view .LVU335
 1290 01d8 002C     		cmp	r4, #0
 1291 01da CBD0     		beq	.L78
 671:Core/Src/main.c ****     if(x == 0){st = LINE_STYLE_SOLID;}
 1292              		.loc 1 671 10 view .LVU336
 1293 01dc 4FF0010B 		mov	fp, #1
 1294              	.L49:
 1295              	.LVL109:
 673:Core/Src/main.c ****     EPD_DrawLine(10, map(x, min, max, 110, 22), 250, map(x, min, max, 110, 22), BLACK, DOT_PIXEL_1X
 1296              		.loc 1 673 5 is_stmt 1 view .LVU337
 673:Core/Src/main.c ****     EPD_DrawLine(10, map(x, min, max, 110, 22), 250, map(x, min, max, 110, 22), BLACK, DOT_PIXEL_1X
 1297              		.loc 1 673 7 is_stmt 0 view .LVU338
 1298 01e0 A742     		cmp	r7, r4
 1299 01e2 09DA     		bge	.L50
 673:Core/Src/main.c ****     EPD_DrawLine(10, map(x, min, max, 110, 22), 250, map(x, min, max, 110, 22), BLACK, DOT_PIXEL_1X
 1300              		.loc 1 673 19 discriminator 1 view .LVU339
 1301 01e4 1623     		movs	r3, #22
 1302 01e6 0093     		str	r3, [sp]
 1303 01e8 6E23     		movs	r3, #110
 1304 01ea 3246     		mov	r2, r6
 1305 01ec 4146     		mov	r1, r8
 1306 01ee 2846     		mov	r0, r5
 1307 01f0 FFF7FEFF 		bl	map
 1308              	.LVL110:
 673:Core/Src/main.c ****     EPD_DrawLine(10, map(x, min, max, 110, 22), 250, map(x, min, max, 110, 22), BLACK, DOT_PIXEL_1X
 1309              		.loc 1 673 16 discriminator 1 view .LVU340
 1310 01f4 1528     		cmp	r0, #21
 1311 01f6 66DD     		ble	.L57
 1312              	.L50:
 674:Core/Src/main.c ****     char buf[15];
 1313              		.loc 1 674 5 is_stmt 1 view .LVU341
 674:Core/Src/main.c ****     char buf[15];
 1314              		.loc 1 674 22 is_stmt 0 view .LVU342
 1315 01f8 1623     		movs	r3, #22
 1316 01fa 0093     		str	r3, [sp]
 1317 01fc 6E23     		movs	r3, #110
 1318 01fe 3246     		mov	r2, r6
 1319 0200 4146     		mov	r1, r8
 1320 0202 2846     		mov	r0, r5
 1321 0204 FFF7FEFF 		bl	map
 1322              	.LVL111:
 674:Core/Src/main.c ****     char buf[15];
 1323              		.loc 1 674 5 discriminator 1 view .LVU343
 1324 0208 81B2     		uxth	r1, r0
ARM GAS  C:\Users\kroko\AppData\Local\Temp\ccOkN8ni.s 			page 43


 674:Core/Src/main.c ****     char buf[15];
 1325              		.loc 1 674 5 discriminator 2 view .LVU344
 1326 020a CDF808B0 		str	fp, [sp, #8]
 1327 020e 0123     		movs	r3, #1
 1328 0210 0193     		str	r3, [sp, #4]
 1329 0212 0023     		movs	r3, #0
 1330 0214 0093     		str	r3, [sp]
 1331 0216 0B46     		mov	r3, r1
 1332 0218 FA22     		movs	r2, #250
 1333 021a 0A20     		movs	r0, #10
 1334 021c FFF7FEFF 		bl	EPD_DrawLine
 1335              	.LVL112:
 675:Core/Src/main.c ****     uint8_t ln;
 1336              		.loc 1 675 5 is_stmt 1 view .LVU345
 676:Core/Src/main.c ****     if(x%100 == 0){
 1337              		.loc 1 676 5 view .LVU346
 677:Core/Src/main.c ****       ln = sprintf(buf, "%d", x/100);
 1338              		.loc 1 677 5 view .LVU347
 677:Core/Src/main.c ****       ln = sprintf(buf, "%d", x/100);
 1339              		.loc 1 677 14 is_stmt 0 view .LVU348
 1340 0220 2F4A     		ldr	r2, .L95+4
 1341 0222 82FB0432 		smull	r3, r2, r2, r4
 1342 0226 E317     		asrs	r3, r4, #31
 1343 0228 C3EB6213 		rsb	r3, r3, r2, asr #5
 1344 022c 6422     		movs	r2, #100
 1345 022e 02FB1343 		mls	r3, r2, r3, r4
 1346 0232 1BB2     		sxth	r3, r3
 677:Core/Src/main.c ****       ln = sprintf(buf, "%d", x/100);
 1347              		.loc 1 677 7 view .LVU349
 1348 0234 002B     		cmp	r3, #0
 1349 0236 A0D0     		beq	.L90
 680:Core/Src/main.c ****       uint16_t rounded = (x + 5) / 10;
 1350              		.loc 1 680 10 is_stmt 1 view .LVU350
 680:Core/Src/main.c ****       uint16_t rounded = (x + 5) / 10;
 1351              		.loc 1 680 18 is_stmt 0 view .LVU351
 1352 0238 2C49     		ldr	r1, .L95+16
 1353 023a 81FB0421 		smull	r2, r1, r1, r4
 1354 023e E217     		asrs	r2, r4, #31
 1355 0240 C2EBA102 		rsb	r2, r2, r1, asr #2
 1356 0244 02EB8202 		add	r2, r2, r2, lsl #2
 1357 0248 A4EB4202 		sub	r2, r4, r2, lsl #1
 1358 024c 12B2     		sxth	r2, r2
 680:Core/Src/main.c ****       uint16_t rounded = (x + 5) / 10;
 1359              		.loc 1 680 12 view .LVU352
 1360 024e 12B9     		cbnz	r2, .L54
 680:Core/Src/main.c ****       uint16_t rounded = (x + 5) / 10;
 1361              		.loc 1 680 23 discriminator 1 view .LVU353
 1362 0250 049A     		ldr	r2, [sp, #16]
 1363 0252 632A     		cmp	r2, #99
 1364 0254 1DDD     		ble	.L91
 1365              	.L54:
 685:Core/Src/main.c ****       uint8_t int_part = x / 100;
 1366              		.loc 1 685 11 is_stmt 1 view .LVU354
 685:Core/Src/main.c ****       uint8_t int_part = x / 100;
 1367              		.loc 1 685 18 is_stmt 0 view .LVU355
 1368 0256 2549     		ldr	r1, .L95+16
 1369 0258 81FB0421 		smull	r2, r1, r1, r4
ARM GAS  C:\Users\kroko\AppData\Local\Temp\ccOkN8ni.s 			page 44


 1370 025c E217     		asrs	r2, r4, #31
 1371 025e C2EB6102 		rsb	r2, r2, r1, asr #1
 1372 0262 02EB8202 		add	r2, r2, r2, lsl #2
 1373 0266 A21A     		subs	r2, r4, r2
 1374 0268 12B2     		sxth	r2, r2
 685:Core/Src/main.c ****       uint8_t int_part = x / 100;
 1375              		.loc 1 685 13 view .LVU356
 1376 026a 002A     		cmp	r2, #0
 1377 026c ADD1     		bne	.L56
 685:Core/Src/main.c ****       uint8_t int_part = x / 100;
 1378              		.loc 1 685 23 discriminator 1 view .LVU357
 1379 026e 049A     		ldr	r2, [sp, #16]
 1380 0270 092A     		cmp	r2, #9
 1381 0272 AADC     		bgt	.L56
 1382              	.LBB12:
 686:Core/Src/main.c ****       uint8_t frac_part = x % 100;
 1383              		.loc 1 686 7 is_stmt 1 view .LVU358
 686:Core/Src/main.c ****       uint8_t frac_part = x % 100;
 1384              		.loc 1 686 15 is_stmt 0 view .LVU359
 1385 0274 1A49     		ldr	r1, .L95+4
 1386 0276 81FB0421 		smull	r2, r1, r1, r4
 1387 027a E217     		asrs	r2, r4, #31
 1388 027c C2EB6112 		rsb	r2, r2, r1, asr #5
 1389              	.LVL113:
 687:Core/Src/main.c ****       ln = sprintf(buf, "%d.%d", int_part, frac_part);
 1390              		.loc 1 687 7 is_stmt 1 view .LVU360
 688:Core/Src/main.c ****     }
 1391              		.loc 1 688 7 view .LVU361
 688:Core/Src/main.c ****     }
 1392              		.loc 1 688 12 is_stmt 0 view .LVU362
 1393 0280 DBB2     		uxtb	r3, r3
 688:Core/Src/main.c ****     }
 1394              		.loc 1 688 12 view .LVU363
 1395 0282 D2B2     		uxtb	r2, r2
 688:Core/Src/main.c ****     }
 1396              		.loc 1 688 12 view .LVU364
 1397 0284 1A49     		ldr	r1, .L95+20
 1398 0286 08A8     		add	r0, sp, #32
 1399 0288 FFF7FEFF 		bl	sprintf
 1400              	.LVL114:
 688:Core/Src/main.c ****     }
 1401              		.loc 1 688 10 discriminator 1 view .LVU365
 1402 028c 5FFA80FB 		uxtb	fp, r0
 1403              	.LVL115:
 688:Core/Src/main.c ****     }
 1404              		.loc 1 688 10 discriminator 1 view .LVU366
 1405              	.LBE12:
 685:Core/Src/main.c ****       uint8_t int_part = x / 100;
 1406              		.loc 1 685 39 view .LVU367
 1407 0290 80E7     		b	.L53
 1408              	.LVL116:
 1409              	.L91:
 1410              	.LBB13:
 681:Core/Src/main.c ****       uint8_t int_part = rounded / 10;
 1411              		.loc 1 681 7 is_stmt 1 view .LVU368
 681:Core/Src/main.c ****       uint8_t int_part = rounded / 10;
 1412              		.loc 1 681 29 is_stmt 0 view .LVU369
ARM GAS  C:\Users\kroko\AppData\Local\Temp\ccOkN8ni.s 			page 45


 1413 0292 6B1D     		adds	r3, r5, #5
 681:Core/Src/main.c ****       uint8_t int_part = rounded / 10;
 1414              		.loc 1 681 34 view .LVU370
 1415 0294 154A     		ldr	r2, .L95+16
 1416 0296 82FB0312 		smull	r1, r2, r2, r3
 1417 029a DB17     		asrs	r3, r3, #31
 1418 029c C3EBA203 		rsb	r3, r3, r2, asr #2
 681:Core/Src/main.c ****       uint8_t int_part = rounded / 10;
 1419              		.loc 1 681 16 view .LVU371
 1420 02a0 9BB2     		uxth	r3, r3
 1421              	.LVL117:
 682:Core/Src/main.c ****       uint8_t frac_part = rounded % 10;
 1422              		.loc 1 682 7 is_stmt 1 view .LVU372
 682:Core/Src/main.c ****       uint8_t frac_part = rounded % 10;
 1423              		.loc 1 682 15 is_stmt 0 view .LVU373
 1424 02a2 144A     		ldr	r2, .L95+24
 1425 02a4 A2FB0312 		umull	r1, r2, r2, r3
 1426 02a8 D108     		lsrs	r1, r2, #3
 1427              	.LVL118:
 683:Core/Src/main.c ****       ln = sprintf(buf, "%d.%d", int_part, frac_part);
 1428              		.loc 1 683 7 is_stmt 1 view .LVU374
 683:Core/Src/main.c ****       ln = sprintf(buf, "%d.%d", int_part, frac_part);
 1429              		.loc 1 683 15 is_stmt 0 view .LVU375
 1430 02aa 01EB8101 		add	r1, r1, r1, lsl #2
 1431 02ae A3EB4103 		sub	r3, r3, r1, lsl #1
 1432              	.LVL119:
 684:Core/Src/main.c ****     }else if(x%5 == 0 && max-min < 10){
 1433              		.loc 1 684 7 is_stmt 1 view .LVU376
 684:Core/Src/main.c ****     }else if(x%5 == 0 && max-min < 10){
 1434              		.loc 1 684 12 is_stmt 0 view .LVU377
 1435 02b2 DBB2     		uxtb	r3, r3
 684:Core/Src/main.c ****     }else if(x%5 == 0 && max-min < 10){
 1436              		.loc 1 684 12 view .LVU378
 1437 02b4 C2F3C702 		ubfx	r2, r2, #3, #8
 1438              	.LVL120:
 684:Core/Src/main.c ****     }else if(x%5 == 0 && max-min < 10){
 1439              		.loc 1 684 12 view .LVU379
 1440 02b8 0D49     		ldr	r1, .L95+20
 1441 02ba 08A8     		add	r0, sp, #32
 1442 02bc FFF7FEFF 		bl	sprintf
 1443              	.LVL121:
 684:Core/Src/main.c ****     }else if(x%5 == 0 && max-min < 10){
 1444              		.loc 1 684 10 discriminator 1 view .LVU380
 1445 02c0 5FFA80FB 		uxtb	fp, r0
 1446              	.LVL122:
 684:Core/Src/main.c ****     }else if(x%5 == 0 && max-min < 10){
 1447              		.loc 1 684 10 discriminator 1 view .LVU381
 1448              	.LBE13:
 680:Core/Src/main.c ****       uint16_t rounded = (x + 5) / 10;
 1449              		.loc 1 680 40 view .LVU382
 1450 02c4 66E7     		b	.L53
 1451              	.LVL123:
 1452              	.L57:
 680:Core/Src/main.c ****       uint16_t rounded = (x + 5) / 10;
 1453              		.loc 1 680 40 view .LVU383
 1454              	.LBE14:
 1455              	.LBE15:
ARM GAS  C:\Users\kroko\AppData\Local\Temp\ccOkN8ni.s 			page 46


 698:Core/Src/main.c ****   for (uint8_t i = 0; i < q_len(); i++){
 1456              		.loc 1 698 3 is_stmt 1 view .LVU384
 698:Core/Src/main.c ****   for (uint8_t i = 0; i < q_len(); i++){
 1457              		.loc 1 698 24 is_stmt 0 view .LVU385
 1458 02c6 0521     		movs	r1, #5
 1459 02c8 0B48     		ldr	r0, .L95+28
 1460 02ca FFF7FEFF 		bl	HAL_RTCEx_BKUPRead
 1461              	.LVL124:
 1462 02ce 8346     		mov	fp, r0
 1463              	.LVL125:
 699:Core/Src/main.c ****     EPD_DrawLine(10+(i*5), map(q_get(i), min, max, 110, 22), 10+((i+1)*5), map(q_get(i+1), min, max
 1464              		.loc 1 699 3 is_stmt 1 view .LVU386
 1465              	.LBB16:
 699:Core/Src/main.c ****     EPD_DrawLine(10+(i*5), map(q_get(i), min, max, 110, 22), 10+((i+1)*5), map(q_get(i+1), min, max
 1466              		.loc 1 699 8 view .LVU387
 699:Core/Src/main.c ****     EPD_DrawLine(10+(i*5), map(q_get(i), min, max, 110, 22), 10+((i+1)*5), map(q_get(i+1), min, max
 1467              		.loc 1 699 16 is_stmt 0 view .LVU388
 1468 02d0 0027     		movs	r7, #0
 1469              	.LVL126:
 699:Core/Src/main.c ****     EPD_DrawLine(10+(i*5), map(q_get(i), min, max, 110, 22), 10+((i+1)*5), map(q_get(i+1), min, max
 1470              		.loc 1 699 16 view .LVU389
 1471 02d2 CDF814A0 		str	r10, [sp, #20]
 1472 02d6 B246     		mov	r10, r6
 699:Core/Src/main.c ****     EPD_DrawLine(10+(i*5), map(q_get(i), min, max, 110, 22), 10+((i+1)*5), map(q_get(i+1), min, max
 1473              		.loc 1 699 3 view .LVU390
 1474 02d8 39E0     		b	.L59
 1475              	.L96:
 1476 02da 00BF     		.align	2
 1477              	.L95:
 1478 02dc 00000000 		.word	BlackImage
 1479 02e0 1F85EB51 		.word	1374389535
 1480 02e4 00000000 		.word	.LC1
 1481 02e8 00000000 		.word	Font8
 1482 02ec 67666666 		.word	1717986919
 1483 02f0 04000000 		.word	.LC2
 1484 02f4 CDCCCCCC 		.word	-858993459
 1485 02f8 00000000 		.word	hrtc
 1486              	.LVL127:
 1487              	.L60:
 700:Core/Src/main.c ****   }
 1488              		.loc 1 700 5 is_stmt 1 view .LVU391
 700:Core/Src/main.c ****   }
 1489              		.loc 1 700 32 is_stmt 0 view .LVU392
 1490 02fc 3846     		mov	r0, r7
 1491 02fe FFF7FEFF 		bl	q_get
 1492              	.LVL128:
 700:Core/Src/main.c ****   }
 1493              		.loc 1 700 28 discriminator 1 view .LVU393
 1494 0302 1626     		movs	r6, #22
 1495 0304 0096     		str	r6, [sp]
 1496 0306 6E23     		movs	r3, #110
 1497 0308 5246     		mov	r2, r10
 1498 030a 4146     		mov	r1, r8
 1499 030c FFF7FEFF 		bl	map
 1500              	.LVL129:
 1501 0310 0490     		str	r0, [sp, #16]
 700:Core/Src/main.c ****   }
ARM GAS  C:\Users\kroko\AppData\Local\Temp\ccOkN8ni.s 			page 47


 1502              		.loc 1 700 68 discriminator 2 view .LVU394
 1503 0312 7C1C     		adds	r4, r7, #1
 700:Core/Src/main.c ****   }
 1504              		.loc 1 700 80 discriminator 2 view .LVU395
 1505 0314 E7B2     		uxtb	r7, r4
 1506              	.LVL130:
 700:Core/Src/main.c ****   }
 1507              		.loc 1 700 80 discriminator 2 view .LVU396
 1508 0316 3846     		mov	r0, r7
 1509 0318 FFF7FEFF 		bl	q_get
 1510              	.LVL131:
 700:Core/Src/main.c ****   }
 1511              		.loc 1 700 76 discriminator 3 view .LVU397
 1512 031c 0096     		str	r6, [sp]
 1513 031e 6E23     		movs	r3, #110
 1514 0320 5246     		mov	r2, r10
 1515 0322 4146     		mov	r1, r8
 1516 0324 FFF7FEFF 		bl	map
 1517              	.LVL132:
 700:Core/Src/main.c ****   }
 1518              		.loc 1 700 5 discriminator 2 view .LVU398
 1519 0328 04EB8404 		add	r4, r4, r4, lsl #2
 1520 032c 04F10A02 		add	r2, r4, #10
 700:Core/Src/main.c ****   }
 1521              		.loc 1 700 5 view .LVU399
 1522 0330 05EB8505 		add	r5, r5, r5, lsl #2
 1523              	.LVL133:
 700:Core/Src/main.c ****   }
 1524              		.loc 1 700 5 view .LVU400
 1525 0334 0A35     		adds	r5, r5, #10
 700:Core/Src/main.c ****   }
 1526              		.loc 1 700 5 discriminator 4 view .LVU401
 1527 0336 0021     		movs	r1, #0
 1528 0338 0291     		str	r1, [sp, #8]
 1529 033a 0123     		movs	r3, #1
 1530 033c 0193     		str	r3, [sp, #4]
 1531 033e 0091     		str	r1, [sp]
 1532 0340 83B2     		uxth	r3, r0
 1533 0342 92B2     		uxth	r2, r2
 1534 0344 BDF81010 		ldrh	r1, [sp, #16]
 1535 0348 A8B2     		uxth	r0, r5
 1536 034a FFF7FEFF 		bl	EPD_DrawLine
 1537              	.LVL134:
 699:Core/Src/main.c ****     EPD_DrawLine(10+(i*5), map(q_get(i), min, max, 110, 22), 10+((i+1)*5), map(q_get(i+1), min, max
 1538              		.loc 1 699 37 is_stmt 1 discriminator 3 view .LVU402
 1539              	.L59:
 699:Core/Src/main.c ****     EPD_DrawLine(10+(i*5), map(q_get(i), min, max, 110, 22), 10+((i+1)*5), map(q_get(i+1), min, max
 1540              		.loc 1 699 25 discriminator 1 view .LVU403
 1541 034e 3D46     		mov	r5, r7
 699:Core/Src/main.c ****     EPD_DrawLine(10+(i*5), map(q_get(i), min, max, 110, 22), 10+((i+1)*5), map(q_get(i+1), min, max
 1542              		.loc 1 699 27 is_stmt 0 discriminator 1 view .LVU404
 1543 0350 FFF7FEFF 		bl	q_len
 1544              	.LVL135:
 699:Core/Src/main.c ****     EPD_DrawLine(10+(i*5), map(q_get(i), min, max, 110, 22), 10+((i+1)*5), map(q_get(i+1), min, max
 1545              		.loc 1 699 25 discriminator 1 view .LVU405
 1546 0354 8742     		cmp	r7, r0
 1547 0356 D1D3     		bcc	.L60
ARM GAS  C:\Users\kroko\AppData\Local\Temp\ccOkN8ni.s 			page 48


 1548              	.LBE16:
 1549              	.LBB17:
 703:Core/Src/main.c ****     if(i == q_len()){continue;}
 1550              		.loc 1 703 19 view .LVU406
 1551 0358 DDF814A0 		ldr	r10, [sp, #20]
 1552              	.LBE17:
 703:Core/Src/main.c ****     if(i == q_len()){continue;}
 1553              		.loc 1 703 3 is_stmt 1 view .LVU407
 1554              	.LBB19:
 703:Core/Src/main.c ****     if(i == q_len()){continue;}
 1555              		.loc 1 703 8 view .LVU408
 703:Core/Src/main.c ****     if(i == q_len()){continue;}
 1556              		.loc 1 703 19 is_stmt 0 view .LVU409
 1557 035c FFF7FEFF 		bl	q_len
 1558              	.LVL136:
 703:Core/Src/main.c ****     if(i == q_len()){continue;}
 1559              		.loc 1 703 15 discriminator 1 view .LVU410
 1560 0360 44B2     		sxtb	r4, r0
 1561              	.LVL137:
 703:Core/Src/main.c ****     if(i == q_len()){continue;}
 1562              		.loc 1 703 3 view .LVU411
 1563 0362 01E0     		b	.L61
 1564              	.LVL138:
 1565              	.L63:
 703:Core/Src/main.c ****     if(i == q_len()){continue;}
 1566              		.loc 1 703 36 is_stmt 1 discriminator 2 view .LVU412
 1567 0364 083C     		subs	r4, r4, #8
 1568              	.LVL139:
 703:Core/Src/main.c ****     if(i == q_len()){continue;}
 1569              		.loc 1 703 36 is_stmt 0 discriminator 2 view .LVU413
 1570 0366 64B2     		sxtb	r4, r4
 1571              	.LVL140:
 1572              	.L61:
 703:Core/Src/main.c ****     if(i == q_len()){continue;}
 1573              		.loc 1 703 30 is_stmt 1 discriminator 1 view .LVU414
 1574 0368 002C     		cmp	r4, #0
 1575 036a 34DD     		ble	.L92
 1576              	.LBB18:
 704:Core/Src/main.c ****     EPD_DrawLine(10+(i*5), 20, 10+(i*5), 112, BLACK, DOT_PIXEL_1X1, LINE_STYLE_DOTTED);
 1577              		.loc 1 704 5 view .LVU415
 704:Core/Src/main.c ****     EPD_DrawLine(10+(i*5), 20, 10+(i*5), 112, BLACK, DOT_PIXEL_1X1, LINE_STYLE_DOTTED);
 1578              		.loc 1 704 13 is_stmt 0 view .LVU416
 1579 036c FFF7FEFF 		bl	q_len
 1580              	.LVL141:
 704:Core/Src/main.c ****     EPD_DrawLine(10+(i*5), 20, 10+(i*5), 112, BLACK, DOT_PIXEL_1X1, LINE_STYLE_DOTTED);
 1581              		.loc 1 704 7 discriminator 1 view .LVU417
 1582 0370 8442     		cmp	r4, r0
 1583 0372 F7D0     		beq	.L63
 705:Core/Src/main.c ****     uint32_t this_time = timestamp - 1800*(q_len()-i-1);
 1584              		.loc 1 705 5 is_stmt 1 view .LVU418
 705:Core/Src/main.c ****     uint32_t this_time = timestamp - 1800*(q_len()-i-1);
 1585              		.loc 1 705 23 is_stmt 0 view .LVU419
 1586 0374 04EB8405 		add	r5, r4, r4, lsl #2
 1587 0378 ADB2     		uxth	r5, r5
 705:Core/Src/main.c ****     uint32_t this_time = timestamp - 1800*(q_len()-i-1);
 1588              		.loc 1 705 5 view .LVU420
 1589 037a 0A35     		adds	r5, r5, #10
ARM GAS  C:\Users\kroko\AppData\Local\Temp\ccOkN8ni.s 			page 49


 1590 037c ADB2     		uxth	r5, r5
 1591 037e 0123     		movs	r3, #1
 1592 0380 0293     		str	r3, [sp, #8]
 1593 0382 0193     		str	r3, [sp, #4]
 1594 0384 0026     		movs	r6, #0
 1595 0386 0096     		str	r6, [sp]
 1596 0388 7023     		movs	r3, #112
 1597 038a 2A46     		mov	r2, r5
 1598 038c 1421     		movs	r1, #20
 1599 038e 2846     		mov	r0, r5
 1600 0390 FFF7FEFF 		bl	EPD_DrawLine
 1601              	.LVL142:
 706:Core/Src/main.c ****     // struct tm  ts;
 1602              		.loc 1 706 5 is_stmt 1 view .LVU421
 706:Core/Src/main.c ****     // struct tm  ts;
 1603              		.loc 1 706 44 is_stmt 0 view .LVU422
 1604 0394 FFF7FEFF 		bl	q_len
 1605              	.LVL143:
 706:Core/Src/main.c ****     // struct tm  ts;
 1606              		.loc 1 706 51 discriminator 1 view .LVU423
 1607 0398 001B     		subs	r0, r0, r4
 706:Core/Src/main.c ****     // struct tm  ts;
 1608              		.loc 1 706 53 discriminator 1 view .LVU424
 1609 039a 0138     		subs	r0, r0, #1
 1610              	.LVL144:
 713:Core/Src/main.c ****     // sprintf(timest_buf, "%d", this_time-1740000000);
 1611              		.loc 1 713 5 is_stmt 1 view .LVU425
 717:Core/Src/main.c ****     timestamp_to_time(this_time, &hours, &minutes);
 1612              		.loc 1 717 5 view .LVU426
 718:Core/Src/main.c ****     sprintf(timest_buf, "%d:%d", hours, minutes);
 1613              		.loc 1 718 5 view .LVU427
 1614 039c 0DF11F02 		add	r2, sp, #31
 1615 03a0 0DF11E01 		add	r1, sp, #30
 1616 03a4 4FF4E163 		mov	r3, #1800
 1617 03a8 03FB10B0 		mls	r0, r3, r0, fp
 1618              	.LVL145:
 718:Core/Src/main.c ****     sprintf(timest_buf, "%d:%d", hours, minutes);
 1619              		.loc 1 718 5 is_stmt 0 view .LVU428
 1620 03ac FFF7FEFF 		bl	timestamp_to_time
 1621              	.LVL146:
 719:Core/Src/main.c ****     EPD_DrawString_EN(10+(i*5), 114, timest_buf, &Font8, WHITE, BLACK);
 1622              		.loc 1 719 5 is_stmt 1 view .LVU429
 1623 03b0 08AF     		add	r7, sp, #32
 1624 03b2 9DF81F30 		ldrb	r3, [sp, #31]	@ zero_extendqisi2
 1625 03b6 9DF81E20 		ldrb	r2, [sp, #30]	@ zero_extendqisi2
 1626 03ba 6D49     		ldr	r1, .L97+8
 1627 03bc 3846     		mov	r0, r7
 1628 03be FFF7FEFF 		bl	sprintf
 1629              	.LVL147:
 720:Core/Src/main.c ****   }
 1630              		.loc 1 720 5 view .LVU430
 1631 03c2 0196     		str	r6, [sp, #4]
 1632 03c4 FF23     		movs	r3, #255
 1633 03c6 0093     		str	r3, [sp]
 1634 03c8 6A4B     		ldr	r3, .L97+12
 1635 03ca 3A46     		mov	r2, r7
 1636 03cc 7221     		movs	r1, #114
ARM GAS  C:\Users\kroko\AppData\Local\Temp\ccOkN8ni.s 			page 50


 1637 03ce 2846     		mov	r0, r5
 1638 03d0 FFF7FEFF 		bl	EPD_DrawString_EN
 1639              	.LVL148:
 1640 03d4 C6E7     		b	.L63
 1641              	.LVL149:
 1642              	.L92:
 720:Core/Src/main.c ****   }
 1643              		.loc 1 720 5 is_stmt 0 view .LVU431
 1644              	.LBE18:
 1645              	.LBE19:
 723:Core/Src/main.c ****   if(dt < 100 && dt >= 10){
 1646              		.loc 1 723 3 is_stmt 1 view .LVU432
 724:Core/Src/main.c ****     sprintf(buf, "%d.%d*C/div", dt/100, dt-(dt/100));
 1647              		.loc 1 724 3 view .LVU433
 724:Core/Src/main.c ****     sprintf(buf, "%d.%d*C/div", dt/100, dt-(dt/100));
 1648              		.loc 1 724 15 is_stmt 0 view .LVU434
 1649 03d6 A9F10A03 		sub	r3, r9, #10
 1650 03da 9BB2     		uxth	r3, r3
 724:Core/Src/main.c ****     sprintf(buf, "%d.%d*C/div", dt/100, dt-(dt/100));
 1651              		.loc 1 724 5 view .LVU435
 1652 03dc 592B     		cmp	r3, #89
 1653 03de 40F29F80 		bls	.L93
 726:Core/Src/main.c ****     sprintf(buf, "%d.0%d*C/div", dt/100, dt-(dt/100));
 1654              		.loc 1 726 9 is_stmt 1 view .LVU436
 726:Core/Src/main.c ****     sprintf(buf, "%d.0%d*C/div", dt/100, dt-(dt/100));
 1655              		.loc 1 726 11 is_stmt 0 view .LVU437
 1656 03e2 B9F1090F 		cmp	r9, #9
 1657 03e6 00F2A680 		bhi	.L67
 727:Core/Src/main.c ****   }else{
 1658              		.loc 1 727 5 is_stmt 1 view .LVU438
 1659 03ea 634A     		ldr	r2, .L97+16
 1660 03ec A2FB0992 		umull	r9, r2, r2, r9
 1661              	.LVL150:
 727:Core/Src/main.c ****   }else{
 1662              		.loc 1 727 5 is_stmt 0 view .LVU439
 1663 03f0 AAEB5213 		sub	r3, r10, r2, lsr #5
 1664 03f4 5209     		lsrs	r2, r2, #5
 1665 03f6 6149     		ldr	r1, .L97+20
 1666 03f8 17A8     		add	r0, sp, #92
 1667 03fa FFF7FEFF 		bl	sprintf
 1668              	.LVL151:
 1669              	.L66:
 731:Core/Src/main.c **** 
 1670              		.loc 1 731 3 is_stmt 1 view .LVU440
 1671 03fe 0020     		movs	r0, #0
 1672 0400 0190     		str	r0, [sp, #4]
 1673 0402 FF23     		movs	r3, #255
 1674 0404 0093     		str	r3, [sp]
 1675 0406 5E4B     		ldr	r3, .L97+24
 1676 0408 17AA     		add	r2, sp, #92
 1677 040a 0146     		mov	r1, r0
 1678 040c FFF7FEFF 		bl	EPD_DrawString_EN
 1679              	.LVL152:
 733:Core/Src/main.c **** 
 1680              		.loc 1 733 3 view .LVU441
 733:Core/Src/main.c **** 
 1681              		.loc 1 733 29 is_stmt 0 view .LVU442
ARM GAS  C:\Users\kroko\AppData\Local\Temp\ccOkN8ni.s 			page 51


 1682 0410 5C4B     		ldr	r3, .L97+28
 1683 0412 1888     		ldrh	r0, [r3]
 1684 0414 FFF7FEFF 		bl	__aeabi_i2d
 1685              	.LVL153:
 1686 0418 0246     		mov	r2, r0
 1687 041a 0B46     		mov	r3, r1
 1688 041c 52A1     		adr	r1, .L97
 1689 041e D1E90001 		ldrd	r0, [r1]
 1690 0422 FFF7FEFF 		bl	__aeabi_ddiv
 1691              	.LVL154:
 1692 0426 FFF7FEFF 		bl	__aeabi_d2f
 1693              	.LVL155:
 1694 042a 07EE900A 		vmov	s15, r0
 733:Core/Src/main.c **** 
 1695              		.loc 1 733 14 view .LVU443
 1696 042e 564B     		ldr	r3, .L97+32
 1697 0430 1860     		str	r0, [r3]	@ float
 738:Core/Src/main.c ****     EPD_SetRotate(0);
 1698              		.loc 1 738 3 is_stmt 1 view .LVU444
 738:Core/Src/main.c ****     EPD_SetRotate(0);
 1699              		.loc 1 738 5 is_stmt 0 view .LVU445
 1700 0432 B0EE027A 		vmov.f32	s14, #2.25e+0
 1701 0436 F4EEC77A 		vcmpe.f32	s15, s14
 1702 043a F1EE10FA 		vmrs	APSR_nzcv, FPSCR
 1703 043e 00F18380 		bmi	.L94
 1704              	.L68:
 745:Core/Src/main.c ****   EPD_DrawLine(10, 20, 10, 112, BLACK, DOT_PIXEL_1X1, LINE_STYLE_SOLID);
 1705              		.loc 1 745 3 is_stmt 1 view .LVU446
 1706 0442 0024     		movs	r4, #0
 1707              	.LVL156:
 745:Core/Src/main.c ****   EPD_DrawLine(10, 20, 10, 112, BLACK, DOT_PIXEL_1X1, LINE_STYLE_SOLID);
 1708              		.loc 1 745 3 is_stmt 0 view .LVU447
 1709 0444 0294     		str	r4, [sp, #8]
 1710 0446 0125     		movs	r5, #1
 1711 0448 0195     		str	r5, [sp, #4]
 1712 044a 0094     		str	r4, [sp]
 1713 044c 7023     		movs	r3, #112
 1714 044e FA22     		movs	r2, #250
 1715 0450 1946     		mov	r1, r3
 1716 0452 0A20     		movs	r0, #10
 1717 0454 FFF7FEFF 		bl	EPD_DrawLine
 1718              	.LVL157:
 746:Core/Src/main.c **** 
 1719              		.loc 1 746 3 is_stmt 1 view .LVU448
 1720 0458 0294     		str	r4, [sp, #8]
 1721 045a 0195     		str	r5, [sp, #4]
 1722 045c 0094     		str	r4, [sp]
 1723 045e 7023     		movs	r3, #112
 1724 0460 0A22     		movs	r2, #10
 1725 0462 1421     		movs	r1, #20
 1726 0464 1046     		mov	r0, r2
 1727 0466 FFF7FEFF 		bl	EPD_DrawLine
 1728              	.LVL158:
 748:Core/Src/main.c ****   RTC_DateTypeDef sDate = {0};
 1729              		.loc 1 748 3 view .LVU449
 748:Core/Src/main.c ****   RTC_DateTypeDef sDate = {0};
 1730              		.loc 1 748 19 is_stmt 0 view .LVU450
ARM GAS  C:\Users\kroko\AppData\Local\Temp\ccOkN8ni.s 			page 52


 1731 046a 12A9     		add	r1, sp, #72
 1732 046c 1294     		str	r4, [sp, #72]
 1733 046e 4C60     		str	r4, [r1, #4]
 1734 0470 8C60     		str	r4, [r1, #8]
 1735 0472 CC60     		str	r4, [r1, #12]
 1736 0474 0C61     		str	r4, [r1, #16]
 749:Core/Src/main.c **** 
 1737              		.loc 1 749 3 is_stmt 1 view .LVU451
 749:Core/Src/main.c **** 
 1738              		.loc 1 749 19 is_stmt 0 view .LVU452
 1739 0476 1194     		str	r4, [sp, #68]
 751:Core/Src/main.c ****   HAL_RTC_GetDate(&hrtc, &sDate, RTC_FORMAT_BIN);
 1740              		.loc 1 751 3 is_stmt 1 view .LVU453
 1741 0478 444D     		ldr	r5, .L97+36
 1742 047a 2246     		mov	r2, r4
 1743 047c 2846     		mov	r0, r5
 1744 047e FFF7FEFF 		bl	HAL_RTC_GetTime
 1745              	.LVL159:
 752:Core/Src/main.c **** 
 1746              		.loc 1 752 3 view .LVU454
 1747 0482 2246     		mov	r2, r4
 1748 0484 11A9     		add	r1, sp, #68
 1749 0486 2846     		mov	r0, r5
 1750 0488 FFF7FEFF 		bl	HAL_RTC_GetDate
 1751              	.LVL160:
 754:Core/Src/main.c ****   time.Day = sDate.Date;
 1752              		.loc 1 754 3 view .LVU455
 755:Core/Src/main.c ****   time.Month = sDate.Month;
 1753              		.loc 1 755 3 view .LVU456
 755:Core/Src/main.c ****   time.Month = sDate.Month;
 1754              		.loc 1 755 19 is_stmt 0 view .LVU457
 1755 048c 9DF84630 		ldrb	r3, [sp, #70]	@ zero_extendqisi2
 755:Core/Src/main.c ****   time.Month = sDate.Month;
 1756              		.loc 1 755 12 view .LVU458
 1757 0490 8DF83F30 		strb	r3, [sp, #63]
 756:Core/Src/main.c ****   time.Year = sDate.Year;
 1758              		.loc 1 756 3 is_stmt 1 view .LVU459
 756:Core/Src/main.c ****   time.Year = sDate.Year;
 1759              		.loc 1 756 21 is_stmt 0 view .LVU460
 1760 0494 9DF84530 		ldrb	r3, [sp, #69]	@ zero_extendqisi2
 756:Core/Src/main.c ****   time.Year = sDate.Year;
 1761              		.loc 1 756 14 view .LVU461
 1762 0498 8DF83E30 		strb	r3, [sp, #62]
 757:Core/Src/main.c ****   EPD_DrawDate(175, 0, &time, &Font16, WHITE, BLACK);
 1763              		.loc 1 757 3 is_stmt 1 view .LVU462
 757:Core/Src/main.c ****   EPD_DrawDate(175, 0, &time, &Font16, WHITE, BLACK);
 1764              		.loc 1 757 20 is_stmt 0 view .LVU463
 1765 049c 9DF84730 		ldrb	r3, [sp, #71]	@ zero_extendqisi2
 757:Core/Src/main.c ****   EPD_DrawDate(175, 0, &time, &Font16, WHITE, BLACK);
 1766              		.loc 1 757 13 view .LVU464
 1767 04a0 ADF83C30 		strh	r3, [sp, #60]	@ movhi
 758:Core/Src/main.c **** 
 1768              		.loc 1 758 3 is_stmt 1 view .LVU465
 1769 04a4 3A4E     		ldr	r6, .L97+40
 1770 04a6 0194     		str	r4, [sp, #4]
 1771 04a8 FF27     		movs	r7, #255
 1772 04aa 0097     		str	r7, [sp]
ARM GAS  C:\Users\kroko\AppData\Local\Temp\ccOkN8ni.s 			page 53


 1773 04ac 3346     		mov	r3, r6
 1774 04ae 0FAA     		add	r2, sp, #60
 1775 04b0 2146     		mov	r1, r4
 1776 04b2 AF20     		movs	r0, #175
 1777 04b4 FFF7FEFF 		bl	EPD_DrawDate
 1778              	.LVL161:
 765:Core/Src/main.c ****   sprintf(temp_buf, "%d.%dC", q_get(q_len()-1)/100, q_get(q_len()-1)%100);
 1779              		.loc 1 765 3 view .LVU466
 766:Core/Src/main.c ****   EPD_DrawString_EN(85, 0, temp_buf, &Font16, WHITE, BLACK);
 1780              		.loc 1 766 3 view .LVU467
 766:Core/Src/main.c ****   EPD_DrawString_EN(85, 0, temp_buf, &Font16, WHITE, BLACK);
 1781              		.loc 1 766 37 is_stmt 0 view .LVU468
 1782 04b8 FFF7FEFF 		bl	q_len
 1783              	.LVL162:
 766:Core/Src/main.c ****   EPD_DrawString_EN(85, 0, temp_buf, &Font16, WHITE, BLACK);
 1784              		.loc 1 766 31 discriminator 1 view .LVU469
 1785 04bc 0138     		subs	r0, r0, #1
 1786 04be C0B2     		uxtb	r0, r0
 1787 04c0 FFF7FEFF 		bl	q_get
 1788              	.LVL163:
 1789 04c4 0546     		mov	r5, r0
 766:Core/Src/main.c ****   EPD_DrawString_EN(85, 0, temp_buf, &Font16, WHITE, BLACK);
 1790              		.loc 1 766 59 discriminator 2 view .LVU470
 1791 04c6 FFF7FEFF 		bl	q_len
 1792              	.LVL164:
 766:Core/Src/main.c ****   EPD_DrawString_EN(85, 0, temp_buf, &Font16, WHITE, BLACK);
 1793              		.loc 1 766 53 discriminator 3 view .LVU471
 1794 04ca 0138     		subs	r0, r0, #1
 1795 04cc C0B2     		uxtb	r0, r0
 1796 04ce FFF7FEFF 		bl	q_get
 1797              	.LVL165:
 766:Core/Src/main.c ****   EPD_DrawString_EN(85, 0, temp_buf, &Font16, WHITE, BLACK);
 1798              		.loc 1 766 3 discriminator 4 view .LVU472
 1799 04d2 294B     		ldr	r3, .L97+16
 1800 04d4 83FB0021 		smull	r2, r1, r3, r0
 1801 04d8 C217     		asrs	r2, r0, #31
 1802 04da C2EB6112 		rsb	r2, r2, r1, asr #5
 1803 04de 4FF06408 		mov	r8, #100
 1804              	.LVL166:
 766:Core/Src/main.c ****   EPD_DrawString_EN(85, 0, temp_buf, &Font16, WHITE, BLACK);
 1805              		.loc 1 766 3 discriminator 4 view .LVU473
 1806 04e2 08FB1200 		mls	r0, r8, r2, r0
 766:Core/Src/main.c ****   EPD_DrawString_EN(85, 0, temp_buf, &Font16, WHITE, BLACK);
 1807              		.loc 1 766 3 discriminator 2 view .LVU474
 1808 04e6 83FB0523 		smull	r2, r3, r3, r5
 1809 04ea EA17     		asrs	r2, r5, #31
 1810 04ec C2EB6312 		rsb	r2, r2, r3, asr #5
 766:Core/Src/main.c ****   EPD_DrawString_EN(85, 0, temp_buf, &Font16, WHITE, BLACK);
 1811              		.loc 1 766 3 discriminator 4 view .LVU475
 1812 04f0 0CAD     		add	r5, sp, #48
 1813 04f2 03B2     		sxth	r3, r0
 1814 04f4 12B2     		sxth	r2, r2
 1815 04f6 2749     		ldr	r1, .L97+44
 1816 04f8 2846     		mov	r0, r5
 1817 04fa FFF7FEFF 		bl	sprintf
 1818              	.LVL167:
 767:Core/Src/main.c ****   
ARM GAS  C:\Users\kroko\AppData\Local\Temp\ccOkN8ni.s 			page 54


 1819              		.loc 1 767 3 is_stmt 1 view .LVU476
 1820 04fe 0194     		str	r4, [sp, #4]
 1821 0500 0097     		str	r7, [sp]
 1822 0502 3346     		mov	r3, r6
 1823 0504 2A46     		mov	r2, r5
 1824 0506 2146     		mov	r1, r4
 1825 0508 5520     		movs	r0, #85
 1826 050a FFF7FEFF 		bl	EPD_DrawString_EN
 1827              	.LVL168:
 769:Core/Src/main.c ****   HAL_Delay(100);
 1828              		.loc 1 769 3 view .LVU477
 1829 050e 2248     		ldr	r0, .L97+48
 1830 0510 FFF7FEFF 		bl	EPD_Display_Base
 1831              	.LVL169:
 770:Core/Src/main.c **** }
 1832              		.loc 1 770 3 view .LVU478
 1833 0514 4046     		mov	r0, r8
 1834 0516 FFF7FEFF 		bl	HAL_Delay
 1835              	.LVL170:
 771:Core/Src/main.c **** 
 1836              		.loc 1 771 1 is_stmt 0 view .LVU479
 1837 051a 1BB0     		add	sp, sp, #108
 1838              		.cfi_remember_state
 1839              		.cfi_def_cfa_offset 36
 1840              		@ sp needed
 1841 051c BDE8F08F 		pop	{r4, r5, r6, r7, r8, r9, r10, fp, pc}
 1842              	.LVL171:
 1843              	.L93:
 1844              		.cfi_restore_state
 725:Core/Src/main.c ****   }else if(dt < 10){
 1845              		.loc 1 725 5 is_stmt 1 view .LVU480
 1846 0520 154A     		ldr	r2, .L97+16
 1847 0522 A2FB0992 		umull	r9, r2, r2, r9
 1848              	.LVL172:
 725:Core/Src/main.c ****   }else if(dt < 10){
 1849              		.loc 1 725 5 is_stmt 0 view .LVU481
 1850 0526 AAEB5213 		sub	r3, r10, r2, lsr #5
 1851 052a 5209     		lsrs	r2, r2, #5
 1852 052c 1B49     		ldr	r1, .L97+52
 1853 052e 17A8     		add	r0, sp, #92
 1854 0530 FFF7FEFF 		bl	sprintf
 1855              	.LVL173:
 1856 0534 63E7     		b	.L66
 1857              	.LVL174:
 1858              	.L67:
 729:Core/Src/main.c ****   }
 1859              		.loc 1 729 5 is_stmt 1 view .LVU482
 1860 0536 104B     		ldr	r3, .L97+16
 1861 0538 A3FB0932 		umull	r3, r2, r3, r9
 1862 053c 5209     		lsrs	r2, r2, #5
 1863 053e 1849     		ldr	r1, .L97+56
 1864 0540 17A8     		add	r0, sp, #92
 1865 0542 FFF7FEFF 		bl	sprintf
 1866              	.LVL175:
 1867 0546 5AE7     		b	.L66
 1868              	.LVL176:
 1869              	.L94:
ARM GAS  C:\Users\kroko\AppData\Local\Temp\ccOkN8ni.s 			page 55


 739:Core/Src/main.c ****     EPD_DrawBMP(107, 95, 16, 26, dead_batt_26x16);
 1870              		.loc 1 739 5 view .LVU483
 1871 0548 0020     		movs	r0, #0
 1872 054a FFF7FEFF 		bl	EPD_SetRotate
 1873              	.LVL177:
 740:Core/Src/main.c ****     EPD_SetRotate(90);
 1874              		.loc 1 740 5 view .LVU484
 1875 054e 154B     		ldr	r3, .L97+60
 1876 0550 0093     		str	r3, [sp]
 1877 0552 1A23     		movs	r3, #26
 1878 0554 1022     		movs	r2, #16
 1879 0556 5F21     		movs	r1, #95
 1880 0558 6B20     		movs	r0, #107
 1881 055a FFF7FEFF 		bl	EPD_DrawBMP
 1882              	.LVL178:
 741:Core/Src/main.c ****   }
 1883              		.loc 1 741 5 view .LVU485
 1884 055e 5A20     		movs	r0, #90
 1885 0560 FFF7FEFF 		bl	EPD_SetRotate
 1886              	.LVL179:
 1887 0564 6DE7     		b	.L68
 1888              	.L98:
 1889 0566 00BF     		.align	3
 1890              	.L97:
 1891 0568 99999999 		.word	-1717986919
 1892 056c 19E0B240 		.word	1085464601
 1893 0570 0C000000 		.word	.LC3
 1894 0574 00000000 		.word	Font8
 1895 0578 1F85EB51 		.word	1374389535
 1896 057c 20000000 		.word	.LC5
 1897 0580 00000000 		.word	Font12
 1898 0584 00000000 		.word	adcData
 1899 0588 00000000 		.word	mcuVoltage
 1900 058c 00000000 		.word	hrtc
 1901 0590 00000000 		.word	Font16
 1902 0594 3C000000 		.word	.LC7
 1903 0598 00000000 		.word	BlackImage
 1904 059c 14000000 		.word	.LC4
 1905 05a0 30000000 		.word	.LC6
 1906 05a4 00000000 		.word	dead_batt_26x16
 1907              		.cfi_endproc
 1908              	.LFE331:
 1910              		.section	.rodata.USB_CDC_RxHandler.str1.4,"aMS",%progbits,1
 1911              		.align	2
 1912              	.LC8:
 1913 0000 5465726D 		.ascii	"Termaink Ready\012\015\000"
 1913      61696E6B 
 1913      20526561 
 1913      64790A0D 
 1913      00
 1914              		.section	.text.USB_CDC_RxHandler,"ax",%progbits
 1915              		.align	1
 1916              		.global	USB_CDC_RxHandler
 1917              		.syntax unified
 1918              		.thumb
 1919              		.thumb_func
 1921              	USB_CDC_RxHandler:
ARM GAS  C:\Users\kroko\AppData\Local\Temp\ccOkN8ni.s 			page 56


 1922              	.LVL180:
 1923              	.LFB340:
 959:Core/Src/main.c **** 
 960:Core/Src/main.c **** 
 961:Core/Src/main.c **** void USB_CDC_RxHandler(uint8_t* Buf, uint32_t Len)
 962:Core/Src/main.c **** {
 1924              		.loc 1 962 1 view -0
 1925              		.cfi_startproc
 1926              		@ args = 0, pretend = 0, frame = 0
 1927              		@ frame_needed = 0, uses_anonymous_args = 0
 1928              		.loc 1 962 1 is_stmt 0 view .LVU487
 1929 0000 10B5     		push	{r4, lr}
 1930              		.cfi_def_cfa_offset 8
 1931              		.cfi_offset 4, -8
 1932              		.cfi_offset 14, -4
 963:Core/Src/main.c ****   switch(Buf[0]){
 1933              		.loc 1 963 3 is_stmt 1 view .LVU488
 1934              		.loc 1 963 13 is_stmt 0 view .LVU489
 1935 0002 0378     		ldrb	r3, [r0]	@ zero_extendqisi2
 1936              		.loc 1 963 3 view .LVU490
 1937 0004 732B     		cmp	r3, #115
 1938 0006 0CD0     		beq	.L100
 1939 0008 742B     		cmp	r3, #116
 1940 000a 05D0     		beq	.L101
 1941 000c 672B     		cmp	r3, #103
 1942 000e 07D1     		bne	.L99
 964:Core/Src/main.c ****     case 't':
 965:Core/Src/main.c ****       CDC_Transmit_FS("Termaink Ready\n\r", 17);
 966:Core/Src/main.c ****       break;
 967:Core/Src/main.c ****     case 'g':
 968:Core/Src/main.c ****       send_usb_data = true;
 1943              		.loc 1 968 7 is_stmt 1 view .LVU491
 1944              		.loc 1 968 21 is_stmt 0 view .LVU492
 1945 0010 0F4B     		ldr	r3, .L105
 1946 0012 0122     		movs	r2, #1
 1947 0014 1A70     		strb	r2, [r3]
 969:Core/Src/main.c ****       break;
 1948              		.loc 1 969 7 is_stmt 1 view .LVU493
 1949 0016 03E0     		b	.L99
 1950              	.L101:
 965:Core/Src/main.c ****       break;
 1951              		.loc 1 965 7 view .LVU494
 1952 0018 1121     		movs	r1, #17
 1953              	.LVL181:
 965:Core/Src/main.c ****       break;
 1954              		.loc 1 965 7 is_stmt 0 view .LVU495
 1955 001a 0E48     		ldr	r0, .L105+4
 1956              	.LVL182:
 965:Core/Src/main.c ****       break;
 1957              		.loc 1 965 7 view .LVU496
 1958 001c FFF7FEFF 		bl	CDC_Transmit_FS
 1959              	.LVL183:
 966:Core/Src/main.c ****     case 'g':
 1960              		.loc 1 966 7 is_stmt 1 view .LVU497
 1961              	.L99:
 970:Core/Src/main.c ****     case 's':
 971:Core/Src/main.c ****       set_rtc = true;
ARM GAS  C:\Users\kroko\AppData\Local\Temp\ccOkN8ni.s 			page 57


 972:Core/Src/main.c ****       memcpy(rtc_buf, Buf, 25);
 973:Core/Src/main.c ****       break;
 974:Core/Src/main.c ****   }
 975:Core/Src/main.c **** }
 1962              		.loc 1 975 1 is_stmt 0 view .LVU498
 1963 0020 10BD     		pop	{r4, pc}
 1964              	.LVL184:
 1965              	.L100:
 1966              		.loc 1 975 1 view .LVU499
 1967 0022 8446     		mov	ip, r0
 971:Core/Src/main.c ****       memcpy(rtc_buf, Buf, 25);
 1968              		.loc 1 971 7 is_stmt 1 view .LVU500
 971:Core/Src/main.c ****       memcpy(rtc_buf, Buf, 25);
 1969              		.loc 1 971 15 is_stmt 0 view .LVU501
 1970 0024 0C4B     		ldr	r3, .L105+8
 1971 0026 0122     		movs	r2, #1
 1972 0028 1A70     		strb	r2, [r3]
 972:Core/Src/main.c ****       break;
 1973              		.loc 1 972 7 is_stmt 1 view .LVU502
 1974 002a 0C4C     		ldr	r4, .L105+12
 1975 002c 0068     		ldr	r0, [r0]	@ unaligned
 1976              	.LVL185:
 972:Core/Src/main.c ****       break;
 1977              		.loc 1 972 7 is_stmt 0 view .LVU503
 1978 002e DCF80410 		ldr	r1, [ip, #4]	@ unaligned
 1979              	.LVL186:
 972:Core/Src/main.c ****       break;
 1980              		.loc 1 972 7 view .LVU504
 1981 0032 DCF80820 		ldr	r2, [ip, #8]	@ unaligned
 1982 0036 DCF80C30 		ldr	r3, [ip, #12]	@ unaligned
 1983 003a 0FC4     		stmia	r4!, {r0, r1, r2, r3}
 1984 003c DCF81000 		ldr	r0, [ip, #16]	@ unaligned
 1985 0040 DCF81410 		ldr	r1, [ip, #20]	@ unaligned
 1986 0044 03C4     		stmia	r4!, {r0, r1}
 1987 0046 9CF81830 		ldrb	r3, [ip, #24]	@ zero_extendqisi2
 1988 004a 2370     		strb	r3, [r4]
 973:Core/Src/main.c ****   }
 1989              		.loc 1 973 7 is_stmt 1 view .LVU505
 1990              		.loc 1 975 1 is_stmt 0 view .LVU506
 1991 004c E8E7     		b	.L99
 1992              	.L106:
 1993 004e 00BF     		.align	2
 1994              	.L105:
 1995 0050 00000000 		.word	send_usb_data
 1996 0054 00000000 		.word	.LC8
 1997 0058 00000000 		.word	set_rtc
 1998 005c 00000000 		.word	rtc_buf
 1999              		.cfi_endproc
 2000              	.LFE340:
 2002              		.section	.rodata.syncRTC.str1.4,"aMS",%progbits,1
 2003              		.align	2
 2004              	.LC9:
 2005 0000 73253032 		.ascii	"s%02d.%02d.%02d.%02d.%02d.%02d\000"
 2005      642E2530 
 2005      32642E25 
 2005      3032642E 
 2005      25303264 
ARM GAS  C:\Users\kroko\AppData\Local\Temp\ccOkN8ni.s 			page 58


 2006              		.section	.text.syncRTC,"ax",%progbits
 2007              		.align	1
 2008              		.global	syncRTC
 2009              		.syntax unified
 2010              		.thumb
 2011              		.thumb_func
 2013              	syncRTC:
 2014              	.LFB341:
 976:Core/Src/main.c **** 
 977:Core/Src/main.c **** void syncRTC(){
 2015              		.loc 1 977 15 is_stmt 1 view -0
 2016              		.cfi_startproc
 2017              		@ args = 0, pretend = 0, frame = 32
 2018              		@ frame_needed = 0, uses_anonymous_args = 0
 2019 0000 30B5     		push	{r4, r5, lr}
 2020              		.cfi_def_cfa_offset 12
 2021              		.cfi_offset 4, -12
 2022              		.cfi_offset 5, -8
 2023              		.cfi_offset 14, -4
 2024 0002 8DB0     		sub	sp, sp, #52
 2025              		.cfi_def_cfa_offset 64
 978:Core/Src/main.c ****   RTC_TimeTypeDef sTime = {0};
 2026              		.loc 1 978 3 view .LVU508
 2027              		.loc 1 978 19 is_stmt 0 view .LVU509
 2028 0004 0023     		movs	r3, #0
 2029 0006 0793     		str	r3, [sp, #28]
 2030 0008 0893     		str	r3, [sp, #32]
 2031 000a 0993     		str	r3, [sp, #36]
 2032 000c 0A93     		str	r3, [sp, #40]
 2033 000e 0B93     		str	r3, [sp, #44]
 979:Core/Src/main.c ****   RTC_DateTypeDef sDate = {0};
 2034              		.loc 1 979 3 is_stmt 1 view .LVU510
 2035              		.loc 1 979 19 is_stmt 0 view .LVU511
 2036 0010 0693     		str	r3, [sp, #24]
 980:Core/Src/main.c **** 
 981:Core/Src/main.c **** 
 982:Core/Src/main.c **** 
 983:Core/Src/main.c ****   uint8_t day, month, year, hours, minutes, seconds;
 2037              		.loc 1 983 3 is_stmt 1 view .LVU512
 984:Core/Src/main.c **** 
 985:Core/Src/main.c ****   uint8_t matched = sscanf(rtc_buf, "s%02d.%02d.%02d.%02d.%02d.%02d", &hours, &minutes, &seconds, &
 2038              		.loc 1 985 3 view .LVU513
 2039              		.loc 1 985 21 is_stmt 0 view .LVU514
 2040 0012 0DF11703 		add	r3, sp, #23
 2041 0016 0393     		str	r3, [sp, #12]
 2042 0018 0DF11603 		add	r3, sp, #22
 2043 001c 0293     		str	r3, [sp, #8]
 2044 001e 0DF11503 		add	r3, sp, #21
 2045 0022 0193     		str	r3, [sp, #4]
 2046 0024 0DF11203 		add	r3, sp, #18
 2047 0028 0093     		str	r3, [sp]
 2048 002a 0DF11303 		add	r3, sp, #19
 2049 002e 05AA     		add	r2, sp, #20
 2050 0030 1A49     		ldr	r1, .L112
 2051 0032 1B48     		ldr	r0, .L112+4
 2052 0034 FFF7FEFF 		bl	sscanf
 2053              	.LVL187:
ARM GAS  C:\Users\kroko\AppData\Local\Temp\ccOkN8ni.s 			page 59


 2054              		.loc 1 985 11 discriminator 1 view .LVU515
 2055 0038 C0B2     		uxtb	r0, r0
 2056              	.LVL188:
 986:Core/Src/main.c ****   if (matched < 6){
 2057              		.loc 1 986 3 is_stmt 1 view .LVU516
 2058              		.loc 1 986 6 is_stmt 0 view .LVU517
 2059 003a 0528     		cmp	r0, #5
 2060 003c 01D8     		bhi	.L111
 2061              	.LVL189:
 2062              	.L107:
 987:Core/Src/main.c ****     return;
 988:Core/Src/main.c ****   }
 989:Core/Src/main.c **** 
 990:Core/Src/main.c ****   sTime.Hours = hours;
 991:Core/Src/main.c ****   sTime.Minutes = minutes;
 992:Core/Src/main.c ****   sTime.Seconds = seconds;
 993:Core/Src/main.c ****   sDate.Year = year;
 994:Core/Src/main.c ****   sDate.Month = month;
 995:Core/Src/main.c ****   sDate.Date = day;
 996:Core/Src/main.c **** 
 997:Core/Src/main.c ****   sDate.WeekDay = RTC_WEEKDAY_MONDAY;
 998:Core/Src/main.c ****   sTime.DayLightSaving = RTC_DAYLIGHTSAVING_ADD1H;
 999:Core/Src/main.c ****   sTime.StoreOperation = RTC_STOREOPERATION_RESET;
1000:Core/Src/main.c **** 
1001:Core/Src/main.c ****   HAL_RTC_SetDate(&hrtc, &sDate, RTC_FORMAT_BIN);
1002:Core/Src/main.c ****   HAL_RTC_SetTime(&hrtc, &sTime, RTC_FORMAT_BIN);
1003:Core/Src/main.c **** }
 2063              		.loc 1 1003 1 view .LVU518
 2064 003e 0DB0     		add	sp, sp, #52
 2065              		.cfi_remember_state
 2066              		.cfi_def_cfa_offset 12
 2067              		@ sp needed
 2068 0040 30BD     		pop	{r4, r5, pc}
 2069              	.LVL190:
 2070              	.L111:
 2071              		.cfi_restore_state
 990:Core/Src/main.c ****   sTime.Minutes = minutes;
 2072              		.loc 1 990 3 is_stmt 1 view .LVU519
 990:Core/Src/main.c ****   sTime.Minutes = minutes;
 2073              		.loc 1 990 15 is_stmt 0 view .LVU520
 2074 0042 9DF81430 		ldrb	r3, [sp, #20]	@ zero_extendqisi2
 2075 0046 8DF81C30 		strb	r3, [sp, #28]
 991:Core/Src/main.c ****   sTime.Seconds = seconds;
 2076              		.loc 1 991 3 is_stmt 1 view .LVU521
 991:Core/Src/main.c ****   sTime.Seconds = seconds;
 2077              		.loc 1 991 17 is_stmt 0 view .LVU522
 2078 004a 9DF81330 		ldrb	r3, [sp, #19]	@ zero_extendqisi2
 2079 004e 8DF81D30 		strb	r3, [sp, #29]
 992:Core/Src/main.c ****   sDate.Year = year;
 2080              		.loc 1 992 3 is_stmt 1 view .LVU523
 992:Core/Src/main.c ****   sDate.Year = year;
 2081              		.loc 1 992 17 is_stmt 0 view .LVU524
 2082 0052 9DF81230 		ldrb	r3, [sp, #18]	@ zero_extendqisi2
 2083 0056 8DF81E30 		strb	r3, [sp, #30]
 993:Core/Src/main.c ****   sDate.Month = month;
 2084              		.loc 1 993 3 is_stmt 1 view .LVU525
 993:Core/Src/main.c ****   sDate.Month = month;
ARM GAS  C:\Users\kroko\AppData\Local\Temp\ccOkN8ni.s 			page 60


 2085              		.loc 1 993 14 is_stmt 0 view .LVU526
 2086 005a 9DF81530 		ldrb	r3, [sp, #21]	@ zero_extendqisi2
 2087 005e 8DF81B30 		strb	r3, [sp, #27]
 994:Core/Src/main.c ****   sDate.Date = day;
 2088              		.loc 1 994 3 is_stmt 1 view .LVU527
 994:Core/Src/main.c ****   sDate.Date = day;
 2089              		.loc 1 994 15 is_stmt 0 view .LVU528
 2090 0062 9DF81630 		ldrb	r3, [sp, #22]	@ zero_extendqisi2
 2091 0066 8DF81930 		strb	r3, [sp, #25]
 995:Core/Src/main.c **** 
 2092              		.loc 1 995 3 is_stmt 1 view .LVU529
 995:Core/Src/main.c **** 
 2093              		.loc 1 995 14 is_stmt 0 view .LVU530
 2094 006a 9DF81730 		ldrb	r3, [sp, #23]	@ zero_extendqisi2
 2095 006e 8DF81A30 		strb	r3, [sp, #26]
 997:Core/Src/main.c ****   sTime.DayLightSaving = RTC_DAYLIGHTSAVING_ADD1H;
 2096              		.loc 1 997 3 is_stmt 1 view .LVU531
 997:Core/Src/main.c ****   sTime.DayLightSaving = RTC_DAYLIGHTSAVING_ADD1H;
 2097              		.loc 1 997 17 is_stmt 0 view .LVU532
 2098 0072 0123     		movs	r3, #1
 2099 0074 8DF81830 		strb	r3, [sp, #24]
 998:Core/Src/main.c ****   sTime.StoreOperation = RTC_STOREOPERATION_RESET;
 2100              		.loc 1 998 3 is_stmt 1 view .LVU533
 998:Core/Src/main.c ****   sTime.StoreOperation = RTC_STOREOPERATION_RESET;
 2101              		.loc 1 998 24 is_stmt 0 view .LVU534
 2102 0078 4FF48033 		mov	r3, #65536
 2103 007c 0A93     		str	r3, [sp, #40]
 999:Core/Src/main.c **** 
 2104              		.loc 1 999 3 is_stmt 1 view .LVU535
 999:Core/Src/main.c **** 
 2105              		.loc 1 999 24 is_stmt 0 view .LVU536
 2106 007e 0024     		movs	r4, #0
 2107 0080 0B94     		str	r4, [sp, #44]
1001:Core/Src/main.c ****   HAL_RTC_SetTime(&hrtc, &sTime, RTC_FORMAT_BIN);
 2108              		.loc 1 1001 3 is_stmt 1 view .LVU537
 2109 0082 084D     		ldr	r5, .L112+8
 2110 0084 2246     		mov	r2, r4
 2111 0086 06A9     		add	r1, sp, #24
 2112 0088 2846     		mov	r0, r5
 2113              	.LVL191:
1001:Core/Src/main.c ****   HAL_RTC_SetTime(&hrtc, &sTime, RTC_FORMAT_BIN);
 2114              		.loc 1 1001 3 is_stmt 0 view .LVU538
 2115 008a FFF7FEFF 		bl	HAL_RTC_SetDate
 2116              	.LVL192:
1002:Core/Src/main.c **** }
 2117              		.loc 1 1002 3 is_stmt 1 view .LVU539
 2118 008e 2246     		mov	r2, r4
 2119 0090 07A9     		add	r1, sp, #28
 2120 0092 2846     		mov	r0, r5
 2121 0094 FFF7FEFF 		bl	HAL_RTC_SetTime
 2122              	.LVL193:
 2123 0098 D1E7     		b	.L107
 2124              	.L113:
 2125 009a 00BF     		.align	2
 2126              	.L112:
 2127 009c 00000000 		.word	.LC9
 2128 00a0 00000000 		.word	rtc_buf
ARM GAS  C:\Users\kroko\AppData\Local\Temp\ccOkN8ni.s 			page 61


 2129 00a4 00000000 		.word	hrtc
 2130              		.cfi_endproc
 2131              	.LFE341:
 2133              		.section	.rodata.USB_SendAllData.str1.4,"aMS",%progbits,1
 2134              		.align	2
 2135              	.LC10:
 2136 0000 25640A0D 		.ascii	"%d\012\015\000"
 2136      00
 2137 0005 000000   		.align	2
 2138              	.LC11:
 2139 0008 5425640A 		.ascii	"T%d\012\015\000"
 2139      0D00
 2140              		.section	.text.USB_SendAllData,"ax",%progbits
 2141              		.align	1
 2142              		.global	USB_SendAllData
 2143              		.syntax unified
 2144              		.thumb
 2145              		.thumb_func
 2147              	USB_SendAllData:
 2148              	.LFB342:
1004:Core/Src/main.c **** 
1005:Core/Src/main.c **** void USB_SendAllData(){
 2149              		.loc 1 1005 23 view -0
 2150              		.cfi_startproc
 2151              		@ args = 0, pretend = 0, frame = 24
 2152              		@ frame_needed = 0, uses_anonymous_args = 0
 2153 0000 30B5     		push	{r4, r5, lr}
 2154              		.cfi_def_cfa_offset 12
 2155              		.cfi_offset 4, -12
 2156              		.cfi_offset 5, -8
 2157              		.cfi_offset 14, -4
 2158 0002 87B0     		sub	sp, sp, #28
 2159              		.cfi_def_cfa_offset 40
1006:Core/Src/main.c ****   char buf[20];
 2160              		.loc 1 1006 3 view .LVU541
1007:Core/Src/main.c ****   uint16_t len = UDISK_len();
 2161              		.loc 1 1007 3 view .LVU542
 2162              		.loc 1 1007 18 is_stmt 0 view .LVU543
 2163 0004 FFF7FEFF 		bl	UDISK_len
 2164              	.LVL194:
 2165 0008 0546     		mov	r5, r0
 2166              	.LVL195:
1008:Core/Src/main.c ****   uint8_t ln = sprintf(buf, "%d\n\r", len);
 2167              		.loc 1 1008 3 is_stmt 1 view .LVU544
 2168              		.loc 1 1008 16 is_stmt 0 view .LVU545
 2169 000a 01AC     		add	r4, sp, #4
 2170 000c 0246     		mov	r2, r0
 2171 000e 1B49     		ldr	r1, .L118
 2172 0010 2046     		mov	r0, r4
 2173              	.LVL196:
 2174              		.loc 1 1008 16 view .LVU546
 2175 0012 FFF7FEFF 		bl	sprintf
 2176              	.LVL197:
1009:Core/Src/main.c ****   CDC_Transmit_FS(buf, ln);
 2177              		.loc 1 1009 3 is_stmt 1 view .LVU547
 2178 0016 C1B2     		uxtb	r1, r0
 2179 0018 2046     		mov	r0, r4
ARM GAS  C:\Users\kroko\AppData\Local\Temp\ccOkN8ni.s 			page 62


 2180              	.LVL198:
 2181              		.loc 1 1009 3 is_stmt 0 view .LVU548
 2182 001a FFF7FEFF 		bl	CDC_Transmit_FS
 2183              	.LVL199:
1010:Core/Src/main.c ****   for (uint16_t i = len; i > 0; i--){
 2184              		.loc 1 1010 3 is_stmt 1 view .LVU549
 2185              	.LBB20:
 2186              		.loc 1 1010 8 view .LVU550
 2187              		.loc 1 1010 3 is_stmt 0 view .LVU551
 2188 001e 17E0     		b	.L115
 2189              	.LVL200:
 2190              	.L116:
1011:Core/Src/main.c ****     memset(buf, 0x00, 20);
 2191              		.loc 1 1011 5 is_stmt 1 view .LVU552
 2192 0020 01AC     		add	r4, sp, #4
 2193 0022 0023     		movs	r3, #0
 2194 0024 0193     		str	r3, [sp, #4]
 2195 0026 0293     		str	r3, [sp, #8]
 2196 0028 0393     		str	r3, [sp, #12]
 2197 002a 0493     		str	r3, [sp, #16]
 2198 002c 0593     		str	r3, [sp, #20]
1012:Core/Src/main.c ****     ln = sprintf(buf, "%d\n\r", UDISK_get(i));
 2199              		.loc 1 1012 5 view .LVU553
 2200              		.loc 1 1012 33 is_stmt 0 view .LVU554
 2201 002e 2846     		mov	r0, r5
 2202 0030 FFF7FEFF 		bl	UDISK_get
 2203              	.LVL201:
 2204 0034 0246     		mov	r2, r0
 2205              		.loc 1 1012 10 discriminator 1 view .LVU555
 2206 0036 1149     		ldr	r1, .L118
 2207 0038 2046     		mov	r0, r4
 2208 003a FFF7FEFF 		bl	sprintf
 2209              	.LVL202:
1013:Core/Src/main.c ****     CDC_Transmit_FS(buf, ln);
 2210              		.loc 1 1013 5 is_stmt 1 view .LVU556
 2211 003e C1B2     		uxtb	r1, r0
 2212 0040 2046     		mov	r0, r4
 2213              	.LVL203:
 2214              		.loc 1 1013 5 is_stmt 0 view .LVU557
 2215 0042 FFF7FEFF 		bl	CDC_Transmit_FS
 2216              	.LVL204:
1014:Core/Src/main.c ****     HAL_Delay(1);
 2217              		.loc 1 1014 5 is_stmt 1 view .LVU558
 2218 0046 0120     		movs	r0, #1
 2219 0048 FFF7FEFF 		bl	HAL_Delay
 2220              	.LVL205:
1010:Core/Src/main.c ****     memset(buf, 0x00, 20);
 2221              		.loc 1 1010 34 discriminator 3 view .LVU559
 2222 004c 013D     		subs	r5, r5, #1
 2223              	.LVL206:
1010:Core/Src/main.c ****     memset(buf, 0x00, 20);
 2224              		.loc 1 1010 34 is_stmt 0 discriminator 3 view .LVU560
 2225 004e ADB2     		uxth	r5, r5
 2226              	.LVL207:
 2227              	.L115:
1010:Core/Src/main.c ****     memset(buf, 0x00, 20);
 2228              		.loc 1 1010 28 is_stmt 1 discriminator 1 view .LVU561
ARM GAS  C:\Users\kroko\AppData\Local\Temp\ccOkN8ni.s 			page 63


 2229 0050 002D     		cmp	r5, #0
 2230 0052 E5D1     		bne	.L116
 2231              	.LBE20:
1015:Core/Src/main.c ****   }
1016:Core/Src/main.c ****   memset(buf, 0x00, 20);
 2232              		.loc 1 1016 3 view .LVU562
 2233 0054 01AC     		add	r4, sp, #4
 2234 0056 0023     		movs	r3, #0
 2235 0058 0193     		str	r3, [sp, #4]
 2236 005a 0293     		str	r3, [sp, #8]
 2237 005c 0393     		str	r3, [sp, #12]
 2238 005e 0493     		str	r3, [sp, #16]
 2239 0060 0593     		str	r3, [sp, #20]
1017:Core/Src/main.c ****   ln = sprintf(buf, "T%d\n\r", UDISK_tst());
 2240              		.loc 1 1017 3 view .LVU563
 2241              		.loc 1 1017 8 is_stmt 0 view .LVU564
 2242 0062 FFF7FEFF 		bl	UDISK_tst
 2243              	.LVL208:
 2244 0066 0246     		mov	r2, r0
 2245              		.loc 1 1017 8 discriminator 1 view .LVU565
 2246 0068 0549     		ldr	r1, .L118+4
 2247 006a 2046     		mov	r0, r4
 2248 006c FFF7FEFF 		bl	sprintf
 2249              	.LVL209:
1018:Core/Src/main.c ****   CDC_Transmit_FS(buf, ln);
 2250              		.loc 1 1018 3 is_stmt 1 view .LVU566
 2251 0070 C1B2     		uxtb	r1, r0
 2252 0072 2046     		mov	r0, r4
 2253              	.LVL210:
 2254              		.loc 1 1018 3 is_stmt 0 view .LVU567
 2255 0074 FFF7FEFF 		bl	CDC_Transmit_FS
 2256              	.LVL211:
1019:Core/Src/main.c **** }
 2257              		.loc 1 1019 1 view .LVU568
 2258 0078 07B0     		add	sp, sp, #28
 2259              		.cfi_def_cfa_offset 12
 2260              		@ sp needed
 2261 007a 30BD     		pop	{r4, r5, pc}
 2262              	.LVL212:
 2263              	.L119:
 2264              		.loc 1 1019 1 view .LVU569
 2265              		.align	2
 2266              	.L118:
 2267 007c 00000000 		.word	.LC10
 2268 0080 08000000 		.word	.LC11
 2269              		.cfi_endproc
 2270              	.LFE342:
 2272              		.section	.text.HAL_GPIO_EXTI_Callback,"ax",%progbits
 2273              		.align	1
 2274              		.global	HAL_GPIO_EXTI_Callback
 2275              		.syntax unified
 2276              		.thumb
 2277              		.thumb_func
 2279              	HAL_GPIO_EXTI_Callback:
 2280              	.LVL213:
 2281              	.LFB344:
1020:Core/Src/main.c **** 
ARM GAS  C:\Users\kroko\AppData\Local\Temp\ccOkN8ni.s 			page 64


1021:Core/Src/main.c **** void HAL_RTCEx_WakeUpTimerEventCallback(RTC_HandleTypeDef *hrtc){
1022:Core/Src/main.c ****   measure = true;
1023:Core/Src/main.c ****   send_usb = USB_DEVICE_IsConnected();
1024:Core/Src/main.c **** }
1025:Core/Src/main.c **** 
1026:Core/Src/main.c **** 
1027:Core/Src/main.c **** void HAL_GPIO_EXTI_Callback(uint16_t GPIO_Pin)
1028:Core/Src/main.c **** {
 2282              		.loc 1 1028 1 is_stmt 1 view -0
 2283              		.cfi_startproc
 2284              		@ args = 0, pretend = 0, frame = 0
 2285              		@ frame_needed = 0, uses_anonymous_args = 0
 2286              		@ link register save eliminated.
1029:Core/Src/main.c ****   if(GPIO_Pin == GPIO_PIN_5) {
 2287              		.loc 1 1029 3 view .LVU571
 2288              		.loc 1 1029 5 is_stmt 0 view .LVU572
 2289 0000 2028     		cmp	r0, #32
 2290 0002 01D0     		beq	.L123
1030:Core/Src/main.c ****     initialise_usb_connection = true;
1031:Core/Src/main.c ****   } else {
1032:Core/Src/main.c ****       __NOP();
 2291              		.loc 1 1032 7 is_stmt 1 view .LVU573
 2292              		.syntax unified
 2293              	@ 1032 "Core/Src/main.c" 1
 2294 0004 00BF     		nop
 2295              	@ 0 "" 2
1033:Core/Src/main.c ****   }
1034:Core/Src/main.c **** }
 2296              		.loc 1 1034 1 is_stmt 0 view .LVU574
 2297              		.thumb
 2298              		.syntax unified
 2299 0006 7047     		bx	lr
 2300              	.L123:
1030:Core/Src/main.c ****     initialise_usb_connection = true;
 2301              		.loc 1 1030 5 is_stmt 1 view .LVU575
1030:Core/Src/main.c ****     initialise_usb_connection = true;
 2302              		.loc 1 1030 31 is_stmt 0 view .LVU576
 2303 0008 014B     		ldr	r3, .L124
 2304 000a 0122     		movs	r2, #1
 2305 000c 1A70     		strb	r2, [r3]
 2306 000e 7047     		bx	lr
 2307              	.L125:
 2308              		.align	2
 2309              	.L124:
 2310 0010 00000000 		.word	initialise_usb_connection
 2311              		.cfi_endproc
 2312              	.LFE344:
 2314              		.section	.text.USB_DEVICE_IsConnected,"ax",%progbits
 2315              		.align	1
 2316              		.global	USB_DEVICE_IsConnected
 2317              		.syntax unified
 2318              		.thumb
 2319              		.thumb_func
 2321              	USB_DEVICE_IsConnected:
 2322              	.LFB345:
1035:Core/Src/main.c **** 
1036:Core/Src/main.c **** bool USB_DEVICE_IsConnected(){
ARM GAS  C:\Users\kroko\AppData\Local\Temp\ccOkN8ni.s 			page 65


 2323              		.loc 1 1036 30 is_stmt 1 view -0
 2324              		.cfi_startproc
 2325              		@ args = 0, pretend = 0, frame = 0
 2326              		@ frame_needed = 0, uses_anonymous_args = 0
 2327 0000 08B5     		push	{r3, lr}
 2328              		.cfi_def_cfa_offset 8
 2329              		.cfi_offset 3, -8
 2330              		.cfi_offset 14, -4
1037:Core/Src/main.c ****   return HAL_GPIO_ReadPin(USB_WKUP_GPIO_Port, USB_WKUP_Pin);
 2331              		.loc 1 1037 3 view .LVU578
 2332              		.loc 1 1037 10 is_stmt 0 view .LVU579
 2333 0002 2021     		movs	r1, #32
 2334 0004 0348     		ldr	r0, .L128
 2335 0006 FFF7FEFF 		bl	HAL_GPIO_ReadPin
 2336              	.LVL214:
1038:Core/Src/main.c **** }
 2337              		.loc 1 1038 1 view .LVU580
 2338 000a 0038     		subs	r0, r0, #0
 2339 000c 18BF     		it	ne
 2340 000e 0120     		movne	r0, #1
 2341 0010 08BD     		pop	{r3, pc}
 2342              	.L129:
 2343 0012 00BF     		.align	2
 2344              	.L128:
 2345 0014 00040048 		.word	1207960576
 2346              		.cfi_endproc
 2347              	.LFE345:
 2349              		.section	.text.HAL_RTCEx_WakeUpTimerEventCallback,"ax",%progbits
 2350              		.align	1
 2351              		.global	HAL_RTCEx_WakeUpTimerEventCallback
 2352              		.syntax unified
 2353              		.thumb
 2354              		.thumb_func
 2356              	HAL_RTCEx_WakeUpTimerEventCallback:
 2357              	.LVL215:
 2358              	.LFB343:
1021:Core/Src/main.c ****   measure = true;
 2359              		.loc 1 1021 65 is_stmt 1 view -0
 2360              		.cfi_startproc
 2361              		@ args = 0, pretend = 0, frame = 0
 2362              		@ frame_needed = 0, uses_anonymous_args = 0
1021:Core/Src/main.c ****   measure = true;
 2363              		.loc 1 1021 65 is_stmt 0 view .LVU582
 2364 0000 08B5     		push	{r3, lr}
 2365              		.cfi_def_cfa_offset 8
 2366              		.cfi_offset 3, -8
 2367              		.cfi_offset 14, -4
1022:Core/Src/main.c ****   send_usb = USB_DEVICE_IsConnected();
 2368              		.loc 1 1022 3 is_stmt 1 view .LVU583
1022:Core/Src/main.c ****   send_usb = USB_DEVICE_IsConnected();
 2369              		.loc 1 1022 11 is_stmt 0 view .LVU584
 2370 0002 044B     		ldr	r3, .L132
 2371 0004 0122     		movs	r2, #1
 2372 0006 1A70     		strb	r2, [r3]
1023:Core/Src/main.c **** }
 2373              		.loc 1 1023 3 is_stmt 1 view .LVU585
1023:Core/Src/main.c **** }
ARM GAS  C:\Users\kroko\AppData\Local\Temp\ccOkN8ni.s 			page 66


 2374              		.loc 1 1023 14 is_stmt 0 view .LVU586
 2375 0008 FFF7FEFF 		bl	USB_DEVICE_IsConnected
 2376              	.LVL216:
1023:Core/Src/main.c **** }
 2377              		.loc 1 1023 12 discriminator 1 view .LVU587
 2378 000c 024B     		ldr	r3, .L132+4
 2379 000e 1870     		strb	r0, [r3]
1024:Core/Src/main.c **** 
 2380              		.loc 1 1024 1 view .LVU588
 2381 0010 08BD     		pop	{r3, pc}
 2382              	.L133:
 2383 0012 00BF     		.align	2
 2384              	.L132:
 2385 0014 00000000 		.word	measure
 2386 0018 00000000 		.word	send_usb
 2387              		.cfi_endproc
 2388              	.LFE343:
 2390              		.section	.text.Error_Handler,"ax",%progbits
 2391              		.align	1
 2392              		.global	Error_Handler
 2393              		.syntax unified
 2394              		.thumb
 2395              		.thumb_func
 2397              	Error_Handler:
 2398              	.LFB346:
1039:Core/Src/main.c **** /* USER CODE END 4 */
1040:Core/Src/main.c **** 
1041:Core/Src/main.c **** /**
1042:Core/Src/main.c ****   * @brief  This function is executed in case of error occurrence.
1043:Core/Src/main.c ****   * @retval None
1044:Core/Src/main.c ****   */
1045:Core/Src/main.c **** void Error_Handler(void)
1046:Core/Src/main.c **** {
 2399              		.loc 1 1046 1 is_stmt 1 view -0
 2400              		.cfi_startproc
 2401              		@ Volatile: function does not return.
 2402              		@ args = 0, pretend = 0, frame = 0
 2403              		@ frame_needed = 0, uses_anonymous_args = 0
 2404              		@ link register save eliminated.
1047:Core/Src/main.c ****   /* USER CODE BEGIN Error_Handler_Debug */
1048:Core/Src/main.c ****   /* User can add his own implementation to report the HAL error return state */
1049:Core/Src/main.c ****   __disable_irq();
 2405              		.loc 1 1049 3 view .LVU590
 2406              	.LBB21:
 2407              	.LBI21:
 2408              		.file 2 "Drivers/CMSIS/Include/cmsis_gcc.h"
   1:Drivers/CMSIS/Include/cmsis_gcc.h **** /**************************************************************************//**
   2:Drivers/CMSIS/Include/cmsis_gcc.h ****  * @file     cmsis_gcc.h
   3:Drivers/CMSIS/Include/cmsis_gcc.h ****  * @brief    CMSIS compiler GCC header file
   4:Drivers/CMSIS/Include/cmsis_gcc.h ****  * @version  V5.2.0
   5:Drivers/CMSIS/Include/cmsis_gcc.h ****  * @date     08. May 2019
   6:Drivers/CMSIS/Include/cmsis_gcc.h ****  ******************************************************************************/
   7:Drivers/CMSIS/Include/cmsis_gcc.h **** /*
   8:Drivers/CMSIS/Include/cmsis_gcc.h ****  * Copyright (c) 2009-2019 Arm Limited. All rights reserved.
   9:Drivers/CMSIS/Include/cmsis_gcc.h ****  *
  10:Drivers/CMSIS/Include/cmsis_gcc.h ****  * SPDX-License-Identifier: Apache-2.0
  11:Drivers/CMSIS/Include/cmsis_gcc.h ****  *
ARM GAS  C:\Users\kroko\AppData\Local\Temp\ccOkN8ni.s 			page 67


  12:Drivers/CMSIS/Include/cmsis_gcc.h ****  * Licensed under the Apache License, Version 2.0 (the License); you may
  13:Drivers/CMSIS/Include/cmsis_gcc.h ****  * not use this file except in compliance with the License.
  14:Drivers/CMSIS/Include/cmsis_gcc.h ****  * You may obtain a copy of the License at
  15:Drivers/CMSIS/Include/cmsis_gcc.h ****  *
  16:Drivers/CMSIS/Include/cmsis_gcc.h ****  * www.apache.org/licenses/LICENSE-2.0
  17:Drivers/CMSIS/Include/cmsis_gcc.h ****  *
  18:Drivers/CMSIS/Include/cmsis_gcc.h ****  * Unless required by applicable law or agreed to in writing, software
  19:Drivers/CMSIS/Include/cmsis_gcc.h ****  * distributed under the License is distributed on an AS IS BASIS, WITHOUT
  20:Drivers/CMSIS/Include/cmsis_gcc.h ****  * WARRANTIES OR CONDITIONS OF ANY KIND, either express or implied.
  21:Drivers/CMSIS/Include/cmsis_gcc.h ****  * See the License for the specific language governing permissions and
  22:Drivers/CMSIS/Include/cmsis_gcc.h ****  * limitations under the License.
  23:Drivers/CMSIS/Include/cmsis_gcc.h ****  */
  24:Drivers/CMSIS/Include/cmsis_gcc.h **** 
  25:Drivers/CMSIS/Include/cmsis_gcc.h **** #ifndef __CMSIS_GCC_H
  26:Drivers/CMSIS/Include/cmsis_gcc.h **** #define __CMSIS_GCC_H
  27:Drivers/CMSIS/Include/cmsis_gcc.h **** 
  28:Drivers/CMSIS/Include/cmsis_gcc.h **** /* ignore some GCC warnings */
  29:Drivers/CMSIS/Include/cmsis_gcc.h **** #pragma GCC diagnostic push
  30:Drivers/CMSIS/Include/cmsis_gcc.h **** #pragma GCC diagnostic ignored "-Wsign-conversion"
  31:Drivers/CMSIS/Include/cmsis_gcc.h **** #pragma GCC diagnostic ignored "-Wconversion"
  32:Drivers/CMSIS/Include/cmsis_gcc.h **** #pragma GCC diagnostic ignored "-Wunused-parameter"
  33:Drivers/CMSIS/Include/cmsis_gcc.h **** 
  34:Drivers/CMSIS/Include/cmsis_gcc.h **** /* Fallback for __has_builtin */
  35:Drivers/CMSIS/Include/cmsis_gcc.h **** #ifndef __has_builtin
  36:Drivers/CMSIS/Include/cmsis_gcc.h ****   #define __has_builtin(x) (0)
  37:Drivers/CMSIS/Include/cmsis_gcc.h **** #endif
  38:Drivers/CMSIS/Include/cmsis_gcc.h **** 
  39:Drivers/CMSIS/Include/cmsis_gcc.h **** /* CMSIS compiler specific defines */
  40:Drivers/CMSIS/Include/cmsis_gcc.h **** #ifndef   __ASM
  41:Drivers/CMSIS/Include/cmsis_gcc.h ****   #define __ASM                                  __asm
  42:Drivers/CMSIS/Include/cmsis_gcc.h **** #endif
  43:Drivers/CMSIS/Include/cmsis_gcc.h **** #ifndef   __INLINE
  44:Drivers/CMSIS/Include/cmsis_gcc.h ****   #define __INLINE                               inline
  45:Drivers/CMSIS/Include/cmsis_gcc.h **** #endif
  46:Drivers/CMSIS/Include/cmsis_gcc.h **** #ifndef   __STATIC_INLINE
  47:Drivers/CMSIS/Include/cmsis_gcc.h ****   #define __STATIC_INLINE                        static inline
  48:Drivers/CMSIS/Include/cmsis_gcc.h **** #endif
  49:Drivers/CMSIS/Include/cmsis_gcc.h **** #ifndef   __STATIC_FORCEINLINE                 
  50:Drivers/CMSIS/Include/cmsis_gcc.h ****   #define __STATIC_FORCEINLINE                   __attribute__((always_inline)) static inline
  51:Drivers/CMSIS/Include/cmsis_gcc.h **** #endif                                           
  52:Drivers/CMSIS/Include/cmsis_gcc.h **** #ifndef   __NO_RETURN
  53:Drivers/CMSIS/Include/cmsis_gcc.h ****   #define __NO_RETURN                            __attribute__((__noreturn__))
  54:Drivers/CMSIS/Include/cmsis_gcc.h **** #endif
  55:Drivers/CMSIS/Include/cmsis_gcc.h **** #ifndef   __USED
  56:Drivers/CMSIS/Include/cmsis_gcc.h ****   #define __USED                                 __attribute__((used))
  57:Drivers/CMSIS/Include/cmsis_gcc.h **** #endif
  58:Drivers/CMSIS/Include/cmsis_gcc.h **** #ifndef   __WEAK
  59:Drivers/CMSIS/Include/cmsis_gcc.h ****   #define __WEAK                                 __attribute__((weak))
  60:Drivers/CMSIS/Include/cmsis_gcc.h **** #endif
  61:Drivers/CMSIS/Include/cmsis_gcc.h **** #ifndef   __PACKED
  62:Drivers/CMSIS/Include/cmsis_gcc.h ****   #define __PACKED                               __attribute__((packed, aligned(1)))
  63:Drivers/CMSIS/Include/cmsis_gcc.h **** #endif
  64:Drivers/CMSIS/Include/cmsis_gcc.h **** #ifndef   __PACKED_STRUCT
  65:Drivers/CMSIS/Include/cmsis_gcc.h ****   #define __PACKED_STRUCT                        struct __attribute__((packed, aligned(1)))
  66:Drivers/CMSIS/Include/cmsis_gcc.h **** #endif
  67:Drivers/CMSIS/Include/cmsis_gcc.h **** #ifndef   __PACKED_UNION
  68:Drivers/CMSIS/Include/cmsis_gcc.h ****   #define __PACKED_UNION                         union __attribute__((packed, aligned(1)))
ARM GAS  C:\Users\kroko\AppData\Local\Temp\ccOkN8ni.s 			page 68


  69:Drivers/CMSIS/Include/cmsis_gcc.h **** #endif
  70:Drivers/CMSIS/Include/cmsis_gcc.h **** #ifndef   __UNALIGNED_UINT32        /* deprecated */
  71:Drivers/CMSIS/Include/cmsis_gcc.h ****   #pragma GCC diagnostic push
  72:Drivers/CMSIS/Include/cmsis_gcc.h ****   #pragma GCC diagnostic ignored "-Wpacked"
  73:Drivers/CMSIS/Include/cmsis_gcc.h ****   #pragma GCC diagnostic ignored "-Wattributes"
  74:Drivers/CMSIS/Include/cmsis_gcc.h ****   struct __attribute__((packed)) T_UINT32 { uint32_t v; };
  75:Drivers/CMSIS/Include/cmsis_gcc.h ****   #pragma GCC diagnostic pop
  76:Drivers/CMSIS/Include/cmsis_gcc.h ****   #define __UNALIGNED_UINT32(x)                  (((struct T_UINT32 *)(x))->v)
  77:Drivers/CMSIS/Include/cmsis_gcc.h **** #endif
  78:Drivers/CMSIS/Include/cmsis_gcc.h **** #ifndef   __UNALIGNED_UINT16_WRITE
  79:Drivers/CMSIS/Include/cmsis_gcc.h ****   #pragma GCC diagnostic push
  80:Drivers/CMSIS/Include/cmsis_gcc.h ****   #pragma GCC diagnostic ignored "-Wpacked"
  81:Drivers/CMSIS/Include/cmsis_gcc.h ****   #pragma GCC diagnostic ignored "-Wattributes"
  82:Drivers/CMSIS/Include/cmsis_gcc.h ****   __PACKED_STRUCT T_UINT16_WRITE { uint16_t v; };
  83:Drivers/CMSIS/Include/cmsis_gcc.h ****   #pragma GCC diagnostic pop
  84:Drivers/CMSIS/Include/cmsis_gcc.h ****   #define __UNALIGNED_UINT16_WRITE(addr, val)    (void)((((struct T_UINT16_WRITE *)(void *)(addr))-
  85:Drivers/CMSIS/Include/cmsis_gcc.h **** #endif
  86:Drivers/CMSIS/Include/cmsis_gcc.h **** #ifndef   __UNALIGNED_UINT16_READ
  87:Drivers/CMSIS/Include/cmsis_gcc.h ****   #pragma GCC diagnostic push
  88:Drivers/CMSIS/Include/cmsis_gcc.h ****   #pragma GCC diagnostic ignored "-Wpacked"
  89:Drivers/CMSIS/Include/cmsis_gcc.h ****   #pragma GCC diagnostic ignored "-Wattributes"
  90:Drivers/CMSIS/Include/cmsis_gcc.h ****   __PACKED_STRUCT T_UINT16_READ { uint16_t v; };
  91:Drivers/CMSIS/Include/cmsis_gcc.h ****   #pragma GCC diagnostic pop
  92:Drivers/CMSIS/Include/cmsis_gcc.h ****   #define __UNALIGNED_UINT16_READ(addr)          (((const struct T_UINT16_READ *)(const void *)(add
  93:Drivers/CMSIS/Include/cmsis_gcc.h **** #endif
  94:Drivers/CMSIS/Include/cmsis_gcc.h **** #ifndef   __UNALIGNED_UINT32_WRITE
  95:Drivers/CMSIS/Include/cmsis_gcc.h ****   #pragma GCC diagnostic push
  96:Drivers/CMSIS/Include/cmsis_gcc.h ****   #pragma GCC diagnostic ignored "-Wpacked"
  97:Drivers/CMSIS/Include/cmsis_gcc.h ****   #pragma GCC diagnostic ignored "-Wattributes"
  98:Drivers/CMSIS/Include/cmsis_gcc.h ****   __PACKED_STRUCT T_UINT32_WRITE { uint32_t v; };
  99:Drivers/CMSIS/Include/cmsis_gcc.h ****   #pragma GCC diagnostic pop
 100:Drivers/CMSIS/Include/cmsis_gcc.h ****   #define __UNALIGNED_UINT32_WRITE(addr, val)    (void)((((struct T_UINT32_WRITE *)(void *)(addr))-
 101:Drivers/CMSIS/Include/cmsis_gcc.h **** #endif
 102:Drivers/CMSIS/Include/cmsis_gcc.h **** #ifndef   __UNALIGNED_UINT32_READ
 103:Drivers/CMSIS/Include/cmsis_gcc.h ****   #pragma GCC diagnostic push
 104:Drivers/CMSIS/Include/cmsis_gcc.h ****   #pragma GCC diagnostic ignored "-Wpacked"
 105:Drivers/CMSIS/Include/cmsis_gcc.h ****   #pragma GCC diagnostic ignored "-Wattributes"
 106:Drivers/CMSIS/Include/cmsis_gcc.h ****   __PACKED_STRUCT T_UINT32_READ { uint32_t v; };
 107:Drivers/CMSIS/Include/cmsis_gcc.h ****   #pragma GCC diagnostic pop
 108:Drivers/CMSIS/Include/cmsis_gcc.h ****   #define __UNALIGNED_UINT32_READ(addr)          (((const struct T_UINT32_READ *)(const void *)(add
 109:Drivers/CMSIS/Include/cmsis_gcc.h **** #endif
 110:Drivers/CMSIS/Include/cmsis_gcc.h **** #ifndef   __ALIGNED
 111:Drivers/CMSIS/Include/cmsis_gcc.h ****   #define __ALIGNED(x)                           __attribute__((aligned(x)))
 112:Drivers/CMSIS/Include/cmsis_gcc.h **** #endif
 113:Drivers/CMSIS/Include/cmsis_gcc.h **** #ifndef   __RESTRICT
 114:Drivers/CMSIS/Include/cmsis_gcc.h ****   #define __RESTRICT                             __restrict
 115:Drivers/CMSIS/Include/cmsis_gcc.h **** #endif
 116:Drivers/CMSIS/Include/cmsis_gcc.h **** #ifndef   __COMPILER_BARRIER
 117:Drivers/CMSIS/Include/cmsis_gcc.h ****   #define __COMPILER_BARRIER()                   __ASM volatile("":::"memory")
 118:Drivers/CMSIS/Include/cmsis_gcc.h **** #endif
 119:Drivers/CMSIS/Include/cmsis_gcc.h **** 
 120:Drivers/CMSIS/Include/cmsis_gcc.h **** /* #########################  Startup and Lowlevel Init  ######################## */
 121:Drivers/CMSIS/Include/cmsis_gcc.h **** 
 122:Drivers/CMSIS/Include/cmsis_gcc.h **** #ifndef __PROGRAM_START
 123:Drivers/CMSIS/Include/cmsis_gcc.h **** 
 124:Drivers/CMSIS/Include/cmsis_gcc.h **** /**
 125:Drivers/CMSIS/Include/cmsis_gcc.h ****   \brief   Initializes data and bss sections
ARM GAS  C:\Users\kroko\AppData\Local\Temp\ccOkN8ni.s 			page 69


 126:Drivers/CMSIS/Include/cmsis_gcc.h ****   \details This default implementations initialized all data and additional bss
 127:Drivers/CMSIS/Include/cmsis_gcc.h ****            sections relying on .copy.table and .zero.table specified properly
 128:Drivers/CMSIS/Include/cmsis_gcc.h ****            in the used linker script.
 129:Drivers/CMSIS/Include/cmsis_gcc.h ****   
 130:Drivers/CMSIS/Include/cmsis_gcc.h ****  */
 131:Drivers/CMSIS/Include/cmsis_gcc.h **** __STATIC_FORCEINLINE __NO_RETURN void __cmsis_start(void)
 132:Drivers/CMSIS/Include/cmsis_gcc.h **** {
 133:Drivers/CMSIS/Include/cmsis_gcc.h ****   extern void _start(void) __NO_RETURN;
 134:Drivers/CMSIS/Include/cmsis_gcc.h ****   
 135:Drivers/CMSIS/Include/cmsis_gcc.h ****   typedef struct {
 136:Drivers/CMSIS/Include/cmsis_gcc.h ****     uint32_t const* src;
 137:Drivers/CMSIS/Include/cmsis_gcc.h ****     uint32_t* dest;
 138:Drivers/CMSIS/Include/cmsis_gcc.h ****     uint32_t  wlen;
 139:Drivers/CMSIS/Include/cmsis_gcc.h ****   } __copy_table_t;
 140:Drivers/CMSIS/Include/cmsis_gcc.h ****   
 141:Drivers/CMSIS/Include/cmsis_gcc.h ****   typedef struct {
 142:Drivers/CMSIS/Include/cmsis_gcc.h ****     uint32_t* dest;
 143:Drivers/CMSIS/Include/cmsis_gcc.h ****     uint32_t  wlen;
 144:Drivers/CMSIS/Include/cmsis_gcc.h ****   } __zero_table_t;
 145:Drivers/CMSIS/Include/cmsis_gcc.h ****   
 146:Drivers/CMSIS/Include/cmsis_gcc.h ****   extern const __copy_table_t __copy_table_start__;
 147:Drivers/CMSIS/Include/cmsis_gcc.h ****   extern const __copy_table_t __copy_table_end__;
 148:Drivers/CMSIS/Include/cmsis_gcc.h ****   extern const __zero_table_t __zero_table_start__;
 149:Drivers/CMSIS/Include/cmsis_gcc.h ****   extern const __zero_table_t __zero_table_end__;
 150:Drivers/CMSIS/Include/cmsis_gcc.h **** 
 151:Drivers/CMSIS/Include/cmsis_gcc.h ****   for (__copy_table_t const* pTable = &__copy_table_start__; pTable < &__copy_table_end__; ++pTable
 152:Drivers/CMSIS/Include/cmsis_gcc.h ****     for(uint32_t i=0u; i<pTable->wlen; ++i) {
 153:Drivers/CMSIS/Include/cmsis_gcc.h ****       pTable->dest[i] = pTable->src[i];
 154:Drivers/CMSIS/Include/cmsis_gcc.h ****     }
 155:Drivers/CMSIS/Include/cmsis_gcc.h ****   }
 156:Drivers/CMSIS/Include/cmsis_gcc.h ****  
 157:Drivers/CMSIS/Include/cmsis_gcc.h ****   for (__zero_table_t const* pTable = &__zero_table_start__; pTable < &__zero_table_end__; ++pTable
 158:Drivers/CMSIS/Include/cmsis_gcc.h ****     for(uint32_t i=0u; i<pTable->wlen; ++i) {
 159:Drivers/CMSIS/Include/cmsis_gcc.h ****       pTable->dest[i] = 0u;
 160:Drivers/CMSIS/Include/cmsis_gcc.h ****     }
 161:Drivers/CMSIS/Include/cmsis_gcc.h ****   }
 162:Drivers/CMSIS/Include/cmsis_gcc.h ****  
 163:Drivers/CMSIS/Include/cmsis_gcc.h ****   _start();
 164:Drivers/CMSIS/Include/cmsis_gcc.h **** }
 165:Drivers/CMSIS/Include/cmsis_gcc.h ****   
 166:Drivers/CMSIS/Include/cmsis_gcc.h **** #define __PROGRAM_START           __cmsis_start
 167:Drivers/CMSIS/Include/cmsis_gcc.h **** #endif
 168:Drivers/CMSIS/Include/cmsis_gcc.h **** 
 169:Drivers/CMSIS/Include/cmsis_gcc.h **** #ifndef __INITIAL_SP
 170:Drivers/CMSIS/Include/cmsis_gcc.h **** #define __INITIAL_SP              __StackTop
 171:Drivers/CMSIS/Include/cmsis_gcc.h **** #endif
 172:Drivers/CMSIS/Include/cmsis_gcc.h **** 
 173:Drivers/CMSIS/Include/cmsis_gcc.h **** #ifndef __STACK_LIMIT
 174:Drivers/CMSIS/Include/cmsis_gcc.h **** #define __STACK_LIMIT             __StackLimit
 175:Drivers/CMSIS/Include/cmsis_gcc.h **** #endif
 176:Drivers/CMSIS/Include/cmsis_gcc.h **** 
 177:Drivers/CMSIS/Include/cmsis_gcc.h **** #ifndef __VECTOR_TABLE
 178:Drivers/CMSIS/Include/cmsis_gcc.h **** #define __VECTOR_TABLE            __Vectors
 179:Drivers/CMSIS/Include/cmsis_gcc.h **** #endif
 180:Drivers/CMSIS/Include/cmsis_gcc.h **** 
 181:Drivers/CMSIS/Include/cmsis_gcc.h **** #ifndef __VECTOR_TABLE_ATTRIBUTE
 182:Drivers/CMSIS/Include/cmsis_gcc.h **** #define __VECTOR_TABLE_ATTRIBUTE  __attribute((used, section(".vectors")))
ARM GAS  C:\Users\kroko\AppData\Local\Temp\ccOkN8ni.s 			page 70


 183:Drivers/CMSIS/Include/cmsis_gcc.h **** #endif
 184:Drivers/CMSIS/Include/cmsis_gcc.h **** 
 185:Drivers/CMSIS/Include/cmsis_gcc.h **** /* ###########################  Core Function Access  ########################### */
 186:Drivers/CMSIS/Include/cmsis_gcc.h **** /** \ingroup  CMSIS_Core_FunctionInterface
 187:Drivers/CMSIS/Include/cmsis_gcc.h ****     \defgroup CMSIS_Core_RegAccFunctions CMSIS Core Register Access Functions
 188:Drivers/CMSIS/Include/cmsis_gcc.h ****   @{
 189:Drivers/CMSIS/Include/cmsis_gcc.h ****  */
 190:Drivers/CMSIS/Include/cmsis_gcc.h **** 
 191:Drivers/CMSIS/Include/cmsis_gcc.h **** /**
 192:Drivers/CMSIS/Include/cmsis_gcc.h ****   \brief   Enable IRQ Interrupts
 193:Drivers/CMSIS/Include/cmsis_gcc.h ****   \details Enables IRQ interrupts by clearing the I-bit in the CPSR.
 194:Drivers/CMSIS/Include/cmsis_gcc.h ****            Can only be executed in Privileged modes.
 195:Drivers/CMSIS/Include/cmsis_gcc.h ****  */
 196:Drivers/CMSIS/Include/cmsis_gcc.h **** __STATIC_FORCEINLINE void __enable_irq(void)
 197:Drivers/CMSIS/Include/cmsis_gcc.h **** {
 198:Drivers/CMSIS/Include/cmsis_gcc.h ****   __ASM volatile ("cpsie i" : : : "memory");
 199:Drivers/CMSIS/Include/cmsis_gcc.h **** }
 200:Drivers/CMSIS/Include/cmsis_gcc.h **** 
 201:Drivers/CMSIS/Include/cmsis_gcc.h **** 
 202:Drivers/CMSIS/Include/cmsis_gcc.h **** /**
 203:Drivers/CMSIS/Include/cmsis_gcc.h ****   \brief   Disable IRQ Interrupts
 204:Drivers/CMSIS/Include/cmsis_gcc.h ****   \details Disables IRQ interrupts by setting the I-bit in the CPSR.
 205:Drivers/CMSIS/Include/cmsis_gcc.h ****            Can only be executed in Privileged modes.
 206:Drivers/CMSIS/Include/cmsis_gcc.h ****  */
 207:Drivers/CMSIS/Include/cmsis_gcc.h **** __STATIC_FORCEINLINE void __disable_irq(void)
 2409              		.loc 2 207 27 view .LVU591
 2410              	.LBB22:
 208:Drivers/CMSIS/Include/cmsis_gcc.h **** {
 209:Drivers/CMSIS/Include/cmsis_gcc.h ****   __ASM volatile ("cpsid i" : : : "memory");
 2411              		.loc 2 209 3 view .LVU592
 2412              		.syntax unified
 2413              	@ 209 "Drivers/CMSIS/Include/cmsis_gcc.h" 1
 2414 0000 72B6     		cpsid i
 2415              	@ 0 "" 2
 2416              		.thumb
 2417              		.syntax unified
 2418              	.L135:
 2419              	.LBE22:
 2420              	.LBE21:
1050:Core/Src/main.c ****   while (1)
 2421              		.loc 1 1050 3 view .LVU593
1051:Core/Src/main.c ****   {
1052:Core/Src/main.c ****   }
 2422              		.loc 1 1052 3 view .LVU594
1050:Core/Src/main.c ****   while (1)
 2423              		.loc 1 1050 9 view .LVU595
 2424 0002 FEE7     		b	.L135
 2425              		.cfi_endproc
 2426              	.LFE346:
 2428              		.section	.text.MX_SPI1_Init,"ax",%progbits
 2429              		.align	1
 2430              		.syntax unified
 2431              		.thumb
 2432              		.thumb_func
 2434              	MX_SPI1_Init:
 2435              	.LFB327:
 436:Core/Src/main.c **** 
ARM GAS  C:\Users\kroko\AppData\Local\Temp\ccOkN8ni.s 			page 71


 2436              		.loc 1 436 1 view -0
 2437              		.cfi_startproc
 2438              		@ args = 0, pretend = 0, frame = 0
 2439              		@ frame_needed = 0, uses_anonymous_args = 0
 2440 0000 08B5     		push	{r3, lr}
 2441              		.cfi_def_cfa_offset 8
 2442              		.cfi_offset 3, -8
 2443              		.cfi_offset 14, -4
 446:Core/Src/main.c ****   hspi1.Init.Mode = SPI_MODE_MASTER;
 2444              		.loc 1 446 3 view .LVU597
 446:Core/Src/main.c ****   hspi1.Init.Mode = SPI_MODE_MASTER;
 2445              		.loc 1 446 18 is_stmt 0 view .LVU598
 2446 0002 1148     		ldr	r0, .L140
 2447 0004 114B     		ldr	r3, .L140+4
 2448 0006 0360     		str	r3, [r0]
 447:Core/Src/main.c ****   hspi1.Init.Direction = SPI_DIRECTION_1LINE;
 2449              		.loc 1 447 3 is_stmt 1 view .LVU599
 447:Core/Src/main.c ****   hspi1.Init.Direction = SPI_DIRECTION_1LINE;
 2450              		.loc 1 447 19 is_stmt 0 view .LVU600
 2451 0008 4FF48273 		mov	r3, #260
 2452 000c 4360     		str	r3, [r0, #4]
 448:Core/Src/main.c ****   hspi1.Init.DataSize = SPI_DATASIZE_8BIT;
 2453              		.loc 1 448 3 is_stmt 1 view .LVU601
 448:Core/Src/main.c ****   hspi1.Init.DataSize = SPI_DATASIZE_8BIT;
 2454              		.loc 1 448 24 is_stmt 0 view .LVU602
 2455 000e 4FF40043 		mov	r3, #32768
 2456 0012 8360     		str	r3, [r0, #8]
 449:Core/Src/main.c ****   hspi1.Init.CLKPolarity = SPI_POLARITY_LOW;
 2457              		.loc 1 449 3 is_stmt 1 view .LVU603
 449:Core/Src/main.c ****   hspi1.Init.CLKPolarity = SPI_POLARITY_LOW;
 2458              		.loc 1 449 23 is_stmt 0 view .LVU604
 2459 0014 4FF4E063 		mov	r3, #1792
 2460 0018 C360     		str	r3, [r0, #12]
 450:Core/Src/main.c ****   hspi1.Init.CLKPhase = SPI_PHASE_1EDGE;
 2461              		.loc 1 450 3 is_stmt 1 view .LVU605
 450:Core/Src/main.c ****   hspi1.Init.CLKPhase = SPI_PHASE_1EDGE;
 2462              		.loc 1 450 26 is_stmt 0 view .LVU606
 2463 001a 0023     		movs	r3, #0
 2464 001c 0361     		str	r3, [r0, #16]
 451:Core/Src/main.c ****   hspi1.Init.NSS = SPI_NSS_SOFT;
 2465              		.loc 1 451 3 is_stmt 1 view .LVU607
 451:Core/Src/main.c ****   hspi1.Init.NSS = SPI_NSS_SOFT;
 2466              		.loc 1 451 23 is_stmt 0 view .LVU608
 2467 001e 4361     		str	r3, [r0, #20]
 452:Core/Src/main.c ****   hspi1.Init.BaudRatePrescaler = SPI_BAUDRATEPRESCALER_16;
 2468              		.loc 1 452 3 is_stmt 1 view .LVU609
 452:Core/Src/main.c ****   hspi1.Init.BaudRatePrescaler = SPI_BAUDRATEPRESCALER_16;
 2469              		.loc 1 452 18 is_stmt 0 view .LVU610
 2470 0020 4FF40072 		mov	r2, #512
 2471 0024 8261     		str	r2, [r0, #24]
 453:Core/Src/main.c ****   hspi1.Init.FirstBit = SPI_FIRSTBIT_MSB;
 2472              		.loc 1 453 3 is_stmt 1 view .LVU611
 453:Core/Src/main.c ****   hspi1.Init.FirstBit = SPI_FIRSTBIT_MSB;
 2473              		.loc 1 453 32 is_stmt 0 view .LVU612
 2474 0026 1822     		movs	r2, #24
 2475 0028 C261     		str	r2, [r0, #28]
 454:Core/Src/main.c ****   hspi1.Init.TIMode = SPI_TIMODE_DISABLE;
ARM GAS  C:\Users\kroko\AppData\Local\Temp\ccOkN8ni.s 			page 72


 2476              		.loc 1 454 3 is_stmt 1 view .LVU613
 454:Core/Src/main.c ****   hspi1.Init.TIMode = SPI_TIMODE_DISABLE;
 2477              		.loc 1 454 23 is_stmt 0 view .LVU614
 2478 002a 0362     		str	r3, [r0, #32]
 455:Core/Src/main.c ****   hspi1.Init.CRCCalculation = SPI_CRCCALCULATION_DISABLE;
 2479              		.loc 1 455 3 is_stmt 1 view .LVU615
 455:Core/Src/main.c ****   hspi1.Init.CRCCalculation = SPI_CRCCALCULATION_DISABLE;
 2480              		.loc 1 455 21 is_stmt 0 view .LVU616
 2481 002c 4362     		str	r3, [r0, #36]
 456:Core/Src/main.c ****   hspi1.Init.CRCPolynomial = 7;
 2482              		.loc 1 456 3 is_stmt 1 view .LVU617
 456:Core/Src/main.c ****   hspi1.Init.CRCPolynomial = 7;
 2483              		.loc 1 456 29 is_stmt 0 view .LVU618
 2484 002e 8362     		str	r3, [r0, #40]
 457:Core/Src/main.c ****   hspi1.Init.CRCLength = SPI_CRC_LENGTH_DATASIZE;
 2485              		.loc 1 457 3 is_stmt 1 view .LVU619
 457:Core/Src/main.c ****   hspi1.Init.CRCLength = SPI_CRC_LENGTH_DATASIZE;
 2486              		.loc 1 457 28 is_stmt 0 view .LVU620
 2487 0030 0722     		movs	r2, #7
 2488 0032 C262     		str	r2, [r0, #44]
 458:Core/Src/main.c ****   hspi1.Init.NSSPMode = SPI_NSS_PULSE_ENABLE;
 2489              		.loc 1 458 3 is_stmt 1 view .LVU621
 458:Core/Src/main.c ****   hspi1.Init.NSSPMode = SPI_NSS_PULSE_ENABLE;
 2490              		.loc 1 458 24 is_stmt 0 view .LVU622
 2491 0034 0363     		str	r3, [r0, #48]
 459:Core/Src/main.c ****   if (HAL_SPI_Init(&hspi1) != HAL_OK)
 2492              		.loc 1 459 3 is_stmt 1 view .LVU623
 459:Core/Src/main.c ****   if (HAL_SPI_Init(&hspi1) != HAL_OK)
 2493              		.loc 1 459 23 is_stmt 0 view .LVU624
 2494 0036 0823     		movs	r3, #8
 2495 0038 4363     		str	r3, [r0, #52]
 460:Core/Src/main.c ****   {
 2496              		.loc 1 460 3 is_stmt 1 view .LVU625
 460:Core/Src/main.c ****   {
 2497              		.loc 1 460 7 is_stmt 0 view .LVU626
 2498 003a FFF7FEFF 		bl	HAL_SPI_Init
 2499              	.LVL217:
 460:Core/Src/main.c ****   {
 2500              		.loc 1 460 6 discriminator 1 view .LVU627
 2501 003e 00B9     		cbnz	r0, .L139
 468:Core/Src/main.c **** 
 2502              		.loc 1 468 1 view .LVU628
 2503 0040 08BD     		pop	{r3, pc}
 2504              	.L139:
 462:Core/Src/main.c ****   }
 2505              		.loc 1 462 5 is_stmt 1 view .LVU629
 2506 0042 FFF7FEFF 		bl	Error_Handler
 2507              	.LVL218:
 2508              	.L141:
 2509 0046 00BF     		.align	2
 2510              	.L140:
 2511 0048 00000000 		.word	hspi1
 2512 004c 00300140 		.word	1073819648
 2513              		.cfi_endproc
 2514              	.LFE327:
 2516              		.section	.text.MX_RTC_Init,"ax",%progbits
 2517              		.align	1
ARM GAS  C:\Users\kroko\AppData\Local\Temp\ccOkN8ni.s 			page 73


 2518              		.syntax unified
 2519              		.thumb
 2520              		.thumb_func
 2522              	MX_RTC_Init:
 2523              	.LFB326:
 362:Core/Src/main.c **** 
 2524              		.loc 1 362 1 view -0
 2525              		.cfi_startproc
 2526              		@ args = 0, pretend = 0, frame = 24
 2527              		@ frame_needed = 0, uses_anonymous_args = 0
 2528 0000 30B5     		push	{r4, r5, lr}
 2529              		.cfi_def_cfa_offset 12
 2530              		.cfi_offset 4, -12
 2531              		.cfi_offset 5, -8
 2532              		.cfi_offset 14, -4
 2533 0002 87B0     		sub	sp, sp, #28
 2534              		.cfi_def_cfa_offset 40
 365:Core/Src/main.c ****   /* USER CODE END RTC_Init 0 */
 2535              		.loc 1 365 3 view .LVU631
 2536              	.LVL219:
 368:Core/Src/main.c ****   RTC_DateTypeDef sDate = {0};
 2537              		.loc 1 368 3 view .LVU632
 368:Core/Src/main.c ****   RTC_DateTypeDef sDate = {0};
 2538              		.loc 1 368 19 is_stmt 0 view .LVU633
 2539 0004 0025     		movs	r5, #0
 2540 0006 0195     		str	r5, [sp, #4]
 2541 0008 0295     		str	r5, [sp, #8]
 2542 000a 0395     		str	r5, [sp, #12]
 2543 000c 0495     		str	r5, [sp, #16]
 2544 000e 0595     		str	r5, [sp, #20]
 369:Core/Src/main.c **** 
 2545              		.loc 1 369 3 is_stmt 1 view .LVU634
 369:Core/Src/main.c **** 
 2546              		.loc 1 369 19 is_stmt 0 view .LVU635
 2547 0010 0095     		str	r5, [sp]
 372:Core/Src/main.c **** 
 2548              		.loc 1 372 3 is_stmt 1 view .LVU636
 372:Core/Src/main.c **** 
 2549              		.loc 1 372 7 is_stmt 0 view .LVU637
 2550 0012 244C     		ldr	r4, .L152
 2551 0014 0621     		movs	r1, #6
 2552 0016 2046     		mov	r0, r4
 2553 0018 FFF7FEFF 		bl	HAL_RTCEx_BKUPRead
 2554              	.LVL220:
 374:Core/Src/main.c ****   /* USER CODE END RTC_Init 1 */
 2555              		.loc 1 374 3 is_stmt 1 view .LVU638
 379:Core/Src/main.c ****   hrtc.Init.HourFormat = RTC_HOURFORMAT_24;
 2556              		.loc 1 379 3 view .LVU639
 379:Core/Src/main.c ****   hrtc.Init.HourFormat = RTC_HOURFORMAT_24;
 2557              		.loc 1 379 17 is_stmt 0 view .LVU640
 2558 001c 224B     		ldr	r3, .L152+4
 2559 001e 2360     		str	r3, [r4]
 380:Core/Src/main.c ****   hrtc.Init.AsynchPrediv = 127;
 2560              		.loc 1 380 3 is_stmt 1 view .LVU641
 380:Core/Src/main.c ****   hrtc.Init.AsynchPrediv = 127;
 2561              		.loc 1 380 24 is_stmt 0 view .LVU642
 2562 0020 A560     		str	r5, [r4, #8]
ARM GAS  C:\Users\kroko\AppData\Local\Temp\ccOkN8ni.s 			page 74


 381:Core/Src/main.c ****   hrtc.Init.SynchPrediv = 255;
 2563              		.loc 1 381 3 is_stmt 1 view .LVU643
 381:Core/Src/main.c ****   hrtc.Init.SynchPrediv = 255;
 2564              		.loc 1 381 26 is_stmt 0 view .LVU644
 2565 0022 7F23     		movs	r3, #127
 2566 0024 E360     		str	r3, [r4, #12]
 382:Core/Src/main.c ****   hrtc.Init.OutPut = RTC_OUTPUT_DISABLE;
 2567              		.loc 1 382 3 is_stmt 1 view .LVU645
 382:Core/Src/main.c ****   hrtc.Init.OutPut = RTC_OUTPUT_DISABLE;
 2568              		.loc 1 382 25 is_stmt 0 view .LVU646
 2569 0026 FF23     		movs	r3, #255
 2570 0028 2361     		str	r3, [r4, #16]
 383:Core/Src/main.c ****   hrtc.Init.OutPutRemap = RTC_OUTPUT_REMAP_NONE;
 2571              		.loc 1 383 3 is_stmt 1 view .LVU647
 383:Core/Src/main.c ****   hrtc.Init.OutPutRemap = RTC_OUTPUT_REMAP_NONE;
 2572              		.loc 1 383 20 is_stmt 0 view .LVU648
 2573 002a 6561     		str	r5, [r4, #20]
 384:Core/Src/main.c ****   hrtc.Init.OutPutPolarity = RTC_OUTPUT_POLARITY_HIGH;
 2574              		.loc 1 384 3 is_stmt 1 view .LVU649
 384:Core/Src/main.c ****   hrtc.Init.OutPutPolarity = RTC_OUTPUT_POLARITY_HIGH;
 2575              		.loc 1 384 25 is_stmt 0 view .LVU650
 2576 002c A561     		str	r5, [r4, #24]
 385:Core/Src/main.c ****   hrtc.Init.OutPutType = RTC_OUTPUT_TYPE_OPENDRAIN;
 2577              		.loc 1 385 3 is_stmt 1 view .LVU651
 385:Core/Src/main.c ****   hrtc.Init.OutPutType = RTC_OUTPUT_TYPE_OPENDRAIN;
 2578              		.loc 1 385 28 is_stmt 0 view .LVU652
 2579 002e E561     		str	r5, [r4, #28]
 386:Core/Src/main.c ****   hrtc.Init.OutPutPullUp = RTC_OUTPUT_PULLUP_NONE;
 2580              		.loc 1 386 3 is_stmt 1 view .LVU653
 386:Core/Src/main.c ****   hrtc.Init.OutPutPullUp = RTC_OUTPUT_PULLUP_NONE;
 2581              		.loc 1 386 24 is_stmt 0 view .LVU654
 2582 0030 4FF08043 		mov	r3, #1073741824
 2583 0034 2362     		str	r3, [r4, #32]
 387:Core/Src/main.c ****   if (HAL_RTC_Init(&hrtc) != HAL_OK)
 2584              		.loc 1 387 3 is_stmt 1 view .LVU655
 387:Core/Src/main.c ****   if (HAL_RTC_Init(&hrtc) != HAL_OK)
 2585              		.loc 1 387 26 is_stmt 0 view .LVU656
 2586 0036 6562     		str	r5, [r4, #36]
 388:Core/Src/main.c ****   {
 2587              		.loc 1 388 3 is_stmt 1 view .LVU657
 388:Core/Src/main.c ****   {
 2588              		.loc 1 388 7 is_stmt 0 view .LVU658
 2589 0038 2046     		mov	r0, r4
 2590 003a FFF7FEFF 		bl	HAL_RTC_Init
 2591              	.LVL221:
 388:Core/Src/main.c ****   {
 2592              		.loc 1 388 6 discriminator 1 view .LVU659
 2593 003e 40BB     		cbnz	r0, .L148
 399:Core/Src/main.c ****   sTime.Minutes = 0x0;
 2594              		.loc 1 399 3 is_stmt 1 view .LVU660
 399:Core/Src/main.c ****   sTime.Minutes = 0x0;
 2595              		.loc 1 399 15 is_stmt 0 view .LVU661
 2596 0040 0023     		movs	r3, #0
 2597 0042 8DF80430 		strb	r3, [sp, #4]
 400:Core/Src/main.c ****   sTime.Seconds = 0x0;
 2598              		.loc 1 400 3 is_stmt 1 view .LVU662
 400:Core/Src/main.c ****   sTime.Seconds = 0x0;
ARM GAS  C:\Users\kroko\AppData\Local\Temp\ccOkN8ni.s 			page 75


 2599              		.loc 1 400 17 is_stmt 0 view .LVU663
 2600 0046 8DF80530 		strb	r3, [sp, #5]
 401:Core/Src/main.c ****   sTime.DayLightSaving = RTC_DAYLIGHTSAVING_ADD1H;
 2601              		.loc 1 401 3 is_stmt 1 view .LVU664
 401:Core/Src/main.c ****   sTime.DayLightSaving = RTC_DAYLIGHTSAVING_ADD1H;
 2602              		.loc 1 401 17 is_stmt 0 view .LVU665
 2603 004a 8DF80630 		strb	r3, [sp, #6]
 402:Core/Src/main.c ****   sTime.StoreOperation = RTC_STOREOPERATION_RESET;
 2604              		.loc 1 402 3 is_stmt 1 view .LVU666
 402:Core/Src/main.c ****   sTime.StoreOperation = RTC_STOREOPERATION_RESET;
 2605              		.loc 1 402 24 is_stmt 0 view .LVU667
 2606 004e 4FF48032 		mov	r2, #65536
 2607 0052 0492     		str	r2, [sp, #16]
 403:Core/Src/main.c ****   if (HAL_RTC_SetTime(&hrtc, &sTime, RTC_FORMAT_BCD) != HAL_OK)
 2608              		.loc 1 403 3 is_stmt 1 view .LVU668
 403:Core/Src/main.c ****   if (HAL_RTC_SetTime(&hrtc, &sTime, RTC_FORMAT_BCD) != HAL_OK)
 2609              		.loc 1 403 24 is_stmt 0 view .LVU669
 2610 0054 0593     		str	r3, [sp, #20]
 404:Core/Src/main.c ****   {
 2611              		.loc 1 404 3 is_stmt 1 view .LVU670
 404:Core/Src/main.c ****   {
 2612              		.loc 1 404 7 is_stmt 0 view .LVU671
 2613 0056 0122     		movs	r2, #1
 2614 0058 01A9     		add	r1, sp, #4
 2615 005a 1248     		ldr	r0, .L152
 2616 005c FFF7FEFF 		bl	HAL_RTC_SetTime
 2617              	.LVL222:
 404:Core/Src/main.c ****   {
 2618              		.loc 1 404 6 discriminator 1 view .LVU672
 2619 0060 C8B9     		cbnz	r0, .L149
 408:Core/Src/main.c ****   sDate.Month = RTC_MONTH_JANUARY;
 2620              		.loc 1 408 3 is_stmt 1 view .LVU673
 408:Core/Src/main.c ****   sDate.Month = RTC_MONTH_JANUARY;
 2621              		.loc 1 408 17 is_stmt 0 view .LVU674
 2622 0062 0122     		movs	r2, #1
 2623 0064 8DF80020 		strb	r2, [sp]
 409:Core/Src/main.c ****   sDate.Date = 0x1;
 2624              		.loc 1 409 3 is_stmt 1 view .LVU675
 409:Core/Src/main.c ****   sDate.Date = 0x1;
 2625              		.loc 1 409 15 is_stmt 0 view .LVU676
 2626 0068 8DF80120 		strb	r2, [sp, #1]
 410:Core/Src/main.c ****   sDate.Year = 0x25;
 2627              		.loc 1 410 3 is_stmt 1 view .LVU677
 410:Core/Src/main.c ****   sDate.Year = 0x25;
 2628              		.loc 1 410 14 is_stmt 0 view .LVU678
 2629 006c 8DF80220 		strb	r2, [sp, #2]
 411:Core/Src/main.c **** 
 2630              		.loc 1 411 3 is_stmt 1 view .LVU679
 411:Core/Src/main.c **** 
 2631              		.loc 1 411 14 is_stmt 0 view .LVU680
 2632 0070 2523     		movs	r3, #37
 2633 0072 8DF80330 		strb	r3, [sp, #3]
 413:Core/Src/main.c ****   {
 2634              		.loc 1 413 3 is_stmt 1 view .LVU681
 413:Core/Src/main.c ****   {
 2635              		.loc 1 413 7 is_stmt 0 view .LVU682
 2636 0076 6946     		mov	r1, sp
ARM GAS  C:\Users\kroko\AppData\Local\Temp\ccOkN8ni.s 			page 76


 2637 0078 0A48     		ldr	r0, .L152
 2638 007a FFF7FEFF 		bl	HAL_RTC_SetDate
 2639              	.LVL223:
 413:Core/Src/main.c ****   {
 2640              		.loc 1 413 6 discriminator 1 view .LVU683
 2641 007e 60B9     		cbnz	r0, .L150
 420:Core/Src/main.c ****   {
 2642              		.loc 1 420 3 is_stmt 1 view .LVU684
 420:Core/Src/main.c ****   {
 2643              		.loc 1 420 7 is_stmt 0 view .LVU685
 2644 0080 0023     		movs	r3, #0
 2645 0082 0422     		movs	r2, #4
 2646 0084 0A21     		movs	r1, #10
 2647 0086 0748     		ldr	r0, .L152
 2648 0088 FFF7FEFF 		bl	HAL_RTCEx_SetWakeUpTimer_IT
 2649              	.LVL224:
 420:Core/Src/main.c ****   {
 2650              		.loc 1 420 6 discriminator 1 view .LVU686
 2651 008c 38B9     		cbnz	r0, .L151
 428:Core/Src/main.c **** 
 2652              		.loc 1 428 1 view .LVU687
 2653 008e 07B0     		add	sp, sp, #28
 2654              		.cfi_remember_state
 2655              		.cfi_def_cfa_offset 12
 2656              		@ sp needed
 2657 0090 30BD     		pop	{r4, r5, pc}
 2658              	.L148:
 2659              		.cfi_restore_state
 390:Core/Src/main.c ****   }
 2660              		.loc 1 390 5 is_stmt 1 view .LVU688
 2661 0092 FFF7FEFF 		bl	Error_Handler
 2662              	.LVL225:
 2663              	.L149:
 406:Core/Src/main.c ****   }
 2664              		.loc 1 406 5 view .LVU689
 2665 0096 FFF7FEFF 		bl	Error_Handler
 2666              	.LVL226:
 2667              	.L150:
 415:Core/Src/main.c ****   }
 2668              		.loc 1 415 5 view .LVU690
 2669 009a FFF7FEFF 		bl	Error_Handler
 2670              	.LVL227:
 2671              	.L151:
 422:Core/Src/main.c ****   }
 2672              		.loc 1 422 5 view .LVU691
 2673 009e FFF7FEFF 		bl	Error_Handler
 2674              	.LVL228:
 2675              	.L153:
 2676 00a2 00BF     		.align	2
 2677              	.L152:
 2678 00a4 00000000 		.word	hrtc
 2679 00a8 00280040 		.word	1073752064
 2680              		.cfi_endproc
 2681              	.LFE326:
 2683              		.section	.text.MX_USART2_UART_Init,"ax",%progbits
 2684              		.align	1
 2685              		.syntax unified
ARM GAS  C:\Users\kroko\AppData\Local\Temp\ccOkN8ni.s 			page 77


 2686              		.thumb
 2687              		.thumb_func
 2689              	MX_USART2_UART_Init:
 2690              	.LFB328:
 476:Core/Src/main.c **** 
 2691              		.loc 1 476 1 view -0
 2692              		.cfi_startproc
 2693              		@ args = 0, pretend = 0, frame = 0
 2694              		@ frame_needed = 0, uses_anonymous_args = 0
 2695 0000 08B5     		push	{r3, lr}
 2696              		.cfi_def_cfa_offset 8
 2697              		.cfi_offset 3, -8
 2698              		.cfi_offset 14, -4
 485:Core/Src/main.c ****   huart2.Init.BaudRate = 115200;
 2699              		.loc 1 485 3 view .LVU693
 485:Core/Src/main.c ****   huart2.Init.BaudRate = 115200;
 2700              		.loc 1 485 19 is_stmt 0 view .LVU694
 2701 0002 0B48     		ldr	r0, .L158
 2702 0004 0B4B     		ldr	r3, .L158+4
 2703 0006 0360     		str	r3, [r0]
 486:Core/Src/main.c ****   huart2.Init.WordLength = UART_WORDLENGTH_8B;
 2704              		.loc 1 486 3 is_stmt 1 view .LVU695
 486:Core/Src/main.c ****   huart2.Init.WordLength = UART_WORDLENGTH_8B;
 2705              		.loc 1 486 24 is_stmt 0 view .LVU696
 2706 0008 4FF4E133 		mov	r3, #115200
 2707 000c 4360     		str	r3, [r0, #4]
 487:Core/Src/main.c ****   huart2.Init.StopBits = UART_STOPBITS_1;
 2708              		.loc 1 487 3 is_stmt 1 view .LVU697
 487:Core/Src/main.c ****   huart2.Init.StopBits = UART_STOPBITS_1;
 2709              		.loc 1 487 26 is_stmt 0 view .LVU698
 2710 000e 0023     		movs	r3, #0
 2711 0010 8360     		str	r3, [r0, #8]
 488:Core/Src/main.c ****   huart2.Init.Parity = UART_PARITY_NONE;
 2712              		.loc 1 488 3 is_stmt 1 view .LVU699
 488:Core/Src/main.c ****   huart2.Init.Parity = UART_PARITY_NONE;
 2713              		.loc 1 488 24 is_stmt 0 view .LVU700
 2714 0012 C360     		str	r3, [r0, #12]
 489:Core/Src/main.c ****   huart2.Init.Mode = UART_MODE_TX_RX;
 2715              		.loc 1 489 3 is_stmt 1 view .LVU701
 489:Core/Src/main.c ****   huart2.Init.Mode = UART_MODE_TX_RX;
 2716              		.loc 1 489 22 is_stmt 0 view .LVU702
 2717 0014 0361     		str	r3, [r0, #16]
 490:Core/Src/main.c ****   huart2.Init.HwFlowCtl = UART_HWCONTROL_NONE;
 2718              		.loc 1 490 3 is_stmt 1 view .LVU703
 490:Core/Src/main.c ****   huart2.Init.HwFlowCtl = UART_HWCONTROL_NONE;
 2719              		.loc 1 490 20 is_stmt 0 view .LVU704
 2720 0016 0C22     		movs	r2, #12
 2721 0018 4261     		str	r2, [r0, #20]
 491:Core/Src/main.c ****   huart2.Init.OverSampling = UART_OVERSAMPLING_16;
 2722              		.loc 1 491 3 is_stmt 1 view .LVU705
 491:Core/Src/main.c ****   huart2.Init.OverSampling = UART_OVERSAMPLING_16;
 2723              		.loc 1 491 25 is_stmt 0 view .LVU706
 2724 001a 8361     		str	r3, [r0, #24]
 492:Core/Src/main.c ****   huart2.Init.OneBitSampling = UART_ONE_BIT_SAMPLE_DISABLE;
 2725              		.loc 1 492 3 is_stmt 1 view .LVU707
 492:Core/Src/main.c ****   huart2.Init.OneBitSampling = UART_ONE_BIT_SAMPLE_DISABLE;
 2726              		.loc 1 492 28 is_stmt 0 view .LVU708
ARM GAS  C:\Users\kroko\AppData\Local\Temp\ccOkN8ni.s 			page 78


 2727 001c C361     		str	r3, [r0, #28]
 493:Core/Src/main.c ****   huart2.AdvancedInit.AdvFeatureInit = UART_ADVFEATURE_NO_INIT;
 2728              		.loc 1 493 3 is_stmt 1 view .LVU709
 493:Core/Src/main.c ****   huart2.AdvancedInit.AdvFeatureInit = UART_ADVFEATURE_NO_INIT;
 2729              		.loc 1 493 30 is_stmt 0 view .LVU710
 2730 001e 0362     		str	r3, [r0, #32]
 494:Core/Src/main.c ****   if (HAL_HalfDuplex_Init(&huart2) != HAL_OK)
 2731              		.loc 1 494 3 is_stmt 1 view .LVU711
 494:Core/Src/main.c ****   if (HAL_HalfDuplex_Init(&huart2) != HAL_OK)
 2732              		.loc 1 494 38 is_stmt 0 view .LVU712
 2733 0020 4362     		str	r3, [r0, #36]
 495:Core/Src/main.c ****   {
 2734              		.loc 1 495 3 is_stmt 1 view .LVU713
 495:Core/Src/main.c ****   {
 2735              		.loc 1 495 7 is_stmt 0 view .LVU714
 2736 0022 FFF7FEFF 		bl	HAL_HalfDuplex_Init
 2737              	.LVL229:
 495:Core/Src/main.c ****   {
 2738              		.loc 1 495 6 discriminator 1 view .LVU715
 2739 0026 00B9     		cbnz	r0, .L157
 503:Core/Src/main.c **** 
 2740              		.loc 1 503 1 view .LVU716
 2741 0028 08BD     		pop	{r3, pc}
 2742              	.L157:
 497:Core/Src/main.c ****   }
 2743              		.loc 1 497 5 is_stmt 1 view .LVU717
 2744 002a FFF7FEFF 		bl	Error_Handler
 2745              	.LVL230:
 2746              	.L159:
 2747 002e 00BF     		.align	2
 2748              	.L158:
 2749 0030 00000000 		.word	huart2
 2750 0034 00440040 		.word	1073759232
 2751              		.cfi_endproc
 2752              	.LFE328:
 2754              		.section	.text.MX_ADC1_Init,"ax",%progbits
 2755              		.align	1
 2756              		.syntax unified
 2757              		.thumb
 2758              		.thumb_func
 2760              	MX_ADC1_Init:
 2761              	.LFB325:
 295:Core/Src/main.c **** 
 2762              		.loc 1 295 1 view -0
 2763              		.cfi_startproc
 2764              		@ args = 0, pretend = 0, frame = 40
 2765              		@ frame_needed = 0, uses_anonymous_args = 0
 2766 0000 00B5     		push	{lr}
 2767              		.cfi_def_cfa_offset 4
 2768              		.cfi_offset 14, -4
 2769 0002 8BB0     		sub	sp, sp, #44
 2770              		.cfi_def_cfa_offset 48
 301:Core/Src/main.c ****   ADC_ChannelConfTypeDef sConfig = {0};
 2771              		.loc 1 301 3 view .LVU719
 301:Core/Src/main.c ****   ADC_ChannelConfTypeDef sConfig = {0};
 2772              		.loc 1 301 24 is_stmt 0 view .LVU720
 2773 0004 0023     		movs	r3, #0
ARM GAS  C:\Users\kroko\AppData\Local\Temp\ccOkN8ni.s 			page 79


 2774 0006 0793     		str	r3, [sp, #28]
 2775 0008 0893     		str	r3, [sp, #32]
 2776 000a 0993     		str	r3, [sp, #36]
 302:Core/Src/main.c **** 
 2777              		.loc 1 302 3 is_stmt 1 view .LVU721
 302:Core/Src/main.c **** 
 2778              		.loc 1 302 26 is_stmt 0 view .LVU722
 2779 000c 0193     		str	r3, [sp, #4]
 2780 000e 0293     		str	r3, [sp, #8]
 2781 0010 0393     		str	r3, [sp, #12]
 2782 0012 0493     		str	r3, [sp, #16]
 2783 0014 0593     		str	r3, [sp, #20]
 2784 0016 0693     		str	r3, [sp, #24]
 310:Core/Src/main.c ****   hadc1.Init.ClockPrescaler = ADC_CLOCK_ASYNC_DIV1;
 2785              		.loc 1 310 3 is_stmt 1 view .LVU723
 310:Core/Src/main.c ****   hadc1.Init.ClockPrescaler = ADC_CLOCK_ASYNC_DIV1;
 2786              		.loc 1 310 18 is_stmt 0 view .LVU724
 2787 0018 1C48     		ldr	r0, .L168
 2788 001a 1D4A     		ldr	r2, .L168+4
 2789 001c 0260     		str	r2, [r0]
 311:Core/Src/main.c ****   hadc1.Init.Resolution = ADC_RESOLUTION_12B;
 2790              		.loc 1 311 3 is_stmt 1 view .LVU725
 311:Core/Src/main.c ****   hadc1.Init.Resolution = ADC_RESOLUTION_12B;
 2791              		.loc 1 311 29 is_stmt 0 view .LVU726
 2792 001e 4360     		str	r3, [r0, #4]
 312:Core/Src/main.c ****   hadc1.Init.DataAlign = ADC_DATAALIGN_RIGHT;
 2793              		.loc 1 312 3 is_stmt 1 view .LVU727
 312:Core/Src/main.c ****   hadc1.Init.DataAlign = ADC_DATAALIGN_RIGHT;
 2794              		.loc 1 312 25 is_stmt 0 view .LVU728
 2795 0020 8360     		str	r3, [r0, #8]
 313:Core/Src/main.c ****   hadc1.Init.ScanConvMode = ADC_SCAN_DISABLE;
 2796              		.loc 1 313 3 is_stmt 1 view .LVU729
 313:Core/Src/main.c ****   hadc1.Init.ScanConvMode = ADC_SCAN_DISABLE;
 2797              		.loc 1 313 24 is_stmt 0 view .LVU730
 2798 0022 C360     		str	r3, [r0, #12]
 314:Core/Src/main.c ****   hadc1.Init.EOCSelection = ADC_EOC_SINGLE_CONV;
 2799              		.loc 1 314 3 is_stmt 1 view .LVU731
 314:Core/Src/main.c ****   hadc1.Init.EOCSelection = ADC_EOC_SINGLE_CONV;
 2800              		.loc 1 314 27 is_stmt 0 view .LVU732
 2801 0024 0361     		str	r3, [r0, #16]
 315:Core/Src/main.c ****   hadc1.Init.LowPowerAutoWait = DISABLE;
 2802              		.loc 1 315 3 is_stmt 1 view .LVU733
 315:Core/Src/main.c ****   hadc1.Init.LowPowerAutoWait = DISABLE;
 2803              		.loc 1 315 27 is_stmt 0 view .LVU734
 2804 0026 0422     		movs	r2, #4
 2805 0028 4261     		str	r2, [r0, #20]
 316:Core/Src/main.c ****   hadc1.Init.ContinuousConvMode = ENABLE;
 2806              		.loc 1 316 3 is_stmt 1 view .LVU735
 316:Core/Src/main.c ****   hadc1.Init.ContinuousConvMode = ENABLE;
 2807              		.loc 1 316 31 is_stmt 0 view .LVU736
 2808 002a 0376     		strb	r3, [r0, #24]
 317:Core/Src/main.c ****   hadc1.Init.NbrOfConversion = 1;
 2809              		.loc 1 317 3 is_stmt 1 view .LVU737
 317:Core/Src/main.c ****   hadc1.Init.NbrOfConversion = 1;
 2810              		.loc 1 317 33 is_stmt 0 view .LVU738
 2811 002c 0122     		movs	r2, #1
 2812 002e 4276     		strb	r2, [r0, #25]
ARM GAS  C:\Users\kroko\AppData\Local\Temp\ccOkN8ni.s 			page 80


 318:Core/Src/main.c ****   hadc1.Init.DiscontinuousConvMode = DISABLE;
 2813              		.loc 1 318 3 is_stmt 1 view .LVU739
 318:Core/Src/main.c ****   hadc1.Init.DiscontinuousConvMode = DISABLE;
 2814              		.loc 1 318 30 is_stmt 0 view .LVU740
 2815 0030 C261     		str	r2, [r0, #28]
 319:Core/Src/main.c ****   hadc1.Init.ExternalTrigConv = ADC_SOFTWARE_START;
 2816              		.loc 1 319 3 is_stmt 1 view .LVU741
 319:Core/Src/main.c ****   hadc1.Init.ExternalTrigConv = ADC_SOFTWARE_START;
 2817              		.loc 1 319 36 is_stmt 0 view .LVU742
 2818 0032 80F82030 		strb	r3, [r0, #32]
 320:Core/Src/main.c ****   hadc1.Init.ExternalTrigConvEdge = ADC_EXTERNALTRIGCONVEDGE_NONE;
 2819              		.loc 1 320 3 is_stmt 1 view .LVU743
 320:Core/Src/main.c ****   hadc1.Init.ExternalTrigConvEdge = ADC_EXTERNALTRIGCONVEDGE_NONE;
 2820              		.loc 1 320 31 is_stmt 0 view .LVU744
 2821 0036 8362     		str	r3, [r0, #40]
 321:Core/Src/main.c ****   hadc1.Init.DMAContinuousRequests = DISABLE;
 2822              		.loc 1 321 3 is_stmt 1 view .LVU745
 321:Core/Src/main.c ****   hadc1.Init.DMAContinuousRequests = DISABLE;
 2823              		.loc 1 321 35 is_stmt 0 view .LVU746
 2824 0038 C362     		str	r3, [r0, #44]
 322:Core/Src/main.c ****   hadc1.Init.Overrun = ADC_OVR_DATA_PRESERVED;
 2825              		.loc 1 322 3 is_stmt 1 view .LVU747
 322:Core/Src/main.c ****   hadc1.Init.Overrun = ADC_OVR_DATA_PRESERVED;
 2826              		.loc 1 322 36 is_stmt 0 view .LVU748
 2827 003a 80F83030 		strb	r3, [r0, #48]
 323:Core/Src/main.c ****   hadc1.Init.OversamplingMode = DISABLE;
 2828              		.loc 1 323 3 is_stmt 1 view .LVU749
 323:Core/Src/main.c ****   hadc1.Init.OversamplingMode = DISABLE;
 2829              		.loc 1 323 22 is_stmt 0 view .LVU750
 2830 003e 4363     		str	r3, [r0, #52]
 324:Core/Src/main.c ****   if (HAL_ADC_Init(&hadc1) != HAL_OK)
 2831              		.loc 1 324 3 is_stmt 1 view .LVU751
 324:Core/Src/main.c ****   if (HAL_ADC_Init(&hadc1) != HAL_OK)
 2832              		.loc 1 324 31 is_stmt 0 view .LVU752
 2833 0040 80F83830 		strb	r3, [r0, #56]
 325:Core/Src/main.c ****   {
 2834              		.loc 1 325 3 is_stmt 1 view .LVU753
 325:Core/Src/main.c ****   {
 2835              		.loc 1 325 7 is_stmt 0 view .LVU754
 2836 0044 FFF7FEFF 		bl	HAL_ADC_Init
 2837              	.LVL231:
 325:Core/Src/main.c ****   {
 2838              		.loc 1 325 6 discriminator 1 view .LVU755
 2839 0048 D0B9     		cbnz	r0, .L165
 332:Core/Src/main.c ****   if (HAL_ADCEx_MultiModeConfigChannel(&hadc1, &multimode) != HAL_OK)
 2840              		.loc 1 332 3 is_stmt 1 view .LVU756
 332:Core/Src/main.c ****   if (HAL_ADCEx_MultiModeConfigChannel(&hadc1, &multimode) != HAL_OK)
 2841              		.loc 1 332 18 is_stmt 0 view .LVU757
 2842 004a 0023     		movs	r3, #0
 2843 004c 0793     		str	r3, [sp, #28]
 333:Core/Src/main.c ****   {
 2844              		.loc 1 333 3 is_stmt 1 view .LVU758
 333:Core/Src/main.c ****   {
 2845              		.loc 1 333 7 is_stmt 0 view .LVU759
 2846 004e 07A9     		add	r1, sp, #28
 2847 0050 0E48     		ldr	r0, .L168
 2848 0052 FFF7FEFF 		bl	HAL_ADCEx_MultiModeConfigChannel
ARM GAS  C:\Users\kroko\AppData\Local\Temp\ccOkN8ni.s 			page 81


 2849              	.LVL232:
 333:Core/Src/main.c ****   {
 2850              		.loc 1 333 6 discriminator 1 view .LVU760
 2851 0056 A8B9     		cbnz	r0, .L166
 340:Core/Src/main.c ****   sConfig.Rank = ADC_REGULAR_RANK_1;
 2852              		.loc 1 340 3 is_stmt 1 view .LVU761
 340:Core/Src/main.c ****   sConfig.Rank = ADC_REGULAR_RANK_1;
 2853              		.loc 1 340 19 is_stmt 0 view .LVU762
 2854 0058 0E4B     		ldr	r3, .L168+8
 2855 005a 0193     		str	r3, [sp, #4]
 341:Core/Src/main.c ****   sConfig.SamplingTime = ADC_SAMPLETIME_2CYCLES_5;
 2856              		.loc 1 341 3 is_stmt 1 view .LVU763
 341:Core/Src/main.c ****   sConfig.SamplingTime = ADC_SAMPLETIME_2CYCLES_5;
 2857              		.loc 1 341 16 is_stmt 0 view .LVU764
 2858 005c 0623     		movs	r3, #6
 2859 005e 0293     		str	r3, [sp, #8]
 342:Core/Src/main.c ****   sConfig.SingleDiff = ADC_SINGLE_ENDED;
 2860              		.loc 1 342 3 is_stmt 1 view .LVU765
 342:Core/Src/main.c ****   sConfig.SingleDiff = ADC_SINGLE_ENDED;
 2861              		.loc 1 342 24 is_stmt 0 view .LVU766
 2862 0060 0023     		movs	r3, #0
 2863 0062 0393     		str	r3, [sp, #12]
 343:Core/Src/main.c ****   sConfig.OffsetNumber = ADC_OFFSET_NONE;
 2864              		.loc 1 343 3 is_stmt 1 view .LVU767
 343:Core/Src/main.c ****   sConfig.OffsetNumber = ADC_OFFSET_NONE;
 2865              		.loc 1 343 22 is_stmt 0 view .LVU768
 2866 0064 7F22     		movs	r2, #127
 2867 0066 0492     		str	r2, [sp, #16]
 344:Core/Src/main.c ****   sConfig.Offset = 0;
 2868              		.loc 1 344 3 is_stmt 1 view .LVU769
 344:Core/Src/main.c ****   sConfig.Offset = 0;
 2869              		.loc 1 344 24 is_stmt 0 view .LVU770
 2870 0068 0422     		movs	r2, #4
 2871 006a 0592     		str	r2, [sp, #20]
 345:Core/Src/main.c ****   if (HAL_ADC_ConfigChannel(&hadc1, &sConfig) != HAL_OK)
 2872              		.loc 1 345 3 is_stmt 1 view .LVU771
 345:Core/Src/main.c ****   if (HAL_ADC_ConfigChannel(&hadc1, &sConfig) != HAL_OK)
 2873              		.loc 1 345 18 is_stmt 0 view .LVU772
 2874 006c 0693     		str	r3, [sp, #24]
 346:Core/Src/main.c ****   {
 2875              		.loc 1 346 3 is_stmt 1 view .LVU773
 346:Core/Src/main.c ****   {
 2876              		.loc 1 346 7 is_stmt 0 view .LVU774
 2877 006e 0DEB0201 		add	r1, sp, r2
 2878 0072 0648     		ldr	r0, .L168
 2879 0074 FFF7FEFF 		bl	HAL_ADC_ConfigChannel
 2880              	.LVL233:
 346:Core/Src/main.c ****   {
 2881              		.loc 1 346 6 discriminator 1 view .LVU775
 2882 0078 30B9     		cbnz	r0, .L167
 354:Core/Src/main.c **** 
 2883              		.loc 1 354 1 view .LVU776
 2884 007a 0BB0     		add	sp, sp, #44
 2885              		.cfi_remember_state
 2886              		.cfi_def_cfa_offset 4
 2887              		@ sp needed
 2888 007c 5DF804FB 		ldr	pc, [sp], #4
ARM GAS  C:\Users\kroko\AppData\Local\Temp\ccOkN8ni.s 			page 82


 2889              	.L165:
 2890              		.cfi_restore_state
 327:Core/Src/main.c ****   }
 2891              		.loc 1 327 5 is_stmt 1 view .LVU777
 2892 0080 FFF7FEFF 		bl	Error_Handler
 2893              	.LVL234:
 2894              	.L166:
 335:Core/Src/main.c ****   }
 2895              		.loc 1 335 5 view .LVU778
 2896 0084 FFF7FEFF 		bl	Error_Handler
 2897              	.LVL235:
 2898              	.L167:
 348:Core/Src/main.c ****   }
 2899              		.loc 1 348 5 view .LVU779
 2900 0088 FFF7FEFF 		bl	Error_Handler
 2901              	.LVL236:
 2902              	.L169:
 2903              		.align	2
 2904              	.L168:
 2905 008c 00000000 		.word	hadc1
 2906 0090 00000450 		.word	1342439424
 2907 0094 01000080 		.word	-2147483647
 2908              		.cfi_endproc
 2909              	.LFE325:
 2911              		.section	.text.SystemClock_Config,"ax",%progbits
 2912              		.align	1
 2913              		.global	SystemClock_Config
 2914              		.syntax unified
 2915              		.thumb
 2916              		.thumb_func
 2918              	SystemClock_Config:
 2919              	.LFB324:
 238:Core/Src/main.c ****   RCC_OscInitTypeDef RCC_OscInitStruct = {0};
 2920              		.loc 1 238 1 view -0
 2921              		.cfi_startproc
 2922              		@ args = 0, pretend = 0, frame = 88
 2923              		@ frame_needed = 0, uses_anonymous_args = 0
 2924 0000 00B5     		push	{lr}
 2925              		.cfi_def_cfa_offset 4
 2926              		.cfi_offset 14, -4
 2927 0002 97B0     		sub	sp, sp, #92
 2928              		.cfi_def_cfa_offset 96
 239:Core/Src/main.c ****   RCC_ClkInitTypeDef RCC_ClkInitStruct = {0};
 2929              		.loc 1 239 3 view .LVU781
 239:Core/Src/main.c ****   RCC_ClkInitTypeDef RCC_ClkInitStruct = {0};
 2930              		.loc 1 239 22 is_stmt 0 view .LVU782
 2931 0004 4422     		movs	r2, #68
 2932 0006 0021     		movs	r1, #0
 2933 0008 05A8     		add	r0, sp, #20
 2934 000a FFF7FEFF 		bl	memset
 2935              	.LVL237:
 240:Core/Src/main.c **** 
 2936              		.loc 1 240 3 is_stmt 1 view .LVU783
 240:Core/Src/main.c **** 
 2937              		.loc 1 240 22 is_stmt 0 view .LVU784
 2938 000e 0023     		movs	r3, #0
 2939 0010 0093     		str	r3, [sp]
ARM GAS  C:\Users\kroko\AppData\Local\Temp\ccOkN8ni.s 			page 83


 2940 0012 0193     		str	r3, [sp, #4]
 2941 0014 0293     		str	r3, [sp, #8]
 2942 0016 0393     		str	r3, [sp, #12]
 2943 0018 0493     		str	r3, [sp, #16]
 244:Core/Src/main.c ****   {
 2944              		.loc 1 244 3 is_stmt 1 view .LVU785
 244:Core/Src/main.c ****   {
 2945              		.loc 1 244 7 is_stmt 0 view .LVU786
 2946 001a 4FF40070 		mov	r0, #512
 2947 001e FFF7FEFF 		bl	HAL_PWREx_ControlVoltageScaling
 2948              	.LVL238:
 244:Core/Src/main.c ****   {
 2949              		.loc 1 244 6 discriminator 1 view .LVU787
 2950 0022 38BB     		cbnz	r0, .L175
 251:Core/Src/main.c ****   __HAL_RCC_LSEDRIVE_CONFIG(RCC_LSEDRIVE_LOW);
 2951              		.loc 1 251 3 is_stmt 1 view .LVU788
 2952 0024 FFF7FEFF 		bl	HAL_PWR_EnableBkUpAccess
 2953              	.LVL239:
 252:Core/Src/main.c **** 
 2954              		.loc 1 252 3 view .LVU789
 2955 0028 154A     		ldr	r2, .L178
 2956 002a D2F89030 		ldr	r3, [r2, #144]
 2957 002e 23F01803 		bic	r3, r3, #24
 2958 0032 C2F89030 		str	r3, [r2, #144]
 257:Core/Src/main.c ****                               |RCC_OSCILLATORTYPE_MSI;
 2959              		.loc 1 257 3 view .LVU790
 257:Core/Src/main.c ****                               |RCC_OSCILLATORTYPE_MSI;
 2960              		.loc 1 257 36 is_stmt 0 view .LVU791
 2961 0036 3423     		movs	r3, #52
 2962 0038 0593     		str	r3, [sp, #20]
 259:Core/Src/main.c ****   RCC_OscInitStruct.HSI48State = RCC_HSI48_ON;
 2963              		.loc 1 259 3 is_stmt 1 view .LVU792
 259:Core/Src/main.c ****   RCC_OscInitStruct.HSI48State = RCC_HSI48_ON;
 2964              		.loc 1 259 30 is_stmt 0 view .LVU793
 2965 003a 0123     		movs	r3, #1
 2966 003c 0793     		str	r3, [sp, #28]
 260:Core/Src/main.c ****   RCC_OscInitStruct.MSIState = RCC_MSI_ON;
 2967              		.loc 1 260 3 is_stmt 1 view .LVU794
 260:Core/Src/main.c ****   RCC_OscInitStruct.MSIState = RCC_MSI_ON;
 2968              		.loc 1 260 32 is_stmt 0 view .LVU795
 2969 003e 0F93     		str	r3, [sp, #60]
 261:Core/Src/main.c ****   RCC_OscInitStruct.MSICalibrationValue = 0;
 2970              		.loc 1 261 3 is_stmt 1 view .LVU796
 261:Core/Src/main.c ****   RCC_OscInitStruct.MSICalibrationValue = 0;
 2971              		.loc 1 261 30 is_stmt 0 view .LVU797
 2972 0040 0C93     		str	r3, [sp, #48]
 262:Core/Src/main.c ****   RCC_OscInitStruct.MSIClockRange = RCC_MSIRANGE_8;
 2973              		.loc 1 262 3 is_stmt 1 view .LVU798
 262:Core/Src/main.c ****   RCC_OscInitStruct.MSIClockRange = RCC_MSIRANGE_8;
 2974              		.loc 1 262 41 is_stmt 0 view .LVU799
 2975 0042 0023     		movs	r3, #0
 2976 0044 0D93     		str	r3, [sp, #52]
 263:Core/Src/main.c ****   RCC_OscInitStruct.PLL.PLLState = RCC_PLL_NONE;
 2977              		.loc 1 263 3 is_stmt 1 view .LVU800
 263:Core/Src/main.c ****   RCC_OscInitStruct.PLL.PLLState = RCC_PLL_NONE;
 2978              		.loc 1 263 35 is_stmt 0 view .LVU801
 2979 0046 8022     		movs	r2, #128
ARM GAS  C:\Users\kroko\AppData\Local\Temp\ccOkN8ni.s 			page 84


 2980 0048 0E92     		str	r2, [sp, #56]
 264:Core/Src/main.c ****   if (HAL_RCC_OscConfig(&RCC_OscInitStruct) != HAL_OK)
 2981              		.loc 1 264 3 is_stmt 1 view .LVU802
 264:Core/Src/main.c ****   if (HAL_RCC_OscConfig(&RCC_OscInitStruct) != HAL_OK)
 2982              		.loc 1 264 34 is_stmt 0 view .LVU803
 2983 004a 1093     		str	r3, [sp, #64]
 265:Core/Src/main.c ****   {
 2984              		.loc 1 265 3 is_stmt 1 view .LVU804
 265:Core/Src/main.c ****   {
 2985              		.loc 1 265 7 is_stmt 0 view .LVU805
 2986 004c 05A8     		add	r0, sp, #20
 2987 004e FFF7FEFF 		bl	HAL_RCC_OscConfig
 2988              	.LVL240:
 265:Core/Src/main.c ****   {
 2989              		.loc 1 265 6 discriminator 1 view .LVU806
 2990 0052 88B9     		cbnz	r0, .L176
 272:Core/Src/main.c ****                               |RCC_CLOCKTYPE_PCLK1|RCC_CLOCKTYPE_PCLK2;
 2991              		.loc 1 272 3 is_stmt 1 view .LVU807
 272:Core/Src/main.c ****                               |RCC_CLOCKTYPE_PCLK1|RCC_CLOCKTYPE_PCLK2;
 2992              		.loc 1 272 31 is_stmt 0 view .LVU808
 2993 0054 0F23     		movs	r3, #15
 2994 0056 0093     		str	r3, [sp]
 274:Core/Src/main.c ****   RCC_ClkInitStruct.AHBCLKDivider = RCC_SYSCLK_DIV1;
 2995              		.loc 1 274 3 is_stmt 1 view .LVU809
 274:Core/Src/main.c ****   RCC_ClkInitStruct.AHBCLKDivider = RCC_SYSCLK_DIV1;
 2996              		.loc 1 274 34 is_stmt 0 view .LVU810
 2997 0058 0021     		movs	r1, #0
 2998 005a 0191     		str	r1, [sp, #4]
 275:Core/Src/main.c ****   RCC_ClkInitStruct.APB1CLKDivider = RCC_HCLK_DIV1;
 2999              		.loc 1 275 3 is_stmt 1 view .LVU811
 275:Core/Src/main.c ****   RCC_ClkInitStruct.APB1CLKDivider = RCC_HCLK_DIV1;
 3000              		.loc 1 275 35 is_stmt 0 view .LVU812
 3001 005c 0291     		str	r1, [sp, #8]
 276:Core/Src/main.c ****   RCC_ClkInitStruct.APB2CLKDivider = RCC_HCLK_DIV1;
 3002              		.loc 1 276 3 is_stmt 1 view .LVU813
 276:Core/Src/main.c ****   RCC_ClkInitStruct.APB2CLKDivider = RCC_HCLK_DIV1;
 3003              		.loc 1 276 36 is_stmt 0 view .LVU814
 3004 005e 0391     		str	r1, [sp, #12]
 277:Core/Src/main.c **** 
 3005              		.loc 1 277 3 is_stmt 1 view .LVU815
 277:Core/Src/main.c **** 
 3006              		.loc 1 277 36 is_stmt 0 view .LVU816
 3007 0060 0491     		str	r1, [sp, #16]
 279:Core/Src/main.c ****   {
 3008              		.loc 1 279 3 is_stmt 1 view .LVU817
 279:Core/Src/main.c ****   {
 3009              		.loc 1 279 7 is_stmt 0 view .LVU818
 3010 0062 6846     		mov	r0, sp
 3011 0064 FFF7FEFF 		bl	HAL_RCC_ClockConfig
 3012              	.LVL241:
 279:Core/Src/main.c ****   {
 3013              		.loc 1 279 6 discriminator 1 view .LVU819
 3014 0068 40B9     		cbnz	r0, .L177
 286:Core/Src/main.c **** }
 3015              		.loc 1 286 3 is_stmt 1 view .LVU820
 3016 006a FFF7FEFF 		bl	HAL_RCCEx_EnableMSIPLLMode
 3017              	.LVL242:
ARM GAS  C:\Users\kroko\AppData\Local\Temp\ccOkN8ni.s 			page 85


 287:Core/Src/main.c **** 
 3018              		.loc 1 287 1 is_stmt 0 view .LVU821
 3019 006e 17B0     		add	sp, sp, #92
 3020              		.cfi_remember_state
 3021              		.cfi_def_cfa_offset 4
 3022              		@ sp needed
 3023 0070 5DF804FB 		ldr	pc, [sp], #4
 3024              	.L175:
 3025              		.cfi_restore_state
 246:Core/Src/main.c ****   }
 3026              		.loc 1 246 5 is_stmt 1 view .LVU822
 3027 0074 FFF7FEFF 		bl	Error_Handler
 3028              	.LVL243:
 3029              	.L176:
 267:Core/Src/main.c ****   }
 3030              		.loc 1 267 5 view .LVU823
 3031 0078 FFF7FEFF 		bl	Error_Handler
 3032              	.LVL244:
 3033              	.L177:
 281:Core/Src/main.c ****   }
 3034              		.loc 1 281 5 view .LVU824
 3035 007c FFF7FEFF 		bl	Error_Handler
 3036              	.LVL245:
 3037              	.L179:
 3038              		.align	2
 3039              	.L178:
 3040 0080 00100240 		.word	1073876992
 3041              		.cfi_endproc
 3042              	.LFE324:
 3044              		.section	.text.power_on,"ax",%progbits
 3045              		.align	1
 3046              		.global	power_on
 3047              		.syntax unified
 3048              		.thumb
 3049              		.thumb_func
 3051              	power_on:
 3052              	.LFB334:
 803:Core/Src/main.c ****   // HAL_RTCEx_DeactivateWakeUpTimer(&hrtc);
 3053              		.loc 1 803 20 view -0
 3054              		.cfi_startproc
 3055              		@ args = 0, pretend = 0, frame = 0
 3056              		@ frame_needed = 0, uses_anonymous_args = 0
 3057 0000 08B5     		push	{r3, lr}
 3058              		.cfi_def_cfa_offset 8
 3059              		.cfi_offset 3, -8
 3060              		.cfi_offset 14, -4
 805:Core/Src/main.c ****   SystemClock_Config();
 3061              		.loc 1 805 3 view .LVU826
 3062 0002 FFF7FEFF 		bl	HAL_ResumeTick
 3063              	.LVL246:
 806:Core/Src/main.c ****   MX_GPIO_Init();
 3064              		.loc 1 806 3 view .LVU827
 3065 0006 FFF7FEFF 		bl	SystemClock_Config
 3066              	.LVL247:
 807:Core/Src/main.c ****   MX_SPI1_Init();
 3067              		.loc 1 807 3 view .LVU828
 3068 000a FFF7FEFF 		bl	MX_GPIO_Init
ARM GAS  C:\Users\kroko\AppData\Local\Temp\ccOkN8ni.s 			page 86


 3069              	.LVL248:
 808:Core/Src/main.c ****   MX_USB_DEVICE_Init();
 3070              		.loc 1 808 3 view .LVU829
 3071 000e FFF7FEFF 		bl	MX_SPI1_Init
 3072              	.LVL249:
 809:Core/Src/main.c ****   EPD_Init();
 3073              		.loc 1 809 3 view .LVU830
 3074 0012 FFF7FEFF 		bl	MX_USB_DEVICE_Init
 3075              	.LVL250:
 810:Core/Src/main.c **** }
 3076              		.loc 1 810 3 view .LVU831
 3077 0016 FFF7FEFF 		bl	EPD_Init
 3078              	.LVL251:
 811:Core/Src/main.c **** 
 3079              		.loc 1 811 1 is_stmt 0 view .LVU832
 3080 001a 08BD     		pop	{r3, pc}
 3081              		.cfi_endproc
 3082              	.LFE334:
 3084              		.section	.text.get_data,"ax",%progbits
 3085              		.align	1
 3086              		.global	get_data
 3087              		.syntax unified
 3088              		.thumb
 3089              		.thumb_func
 3091              	get_data:
 3092              	.LVL252:
 3093              	.LFB338:
 930:Core/Src/main.c ****   if(goto_sleep){
 3094              		.loc 1 930 31 is_stmt 1 view -0
 3095              		.cfi_startproc
 3096              		@ args = 0, pretend = 0, frame = 0
 3097              		@ frame_needed = 0, uses_anonymous_args = 0
 930:Core/Src/main.c ****   if(goto_sleep){
 3098              		.loc 1 930 31 is_stmt 0 view .LVU834
 3099 0000 10B5     		push	{r4, lr}
 3100              		.cfi_def_cfa_offset 8
 3101              		.cfi_offset 4, -8
 3102              		.cfi_offset 14, -4
 3103 0002 2DED028B 		vpush.64	{d8}
 3104              		.cfi_def_cfa_offset 16
 3105              		.cfi_offset 80, -16
 3106              		.cfi_offset 81, -12
 931:Core/Src/main.c ****     power_on();
 3107              		.loc 1 931 3 is_stmt 1 view .LVU835
 931:Core/Src/main.c ****     power_on();
 3108              		.loc 1 931 5 is_stmt 0 view .LVU836
 3109 0006 0446     		mov	r4, r0
 3110 0008 B8BB     		cbnz	r0, .L186
 3111              	.LVL253:
 3112              	.L183:
 935:Core/Src/main.c ****   q_push(DS18_GET()*100);
 3113              		.loc 1 935 3 is_stmt 1 view .LVU837
 3114 000a FFF7FEFF 		bl	q_load
 3115              	.LVL254:
 936:Core/Src/main.c ****   q_push(DS18_GET()*100);
 3116              		.loc 1 936 3 view .LVU838
 936:Core/Src/main.c ****   q_push(DS18_GET()*100);
ARM GAS  C:\Users\kroko\AppData\Local\Temp\ccOkN8ni.s 			page 87


 3117              		.loc 1 936 10 is_stmt 0 view .LVU839
 3118 000e FFF7FEFF 		bl	DS18_GET
 3119              	.LVL255:
 936:Core/Src/main.c ****   q_push(DS18_GET()*100);
 3120              		.loc 1 936 20 discriminator 1 view .LVU840
 3121 0012 9FED1D8A 		vldr.32	s16, .L188
 3122 0016 20EE080A 		vmul.f32	s0, s0, s16
 936:Core/Src/main.c ****   q_push(DS18_GET()*100);
 3123              		.loc 1 936 3 discriminator 1 view .LVU841
 3124 001a BDEEC00A 		vcvt.s32.f32	s0, s0
 3125 001e 10EE103A 		vmov	r3, s0	@ int
 3126 0022 18B2     		sxth	r0, r3
 3127 0024 FFF7FEFF 		bl	q_push
 3128              	.LVL256:
 937:Core/Src/main.c ****   q_push(DS18_GET()*100);
 3129              		.loc 1 937 3 is_stmt 1 view .LVU842
 937:Core/Src/main.c ****   q_push(DS18_GET()*100);
 3130              		.loc 1 937 10 is_stmt 0 view .LVU843
 3131 0028 FFF7FEFF 		bl	DS18_GET
 3132              	.LVL257:
 937:Core/Src/main.c ****   q_push(DS18_GET()*100);
 3133              		.loc 1 937 20 discriminator 1 view .LVU844
 3134 002c 20EE080A 		vmul.f32	s0, s0, s16
 937:Core/Src/main.c ****   q_push(DS18_GET()*100);
 3135              		.loc 1 937 3 discriminator 1 view .LVU845
 3136 0030 BDEEC00A 		vcvt.s32.f32	s0, s0
 3137 0034 10EE103A 		vmov	r3, s0	@ int
 3138 0038 18B2     		sxth	r0, r3
 3139 003a FFF7FEFF 		bl	q_push
 3140              	.LVL258:
 938:Core/Src/main.c ****   q_push(DS18_GET()*100);
 3141              		.loc 1 938 3 is_stmt 1 view .LVU846
 938:Core/Src/main.c ****   q_push(DS18_GET()*100);
 3142              		.loc 1 938 10 is_stmt 0 view .LVU847
 3143 003e FFF7FEFF 		bl	DS18_GET
 3144              	.LVL259:
 938:Core/Src/main.c ****   q_push(DS18_GET()*100);
 3145              		.loc 1 938 20 discriminator 1 view .LVU848
 3146 0042 20EE080A 		vmul.f32	s0, s0, s16
 938:Core/Src/main.c ****   q_push(DS18_GET()*100);
 3147              		.loc 1 938 3 discriminator 1 view .LVU849
 3148 0046 BDEEC00A 		vcvt.s32.f32	s0, s0
 3149 004a 10EE103A 		vmov	r3, s0	@ int
 3150 004e 18B2     		sxth	r0, r3
 3151 0050 FFF7FEFF 		bl	q_push
 3152              	.LVL260:
 939:Core/Src/main.c ****   plot();
 3153              		.loc 1 939 3 is_stmt 1 view .LVU850
 939:Core/Src/main.c ****   plot();
 3154              		.loc 1 939 10 is_stmt 0 view .LVU851
 3155 0054 FFF7FEFF 		bl	DS18_GET
 3156              	.LVL261:
 939:Core/Src/main.c ****   plot();
 3157              		.loc 1 939 20 discriminator 1 view .LVU852
 3158 0058 20EE080A 		vmul.f32	s0, s0, s16
 939:Core/Src/main.c ****   plot();
 3159              		.loc 1 939 3 discriminator 1 view .LVU853
ARM GAS  C:\Users\kroko\AppData\Local\Temp\ccOkN8ni.s 			page 88


 3160 005c BDEEC00A 		vcvt.s32.f32	s0, s0
 3161 0060 10EE103A 		vmov	r3, s0	@ int
 3162 0064 18B2     		sxth	r0, r3
 3163 0066 FFF7FEFF 		bl	q_push
 3164              	.LVL262:
 940:Core/Src/main.c ****   q_save();
 3165              		.loc 1 940 3 is_stmt 1 view .LVU854
 3166 006a FFF7FEFF 		bl	plot
 3167              	.LVL263:
 941:Core/Src/main.c **** 
 3168              		.loc 1 941 3 view .LVU855
 3169 006e FFF7FEFF 		bl	q_save
 3170              	.LVL264:
 943:Core/Src/main.c ****     shutdown(false);
 3171              		.loc 1 943 3 view .LVU856
 943:Core/Src/main.c ****     shutdown(false);
 3172              		.loc 1 943 5 is_stmt 0 view .LVU857
 3173 0072 2CB9     		cbnz	r4, .L187
 3174              	.L182:
 946:Core/Src/main.c **** 
 3175              		.loc 1 946 1 view .LVU858
 3176 0074 BDEC028B 		vldm	sp!, {d8}
 3177              		.cfi_remember_state
 3178              		.cfi_restore 80
 3179              		.cfi_restore 81
 3180              		.cfi_def_cfa_offset 8
 3181 0078 10BD     		pop	{r4, pc}
 3182              	.LVL265:
 3183              	.L186:
 3184              		.cfi_restore_state
 932:Core/Src/main.c ****   }
 3185              		.loc 1 932 5 is_stmt 1 view .LVU859
 3186 007a FFF7FEFF 		bl	power_on
 3187              	.LVL266:
 932:Core/Src/main.c ****   }
 3188              		.loc 1 932 5 is_stmt 0 view .LVU860
 3189 007e C4E7     		b	.L183
 3190              	.L187:
 944:Core/Src/main.c ****   }
 3191              		.loc 1 944 5 is_stmt 1 view .LVU861
 3192 0080 0020     		movs	r0, #0
 3193 0082 FFF7FEFF 		bl	shutdown
 3194              	.LVL267:
 946:Core/Src/main.c **** 
 3195              		.loc 1 946 1 is_stmt 0 view .LVU862
 3196 0086 F5E7     		b	.L182
 3197              	.L189:
 3198              		.align	2
 3199              	.L188:
 3200 0088 0000C842 		.word	1120403456
 3201              		.cfi_endproc
 3202              	.LFE338:
 3204              		.section	.text.main,"ax",%progbits
 3205              		.align	1
 3206              		.global	main
 3207              		.syntax unified
 3208              		.thumb
ARM GAS  C:\Users\kroko\AppData\Local\Temp\ccOkN8ni.s 			page 89


 3209              		.thumb_func
 3211              	main:
 3212              	.LFB323:
 124:Core/Src/main.c **** 
 3213              		.loc 1 124 1 is_stmt 1 view -0
 3214              		.cfi_startproc
 3215              		@ args = 0, pretend = 0, frame = 0
 3216              		@ frame_needed = 0, uses_anonymous_args = 0
 3217 0000 70B5     		push	{r4, r5, r6, lr}
 3218              		.cfi_def_cfa_offset 16
 3219              		.cfi_offset 4, -16
 3220              		.cfi_offset 5, -12
 3221              		.cfi_offset 6, -8
 3222              		.cfi_offset 14, -4
 3223 0002 2DED028B 		vpush.64	{d8}
 3224              		.cfi_def_cfa_offset 24
 3225              		.cfi_offset 80, -24
 3226              		.cfi_offset 81, -20
 133:Core/Src/main.c **** 
 3227              		.loc 1 133 3 view .LVU864
 3228 0006 FFF7FEFF 		bl	HAL_Init
 3229              	.LVL268:
 140:Core/Src/main.c **** 
 3230              		.loc 1 140 3 view .LVU865
 3231 000a FFF7FEFF 		bl	SystemClock_Config
 3232              	.LVL269:
 147:Core/Src/main.c ****   MX_DMA_Init();
 3233              		.loc 1 147 3 view .LVU866
 3234 000e FFF7FEFF 		bl	MX_GPIO_Init
 3235              	.LVL270:
 148:Core/Src/main.c ****   MX_SPI1_Init();
 3236              		.loc 1 148 3 view .LVU867
 3237 0012 FFF7FEFF 		bl	MX_DMA_Init
 3238              	.LVL271:
 149:Core/Src/main.c ****   MX_RTC_Init();
 3239              		.loc 1 149 3 view .LVU868
 3240 0016 FFF7FEFF 		bl	MX_SPI1_Init
 3241              	.LVL272:
 150:Core/Src/main.c ****   MX_USART2_UART_Init();
 3242              		.loc 1 150 3 view .LVU869
 3243 001a FFF7FEFF 		bl	MX_RTC_Init
 3244              	.LVL273:
 151:Core/Src/main.c ****   MX_ADC1_Init();
 3245              		.loc 1 151 3 view .LVU870
 3246 001e FFF7FEFF 		bl	MX_USART2_UART_Init
 3247              	.LVL274:
 152:Core/Src/main.c ****   MX_USB_DEVICE_Init();
 3248              		.loc 1 152 3 view .LVU871
 3249 0022 FFF7FEFF 		bl	MX_ADC1_Init
 3250              	.LVL275:
 153:Core/Src/main.c ****   /* USER CODE BEGIN 2 */
 3251              		.loc 1 153 3 view .LVU872
 3252 0026 FFF7FEFF 		bl	MX_USB_DEVICE_Init
 3253              	.LVL276:
 155:Core/Src/main.c ****   DS18_INIT();
 3254              		.loc 1 155 3 view .LVU873
 3255 002a 0122     		movs	r2, #1
ARM GAS  C:\Users\kroko\AppData\Local\Temp\ccOkN8ni.s 			page 90


 3256 002c 4949     		ldr	r1, .L206
 3257 002e 4A48     		ldr	r0, .L206+4
 3258 0030 FFF7FEFF 		bl	HAL_ADC_Start_DMA
 3259              	.LVL277:
 156:Core/Src/main.c ****   EPD_Init();
 3260              		.loc 1 156 3 view .LVU874
 3261 0034 FFF7FEFF 		bl	DS18_INIT
 3262              	.LVL278:
 157:Core/Src/main.c **** 
 3263              		.loc 1 157 3 view .LVU875
 3264 0038 FFF7FEFF 		bl	EPD_Init
 3265              	.LVL279:
 159:Core/Src/main.c **** 
 3266              		.loc 1 159 3 view .LVU876
 3267 003c FFF7FEFF 		bl	q_init
 3268              	.LVL280:
 161:Core/Src/main.c **** 
 3269              		.loc 1 161 2 view .LVU877
 161:Core/Src/main.c **** 
 3270              		.loc 1 161 25 is_stmt 0 view .LVU878
 3271 0040 FFF7FEFF 		bl	q_load
 3272              	.LVL281:
 163:Core/Src/main.c **** 
 3273              		.loc 1 163 2 is_stmt 1 view .LVU879
 165:Core/Src/main.c ****     shutdown(true);
 3274              		.loc 1 165 3 view .LVU880
 165:Core/Src/main.c ****     shutdown(true);
 3275              		.loc 1 165 6 is_stmt 0 view .LVU881
 3276 0044 D8B3     		cbz	r0, .L191
 166:Core/Src/main.c ****     power_on();
 3277              		.loc 1 166 5 is_stmt 1 view .LVU882
 3278 0046 0120     		movs	r0, #1
 3279              	.LVL282:
 166:Core/Src/main.c ****     power_on();
 3280              		.loc 1 166 5 is_stmt 0 view .LVU883
 3281 0048 FFF7FEFF 		bl	shutdown
 3282              	.LVL283:
 167:Core/Src/main.c ****   }else{
 3283              		.loc 1 167 5 is_stmt 1 view .LVU884
 3284 004c FFF7FEFF 		bl	power_on
 3285              	.LVL284:
 3286              	.L192:
 172:Core/Src/main.c ****   q_push(DS18_GET()*100);
 3287              		.loc 1 172 3 view .LVU885
 172:Core/Src/main.c ****   q_push(DS18_GET()*100);
 3288              		.loc 1 172 10 is_stmt 0 view .LVU886
 3289 0050 FFF7FEFF 		bl	DS18_GET
 3290              	.LVL285:
 172:Core/Src/main.c ****   q_push(DS18_GET()*100);
 3291              		.loc 1 172 20 discriminator 1 view .LVU887
 3292 0054 9FED418A 		vldr.32	s16, .L206+8
 3293 0058 60EE087A 		vmul.f32	s15, s0, s16
 172:Core/Src/main.c ****   q_push(DS18_GET()*100);
 3294              		.loc 1 172 3 discriminator 1 view .LVU888
 3295 005c FDEEE77A 		vcvt.s32.f32	s15, s15
 3296 0060 17EE903A 		vmov	r3, s15	@ int
 3297 0064 18B2     		sxth	r0, r3
ARM GAS  C:\Users\kroko\AppData\Local\Temp\ccOkN8ni.s 			page 91


 3298 0066 FFF7FEFF 		bl	q_push
 3299              	.LVL286:
 173:Core/Src/main.c ****   q_push(DS18_GET()*100);
 3300              		.loc 1 173 3 is_stmt 1 view .LVU889
 173:Core/Src/main.c ****   q_push(DS18_GET()*100);
 3301              		.loc 1 173 10 is_stmt 0 view .LVU890
 3302 006a FFF7FEFF 		bl	DS18_GET
 3303              	.LVL287:
 173:Core/Src/main.c ****   q_push(DS18_GET()*100);
 3304              		.loc 1 173 20 discriminator 1 view .LVU891
 3305 006e 60EE087A 		vmul.f32	s15, s0, s16
 173:Core/Src/main.c ****   q_push(DS18_GET()*100);
 3306              		.loc 1 173 3 discriminator 1 view .LVU892
 3307 0072 FDEEE77A 		vcvt.s32.f32	s15, s15
 3308 0076 17EE903A 		vmov	r3, s15	@ int
 3309 007a 18B2     		sxth	r0, r3
 3310 007c FFF7FEFF 		bl	q_push
 3311              	.LVL288:
 174:Core/Src/main.c ****   q_push(DS18_GET()*100);
 3312              		.loc 1 174 3 is_stmt 1 view .LVU893
 174:Core/Src/main.c ****   q_push(DS18_GET()*100);
 3313              		.loc 1 174 10 is_stmt 0 view .LVU894
 3314 0080 FFF7FEFF 		bl	DS18_GET
 3315              	.LVL289:
 174:Core/Src/main.c ****   q_push(DS18_GET()*100);
 3316              		.loc 1 174 20 discriminator 1 view .LVU895
 3317 0084 60EE087A 		vmul.f32	s15, s0, s16
 174:Core/Src/main.c ****   q_push(DS18_GET()*100);
 3318              		.loc 1 174 3 discriminator 1 view .LVU896
 3319 0088 FDEEE77A 		vcvt.s32.f32	s15, s15
 3320 008c 17EE903A 		vmov	r3, s15	@ int
 3321 0090 18B2     		sxth	r0, r3
 3322 0092 FFF7FEFF 		bl	q_push
 3323              	.LVL290:
 175:Core/Src/main.c ****   q_save();
 3324              		.loc 1 175 3 is_stmt 1 view .LVU897
 175:Core/Src/main.c ****   q_save();
 3325              		.loc 1 175 10 is_stmt 0 view .LVU898
 3326 0096 FFF7FEFF 		bl	DS18_GET
 3327              	.LVL291:
 175:Core/Src/main.c ****   q_save();
 3328              		.loc 1 175 20 discriminator 1 view .LVU899
 3329 009a 60EE087A 		vmul.f32	s15, s0, s16
 175:Core/Src/main.c ****   q_save();
 3330              		.loc 1 175 3 discriminator 1 view .LVU900
 3331 009e FDEEE77A 		vcvt.s32.f32	s15, s15
 3332 00a2 17EE903A 		vmov	r3, s15	@ int
 3333 00a6 18B2     		sxth	r0, r3
 3334 00a8 FFF7FEFF 		bl	q_push
 3335              	.LVL292:
 176:Core/Src/main.c ****   plot();
 3336              		.loc 1 176 3 is_stmt 1 view .LVU901
 3337 00ac FFF7FEFF 		bl	q_save
 3338              	.LVL293:
 177:Core/Src/main.c ****   if(!USB_DEVICE_IsConnected()){
 3339              		.loc 1 177 3 view .LVU902
 3340 00b0 FFF7FEFF 		bl	plot
ARM GAS  C:\Users\kroko\AppData\Local\Temp\ccOkN8ni.s 			page 92


 3341              	.LVL294:
 178:Core/Src/main.c ****     shutdown(false);
 3342              		.loc 1 178 3 view .LVU903
 178:Core/Src/main.c ****     shutdown(false);
 3343              		.loc 1 178 7 is_stmt 0 view .LVU904
 3344 00b4 FFF7FEFF 		bl	USB_DEVICE_IsConnected
 3345              	.LVL295:
 178:Core/Src/main.c ****     shutdown(false);
 3346              		.loc 1 178 5 discriminator 1 view .LVU905
 3347 00b8 20B1     		cbz	r0, .L201
 3348              	.L193:
 124:Core/Src/main.c **** 
 3349              		.loc 1 124 1 view .LVU906
 3350 00ba 0024     		movs	r4, #0
 3351 00bc 29E0     		b	.L199
 3352              	.LVL296:
 3353              	.L191:
 169:Core/Src/main.c ****   }
 3354              		.loc 1 169 5 is_stmt 1 view .LVU907
 3355 00be FFF7FEFF 		bl	set_time
 3356              	.LVL297:
 169:Core/Src/main.c ****   }
 3357              		.loc 1 169 5 is_stmt 0 view .LVU908
 3358 00c2 C5E7     		b	.L192
 3359              	.L201:
 179:Core/Src/main.c ****   }
 3360              		.loc 1 179 5 is_stmt 1 view .LVU909
 3361 00c4 FFF7FEFF 		bl	shutdown
 3362              	.LVL298:
 3363 00c8 F7E7     		b	.L193
 3364              	.LVL299:
 3365              	.L202:
 188:Core/Src/main.c ****       get_data(!send_usb);
 3366              		.loc 1 188 7 view .LVU910
 188:Core/Src/main.c ****       get_data(!send_usb);
 3367              		.loc 1 188 15 is_stmt 0 view .LVU911
 3368 00ca 0026     		movs	r6, #0
 3369 00cc 244B     		ldr	r3, .L206+12
 3370 00ce 1E70     		strb	r6, [r3]
 189:Core/Src/main.c ****       send_usb = false;
 3371              		.loc 1 189 7 is_stmt 1 view .LVU912
 3372 00d0 244D     		ldr	r5, .L206+16
 3373 00d2 2878     		ldrb	r0, [r5]	@ zero_extendqisi2
 3374 00d4 80F00100 		eor	r0, r0, #1
 3375 00d8 FFF7FEFF 		bl	get_data
 3376              	.LVL300:
 190:Core/Src/main.c ****     }
 3377              		.loc 1 190 7 view .LVU913
 190:Core/Src/main.c ****     }
 3378              		.loc 1 190 16 is_stmt 0 view .LVU914
 3379 00dc 2E70     		strb	r6, [r5]
 3380 00de 1CE0     		b	.L194
 3381              	.L203:
 194:Core/Src/main.c ****       power_on();
 3382              		.loc 1 194 7 is_stmt 1 view .LVU915
 194:Core/Src/main.c ****       power_on();
 3383              		.loc 1 194 33 is_stmt 0 view .LVU916
ARM GAS  C:\Users\kroko\AppData\Local\Temp\ccOkN8ni.s 			page 93


 3384 00e0 214B     		ldr	r3, .L206+20
 3385 00e2 0022     		movs	r2, #0
 3386 00e4 1A70     		strb	r2, [r3]
 195:Core/Src/main.c ****       usb_conn_tmr = HAL_GetTick();
 3387              		.loc 1 195 7 is_stmt 1 view .LVU917
 3388 00e6 FFF7FEFF 		bl	power_on
 3389              	.LVL301:
 196:Core/Src/main.c **** 
 3390              		.loc 1 196 7 view .LVU918
 196:Core/Src/main.c **** 
 3391              		.loc 1 196 22 is_stmt 0 view .LVU919
 3392 00ea FFF7FEFF 		bl	HAL_GetTick
 3393              	.LVL302:
 196:Core/Src/main.c **** 
 3394              		.loc 1 196 20 discriminator 1 view .LVU920
 3395 00ee 1F4B     		ldr	r3, .L206+24
 3396 00f0 1860     		str	r0, [r3]
 3397 00f2 16E0     		b	.L195
 3398              	.L204:
 213:Core/Src/main.c ****       USB_SendAllData();
 3399              		.loc 1 213 7 is_stmt 1 view .LVU921
 213:Core/Src/main.c ****       USB_SendAllData();
 3400              		.loc 1 213 21 is_stmt 0 view .LVU922
 3401 00f4 1E4B     		ldr	r3, .L206+28
 3402 00f6 0022     		movs	r2, #0
 3403 00f8 1A70     		strb	r2, [r3]
 214:Core/Src/main.c ****     }
 3404              		.loc 1 214 7 is_stmt 1 view .LVU923
 3405 00fa FFF7FEFF 		bl	USB_SendAllData
 3406              	.LVL303:
 3407 00fe 14E0     		b	.L196
 3408              	.L205:
 218:Core/Src/main.c ****       syncRTC();
 3409              		.loc 1 218 7 view .LVU924
