ARM GAS  C:\Users\kroko\AppData\Local\Temp\ccbffaud.s 			page 1


   1              		.cpu cortex-m4
   2              		.arch armv7e-m
   3              		.fpu fpv4-sp-d16
   4              		.eabi_attribute 27, 1
   5              		.eabi_attribute 28, 1
   6              		.eabi_attribute 20, 1
   7              		.eabi_attribute 21, 1
   8              		.eabi_attribute 23, 3
   9              		.eabi_attribute 24, 1
  10              		.eabi_attribute 25, 1
  11              		.eabi_attribute 26, 1
  12              		.eabi_attribute 30, 1
  13              		.eabi_attribute 34, 1
  14              		.eabi_attribute 18, 4
  15              		.file	"onewire.c"
  16              		.text
  17              	.Ltext0:
  18              		.cfi_sections	.debug_frame
  19              		.file 1 "Core/Src/onewire.c"
  20              		.section	.text.SetBaudrate,"ax",%progbits
  21              		.align	1
  22              		.syntax unified
  23              		.thumb
  24              		.thumb_func
  26              	SetBaudrate:
  27              	.LVL0:
  28              	.LFB319:
   1:Core/Src/onewire.c **** /**
   2:Core/Src/onewire.c ****   ******************************************************************************
   3:Core/Src/onewire.c ****   * @file           : onewire.c
   4:Core/Src/onewire.c ****   * @brief          : 1-Wire driver
   5:Core/Src/onewire.c ****   * @author         : MicroTechnics (microtechnics.ru)
   6:Core/Src/onewire.c ****   ******************************************************************************
   7:Core/Src/onewire.c ****   */
   8:Core/Src/onewire.c **** 
   9:Core/Src/onewire.c **** 
  10:Core/Src/onewire.c **** 
  11:Core/Src/onewire.c **** /* Includes ------------------------------------------------------------------*/
  12:Core/Src/onewire.c **** 
  13:Core/Src/onewire.c **** #include "onewire.h"
  14:Core/Src/onewire.c **** 
  15:Core/Src/onewire.c **** 
  16:Core/Src/onewire.c **** 
  17:Core/Src/onewire.c **** /* Declarations and definitions ----------------------------------------------*/
  18:Core/Src/onewire.c **** 
  19:Core/Src/onewire.c **** /* Functions -----------------------------------------------------------------*/
  20:Core/Src/onewire.c **** 
  21:Core/Src/onewire.c **** /*----------------------------------------------------------------------------*/
  22:Core/Src/onewire.c **** static void SetBaudrate(UART_HandleTypeDef *huart, uint32_t baudrate)
  23:Core/Src/onewire.c **** {
  29              		.loc 1 23 1 view -0
  30              		.cfi_startproc
  31              		@ args = 0, pretend = 0, frame = 0
  32              		@ frame_needed = 0, uses_anonymous_args = 0
  33              		.loc 1 23 1 is_stmt 0 view .LVU1
  34 0000 10B5     		push	{r4, lr}
  35              		.cfi_def_cfa_offset 8
ARM GAS  C:\Users\kroko\AppData\Local\Temp\ccbffaud.s 			page 2


  36              		.cfi_offset 4, -8
  37              		.cfi_offset 14, -4
  38 0002 0446     		mov	r4, r0
  24:Core/Src/onewire.c ****   uint32_t pclk = 0;
  39              		.loc 1 24 3 is_stmt 1 view .LVU2
  40              	.LVL1:
  25:Core/Src/onewire.c ****   huart->Init.BaudRate = baudrate;
  41              		.loc 1 25 3 view .LVU3
  42              		.loc 1 25 24 is_stmt 0 view .LVU4
  43 0004 4160     		str	r1, [r0, #4]
  26:Core/Src/onewire.c **** 
  27:Core/Src/onewire.c **** #if defined(USART6) && defined(UART9) && defined(UART10)
  28:Core/Src/onewire.c ****     if ((huart->Instance == USART1) || (huart->Instance == USART6) ||
  29:Core/Src/onewire.c ****         (huart->Instance == UART9)  || (huart->Instance == UART10))
  30:Core/Src/onewire.c ****     {
  31:Core/Src/onewire.c ****       pclk = HAL_RCC_GetPCLK2Freq();
  32:Core/Src/onewire.c ****     }
  33:Core/Src/onewire.c **** #elif defined(USART6)
  34:Core/Src/onewire.c ****     if ((huart->Instance == USART1) || (huart->Instance == USART6))
  35:Core/Src/onewire.c ****     {
  36:Core/Src/onewire.c ****       pclk = HAL_RCC_GetPCLK2Freq();
  37:Core/Src/onewire.c ****     }
  38:Core/Src/onewire.c **** #else
  39:Core/Src/onewire.c ****     if (huart->Instance == USART1)
  44              		.loc 1 39 5 is_stmt 1 view .LVU5
  45              		.loc 1 39 14 is_stmt 0 view .LVU6
  46 0006 0268     		ldr	r2, [r0]
  47              		.loc 1 39 8 view .LVU7
  48 0008 304B     		ldr	r3, .L9
  49 000a 9A42     		cmp	r2, r3
  50 000c 30D0     		beq	.L7
  40:Core/Src/onewire.c ****     {
  41:Core/Src/onewire.c ****       pclk = HAL_RCC_GetPCLK1Freq();
  42:Core/Src/onewire.c ****     }
  43:Core/Src/onewire.c **** #endif /* USART6 */
  44:Core/Src/onewire.c ****     else
  45:Core/Src/onewire.c ****     {
  46:Core/Src/onewire.c ****       pclk = HAL_RCC_GetPCLK1Freq();
  51              		.loc 1 46 7 is_stmt 1 view .LVU8
  52              		.loc 1 46 14 is_stmt 0 view .LVU9
  53 000e FFF7FEFF 		bl	HAL_RCC_GetPCLK1Freq
  54              	.LVL2:
  55              		.loc 1 46 14 view .LVU10
  56 0012 0246     		mov	r2, r0
  57              	.LVL3:
  58              	.L3:
  47:Core/Src/onewire.c ****     }
  48:Core/Src/onewire.c **** 
  49:Core/Src/onewire.c **** //  huart1.Init.OverSampling = UART_OVERSAMPLING_16;
  50:Core/Src/onewire.c ****   if (huart->Init.OverSampling == UART_OVERSAMPLING_8)
  59              		.loc 1 50 3 is_stmt 1 view .LVU11
  60              		.loc 1 50 18 is_stmt 0 view .LVU12
  61 0014 E369     		ldr	r3, [r4, #28]
  62              		.loc 1 50 6 view .LVU13
  63 0016 B3F5004F 		cmp	r3, #32768
  64 001a 2DD0     		beq	.L8
  51:Core/Src/onewire.c ****   {
ARM GAS  C:\Users\kroko\AppData\Local\Temp\ccbffaud.s 			page 3


  52:Core/Src/onewire.c ****     huart->Instance->BRR = UART_BRR_SAMPLING8(pclk, huart->Init.BaudRate);
  53:Core/Src/onewire.c ****   }
  54:Core/Src/onewire.c ****   else
  55:Core/Src/onewire.c ****   {
  56:Core/Src/onewire.c ****     huart->Instance->BRR = UART_BRR_SAMPLING16(pclk, huart->Init.BaudRate);
  65              		.loc 1 56 5 is_stmt 1 view .LVU14
  66              		.loc 1 56 28 is_stmt 0 view .LVU15
  67 001c 0021     		movs	r1, #0
  68 001e 9018     		adds	r0, r2, r2
  69 0020 4941     		adcs	r1, r1, r1
  70 0022 8018     		adds	r0, r0, r2
  71 0024 41F10001 		adc	r1, r1, #0
  72 0028 C900     		lsls	r1, r1, #3
  73 002a 41EA5071 		orr	r1, r1, r0, lsr #29
  74 002e C000     		lsls	r0, r0, #3
  75 0030 8018     		adds	r0, r0, r2
  76 0032 6368     		ldr	r3, [r4, #4]
  77 0034 4FEA8302 		lsl	r2, r3, #2
  78              	.LVL4:
  79              		.loc 1 56 28 view .LVU16
  80 0038 4FEA9373 		lsr	r3, r3, #30
  81 003c 41F10001 		adc	r1, r1, #0
  82 0040 FFF7FEFF 		bl	__aeabi_uldivmod
  83              	.LVL5:
  84 0044 224A     		ldr	r2, .L9+4
  85 0046 A2FB0031 		umull	r3, r1, r2, r0
  86 004a 4909     		lsrs	r1, r1, #5
  87 004c 6423     		movs	r3, #100
  88 004e 03FB1103 		mls	r3, r3, r1, r0
  89 0052 1B01     		lsls	r3, r3, #4
  90 0054 3233     		adds	r3, r3, #50
  91 0056 A2FB0323 		umull	r2, r3, r2, r3
  92 005a 5B09     		lsrs	r3, r3, #5
  93 005c 03F0F002 		and	r2, r3, #240
  94 0060 02EB0112 		add	r2, r2, r1, lsl #4
  95 0064 03F00F03 		and	r3, r3, #15
  96              		.loc 1 56 10 view .LVU17
  97 0068 2168     		ldr	r1, [r4]
  98              		.loc 1 56 28 view .LVU18
  99 006a 1344     		add	r3, r3, r2
 100              		.loc 1 56 26 view .LVU19
 101 006c CB60     		str	r3, [r1, #12]
 102              	.L1:
  57:Core/Src/onewire.c ****   }
  58:Core/Src/onewire.c **** }
 103              		.loc 1 58 1 view .LVU20
 104 006e 10BD     		pop	{r4, pc}
 105              	.LVL6:
 106              	.L7:
  41:Core/Src/onewire.c ****     }
 107              		.loc 1 41 7 is_stmt 1 view .LVU21
  41:Core/Src/onewire.c ****     }
 108              		.loc 1 41 14 is_stmt 0 view .LVU22
 109 0070 FFF7FEFF 		bl	HAL_RCC_GetPCLK1Freq
 110              	.LVL7:
  41:Core/Src/onewire.c ****     }
 111              		.loc 1 41 14 view .LVU23
ARM GAS  C:\Users\kroko\AppData\Local\Temp\ccbffaud.s 			page 4


 112 0074 0246     		mov	r2, r0
 113              	.LVL8:
  41:Core/Src/onewire.c ****     }
 114              		.loc 1 41 14 view .LVU24
 115 0076 CDE7     		b	.L3
 116              	.LVL9:
 117              	.L8:
  52:Core/Src/onewire.c ****   }
 118              		.loc 1 52 5 is_stmt 1 view .LVU25
  52:Core/Src/onewire.c ****   }
 119              		.loc 1 52 28 is_stmt 0 view .LVU26
 120 0078 0023     		movs	r3, #0
 121 007a 9018     		adds	r0, r2, r2
 122 007c 43EB0301 		adc	r1, r3, r3
 123 0080 8018     		adds	r0, r0, r2
 124 0082 41F10001 		adc	r1, r1, #0
 125 0086 C900     		lsls	r1, r1, #3
 126 0088 41EA5071 		orr	r1, r1, r0, lsr #29
 127 008c C000     		lsls	r0, r0, #3
 128 008e 8018     		adds	r0, r0, r2
 129 0090 41F10001 		adc	r1, r1, #0
 130 0094 6268     		ldr	r2, [r4, #4]
 131              	.LVL10:
  52:Core/Src/onewire.c ****   }
 132              		.loc 1 52 28 view .LVU27
 133 0096 9218     		adds	r2, r2, r2
 134 0098 5B41     		adcs	r3, r3, r3
 135 009a FFF7FEFF 		bl	__aeabi_uldivmod
 136              	.LVL11:
 137 009e 0C4A     		ldr	r2, .L9+4
 138 00a0 A2FB0031 		umull	r3, r1, r2, r0
 139 00a4 4909     		lsrs	r1, r1, #5
 140 00a6 6423     		movs	r3, #100
 141 00a8 03FB1103 		mls	r3, r3, r1, r0
 142 00ac DB00     		lsls	r3, r3, #3
 143 00ae 3233     		adds	r3, r3, #50
 144 00b0 A2FB0323 		umull	r2, r3, r2, r3
 145 00b4 5B09     		lsrs	r3, r3, #5
 146 00b6 5A00     		lsls	r2, r3, #1
 147 00b8 02F4F872 		and	r2, r2, #496
 148 00bc 02EB0112 		add	r2, r2, r1, lsl #4
 149 00c0 03F00703 		and	r3, r3, #7
  52:Core/Src/onewire.c ****   }
 150              		.loc 1 52 10 view .LVU28
 151 00c4 2168     		ldr	r1, [r4]
  52:Core/Src/onewire.c ****   }
 152              		.loc 1 52 28 view .LVU29
 153 00c6 1344     		add	r3, r3, r2
  52:Core/Src/onewire.c ****   }
 154              		.loc 1 52 26 view .LVU30
 155 00c8 CB60     		str	r3, [r1, #12]
 156 00ca D0E7     		b	.L1
 157              	.L10:
 158              		.align	2
 159              	.L9:
 160 00cc 00380140 		.word	1073821696
 161 00d0 1F85EB51 		.word	1374389535
ARM GAS  C:\Users\kroko\AppData\Local\Temp\ccbffaud.s 			page 5


 162              		.cfi_endproc
 163              	.LFE319:
 165              		.section	.text.OneWire_ProcessBit,"ax",%progbits
 166              		.align	1
 167              		.global	OneWire_ProcessBit
 168              		.syntax unified
 169              		.thumb
 170              		.thumb_func
 172              	OneWire_ProcessBit:
 173              	.LVL12:
 174              	.LFB320:
  59:Core/Src/onewire.c **** 
  60:Core/Src/onewire.c **** 
  61:Core/Src/onewire.c **** 
  62:Core/Src/onewire.c **** /*----------------------------------------------------------------------------*/
  63:Core/Src/onewire.c **** uint8_t OneWire_ProcessBit(UART_HandleTypeDef *huart, uint8_t bit)
  64:Core/Src/onewire.c **** {
 175              		.loc 1 64 1 is_stmt 1 view -0
 176              		.cfi_startproc
 177              		@ args = 0, pretend = 0, frame = 8
 178              		@ frame_needed = 0, uses_anonymous_args = 0
 179              		.loc 1 64 1 is_stmt 0 view .LVU32
 180 0000 10B5     		push	{r4, lr}
 181              		.cfi_def_cfa_offset 8
 182              		.cfi_offset 4, -8
 183              		.cfi_offset 14, -4
 184 0002 82B0     		sub	sp, sp, #8
 185              		.cfi_def_cfa_offset 16
 186 0004 0446     		mov	r4, r0
  65:Core/Src/onewire.c ****   uint8_t txData = 0xFF;
 187              		.loc 1 65 3 is_stmt 1 view .LVU33
 188              		.loc 1 65 11 is_stmt 0 view .LVU34
 189 0006 FF23     		movs	r3, #255
 190 0008 8DF80730 		strb	r3, [sp, #7]
  66:Core/Src/onewire.c ****   uint8_t rxData = 0x00;
 191              		.loc 1 66 3 is_stmt 1 view .LVU35
 192              		.loc 1 66 11 is_stmt 0 view .LVU36
 193 000c 0023     		movs	r3, #0
 194 000e 8DF80630 		strb	r3, [sp, #6]
  67:Core/Src/onewire.c **** 
  68:Core/Src/onewire.c ****   if (bit == 0)
 195              		.loc 1 68 3 is_stmt 1 view .LVU37
 196              		.loc 1 68 6 is_stmt 0 view .LVU38
 197 0012 09B9     		cbnz	r1, .L12
  69:Core/Src/onewire.c ****   {
  70:Core/Src/onewire.c ****     txData = 0x00;
 198              		.loc 1 70 5 is_stmt 1 view .LVU39
 199              		.loc 1 70 12 is_stmt 0 view .LVU40
 200 0014 8DF80730 		strb	r3, [sp, #7]
 201              	.L12:
  71:Core/Src/onewire.c ****   }
  72:Core/Src/onewire.c **** 
  73:Core/Src/onewire.c ****   HAL_UART_Transmit(huart, &txData, 1, ONEWIRE_UART_TIMEOUT);
 202              		.loc 1 73 3 is_stmt 1 view .LVU41
 203 0018 0A23     		movs	r3, #10
 204 001a 0122     		movs	r2, #1
 205 001c 0DF10701 		add	r1, sp, #7
ARM GAS  C:\Users\kroko\AppData\Local\Temp\ccbffaud.s 			page 6


 206              	.LVL13:
 207              		.loc 1 73 3 is_stmt 0 view .LVU42
 208 0020 2046     		mov	r0, r4
 209              	.LVL14:
 210              		.loc 1 73 3 view .LVU43
 211 0022 FFF7FEFF 		bl	HAL_UART_Transmit
 212              	.LVL15:
  74:Core/Src/onewire.c ****   HAL_UART_Receive(huart, &rxData, 1, ONEWIRE_UART_TIMEOUT);
 213              		.loc 1 74 3 is_stmt 1 view .LVU44
 214 0026 0A23     		movs	r3, #10
 215 0028 0122     		movs	r2, #1
 216 002a 0DF10601 		add	r1, sp, #6
 217 002e 2046     		mov	r0, r4
 218 0030 FFF7FEFF 		bl	HAL_UART_Receive
 219              	.LVL16:
  75:Core/Src/onewire.c **** 
  76:Core/Src/onewire.c ****   return rxData;
 220              		.loc 1 76 3 view .LVU45
  77:Core/Src/onewire.c **** }
 221              		.loc 1 77 1 is_stmt 0 view .LVU46
 222 0034 9DF80600 		ldrb	r0, [sp, #6]	@ zero_extendqisi2
 223 0038 02B0     		add	sp, sp, #8
 224              		.cfi_def_cfa_offset 8
 225              		@ sp needed
 226 003a 10BD     		pop	{r4, pc}
 227              		.loc 1 77 1 view .LVU47
 228              		.cfi_endproc
 229              	.LFE320:
 231              		.section	.text.OneWire_ProcessByte,"ax",%progbits
 232              		.align	1
 233              		.global	OneWire_ProcessByte
 234              		.syntax unified
 235              		.thumb
 236              		.thumb_func
 238              	OneWire_ProcessByte:
 239              	.LVL17:
 240              	.LFB321:
  78:Core/Src/onewire.c **** 
  79:Core/Src/onewire.c **** 
  80:Core/Src/onewire.c **** 
  81:Core/Src/onewire.c **** /*----------------------------------------------------------------------------*/
  82:Core/Src/onewire.c **** uint8_t OneWire_ProcessByte(UART_HandleTypeDef *huart, uint8_t byte)
  83:Core/Src/onewire.c **** {
 241              		.loc 1 83 1 is_stmt 1 view -0
 242              		.cfi_startproc
 243              		@ args = 0, pretend = 0, frame = 0
 244              		@ frame_needed = 0, uses_anonymous_args = 0
 245              		.loc 1 83 1 is_stmt 0 view .LVU49
 246 0000 2DE9F041 		push	{r4, r5, r6, r7, r8, lr}
 247              		.cfi_def_cfa_offset 24
 248              		.cfi_offset 4, -24
 249              		.cfi_offset 5, -20
 250              		.cfi_offset 6, -16
 251              		.cfi_offset 7, -12
 252              		.cfi_offset 8, -8
 253              		.cfi_offset 14, -4
 254 0004 0746     		mov	r7, r0
ARM GAS  C:\Users\kroko\AppData\Local\Temp\ccbffaud.s 			page 7


 255 0006 0E46     		mov	r6, r1
  84:Core/Src/onewire.c ****   uint8_t rxByte = 0x00;
 256              		.loc 1 84 3 is_stmt 1 view .LVU50
 257              	.LVL18:
  85:Core/Src/onewire.c **** 
  86:Core/Src/onewire.c ****   for (uint8_t i = 0; i < ONEWIRE_BITS_NUM; i++)
 258              		.loc 1 86 3 view .LVU51
 259              	.LBB2:
 260              		.loc 1 86 8 view .LVU52
 261              		.loc 1 86 16 is_stmt 0 view .LVU53
 262 0008 0024     		movs	r4, #0
 263              	.LBE2:
  84:Core/Src/onewire.c ****   uint8_t rxByte = 0x00;
 264              		.loc 1 84 11 view .LVU54
 265 000a 2546     		mov	r5, r4
 266              	.LBB5:
 267              		.loc 1 86 3 view .LVU55
 268 000c 06E0     		b	.L15
 269              	.LVL19:
 270              	.L18:
 271              	.LBB3:
  87:Core/Src/onewire.c ****   {
  88:Core/Src/onewire.c ****     uint8_t txBit = (byte >> i) & 0x01;
  89:Core/Src/onewire.c ****     uint8_t rxBit = 0;
  90:Core/Src/onewire.c **** 
  91:Core/Src/onewire.c ****     uint8_t tempRxData = OneWire_ProcessBit(huart, txBit);
  92:Core/Src/onewire.c **** 
  93:Core/Src/onewire.c ****     if (tempRxData == 0xFF)
  94:Core/Src/onewire.c ****     {
  95:Core/Src/onewire.c ****       rxBit = 1;
 272              		.loc 1 95 13 view .LVU56
 273 000e 0123     		movs	r3, #1
 274              	.L16:
 275              	.LVL20:
  96:Core/Src/onewire.c ****     }
  97:Core/Src/onewire.c **** 
  98:Core/Src/onewire.c ****     rxByte |= (rxBit << i);
 276              		.loc 1 98 5 is_stmt 1 view .LVU57
 277              		.loc 1 98 22 is_stmt 0 view .LVU58
 278 0010 03FA08F3 		lsl	r3, r3, r8
 279              	.LVL21:
 280              		.loc 1 98 12 view .LVU59
 281 0014 2B43     		orrs	r3, r3, r5
 282 0016 DDB2     		uxtb	r5, r3
 283              	.LVL22:
 284              		.loc 1 98 12 view .LVU60
 285              	.LBE3:
  86:Core/Src/onewire.c ****   {
 286              		.loc 1 86 46 is_stmt 1 discriminator 2 view .LVU61
 287 0018 0134     		adds	r4, r4, #1
 288              	.LVL23:
  86:Core/Src/onewire.c ****   {
 289              		.loc 1 86 46 is_stmt 0 discriminator 2 view .LVU62
 290 001a E4B2     		uxtb	r4, r4
 291              	.LVL24:
 292              	.L15:
  86:Core/Src/onewire.c ****   {
ARM GAS  C:\Users\kroko\AppData\Local\Temp\ccbffaud.s 			page 8


 293              		.loc 1 86 25 is_stmt 1 discriminator 1 view .LVU63
 294 001c 072C     		cmp	r4, #7
 295 001e 0BD8     		bhi	.L20
 296              	.LBB4:
  88:Core/Src/onewire.c ****     uint8_t rxBit = 0;
 297              		.loc 1 88 5 view .LVU64
  88:Core/Src/onewire.c ****     uint8_t rxBit = 0;
 298              		.loc 1 88 27 is_stmt 0 view .LVU65
 299 0020 A046     		mov	r8, r4
 300 0022 46FA04F1 		asr	r1, r6, r4
 301              	.LVL25:
  89:Core/Src/onewire.c **** 
 302              		.loc 1 89 5 is_stmt 1 view .LVU66
  91:Core/Src/onewire.c **** 
 303              		.loc 1 91 5 view .LVU67
  91:Core/Src/onewire.c **** 
 304              		.loc 1 91 26 is_stmt 0 view .LVU68
 305 0026 01F00101 		and	r1, r1, #1
 306              	.LVL26:
  91:Core/Src/onewire.c **** 
 307              		.loc 1 91 26 view .LVU69
 308 002a 3846     		mov	r0, r7
 309 002c FFF7FEFF 		bl	OneWire_ProcessBit
 310              	.LVL27:
  93:Core/Src/onewire.c ****     {
 311              		.loc 1 93 5 is_stmt 1 view .LVU70
  93:Core/Src/onewire.c ****     {
 312              		.loc 1 93 8 is_stmt 0 view .LVU71
 313 0030 FF28     		cmp	r0, #255
 314 0032 ECD0     		beq	.L18
  89:Core/Src/onewire.c **** 
 315              		.loc 1 89 13 view .LVU72
 316 0034 0023     		movs	r3, #0
 317 0036 EBE7     		b	.L16
 318              	.LVL28:
 319              	.L20:
  89:Core/Src/onewire.c **** 
 320              		.loc 1 89 13 view .LVU73
 321              	.LBE4:
 322              	.LBE5:
  99:Core/Src/onewire.c ****   }
 100:Core/Src/onewire.c **** 
 101:Core/Src/onewire.c ****   return rxByte;
 323              		.loc 1 101 3 is_stmt 1 view .LVU74
 102:Core/Src/onewire.c **** }
 324              		.loc 1 102 1 is_stmt 0 view .LVU75
 325 0038 2846     		mov	r0, r5
 326 003a BDE8F081 		pop	{r4, r5, r6, r7, r8, pc}
 327              		.loc 1 102 1 view .LVU76
 328              		.cfi_endproc
 329              	.LFE321:
 331              		.section	.text.OneWire_Reset,"ax",%progbits
 332              		.align	1
 333              		.global	OneWire_Reset
 334              		.syntax unified
 335              		.thumb
 336              		.thumb_func
ARM GAS  C:\Users\kroko\AppData\Local\Temp\ccbffaud.s 			page 9


 338              	OneWire_Reset:
 339              	.LVL29:
 340              	.LFB322:
 103:Core/Src/onewire.c **** 
 104:Core/Src/onewire.c **** 
 105:Core/Src/onewire.c **** 
 106:Core/Src/onewire.c **** /*----------------------------------------------------------------------------*/
 107:Core/Src/onewire.c **** ONEWIRE_Status OneWire_Reset(UART_HandleTypeDef *huart)
 108:Core/Src/onewire.c **** {
 341              		.loc 1 108 1 is_stmt 1 view -0
 342              		.cfi_startproc
 343              		@ args = 0, pretend = 0, frame = 8
 344              		@ frame_needed = 0, uses_anonymous_args = 0
 345              		.loc 1 108 1 is_stmt 0 view .LVU78
 346 0000 10B5     		push	{r4, lr}
 347              		.cfi_def_cfa_offset 8
 348              		.cfi_offset 4, -8
 349              		.cfi_offset 14, -4
 350 0002 82B0     		sub	sp, sp, #8
 351              		.cfi_def_cfa_offset 16
 352 0004 0446     		mov	r4, r0
 109:Core/Src/onewire.c ****   ONEWIRE_Status status = ONEWIRE_OK;
 353              		.loc 1 109 3 is_stmt 1 view .LVU79
 354              	.LVL30:
 110:Core/Src/onewire.c ****   uint8_t txByte = ONEWIRE_RESET_BYTE;
 355              		.loc 1 110 3 view .LVU80
 356              		.loc 1 110 11 is_stmt 0 view .LVU81
 357 0006 F023     		movs	r3, #240
 358 0008 8DF80730 		strb	r3, [sp, #7]
 111:Core/Src/onewire.c ****   uint8_t rxByte = 0x00;
 359              		.loc 1 111 3 is_stmt 1 view .LVU82
 360              		.loc 1 111 11 is_stmt 0 view .LVU83
 361 000c 0023     		movs	r3, #0
 362 000e 8DF80630 		strb	r3, [sp, #6]
 112:Core/Src/onewire.c **** 
 113:Core/Src/onewire.c ****   SetBaudrate(huart, ONEWIRE_RESET_BAUDRATE);
 363              		.loc 1 113 3 is_stmt 1 view .LVU84
 364 0012 4FF41651 		mov	r1, #9600
 365 0016 FFF7FEFF 		bl	SetBaudrate
 366              	.LVL31:
 114:Core/Src/onewire.c **** 
 115:Core/Src/onewire.c ****   HAL_UART_Transmit(huart, &txByte, 1, ONEWIRE_UART_TIMEOUT);
 367              		.loc 1 115 3 view .LVU85
 368 001a 0A23     		movs	r3, #10
 369 001c 0122     		movs	r2, #1
 370 001e 0DF10701 		add	r1, sp, #7
 371 0022 2046     		mov	r0, r4
 372 0024 FFF7FEFF 		bl	HAL_UART_Transmit
 373              	.LVL32:
 116:Core/Src/onewire.c ****   HAL_UART_Receive(huart, &rxByte, 1, ONEWIRE_UART_TIMEOUT);
 374              		.loc 1 116 3 view .LVU86
 375 0028 0A23     		movs	r3, #10
 376 002a 0122     		movs	r2, #1
 377 002c 0DF10601 		add	r1, sp, #6
 378 0030 2046     		mov	r0, r4
 379 0032 FFF7FEFF 		bl	HAL_UART_Receive
 380              	.LVL33:
ARM GAS  C:\Users\kroko\AppData\Local\Temp\ccbffaud.s 			page 10


 117:Core/Src/onewire.c **** 
 118:Core/Src/onewire.c ****   SetBaudrate(huart, ONEWIRE_BAUDRATE);
 381              		.loc 1 118 3 view .LVU87
 382 0036 4FF4E131 		mov	r1, #115200
 383 003a 2046     		mov	r0, r4
 384 003c FFF7FEFF 		bl	SetBaudrate
 385              	.LVL34:
 119:Core/Src/onewire.c **** 
 120:Core/Src/onewire.c ****   if (rxByte == txByte)
 386              		.loc 1 120 3 view .LVU88
 387              		.loc 1 120 14 is_stmt 0 view .LVU89
 388 0040 9DF80620 		ldrb	r2, [sp, #6]	@ zero_extendqisi2
 389 0044 9DF80730 		ldrb	r3, [sp, #7]	@ zero_extendqisi2
 390              		.loc 1 120 6 view .LVU90
 391 0048 9A42     		cmp	r2, r3
 392 004a 02D0     		beq	.L23
 109:Core/Src/onewire.c ****   uint8_t txByte = ONEWIRE_RESET_BYTE;
 393              		.loc 1 109 18 view .LVU91
 394 004c 0020     		movs	r0, #0
 395              	.L22:
 396              	.LVL35:
 121:Core/Src/onewire.c ****   {
 122:Core/Src/onewire.c ****     status = ONEWIRE_ERROR;
 123:Core/Src/onewire.c ****   }
 124:Core/Src/onewire.c **** 
 125:Core/Src/onewire.c ****   return status;
 397              		.loc 1 125 3 is_stmt 1 view .LVU92
 126:Core/Src/onewire.c **** }
 398              		.loc 1 126 1 is_stmt 0 view .LVU93
 399 004e 02B0     		add	sp, sp, #8
 400              		.cfi_remember_state
 401              		.cfi_def_cfa_offset 8
 402              		@ sp needed
 403 0050 10BD     		pop	{r4, pc}
 404              	.LVL36:
 405              	.L23:
 406              		.cfi_restore_state
 122:Core/Src/onewire.c ****   }
 407              		.loc 1 122 12 view .LVU94
 408 0052 0120     		movs	r0, #1
 409 0054 FBE7     		b	.L22
 410              		.cfi_endproc
 411              	.LFE322:
 413              		.text
 414              	.Letext0:
 415              		.file 2 "C:/Program Files (x86)/Arm GNU Toolchain arm-none-eabi/14.2 rel1/arm-none-eabi/include/ma
 416              		.file 3 "C:/Program Files (x86)/Arm GNU Toolchain arm-none-eabi/14.2 rel1/arm-none-eabi/include/sy
 417              		.file 4 "Drivers/CMSIS/Device/ST/STM32L4xx/Include/stm32l412xx.h"
 418              		.file 5 "Drivers/STM32L4xx_HAL_Driver/Inc/stm32l4xx_hal_def.h"
 419              		.file 6 "Drivers/STM32L4xx_HAL_Driver/Inc/stm32l4xx_hal_dma.h"
 420              		.file 7 "Drivers/STM32L4xx_HAL_Driver/Inc/stm32l4xx_hal_uart.h"
 421              		.file 8 "Core/Inc/onewire.h"
 422              		.file 9 "Drivers/STM32L4xx_HAL_Driver/Inc/stm32l4xx_hal_rcc.h"
ARM GAS  C:\Users\kroko\AppData\Local\Temp\ccbffaud.s 			page 11


DEFINED SYMBOLS
                            *ABS*:00000000 onewire.c
C:\Users\kroko\AppData\Local\Temp\ccbffaud.s:21     .text.SetBaudrate:00000000 $t
C:\Users\kroko\AppData\Local\Temp\ccbffaud.s:26     .text.SetBaudrate:00000000 SetBaudrate
C:\Users\kroko\AppData\Local\Temp\ccbffaud.s:160    .text.SetBaudrate:000000cc $d
C:\Users\kroko\AppData\Local\Temp\ccbffaud.s:166    .text.OneWire_ProcessBit:00000000 $t
C:\Users\kroko\AppData\Local\Temp\ccbffaud.s:172    .text.OneWire_ProcessBit:00000000 OneWire_ProcessBit
C:\Users\kroko\AppData\Local\Temp\ccbffaud.s:232    .text.OneWire_ProcessByte:00000000 $t
C:\Users\kroko\AppData\Local\Temp\ccbffaud.s:238    .text.OneWire_ProcessByte:00000000 OneWire_ProcessByte
C:\Users\kroko\AppData\Local\Temp\ccbffaud.s:332    .text.OneWire_Reset:00000000 $t
C:\Users\kroko\AppData\Local\Temp\ccbffaud.s:338    .text.OneWire_Reset:00000000 OneWire_Reset

UNDEFINED SYMBOLS
HAL_RCC_GetPCLK1Freq
__aeabi_uldivmod
HAL_UART_Transmit
HAL_UART_Receive
