ARM GAS  C:\Users\kroko\AppData\Local\Temp\ccNGKpsK.s 			page 1


   1              		.cpu cortex-m4
   2              		.arch armv7e-m
   3              		.fpu fpv4-sp-d16
   4              		.eabi_attribute 27, 1
   5              		.eabi_attribute 28, 1
   6              		.eabi_attribute 20, 1
   7              		.eabi_attribute 21, 1
   8              		.eabi_attribute 23, 3
   9              		.eabi_attribute 24, 1
  10              		.eabi_attribute 25, 1
  11              		.eabi_attribute 26, 1
  12              		.eabi_attribute 30, 1
  13              		.eabi_attribute 34, 1
  14              		.eabi_attribute 18, 4
  15              		.file	"main.c"
  16              		.text
  17              		.section	.text.MX_GPIO_Init,"ax",%progbits
  18              		.align	1
  19              		.syntax unified
  20              		.thumb
  21              		.thumb_func
  23              	MX_GPIO_Init:
  24              		@ args = 0, pretend = 0, frame = 40
  25              		@ frame_needed = 0, uses_anonymous_args = 0
  26 0000 2DE9F043 		push	{r4, r5, r6, r7, r8, r9, lr}
  27 0004 8BB0     		sub	sp, sp, #44
  28 0006 05AD     		add	r5, sp, #20
  29 0008 0024     		movs	r4, #0
  30 000a 0594     		str	r4, [sp, #20]
  31 000c 0694     		str	r4, [sp, #24]
  32 000e 0794     		str	r4, [sp, #28]
  33 0010 0894     		str	r4, [sp, #32]
  34 0012 0994     		str	r4, [sp, #36]
  35 0014 454B     		ldr	r3, .L3
  36 0016 DA6C     		ldr	r2, [r3, #76]
  37 0018 42F00402 		orr	r2, r2, #4
  38 001c DA64     		str	r2, [r3, #76]
  39 001e DA6C     		ldr	r2, [r3, #76]
  40 0020 02F00402 		and	r2, r2, #4
  41 0024 0192     		str	r2, [sp, #4]
  42 0026 019A     		ldr	r2, [sp, #4]
  43 0028 DA6C     		ldr	r2, [r3, #76]
  44 002a 42F00102 		orr	r2, r2, #1
  45 002e DA64     		str	r2, [r3, #76]
  46 0030 DA6C     		ldr	r2, [r3, #76]
  47 0032 02F00102 		and	r2, r2, #1
  48 0036 0292     		str	r2, [sp, #8]
  49 0038 029A     		ldr	r2, [sp, #8]
  50 003a DA6C     		ldr	r2, [r3, #76]
  51 003c 42F00202 		orr	r2, r2, #2
  52 0040 DA64     		str	r2, [r3, #76]
  53 0042 DA6C     		ldr	r2, [r3, #76]
  54 0044 02F00202 		and	r2, r2, #2
  55 0048 0392     		str	r2, [sp, #12]
  56 004a 039A     		ldr	r2, [sp, #12]
  57 004c DA6C     		ldr	r2, [r3, #76]
  58 004e 42F08002 		orr	r2, r2, #128
ARM GAS  C:\Users\kroko\AppData\Local\Temp\ccNGKpsK.s 			page 2


  59 0052 DA64     		str	r2, [r3, #76]
  60 0054 DB6C     		ldr	r3, [r3, #76]
  61 0056 03F08003 		and	r3, r3, #128
  62 005a 0493     		str	r3, [sp, #16]
  63 005c 049B     		ldr	r3, [sp, #16]
  64 005e 2246     		mov	r2, r4
  65 0060 5821     		movs	r1, #88
  66 0062 4FF09040 		mov	r0, #1207959552
  67 0066 FFF7FEFF 		bl	HAL_GPIO_WritePin
  68 006a DFF8C880 		ldr	r8, .L3+8
  69 006e 2246     		mov	r2, r4
  70 0070 0221     		movs	r1, #2
  71 0072 4046     		mov	r0, r8
  72 0074 FFF7FEFF 		bl	HAL_GPIO_WritePin
  73 0078 0126     		movs	r6, #1
  74 007a 0596     		str	r6, [sp, #20]
  75 007c 4FF48813 		mov	r3, #1114112
  76 0080 0693     		str	r3, [sp, #24]
  77 0082 0794     		str	r4, [sp, #28]
  78 0084 2946     		mov	r1, r5
  79 0086 4FF09040 		mov	r0, #1207959552
  80 008a FFF7FEFF 		bl	HAL_GPIO_Init
  81 008e 4FF00809 		mov	r9, #8
  82 0092 CDF81490 		str	r9, [sp, #20]
  83 0096 0696     		str	r6, [sp, #24]
  84 0098 0796     		str	r6, [sp, #28]
  85 009a 0894     		str	r4, [sp, #32]
  86 009c 2946     		mov	r1, r5
  87 009e 4FF09040 		mov	r0, #1207959552
  88 00a2 FFF7FEFF 		bl	HAL_GPIO_Init
  89 00a6 5023     		movs	r3, #80
  90 00a8 0593     		str	r3, [sp, #20]
  91 00aa 0696     		str	r6, [sp, #24]
  92 00ac 0794     		str	r4, [sp, #28]
  93 00ae 0894     		str	r4, [sp, #32]
  94 00b0 2946     		mov	r1, r5
  95 00b2 4FF09040 		mov	r0, #1207959552
  96 00b6 FFF7FEFF 		bl	HAL_GPIO_Init
  97 00ba 4FF44873 		mov	r3, #800
  98 00be 0593     		str	r3, [sp, #20]
  99 00c0 0694     		str	r4, [sp, #24]
 100 00c2 0794     		str	r4, [sp, #28]
 101 00c4 2946     		mov	r1, r5
 102 00c6 4FF09040 		mov	r0, #1207959552
 103 00ca FFF7FEFF 		bl	HAL_GPIO_Init
 104 00ce F123     		movs	r3, #241
 105 00d0 0593     		str	r3, [sp, #20]
 106 00d2 0327     		movs	r7, #3
 107 00d4 0697     		str	r7, [sp, #24]
 108 00d6 0794     		str	r4, [sp, #28]
 109 00d8 2946     		mov	r1, r5
 110 00da 4046     		mov	r0, r8
 111 00dc FFF7FEFF 		bl	HAL_GPIO_Init
 112 00e0 0223     		movs	r3, #2
 113 00e2 0593     		str	r3, [sp, #20]
 114 00e4 0696     		str	r6, [sp, #24]
 115 00e6 0794     		str	r4, [sp, #28]
ARM GAS  C:\Users\kroko\AppData\Local\Temp\ccNGKpsK.s 			page 3


 116 00e8 0894     		str	r4, [sp, #32]
 117 00ea 2946     		mov	r1, r5
 118 00ec 4046     		mov	r0, r8
 119 00ee FFF7FEFF 		bl	HAL_GPIO_Init
 120 00f2 4FF40443 		mov	r3, #33792
 121 00f6 0593     		str	r3, [sp, #20]
 122 00f8 0697     		str	r7, [sp, #24]
 123 00fa 0794     		str	r4, [sp, #28]
 124 00fc 2946     		mov	r1, r5
 125 00fe 4FF09040 		mov	r0, #1207959552
 126 0102 FFF7FEFF 		bl	HAL_GPIO_Init
 127 0106 CDF81490 		str	r9, [sp, #20]
 128 010a 0697     		str	r7, [sp, #24]
 129 010c 0794     		str	r4, [sp, #28]
 130 010e 2946     		mov	r1, r5
 131 0110 0748     		ldr	r0, .L3+4
 132 0112 FFF7FEFF 		bl	HAL_GPIO_Init
 133 0116 2246     		mov	r2, r4
 134 0118 2146     		mov	r1, r4
 135 011a 0620     		movs	r0, #6
 136 011c FFF7FEFF 		bl	HAL_NVIC_SetPriority
 137 0120 0620     		movs	r0, #6
 138 0122 FFF7FEFF 		bl	HAL_NVIC_EnableIRQ
 139 0126 0BB0     		add	sp, sp, #44
 140              		@ sp needed
 141 0128 BDE8F083 		pop	{r4, r5, r6, r7, r8, r9, pc}
 142              	.L4:
 143              		.align	2
 144              	.L3:
 145 012c 00100240 		.word	1073876992
 146 0130 001C0048 		.word	1207966720
 147 0134 00040048 		.word	1207960576
 149              		.section	.text.MX_DMA_Init,"ax",%progbits
 150              		.align	1
 151              		.syntax unified
 152              		.thumb
 153              		.thumb_func
 155              	MX_DMA_Init:
 156              		@ args = 0, pretend = 0, frame = 8
 157              		@ frame_needed = 0, uses_anonymous_args = 0
 158 0000 00B5     		push	{lr}
 159 0002 83B0     		sub	sp, sp, #12
 160 0004 0A4B     		ldr	r3, .L7
 161 0006 9A6C     		ldr	r2, [r3, #72]
 162 0008 42F00102 		orr	r2, r2, #1
 163 000c 9A64     		str	r2, [r3, #72]
 164 000e 9B6C     		ldr	r3, [r3, #72]
 165 0010 03F00103 		and	r3, r3, #1
 166 0014 0193     		str	r3, [sp, #4]
 167 0016 019B     		ldr	r3, [sp, #4]
 168 0018 0022     		movs	r2, #0
 169 001a 1146     		mov	r1, r2
 170 001c 0B20     		movs	r0, #11
 171 001e FFF7FEFF 		bl	HAL_NVIC_SetPriority
 172 0022 0B20     		movs	r0, #11
 173 0024 FFF7FEFF 		bl	HAL_NVIC_EnableIRQ
 174 0028 03B0     		add	sp, sp, #12
ARM GAS  C:\Users\kroko\AppData\Local\Temp\ccNGKpsK.s 			page 4


 175              		@ sp needed
 176 002a 5DF804FB 		ldr	pc, [sp], #4
 177              	.L8:
 178 002e 00BF     		.align	2
 179              	.L7:
 180 0030 00100240 		.word	1073876992
 182              		.section	.text.map,"ax",%progbits
 183              		.align	1
 184              		.global	map
 185              		.syntax unified
 186              		.thumb
 187              		.thumb_func
 189              	map:
 190              		@ args = 4, pretend = 0, frame = 0
 191              		@ frame_needed = 0, uses_anonymous_args = 0
 192              		@ link register save eliminated.
 193 0000 10B4     		push	{r4}
 194 0002 9142     		cmp	r1, r2
 195 0004 0CD0     		beq	.L13
 196 0006 401A     		subs	r0, r0, r1
 197 0008 019C     		ldr	r4, [sp, #4]
 198 000a A4EB030C 		sub	ip, r4, r3
 199 000e 0CFB00F0 		mul	r0, ip, r0
 200 0012 521A     		subs	r2, r2, r1
 201 0014 90FBF2F0 		sdiv	r0, r0, r2
 202 0018 1844     		add	r0, r0, r3
 203              	.L9:
 204 001a 5DF8044B 		ldr	r4, [sp], #4
 205 001e 7047     		bx	lr
 206              	.L13:
 207 0020 019A     		ldr	r2, [sp, #4]
 208 0022 1344     		add	r3, r3, r2
 209 0024 03EBD373 		add	r3, r3, r3, lsr #31
 210 0028 5810     		asrs	r0, r3, #1
 211 002a F6E7     		b	.L9
 213              		.section	.rodata.plot.str1.4,"aMS",%progbits,1
 214              		.align	2
 215              	.LC0:
 216 0000 256400   		.ascii	"%d\000"
 217 0003 00       		.align	2
 218              	.LC1:
 219 0004 25642E25 		.ascii	"%d.%d\000"
 219      6400
 220 000a 0000     		.align	2
 221              	.LC2:
 222 000c 25642E25 		.ascii	"%d.%d*C/div\000"
 222      642A432F 
 222      64697600 
 223              		.align	2
 224              	.LC3:
 225 0018 25642E30 		.ascii	"%d.0%d*C/div\000"
 225      25642A43 
 225      2F646976 
 225      00
 226 0025 000000   		.align	2
 227              	.LC4:
 228 0028 25642A43 		.ascii	"%d*C/div\000"
ARM GAS  C:\Users\kroko\AppData\Local\Temp\ccNGKpsK.s 			page 5


 228      2F646976 
 228      00
 229 0031 000000   		.align	2
 230              	.LC5:
 231 0034 25642E25 		.ascii	"%d.%dC\000"
 231      644300
 232              		.section	.text.plot,"ax",%progbits
 233              		.align	1
 234              		.global	plot
 235              		.syntax unified
 236              		.thumb
 237              		.thumb_func
 239              	plot:
 240              		@ args = 0, pretend = 0, frame = 80
 241              		@ frame_needed = 0, uses_anonymous_args = 0
 242 0000 2DE9F04F 		push	{r4, r5, r6, r7, r8, r9, r10, fp, lr}
 243 0004 99B0     		sub	sp, sp, #100
 244 0006 B54D     		ldr	r5, .L75
 245 0008 FF24     		movs	r4, #255
 246 000a 0094     		str	r4, [sp]
 247 000c 5A23     		movs	r3, #90
 248 000e FA22     		movs	r2, #250
 249 0010 7A21     		movs	r1, #122
 250 0012 2846     		mov	r0, r5
 251 0014 FFF7FEFF 		bl	EPD_NewImage
 252 0018 2846     		mov	r0, r5
 253 001a FFF7FEFF 		bl	EPD_SelectImage
 254 001e 2046     		mov	r0, r4
 255 0020 FFF7FEFF 		bl	EPD_Clear
 256 0024 0020     		movs	r0, #0
 257 0026 FFF7FEFF 		bl	q_get
 258 002a 05B2     		sxth	r5, r0
 259 002c 0020     		movs	r0, #0
 260 002e FFF7FEFF 		bl	q_get
 261 0032 07B2     		sxth	r7, r0
 262 0034 0024     		movs	r4, #0
 263 0036 06E0     		b	.L15
 264              	.L62:
 265 0038 2046     		mov	r0, r4
 266 003a FFF7FEFF 		bl	q_get
 267 003e 05B2     		sxth	r5, r0
 268 0040 0AE0     		b	.L16
 269              	.L17:
 270 0042 0134     		adds	r4, r4, #1
 271 0044 E4B2     		uxtb	r4, r4
 272              	.L15:
 273 0046 FFF7FEFF 		bl	q_len
 274 004a 8442     		cmp	r4, r0
 275 004c 0ED2     		bcs	.L61
 276 004e 2046     		mov	r0, r4
 277 0050 FFF7FEFF 		bl	q_get
 278 0054 A842     		cmp	r0, r5
 279 0056 EFDD     		ble	.L62
 280              	.L16:
 281 0058 2046     		mov	r0, r4
 282 005a FFF7FEFF 		bl	q_get
 283 005e B842     		cmp	r0, r7
ARM GAS  C:\Users\kroko\AppData\Local\Temp\ccNGKpsK.s 			page 6


 284 0060 EFDB     		blt	.L17
 285 0062 2046     		mov	r0, r4
 286 0064 FFF7FEFF 		bl	q_get
 287 0068 07B2     		sxth	r7, r0
 288 006a EAE7     		b	.L17
 289              	.L61:
 290 006c BD42     		cmp	r5, r7
 291 006e 1AD0     		beq	.L63
 292              	.L19:
 293 0070 002D     		cmp	r5, #0
 294 0072 1DDB     		blt	.L64
 295              	.L20:
 296 0074 3E46     		mov	r6, r7
 297 0076 A846     		mov	r8, r5
 298 0078 A7EB050C 		sub	ip, r7, r5
 299 007c BCF5C87F 		cmp	ip, #400
 300 0080 40DA     		bge	.L21
 301 0082 BCF1FA0F 		cmp	ip, #250
 302 0086 59DA     		bge	.L50
 303 0088 BCF1630F 		cmp	ip, #99
 304 008c 30DC     		bgt	.L23
 305 008e BCF1320F 		cmp	ip, #50
 306 0092 63DA     		bge	.L51
 307 0094 BCF1180F 		cmp	ip, #24
 308 0098 20DC     		bgt	.L24
 309 009a BCF1000F 		cmp	ip, #0
 310 009e 60DB     		blt	.L52
 311 00a0 4FF00509 		mov	r9, #5
 312 00a4 4CE0     		b	.L22
 313              	.L63:
 314 00a6 0A3D     		subs	r5, r5, #10
 315 00a8 2DB2     		sxth	r5, r5
 316 00aa 0A37     		adds	r7, r7, #10
 317 00ac 3FB2     		sxth	r7, r7
 318 00ae DFE7     		b	.L19
 319              	.L64:
 320 00b0 002F     		cmp	r7, #0
 321 00b2 DFDD     		ble	.L20
 322 00b4 1623     		movs	r3, #22
 323 00b6 0093     		str	r3, [sp]
 324 00b8 6E23     		movs	r3, #110
 325 00ba 3A46     		mov	r2, r7
 326 00bc 2946     		mov	r1, r5
 327 00be 0020     		movs	r0, #0
 328 00c0 FFF7FEFF 		bl	map
 329 00c4 81B2     		uxth	r1, r0
 330 00c6 0023     		movs	r3, #0
 331 00c8 0293     		str	r3, [sp, #8]
 332 00ca 0122     		movs	r2, #1
 333 00cc 0192     		str	r2, [sp, #4]
 334 00ce 0093     		str	r3, [sp]
 335 00d0 0B46     		mov	r3, r1
 336 00d2 FA22     		movs	r2, #250
 337 00d4 0A20     		movs	r0, #10
 338 00d6 FFF7FEFF 		bl	EPD_DrawLine
 339 00da CBE7     		b	.L20
 340              	.L24:
ARM GAS  C:\Users\kroko\AppData\Local\Temp\ccNGKpsK.s 			page 7


 341 00dc ACF11903 		sub	r3, ip, #25
 342 00e0 182B     		cmp	r3, #24
 343 00e2 02D8     		bhi	.L65
 344 00e4 4FF00A09 		mov	r9, #10
 345 00e8 2AE0     		b	.L22
 346              	.L65:
 347 00ea 4FF4FA69 		mov	r9, #2000
 348 00ee 27E0     		b	.L22
 349              	.L23:
 350 00f0 ACF16403 		sub	r3, ip, #100
 351 00f4 952B     		cmp	r3, #149
 352 00f6 02D8     		bhi	.L66
 353 00f8 4FF03209 		mov	r9, #50
 354 00fc 20E0     		b	.L22
 355              	.L66:
 356 00fe 4FF4FA69 		mov	r9, #2000
 357 0102 1DE0     		b	.L22
 358              	.L21:
 359 0104 BCF5FA6F 		cmp	ip, #2000
 360 0108 0DDA     		bge	.L25
 361 010a BCF5487F 		cmp	ip, #800
 362 010e 2BDA     		bge	.L55
 363 0110 ACF5C873 		sub	r3, ip, #400
 364 0114 B3F5C87F 		cmp	r3, #400
 365 0118 02D2     		bcs	.L67
 366 011a 4FF0C809 		mov	r9, #200
 367 011e 0FE0     		b	.L22
 368              	.L67:
 369 0120 4FF4FA69 		mov	r9, #2000
 370 0124 0CE0     		b	.L22
 371              	.L25:
 372 0126 ACF5FA63 		sub	r3, ip, #2000
 373 012a B3F5FA6F 		cmp	r3, #2000
 374 012e 02D8     		bhi	.L68
 375 0130 4FF47A79 		mov	r9, #1000
 376 0134 04E0     		b	.L22
 377              	.L68:
 378 0136 4FF4FA69 		mov	r9, #2000
 379 013a 01E0     		b	.L22
 380              	.L50:
 381 013c 4FF06409 		mov	r9, #100
 382              	.L22:
 383 0140 002D     		cmp	r5, #0
 384 0142 14DB     		blt	.L69
 385 0144 09F1FF34 		add	r4, r9, #-1
 386              	.L27:
 387 0148 4444     		add	r4, r4, r8
 388 014a CA46     		mov	r10, r9
 389 014c 94FBF9F4 		sdiv	r4, r4, r9
 390 0150 14FB09F4 		smulbb	r4, r4, r9
 391 0154 24B2     		sxth	r4, r4
 392 0156 CDF810C0 		str	ip, [sp, #16]
 393 015a 38E0     		b	.L28
 394              	.L51:
 395 015c 4FF01409 		mov	r9, #20
 396 0160 EEE7     		b	.L22
 397              	.L52:
ARM GAS  C:\Users\kroko\AppData\Local\Temp\ccNGKpsK.s 			page 8


 398 0162 4FF4FA69 		mov	r9, #2000
 399 0166 EBE7     		b	.L22
 400              	.L55:
 401 0168 4FF4FA79 		mov	r9, #500
 402 016c E8E7     		b	.L22
 403              	.L69:
 404 016e C9F10104 		rsb	r4, r9, #1
 405 0172 E9E7     		b	.L27
 406              	.L58:
 407 0174 4FF0000B 		mov	fp, #0
 408 0178 32E0     		b	.L29
 409              	.L70:
 410 017a 594B     		ldr	r3, .L75+4
 411 017c 83FB0423 		smull	r2, r3, r3, r4
 412 0180 E217     		asrs	r2, r4, #31
 413 0182 C2EB6312 		rsb	r2, r2, r3, asr #5
 414 0186 12B2     		sxth	r2, r2
 415 0188 5649     		ldr	r1, .L75+8
 416 018a 06A8     		add	r0, sp, #24
 417 018c FFF7FEFF 		bl	sprintf
 418 0190 5FFA80FB 		uxtb	fp, r0
 419              	.L33:
 420 0194 0020     		movs	r0, #0
 421 0196 FFF7FEFF 		bl	EPD_SetRotate
 422 019a 5823     		movs	r3, #88
 423 019c 0093     		str	r3, [sp]
 424 019e 0223     		movs	r3, #2
 425 01a0 3246     		mov	r2, r6
 426 01a2 4146     		mov	r1, r8
 427 01a4 2846     		mov	r0, r5
 428 01a6 FFF7FEFF 		bl	map
 429 01aa A0EB4B00 		sub	r0, r0, fp, lsl #1
 430 01ae 80B2     		uxth	r0, r0
 431 01b0 0830     		adds	r0, r0, #8
 432 01b2 0021     		movs	r1, #0
 433 01b4 0191     		str	r1, [sp, #4]
 434 01b6 FF23     		movs	r3, #255
 435 01b8 0093     		str	r3, [sp]
 436 01ba 4B4B     		ldr	r3, .L75+12
 437 01bc 06AA     		add	r2, sp, #24
 438 01be 80B2     		uxth	r0, r0
 439 01c0 FFF7FEFF 		bl	EPD_DrawString_EN
 440 01c4 5A20     		movs	r0, #90
 441 01c6 FFF7FEFF 		bl	EPD_SetRotate
 442              	.L36:
 443 01ca 4C44     		add	r4, r4, r9
 444 01cc 24B2     		sxth	r4, r4
 445              	.L28:
 446 01ce 2546     		mov	r5, r4
 447 01d0 06EB0A03 		add	r3, r6, r10
 448 01d4 9C42     		cmp	r4, r3
 449 01d6 76DA     		bge	.L37
 450 01d8 002C     		cmp	r4, #0
 451 01da CBD0     		beq	.L58
 452 01dc 4FF0010B 		mov	fp, #1
 453              	.L29:
 454 01e0 A742     		cmp	r7, r4
ARM GAS  C:\Users\kroko\AppData\Local\Temp\ccNGKpsK.s 			page 9


 455 01e2 09DA     		bge	.L30
 456 01e4 1623     		movs	r3, #22
 457 01e6 0093     		str	r3, [sp]
 458 01e8 6E23     		movs	r3, #110
 459 01ea 3246     		mov	r2, r6
 460 01ec 4146     		mov	r1, r8
 461 01ee 2846     		mov	r0, r5
 462 01f0 FFF7FEFF 		bl	map
 463 01f4 1528     		cmp	r0, #21
 464 01f6 66DD     		ble	.L37
 465              	.L30:
 466 01f8 1623     		movs	r3, #22
 467 01fa 0093     		str	r3, [sp]
 468 01fc 6E23     		movs	r3, #110
 469 01fe 3246     		mov	r2, r6
 470 0200 4146     		mov	r1, r8
 471 0202 2846     		mov	r0, r5
 472 0204 FFF7FEFF 		bl	map
 473 0208 81B2     		uxth	r1, r0
 474 020a CDF808B0 		str	fp, [sp, #8]
 475 020e 0123     		movs	r3, #1
 476 0210 0193     		str	r3, [sp, #4]
 477 0212 0023     		movs	r3, #0
 478 0214 0093     		str	r3, [sp]
 479 0216 0B46     		mov	r3, r1
 480 0218 FA22     		movs	r2, #250
 481 021a 0A20     		movs	r0, #10
 482 021c FFF7FEFF 		bl	EPD_DrawLine
 483 0220 2F4A     		ldr	r2, .L75+4
 484 0222 82FB0432 		smull	r3, r2, r2, r4
 485 0226 E317     		asrs	r3, r4, #31
 486 0228 C3EB6213 		rsb	r3, r3, r2, asr #5
 487 022c 6422     		movs	r2, #100
 488 022e 02FB1343 		mls	r3, r2, r3, r4
 489 0232 1BB2     		sxth	r3, r3
 490 0234 002B     		cmp	r3, #0
 491 0236 A0D0     		beq	.L70
 492 0238 2C49     		ldr	r1, .L75+16
 493 023a 81FB0421 		smull	r2, r1, r1, r4
 494 023e E217     		asrs	r2, r4, #31
 495 0240 C2EBA102 		rsb	r2, r2, r1, asr #2
 496 0244 02EB8202 		add	r2, r2, r2, lsl #2
 497 0248 A4EB4202 		sub	r2, r4, r2, lsl #1
 498 024c 12B2     		sxth	r2, r2
 499 024e 12B9     		cbnz	r2, .L34
 500 0250 049A     		ldr	r2, [sp, #16]
 501 0252 632A     		cmp	r2, #99
 502 0254 1DDD     		ble	.L71
 503              	.L34:
 504 0256 2549     		ldr	r1, .L75+16
 505 0258 81FB0421 		smull	r2, r1, r1, r4
 506 025c E217     		asrs	r2, r4, #31
 507 025e C2EB6102 		rsb	r2, r2, r1, asr #1
 508 0262 02EB8202 		add	r2, r2, r2, lsl #2
 509 0266 A21A     		subs	r2, r4, r2
 510 0268 12B2     		sxth	r2, r2
 511 026a 002A     		cmp	r2, #0
ARM GAS  C:\Users\kroko\AppData\Local\Temp\ccNGKpsK.s 			page 10


 512 026c ADD1     		bne	.L36
 513 026e 049A     		ldr	r2, [sp, #16]
 514 0270 092A     		cmp	r2, #9
 515 0272 AADC     		bgt	.L36
 516 0274 1A49     		ldr	r1, .L75+4
 517 0276 81FB0421 		smull	r2, r1, r1, r4
 518 027a E217     		asrs	r2, r4, #31
 519 027c C2EB6112 		rsb	r2, r2, r1, asr #5
 520 0280 DBB2     		uxtb	r3, r3
 521 0282 D2B2     		uxtb	r2, r2
 522 0284 1A49     		ldr	r1, .L75+20
 523 0286 06A8     		add	r0, sp, #24
 524 0288 FFF7FEFF 		bl	sprintf
 525 028c 5FFA80FB 		uxtb	fp, r0
 526 0290 80E7     		b	.L33
 527              	.L71:
 528 0292 6B1D     		adds	r3, r5, #5
 529 0294 154A     		ldr	r2, .L75+16
 530 0296 82FB0312 		smull	r1, r2, r2, r3
 531 029a DB17     		asrs	r3, r3, #31
 532 029c C3EBA203 		rsb	r3, r3, r2, asr #2
 533 02a0 9BB2     		uxth	r3, r3
 534 02a2 144A     		ldr	r2, .L75+24
 535 02a4 A2FB0312 		umull	r1, r2, r2, r3
 536 02a8 D108     		lsrs	r1, r2, #3
 537 02aa 01EB8101 		add	r1, r1, r1, lsl #2
 538 02ae A3EB4103 		sub	r3, r3, r1, lsl #1
 539 02b2 DBB2     		uxtb	r3, r3
 540 02b4 C2F3C702 		ubfx	r2, r2, #3, #8
 541 02b8 0D49     		ldr	r1, .L75+20
 542 02ba 06A8     		add	r0, sp, #24
 543 02bc FFF7FEFF 		bl	sprintf
 544 02c0 5FFA80FB 		uxtb	fp, r0
 545 02c4 66E7     		b	.L33
 546              	.L37:
 547 02c6 0521     		movs	r1, #5
 548 02c8 0B48     		ldr	r0, .L75+28
 549 02ca FFF7FEFF 		bl	HAL_RTCEx_BKUPRead
 550 02ce 8346     		mov	fp, r0
 551 02d0 0027     		movs	r7, #0
 552 02d2 CDF814A0 		str	r10, [sp, #20]
 553 02d6 B246     		mov	r10, r6
 554 02d8 39E0     		b	.L39
 555              	.L76:
 556 02da 00BF     		.align	2
 557              	.L75:
 558 02dc 00000000 		.word	BlackImage
 559 02e0 1F85EB51 		.word	1374389535
 560 02e4 00000000 		.word	.LC0
 561 02e8 00000000 		.word	Font8
 562 02ec 67666666 		.word	1717986919
 563 02f0 04000000 		.word	.LC1
 564 02f4 CDCCCCCC 		.word	-858993459
 565 02f8 00000000 		.word	hrtc
 566              	.L40:
 567 02fc 3846     		mov	r0, r7
 568 02fe FFF7FEFF 		bl	q_get
ARM GAS  C:\Users\kroko\AppData\Local\Temp\ccNGKpsK.s 			page 11


 569 0302 1626     		movs	r6, #22
 570 0304 0096     		str	r6, [sp]
 571 0306 6E23     		movs	r3, #110
 572 0308 5246     		mov	r2, r10
 573 030a 4146     		mov	r1, r8
 574 030c FFF7FEFF 		bl	map
 575 0310 0490     		str	r0, [sp, #16]
 576 0312 7C1C     		adds	r4, r7, #1
 577 0314 E7B2     		uxtb	r7, r4
 578 0316 3846     		mov	r0, r7
 579 0318 FFF7FEFF 		bl	q_get
 580 031c 0096     		str	r6, [sp]
 581 031e 6E23     		movs	r3, #110
 582 0320 5246     		mov	r2, r10
 583 0322 4146     		mov	r1, r8
 584 0324 FFF7FEFF 		bl	map
 585 0328 04EB8404 		add	r4, r4, r4, lsl #2
 586 032c 04F10A02 		add	r2, r4, #10
 587 0330 05EB8505 		add	r5, r5, r5, lsl #2
 588 0334 0A35     		adds	r5, r5, #10
 589 0336 0021     		movs	r1, #0
 590 0338 0291     		str	r1, [sp, #8]
 591 033a 0123     		movs	r3, #1
 592 033c 0193     		str	r3, [sp, #4]
 593 033e 0091     		str	r1, [sp]
 594 0340 83B2     		uxth	r3, r0
 595 0342 92B2     		uxth	r2, r2
 596 0344 BDF81010 		ldrh	r1, [sp, #16]
 597 0348 A8B2     		uxth	r0, r5
 598 034a FFF7FEFF 		bl	EPD_DrawLine
 599              	.L39:
 600 034e 3D46     		mov	r5, r7
 601 0350 FFF7FEFF 		bl	q_len
 602 0354 8742     		cmp	r7, r0
 603 0356 D1D3     		bcc	.L40
 604 0358 DDF814A0 		ldr	r10, [sp, #20]
 605 035c FFF7FEFF 		bl	q_len
 606 0360 44B2     		sxtb	r4, r0
 607 0362 01E0     		b	.L41
 608              	.L43:
 609 0364 083C     		subs	r4, r4, #8
 610 0366 64B2     		sxtb	r4, r4
 611              	.L41:
 612 0368 002C     		cmp	r4, #0
 613 036a 2CDD     		ble	.L72
 614 036c FFF7FEFF 		bl	q_len
 615 0370 8442     		cmp	r4, r0
 616 0372 F7D0     		beq	.L43
 617 0374 04EB8405 		add	r5, r4, r4, lsl #2
 618 0378 ADB2     		uxth	r5, r5
 619 037a 0A35     		adds	r5, r5, #10
 620 037c ADB2     		uxth	r5, r5
 621 037e 0123     		movs	r3, #1
 622 0380 0293     		str	r3, [sp, #8]
 623 0382 0193     		str	r3, [sp, #4]
 624 0384 0026     		movs	r6, #0
 625 0386 0096     		str	r6, [sp]
ARM GAS  C:\Users\kroko\AppData\Local\Temp\ccNGKpsK.s 			page 12


 626 0388 7023     		movs	r3, #112
 627 038a 2A46     		mov	r2, r5
 628 038c 1421     		movs	r1, #20
 629 038e 2846     		mov	r0, r5
 630 0390 FFF7FEFF 		bl	EPD_DrawLine
 631 0394 FFF7FEFF 		bl	q_len
 632 0398 001B     		subs	r0, r0, r4
 633 039a 0138     		subs	r0, r0, #1
 634 039c 4FF4E163 		mov	r3, #1800
 635 03a0 03FB10B0 		mls	r0, r3, r0, fp
 636 03a4 06AF     		add	r7, sp, #24
 637 03a6 6C4A     		ldr	r2, .L77+8
 638 03a8 0244     		add	r2, r2, r0
 639 03aa 6C49     		ldr	r1, .L77+12
 640 03ac 3846     		mov	r0, r7
 641 03ae FFF7FEFF 		bl	sprintf
 642 03b2 0196     		str	r6, [sp, #4]
 643 03b4 FF23     		movs	r3, #255
 644 03b6 0093     		str	r3, [sp]
 645 03b8 694B     		ldr	r3, .L77+16
 646 03ba 3A46     		mov	r2, r7
 647 03bc 7221     		movs	r1, #114
 648 03be 2846     		mov	r0, r5
 649 03c0 FFF7FEFF 		bl	EPD_DrawString_EN
 650 03c4 CEE7     		b	.L43
 651              	.L72:
 652 03c6 A9F10A03 		sub	r3, r9, #10
 653 03ca 9BB2     		uxth	r3, r3
 654 03cc 592B     		cmp	r3, #89
 655 03ce 40F29A80 		bls	.L73
 656 03d2 B9F1090F 		cmp	r9, #9
 657 03d6 00F2A180 		bhi	.L47
 658 03da 624A     		ldr	r2, .L77+20
 659 03dc A2FB0992 		umull	r9, r2, r2, r9
 660 03e0 AAEB5213 		sub	r3, r10, r2, lsr #5
 661 03e4 5209     		lsrs	r2, r2, #5
 662 03e6 6049     		ldr	r1, .L77+24
 663 03e8 15A8     		add	r0, sp, #84
 664 03ea FFF7FEFF 		bl	sprintf
 665              	.L46:
 666 03ee 0020     		movs	r0, #0
 667 03f0 0190     		str	r0, [sp, #4]
 668 03f2 FF23     		movs	r3, #255
 669 03f4 0093     		str	r3, [sp]
 670 03f6 5D4B     		ldr	r3, .L77+28
 671 03f8 15AA     		add	r2, sp, #84
 672 03fa 0146     		mov	r1, r0
 673 03fc FFF7FEFF 		bl	EPD_DrawString_EN
 674 0400 5B4B     		ldr	r3, .L77+32
 675 0402 1888     		ldrh	r0, [r3]
 676 0404 FFF7FEFF 		bl	__aeabi_i2d
 677 0408 0246     		mov	r2, r0
 678 040a 0B46     		mov	r3, r1
 679 040c 50A1     		adr	r1, .L77
 680 040e D1E90001 		ldrd	r0, [r1]
 681 0412 FFF7FEFF 		bl	__aeabi_ddiv
 682 0416 FFF7FEFF 		bl	__aeabi_d2f
ARM GAS  C:\Users\kroko\AppData\Local\Temp\ccNGKpsK.s 			page 13


 683 041a 07EE900A 		vmov	s15, r0
 684 041e 554B     		ldr	r3, .L77+36
 685 0420 1860     		str	r0, [r3]	@ float
 686 0422 B0EE027A 		vmov.f32	s14, #2.25e+0
 687 0426 F4EEC77A 		vcmpe.f32	s15, s14
 688 042a F1EE10FA 		vmrs	APSR_nzcv, FPSCR
 689 042e 7ED4     		bmi	.L74
 690              	.L48:
 691 0430 0024     		movs	r4, #0
 692 0432 0294     		str	r4, [sp, #8]
 693 0434 0125     		movs	r5, #1
 694 0436 0195     		str	r5, [sp, #4]
 695 0438 0094     		str	r4, [sp]
 696 043a 7023     		movs	r3, #112
 697 043c FA22     		movs	r2, #250
 698 043e 1946     		mov	r1, r3
 699 0440 0A20     		movs	r0, #10
 700 0442 FFF7FEFF 		bl	EPD_DrawLine
 701 0446 0294     		str	r4, [sp, #8]
 702 0448 0195     		str	r5, [sp, #4]
 703 044a 0094     		str	r4, [sp]
 704 044c 7023     		movs	r3, #112
 705 044e 0A22     		movs	r2, #10
 706 0450 1421     		movs	r1, #20
 707 0452 1046     		mov	r0, r2
 708 0454 FFF7FEFF 		bl	EPD_DrawLine
 709 0458 10A9     		add	r1, sp, #64
 710 045a 1094     		str	r4, [sp, #64]
 711 045c 4C60     		str	r4, [r1, #4]
 712 045e 8C60     		str	r4, [r1, #8]
 713 0460 CC60     		str	r4, [r1, #12]
 714 0462 0C61     		str	r4, [r1, #16]
 715 0464 0F94     		str	r4, [sp, #60]
 716 0466 444D     		ldr	r5, .L77+40
 717 0468 2246     		mov	r2, r4
 718 046a 2846     		mov	r0, r5
 719 046c FFF7FEFF 		bl	HAL_RTC_GetTime
 720 0470 2246     		mov	r2, r4
 721 0472 0FA9     		add	r1, sp, #60
 722 0474 2846     		mov	r0, r5
 723 0476 FFF7FEFF 		bl	HAL_RTC_GetDate
 724 047a 9DF83E30 		ldrb	r3, [sp, #62]	@ zero_extendqisi2
 725 047e 8DF83730 		strb	r3, [sp, #55]
 726 0482 9DF83D30 		ldrb	r3, [sp, #61]	@ zero_extendqisi2
 727 0486 8DF83630 		strb	r3, [sp, #54]
 728 048a 9DF83F30 		ldrb	r3, [sp, #63]	@ zero_extendqisi2
 729 048e ADF83430 		strh	r3, [sp, #52]	@ movhi
 730 0492 3A4E     		ldr	r6, .L77+44
 731 0494 0194     		str	r4, [sp, #4]
 732 0496 FF27     		movs	r7, #255
 733 0498 0097     		str	r7, [sp]
 734 049a 3346     		mov	r3, r6
 735 049c 0DAA     		add	r2, sp, #52
 736 049e 2146     		mov	r1, r4
 737 04a0 AF20     		movs	r0, #175
 738 04a2 FFF7FEFF 		bl	EPD_DrawDate
 739 04a6 FFF7FEFF 		bl	q_len
ARM GAS  C:\Users\kroko\AppData\Local\Temp\ccNGKpsK.s 			page 14


 740 04aa 0138     		subs	r0, r0, #1
 741 04ac C0B2     		uxtb	r0, r0
 742 04ae FFF7FEFF 		bl	q_get
 743 04b2 0546     		mov	r5, r0
 744 04b4 FFF7FEFF 		bl	q_len
 745 04b8 0138     		subs	r0, r0, #1
 746 04ba C0B2     		uxtb	r0, r0
 747 04bc FFF7FEFF 		bl	q_get
 748 04c0 284A     		ldr	r2, .L77+20
 749 04c2 A2FB0013 		umull	r1, r3, r2, r0
 750 04c6 5B09     		lsrs	r3, r3, #5
 751 04c8 4FF06408 		mov	r8, #100
 752 04cc 08FB1303 		mls	r3, r8, r3, r0
 753 04d0 A2FB0512 		umull	r1, r2, r2, r5
 754 04d4 0AAD     		add	r5, sp, #40
 755 04d6 9BB2     		uxth	r3, r3
 756 04d8 C2F34F12 		ubfx	r2, r2, #5, #16
 757 04dc 2849     		ldr	r1, .L77+48
 758 04de 2846     		mov	r0, r5
 759 04e0 FFF7FEFF 		bl	sprintf
 760 04e4 0194     		str	r4, [sp, #4]
 761 04e6 0097     		str	r7, [sp]
 762 04e8 3346     		mov	r3, r6
 763 04ea 2A46     		mov	r2, r5
 764 04ec 2146     		mov	r1, r4
 765 04ee 5520     		movs	r0, #85
 766 04f0 FFF7FEFF 		bl	EPD_DrawString_EN
 767 04f4 2348     		ldr	r0, .L77+52
 768 04f6 FFF7FEFF 		bl	EPD_Display_Base
 769 04fa 4046     		mov	r0, r8
 770 04fc FFF7FEFF 		bl	HAL_Delay
 771 0500 19B0     		add	sp, sp, #100
 772              		@ sp needed
 773 0502 BDE8F08F 		pop	{r4, r5, r6, r7, r8, r9, r10, fp, pc}
 774              	.L73:
 775 0506 174A     		ldr	r2, .L77+20
 776 0508 A2FB0992 		umull	r9, r2, r2, r9
 777 050c AAEB5213 		sub	r3, r10, r2, lsr #5
 778 0510 5209     		lsrs	r2, r2, #5
 779 0512 1D49     		ldr	r1, .L77+56
 780 0514 15A8     		add	r0, sp, #84
 781 0516 FFF7FEFF 		bl	sprintf
 782 051a 68E7     		b	.L46
 783              	.L47:
 784 051c 114B     		ldr	r3, .L77+20
 785 051e A3FB0932 		umull	r3, r2, r3, r9
 786 0522 5209     		lsrs	r2, r2, #5
 787 0524 1949     		ldr	r1, .L77+60
 788 0526 15A8     		add	r0, sp, #84
 789 0528 FFF7FEFF 		bl	sprintf
 790 052c 5FE7     		b	.L46
 791              	.L74:
 792 052e 0020     		movs	r0, #0
 793 0530 FFF7FEFF 		bl	EPD_SetRotate
 794 0534 164B     		ldr	r3, .L77+64
 795 0536 0093     		str	r3, [sp]
 796 0538 1A23     		movs	r3, #26
ARM GAS  C:\Users\kroko\AppData\Local\Temp\ccNGKpsK.s 			page 15


 797 053a 1022     		movs	r2, #16
 798 053c 5F21     		movs	r1, #95
 799 053e 6B20     		movs	r0, #107
 800 0540 FFF7FEFF 		bl	EPD_DrawBMP
 801 0544 5A20     		movs	r0, #90
 802 0546 FFF7FEFF 		bl	EPD_SetRotate
 803 054a 71E7     		b	.L48
 804              	.L78:
 805 054c AFF30080 		.align	3
 806              	.L77:
 807 0550 99999999 		.word	-1717986919
 808 0554 19E0B240 		.word	1085464601
 809 0558 00B54998 		.word	-1740000000
 810 055c 00000000 		.word	.LC0
 811 0560 00000000 		.word	Font8
 812 0564 1F85EB51 		.word	1374389535
 813 0568 18000000 		.word	.LC3
 814 056c 00000000 		.word	Font12
 815 0570 00000000 		.word	adcData
 816 0574 00000000 		.word	mcuVoltage
 817 0578 00000000 		.word	hrtc
 818 057c 00000000 		.word	Font16
 819 0580 34000000 		.word	.LC5
 820 0584 00000000 		.word	BlackImage
 821 0588 0C000000 		.word	.LC2
 822 058c 28000000 		.word	.LC4
 823 0590 00000000 		.word	dead_batt_26x16
 825              		.section	.text.shutdown,"ax",%progbits
 826              		.align	1
 827              		.global	shutdown
 828              		.syntax unified
 829              		.thumb
 830              		.thumb_func
 832              	shutdown:
 833              		@ args = 0, pretend = 0, frame = 24
 834              		@ frame_needed = 0, uses_anonymous_args = 0
 835 0000 10B5     		push	{r4, lr}
 836 0002 86B0     		sub	sp, sp, #24
 837 0004 0446     		mov	r4, r0
 838 0006 FFF7FEFF 		bl	EPD_Sleep
 839 000a FFF7FEFF 		bl	EPD_Exit
 840 000e 1B4A     		ldr	r2, .L85
 841 0010 136E     		ldr	r3, [r2, #96]
 842 0012 23F48053 		bic	r3, r3, #4096
 843 0016 1366     		str	r3, [r2, #96]
 844 0018 1948     		ldr	r0, .L85+4
 845 001a FFF7FEFF 		bl	HAL_SPI_DeInit
 846 001e 01A9     		add	r1, sp, #4
 847 0020 0023     		movs	r3, #0
 848 0022 0193     		str	r3, [sp, #4]
 849 0024 4B60     		str	r3, [r1, #4]
 850 0026 8B60     		str	r3, [r1, #8]
 851 0028 CB60     		str	r3, [r1, #12]
 852 002a 0B61     		str	r3, [r1, #16]
 853 002c FA23     		movs	r3, #250
 854 002e 0193     		str	r3, [sp, #4]
 855 0030 0323     		movs	r3, #3
ARM GAS  C:\Users\kroko\AppData\Local\Temp\ccNGKpsK.s 			page 16


 856 0032 0293     		str	r3, [sp, #8]
 857 0034 4FF09040 		mov	r0, #1207959552
 858 0038 FFF7FEFF 		bl	HAL_GPIO_Init
 859 003c FFF7FEFF 		bl	HAL_SuspendTick
 860 0040 4FF0FF30 		mov	r0, #-1
 861 0044 FFF7FEFF 		bl	HAL_NVIC_DisableIRQ
 862 0048 5CB1     		cbz	r4, .L81
 863 004a 0E4B     		ldr	r3, .L85+8
 864 004c 9B69     		ldr	r3, [r3, #24]
 865 004e 13F4806F 		tst	r3, #1024
 866 0052 01D1     		bne	.L84
 867 0054 0A21     		movs	r1, #10
 868 0056 05E0     		b	.L80
 869              	.L84:
 870 0058 0B48     		ldr	r0, .L85+12
 871 005a FFF7FEFF 		bl	HAL_RTCEx_GetWakeUpTimer
 872 005e 0146     		mov	r1, r0
 873 0060 00E0     		b	.L80
 874              	.L81:
 875 0062 0A21     		movs	r1, #10
 876              	.L80:
 877 0064 0023     		movs	r3, #0
 878 0066 0422     		movs	r2, #4
 879 0068 0748     		ldr	r0, .L85+12
 880 006a FFF7FEFF 		bl	HAL_RTCEx_SetWakeUpTimer_IT
 881 006e FFF7FEFF 		bl	HAL_PWREx_EnableLowPowerRunMode
 882 0072 0120     		movs	r0, #1
 883 0074 FFF7FEFF 		bl	HAL_PWREx_EnterSTOP2Mode
 884 0078 06B0     		add	sp, sp, #24
 885              		@ sp needed
 886 007a 10BD     		pop	{r4, pc}
 887              	.L86:
 888              		.align	2
 889              	.L85:
 890 007c 00100240 		.word	1073876992
 891 0080 00000000 		.word	hspi1
 892 0084 00280040 		.word	1073752064
 893 0088 00000000 		.word	hrtc
 895              		.section	.text.DS18_INIT,"ax",%progbits
 896              		.align	1
 897              		.global	DS18_INIT
 898              		.syntax unified
 899              		.thumb
 900              		.thumb_func
 902              	DS18_INIT:
 903              		@ args = 0, pretend = 0, frame = 8
 904              		@ frame_needed = 0, uses_anonymous_args = 0
 905 0000 10B5     		push	{r4, lr}
 906 0002 82B0     		sub	sp, sp, #8
 907 0004 114C     		ldr	r4, .L89
 908 0006 1249     		ldr	r1, .L89+4
 909 0008 2046     		mov	r0, r4
 910 000a FFF7FEFF 		bl	DS18B20_Init
 911 000e 2046     		mov	r0, r4
 912 0010 FFF7FEFF 		bl	DS18B20_InitializationCommand
 913 0014 2046     		mov	r0, r4
 914 0016 FFF7FEFF 		bl	DS18B20_ReadRom
ARM GAS  C:\Users\kroko\AppData\Local\Temp\ccNGKpsK.s 			page 17


 915 001a 2046     		mov	r0, r4
 916 001c FFF7FEFF 		bl	DS18B20_ReadScratchpad
 917 0020 E37B     		ldrb	r3, [r4, #15]	@ zero_extendqisi2
 918 0022 8DF80430 		strb	r3, [sp, #4]
 919 0026 A37B     		ldrb	r3, [r4, #14]	@ zero_extendqisi2
 920 0028 8DF80530 		strb	r3, [sp, #5]
 921 002c 7F23     		movs	r3, #127
 922 002e 8DF80630 		strb	r3, [sp, #6]
 923 0032 2046     		mov	r0, r4
 924 0034 FFF7FEFF 		bl	DS18B20_InitializationCommand
 925 0038 2046     		mov	r0, r4
 926 003a FFF7FEFF 		bl	DS18B20_SkipRom
 927 003e 01A9     		add	r1, sp, #4
 928 0040 2046     		mov	r0, r4
 929 0042 FFF7FEFF 		bl	DS18B20_WriteScratchpad
 930 0046 02B0     		add	sp, sp, #8
 931              		@ sp needed
 932 0048 10BD     		pop	{r4, pc}
 933              	.L90:
 934 004a 00BF     		.align	2
 935              	.L89:
 936 004c 00000000 		.word	temperatureSensor
 937 0050 00000000 		.word	huart2
 939              		.section	.text.DS18_GET,"ax",%progbits
 940              		.align	1
 941              		.global	DS18_GET
 942              		.syntax unified
 943              		.thumb
 944              		.thumb_func
 946              	DS18_GET:
 947              		@ args = 0, pretend = 0, frame = 0
 948              		@ frame_needed = 0, uses_anonymous_args = 0
 949 0000 10B5     		push	{r4, lr}
 950 0002 0B4C     		ldr	r4, .L93
 951 0004 2046     		mov	r0, r4
 952 0006 FFF7FEFF 		bl	DS18B20_InitializationCommand
 953 000a 2046     		mov	r0, r4
 954 000c FFF7FEFF 		bl	DS18B20_SkipRom
 955 0010 0121     		movs	r1, #1
 956 0012 2046     		mov	r0, r4
 957 0014 FFF7FEFF 		bl	DS18B20_ConvertT
 958 0018 2046     		mov	r0, r4
 959 001a FFF7FEFF 		bl	DS18B20_InitializationCommand
 960 001e 2046     		mov	r0, r4
 961 0020 FFF7FEFF 		bl	DS18B20_SkipRom
 962 0024 2046     		mov	r0, r4
 963 0026 FFF7FEFF 		bl	DS18B20_ReadScratchpad
 964 002a 94ED050A 		vldr.32	s0, [r4, #20]
 965 002e 10BD     		pop	{r4, pc}
 966              	.L94:
 967              		.align	2
 968              	.L93:
 969 0030 00000000 		.word	temperatureSensor
 971              		.section	.rodata.set_time.str1.4,"aMS",%progbits,1
 972              		.align	2
 973              	.LC6:
 974 0000 630C1F17 		.ascii	"c\014\037\027;\000"
ARM GAS  C:\Users\kroko\AppData\Local\Temp\ccNGKpsK.s 			page 18


 974      3B00
 975              		.section	.text.set_time,"ax",%progbits
 976              		.align	1
 977              		.global	set_time
 978              		.syntax unified
 979              		.thumb
 980              		.thumb_func
 982              	set_time:
 983              		@ args = 0, pretend = 0, frame = 112
 984              		@ frame_needed = 0, uses_anonymous_args = 0
 985 0000 2DE9F041 		push	{r4, r5, r6, r7, r8, lr}
 986 0004 9CB0     		sub	sp, sp, #112
 987 0006 17AF     		add	r7, sp, #92
 988 0008 0024     		movs	r4, #0
 989 000a 1794     		str	r4, [sp, #92]
 990 000c 1894     		str	r4, [sp, #96]
 991 000e 1994     		str	r4, [sp, #100]
 992 0010 1A94     		str	r4, [sp, #104]
 993 0012 1B94     		str	r4, [sp, #108]
 994 0014 4FF09043 		mov	r3, #1207959552
 995 0018 1793     		str	r3, [sp, #92]
 996 001a 4FF00108 		mov	r8, #1
 997 001e ADF86080 		strh	r8, [sp, #96]	@ movhi
 998 0022 12AE     		add	r6, sp, #72
 999 0024 1294     		str	r4, [sp, #72]
 1000 0026 1394     		str	r4, [sp, #76]
 1001 0028 1494     		str	r4, [sp, #80]
 1002 002a 1594     		str	r4, [sp, #84]
 1003 002c 1694     		str	r4, [sp, #88]
 1004 002e 1293     		str	r3, [sp, #72]
 1005 0030 4FF48072 		mov	r2, #256
 1006 0034 ADF84C20 		strh	r2, [sp, #76]	@ movhi
 1007 0038 0DAD     		add	r5, sp, #52
 1008 003a 0D94     		str	r4, [sp, #52]
 1009 003c 0E94     		str	r4, [sp, #56]
 1010 003e 0F94     		str	r4, [sp, #60]
 1011 0040 1094     		str	r4, [sp, #64]
 1012 0042 1194     		str	r4, [sp, #68]
 1013 0044 0D93     		str	r3, [sp, #52]
 1014 0046 4FF40073 		mov	r3, #512
 1015 004a ADF83830 		strh	r3, [sp, #56]	@ movhi
 1016 004e 244B     		ldr	r3, .L97
 1017 0050 0B93     		str	r3, [sp, #44]
 1018 0052 8DF83040 		strb	r4, [sp, #48]
 1019 0056 234B     		ldr	r3, .L97+4
 1020 0058 93E80300 		ldm	r3, {r0, r1}
 1021 005c 0990     		str	r0, [sp, #36]
 1022 005e 8DF82810 		strb	r1, [sp, #40]
 1023 0062 214B     		ldr	r3, .L97+8
 1024 0064 0793     		str	r3, [sp, #28]
 1025 0066 8DF82040 		strb	r4, [sp, #32]
 1026 006a FFF7FEFF 		bl	HAL_GetTick
 1027 006e 3846     		mov	r0, r7
 1028 0070 FFF7FEFF 		bl	tick
 1029 0074 2846     		mov	r0, r5
 1030 0076 FFF7FEFF 		bl	tick
 1031 007a 3046     		mov	r0, r6
ARM GAS  C:\Users\kroko\AppData\Local\Temp\ccNGKpsK.s 			page 19


 1032 007c FFF7FEFF 		bl	tick
 1033 0080 3846     		mov	r0, r7
 1034 0082 FFF7FEFF 		bl	isClicked
 1035 0086 3046     		mov	r0, r6
 1036 0088 FFF7FEFF 		bl	isClicked
 1037 008c 2846     		mov	r0, r5
 1038 008e FFF7FEFF 		bl	isClicked
 1039 0092 02AD     		add	r5, sp, #8
 1040 0094 0294     		str	r4, [sp, #8]
 1041 0096 0394     		str	r4, [sp, #12]
 1042 0098 0494     		str	r4, [sp, #16]
 1043 009a 0594     		str	r4, [sp, #20]
 1044 009c 0694     		str	r4, [sp, #24]
 1045 009e 0194     		str	r4, [sp, #4]
 1046 00a0 0C23     		movs	r3, #12
 1047 00a2 8DF80830 		strb	r3, [sp, #8]
 1048 00a6 1923     		movs	r3, #25
 1049 00a8 8DF80730 		strb	r3, [sp, #7]
 1050 00ac 0323     		movs	r3, #3
 1051 00ae 8DF80530 		strb	r3, [sp, #5]
 1052 00b2 1823     		movs	r3, #24
 1053 00b4 8DF80630 		strb	r3, [sp, #6]
 1054 00b8 8DF80480 		strb	r8, [sp, #4]
 1055 00bc 4FF48033 		mov	r3, #65536
 1056 00c0 0593     		str	r3, [sp, #20]
 1057 00c2 0A4E     		ldr	r6, .L97+12
 1058 00c4 2246     		mov	r2, r4
 1059 00c6 01A9     		add	r1, sp, #4
 1060 00c8 3046     		mov	r0, r6
 1061 00ca FFF7FEFF 		bl	HAL_RTC_SetDate
 1062 00ce 2246     		mov	r2, r4
 1063 00d0 2946     		mov	r1, r5
 1064 00d2 3046     		mov	r0, r6
 1065 00d4 FFF7FEFF 		bl	HAL_RTC_SetTime
 1066 00d8 1CB0     		add	sp, sp, #112
 1067              		@ sp needed
 1068 00da BDE8F081 		pop	{r4, r5, r6, r7, r8, pc}
 1069              	.L98:
 1070 00de 00BF     		.align	2
 1071              	.L97:
 1072 00e0 1903180C 		.word	202900249
 1073 00e4 00000000 		.word	.LC6
 1074 00e8 00010100 		.word	65792
 1075 00ec 00000000 		.word	hrtc
 1077              		.section	.text.USB_CDC_RxHandler,"ax",%progbits
 1078              		.align	1
 1079              		.global	USB_CDC_RxHandler
 1080              		.syntax unified
 1081              		.thumb
 1082              		.thumb_func
 1084              	USB_CDC_RxHandler:
 1085              		@ args = 0, pretend = 0, frame = 0
 1086              		@ frame_needed = 0, uses_anonymous_args = 0
 1087 0000 08B5     		push	{r3, lr}
 1088 0002 89B2     		uxth	r1, r1
 1089 0004 FFF7FEFF 		bl	CDC_Transmit_FS
 1090 0008 08BD     		pop	{r3, pc}
ARM GAS  C:\Users\kroko\AppData\Local\Temp\ccNGKpsK.s 			page 20


 1092              		.section	.text.HAL_RTCEx_WakeUpTimerEventCallback,"ax",%progbits
 1093              		.align	1
 1094              		.global	HAL_RTCEx_WakeUpTimerEventCallback
 1095              		.syntax unified
 1096              		.thumb
 1097              		.thumb_func
 1099              	HAL_RTCEx_WakeUpTimerEventCallback:
 1100              		@ args = 0, pretend = 0, frame = 0
 1101              		@ frame_needed = 0, uses_anonymous_args = 0
 1102 0000 08B5     		push	{r3, lr}
 1103 0002 044B     		ldr	r3, .L103
 1104 0004 0122     		movs	r2, #1
 1105 0006 1A70     		strb	r2, [r3]
 1106 0008 FFF7FEFF 		bl	MX_USB_DEVICE_IsConnected
 1107 000c 024B     		ldr	r3, .L103+4
 1108 000e 1870     		strb	r0, [r3]
 1109 0010 08BD     		pop	{r3, pc}
 1110              	.L104:
 1111 0012 00BF     		.align	2
 1112              	.L103:
 1113 0014 00000000 		.word	measure
 1114 0018 00000000 		.word	send_usb
 1116              		.section	.text.HAL_GPIO_EXTI_Callback,"ax",%progbits
 1117              		.align	1
 1118              		.global	HAL_GPIO_EXTI_Callback
 1119              		.syntax unified
 1120              		.thumb
 1121              		.thumb_func
 1123              	HAL_GPIO_EXTI_Callback:
 1124              		@ args = 0, pretend = 0, frame = 0
 1125              		@ frame_needed = 0, uses_anonymous_args = 0
 1126 0000 0128     		cmp	r0, #1
 1127 0002 01D0     		beq	.L112
 1128              		.syntax unified
 1129              	@ 945 "Core/Src/main.c" 1
 1130 0004 00BF     		nop
 1131              	@ 0 "" 2
 1132              		.thumb
 1133              		.syntax unified
 1134 0006 7047     		bx	lr
 1135              	.L112:
 1136 0008 08B5     		push	{r3, lr}
 1137 000a FFF7FEFF 		bl	MX_USB_DEVICE_IsConnected
 1138 000e 10B9     		cbnz	r0, .L105
 1139 0010 014B     		ldr	r3, .L113
 1140 0012 0122     		movs	r2, #1
 1141 0014 1A70     		strb	r2, [r3]
 1142              	.L105:
 1143 0016 08BD     		pop	{r3, pc}
 1144              	.L114:
 1145              		.align	2
 1146              	.L113:
 1147 0018 00000000 		.word	initialise_usb_connection
 1149              		.section	.text.Error_Handler,"ax",%progbits
 1150              		.align	1
 1151              		.global	Error_Handler
 1152              		.syntax unified
ARM GAS  C:\Users\kroko\AppData\Local\Temp\ccNGKpsK.s 			page 21


 1153              		.thumb
 1154              		.thumb_func
 1156              	Error_Handler:
 1157              		@ Volatile: function does not return.
 1158              		@ args = 0, pretend = 0, frame = 0
 1159              		@ frame_needed = 0, uses_anonymous_args = 0
 1160              		@ link register save eliminated.
 1161              		.syntax unified
 1162              	@ 209 "Drivers/CMSIS/Include/cmsis_gcc.h" 1
 1163 0000 72B6     		cpsid i
 1164              	@ 0 "" 2
 1165              		.thumb
 1166              		.syntax unified
 1167              	.L116:
 1168 0002 FEE7     		b	.L116
 1170              		.section	.text.MX_SPI1_Init,"ax",%progbits
 1171              		.align	1
 1172              		.syntax unified
 1173              		.thumb
 1174              		.thumb_func
 1176              	MX_SPI1_Init:
 1177              		@ args = 0, pretend = 0, frame = 0
 1178              		@ frame_needed = 0, uses_anonymous_args = 0
 1179 0000 08B5     		push	{r3, lr}
 1180 0002 1148     		ldr	r0, .L121
 1181 0004 114B     		ldr	r3, .L121+4
 1182 0006 0360     		str	r3, [r0]
 1183 0008 4FF48273 		mov	r3, #260
 1184 000c 4360     		str	r3, [r0, #4]
 1185 000e 4FF40043 		mov	r3, #32768
 1186 0012 8360     		str	r3, [r0, #8]
 1187 0014 4FF4E063 		mov	r3, #1792
 1188 0018 C360     		str	r3, [r0, #12]
 1189 001a 0023     		movs	r3, #0
 1190 001c 0361     		str	r3, [r0, #16]
 1191 001e 4361     		str	r3, [r0, #20]
 1192 0020 4FF40072 		mov	r2, #512
 1193 0024 8261     		str	r2, [r0, #24]
 1194 0026 1822     		movs	r2, #24
 1195 0028 C261     		str	r2, [r0, #28]
 1196 002a 0362     		str	r3, [r0, #32]
 1197 002c 4362     		str	r3, [r0, #36]
 1198 002e 8362     		str	r3, [r0, #40]
 1199 0030 0722     		movs	r2, #7
 1200 0032 C262     		str	r2, [r0, #44]
 1201 0034 0363     		str	r3, [r0, #48]
 1202 0036 0823     		movs	r3, #8
 1203 0038 4363     		str	r3, [r0, #52]
 1204 003a FFF7FEFF 		bl	HAL_SPI_Init
 1205 003e 00B9     		cbnz	r0, .L120
 1206 0040 08BD     		pop	{r3, pc}
 1207              	.L120:
 1208 0042 FFF7FEFF 		bl	Error_Handler
 1209              	.L122:
 1210 0046 00BF     		.align	2
 1211              	.L121:
 1212 0048 00000000 		.word	hspi1
ARM GAS  C:\Users\kroko\AppData\Local\Temp\ccNGKpsK.s 			page 22


 1213 004c 00300140 		.word	1073819648
 1215              		.section	.text.MX_RTC_Init,"ax",%progbits
 1216              		.align	1
 1217              		.syntax unified
 1218              		.thumb
 1219              		.thumb_func
 1221              	MX_RTC_Init:
 1222              		@ args = 0, pretend = 0, frame = 24
 1223              		@ frame_needed = 0, uses_anonymous_args = 0
 1224 0000 30B5     		push	{r4, r5, lr}
 1225 0002 87B0     		sub	sp, sp, #28
 1226 0004 0025     		movs	r5, #0
 1227 0006 0195     		str	r5, [sp, #4]
 1228 0008 0295     		str	r5, [sp, #8]
 1229 000a 0395     		str	r5, [sp, #12]
 1230 000c 0495     		str	r5, [sp, #16]
 1231 000e 0595     		str	r5, [sp, #20]
 1232 0010 0095     		str	r5, [sp]
 1233 0012 244C     		ldr	r4, .L133
 1234 0014 0621     		movs	r1, #6
 1235 0016 2046     		mov	r0, r4
 1236 0018 FFF7FEFF 		bl	HAL_RTCEx_BKUPRead
 1237 001c 224B     		ldr	r3, .L133+4
 1238 001e 2360     		str	r3, [r4]
 1239 0020 A560     		str	r5, [r4, #8]
 1240 0022 7F23     		movs	r3, #127
 1241 0024 E360     		str	r3, [r4, #12]
 1242 0026 FF23     		movs	r3, #255
 1243 0028 2361     		str	r3, [r4, #16]
 1244 002a 6561     		str	r5, [r4, #20]
 1245 002c A561     		str	r5, [r4, #24]
 1246 002e E561     		str	r5, [r4, #28]
 1247 0030 4FF08043 		mov	r3, #1073741824
 1248 0034 2362     		str	r3, [r4, #32]
 1249 0036 6562     		str	r5, [r4, #36]
 1250 0038 2046     		mov	r0, r4
 1251 003a FFF7FEFF 		bl	HAL_RTC_Init
 1252 003e 40BB     		cbnz	r0, .L129
 1253 0040 0023     		movs	r3, #0
 1254 0042 8DF80430 		strb	r3, [sp, #4]
 1255 0046 8DF80530 		strb	r3, [sp, #5]
 1256 004a 8DF80630 		strb	r3, [sp, #6]
 1257 004e 4FF48032 		mov	r2, #65536
 1258 0052 0492     		str	r2, [sp, #16]
 1259 0054 0593     		str	r3, [sp, #20]
 1260 0056 0122     		movs	r2, #1
 1261 0058 01A9     		add	r1, sp, #4
 1262 005a 1248     		ldr	r0, .L133
 1263 005c FFF7FEFF 		bl	HAL_RTC_SetTime
 1264 0060 C8B9     		cbnz	r0, .L130
 1265 0062 0122     		movs	r2, #1
 1266 0064 8DF80020 		strb	r2, [sp]
 1267 0068 8DF80120 		strb	r2, [sp, #1]
 1268 006c 8DF80220 		strb	r2, [sp, #2]
 1269 0070 2523     		movs	r3, #37
 1270 0072 8DF80330 		strb	r3, [sp, #3]
 1271 0076 6946     		mov	r1, sp
ARM GAS  C:\Users\kroko\AppData\Local\Temp\ccNGKpsK.s 			page 23


 1272 0078 0A48     		ldr	r0, .L133
 1273 007a FFF7FEFF 		bl	HAL_RTC_SetDate
 1274 007e 60B9     		cbnz	r0, .L131
 1275 0080 0023     		movs	r3, #0
 1276 0082 0422     		movs	r2, #4
 1277 0084 1E21     		movs	r1, #30
 1278 0086 0748     		ldr	r0, .L133
 1279 0088 FFF7FEFF 		bl	HAL_RTCEx_SetWakeUpTimer_IT
 1280 008c 38B9     		cbnz	r0, .L132
 1281 008e 07B0     		add	sp, sp, #28
 1282              		@ sp needed
 1283 0090 30BD     		pop	{r4, r5, pc}
 1284              	.L129:
 1285 0092 FFF7FEFF 		bl	Error_Handler
 1286              	.L130:
 1287 0096 FFF7FEFF 		bl	Error_Handler
 1288              	.L131:
 1289 009a FFF7FEFF 		bl	Error_Handler
 1290              	.L132:
 1291 009e FFF7FEFF 		bl	Error_Handler
 1292              	.L134:
 1293 00a2 00BF     		.align	2
 1294              	.L133:
 1295 00a4 00000000 		.word	hrtc
 1296 00a8 00280040 		.word	1073752064
 1298              		.section	.text.MX_USART2_UART_Init,"ax",%progbits
 1299              		.align	1
 1300              		.syntax unified
 1301              		.thumb
 1302              		.thumb_func
 1304              	MX_USART2_UART_Init:
 1305              		@ args = 0, pretend = 0, frame = 0
 1306              		@ frame_needed = 0, uses_anonymous_args = 0
 1307 0000 08B5     		push	{r3, lr}
 1308 0002 0B48     		ldr	r0, .L139
 1309 0004 0B4B     		ldr	r3, .L139+4
 1310 0006 0360     		str	r3, [r0]
 1311 0008 4FF4E133 		mov	r3, #115200
 1312 000c 4360     		str	r3, [r0, #4]
 1313 000e 0023     		movs	r3, #0
 1314 0010 8360     		str	r3, [r0, #8]
 1315 0012 C360     		str	r3, [r0, #12]
 1316 0014 0361     		str	r3, [r0, #16]
 1317 0016 0C22     		movs	r2, #12
 1318 0018 4261     		str	r2, [r0, #20]
 1319 001a 8361     		str	r3, [r0, #24]
 1320 001c C361     		str	r3, [r0, #28]
 1321 001e 0362     		str	r3, [r0, #32]
 1322 0020 4362     		str	r3, [r0, #36]
 1323 0022 FFF7FEFF 		bl	HAL_HalfDuplex_Init
 1324 0026 00B9     		cbnz	r0, .L138
 1325 0028 08BD     		pop	{r3, pc}
 1326              	.L138:
 1327 002a FFF7FEFF 		bl	Error_Handler
 1328              	.L140:
 1329 002e 00BF     		.align	2
 1330              	.L139:
ARM GAS  C:\Users\kroko\AppData\Local\Temp\ccNGKpsK.s 			page 24


 1331 0030 00000000 		.word	huart2
 1332 0034 00440040 		.word	1073759232
 1334              		.section	.text.MX_ADC1_Init,"ax",%progbits
 1335              		.align	1
 1336              		.syntax unified
 1337              		.thumb
 1338              		.thumb_func
 1340              	MX_ADC1_Init:
 1341              		@ args = 0, pretend = 0, frame = 40
 1342              		@ frame_needed = 0, uses_anonymous_args = 0
 1343 0000 00B5     		push	{lr}
 1344 0002 8BB0     		sub	sp, sp, #44
 1345 0004 0023     		movs	r3, #0
 1346 0006 0793     		str	r3, [sp, #28]
 1347 0008 0893     		str	r3, [sp, #32]
 1348 000a 0993     		str	r3, [sp, #36]
 1349 000c 0193     		str	r3, [sp, #4]
 1350 000e 0293     		str	r3, [sp, #8]
 1351 0010 0393     		str	r3, [sp, #12]
 1352 0012 0493     		str	r3, [sp, #16]
 1353 0014 0593     		str	r3, [sp, #20]
 1354 0016 0693     		str	r3, [sp, #24]
 1355 0018 1C48     		ldr	r0, .L149
 1356 001a 1D4A     		ldr	r2, .L149+4
 1357 001c 0260     		str	r2, [r0]
 1358 001e 4360     		str	r3, [r0, #4]
 1359 0020 8360     		str	r3, [r0, #8]
 1360 0022 C360     		str	r3, [r0, #12]
 1361 0024 0361     		str	r3, [r0, #16]
 1362 0026 0422     		movs	r2, #4
 1363 0028 4261     		str	r2, [r0, #20]
 1364 002a 0376     		strb	r3, [r0, #24]
 1365 002c 0122     		movs	r2, #1
 1366 002e 4276     		strb	r2, [r0, #25]
 1367 0030 C261     		str	r2, [r0, #28]
 1368 0032 80F82030 		strb	r3, [r0, #32]
 1369 0036 8362     		str	r3, [r0, #40]
 1370 0038 C362     		str	r3, [r0, #44]
 1371 003a 80F83030 		strb	r3, [r0, #48]
 1372 003e 4363     		str	r3, [r0, #52]
 1373 0040 80F83830 		strb	r3, [r0, #56]
 1374 0044 FFF7FEFF 		bl	HAL_ADC_Init
 1375 0048 D0B9     		cbnz	r0, .L146
 1376 004a 0023     		movs	r3, #0
 1377 004c 0793     		str	r3, [sp, #28]
 1378 004e 07A9     		add	r1, sp, #28
 1379 0050 0E48     		ldr	r0, .L149
 1380 0052 FFF7FEFF 		bl	HAL_ADCEx_MultiModeConfigChannel
 1381 0056 A8B9     		cbnz	r0, .L147
 1382 0058 0E4B     		ldr	r3, .L149+8
 1383 005a 0193     		str	r3, [sp, #4]
 1384 005c 0623     		movs	r3, #6
 1385 005e 0293     		str	r3, [sp, #8]
 1386 0060 0023     		movs	r3, #0
 1387 0062 0393     		str	r3, [sp, #12]
 1388 0064 7F22     		movs	r2, #127
 1389 0066 0492     		str	r2, [sp, #16]
ARM GAS  C:\Users\kroko\AppData\Local\Temp\ccNGKpsK.s 			page 25


 1390 0068 0422     		movs	r2, #4
 1391 006a 0592     		str	r2, [sp, #20]
 1392 006c 0693     		str	r3, [sp, #24]
 1393 006e 0DEB0201 		add	r1, sp, r2
 1394 0072 0648     		ldr	r0, .L149
 1395 0074 FFF7FEFF 		bl	HAL_ADC_ConfigChannel
 1396 0078 30B9     		cbnz	r0, .L148
 1397 007a 0BB0     		add	sp, sp, #44
 1398              		@ sp needed
 1399 007c 5DF804FB 		ldr	pc, [sp], #4
 1400              	.L146:
 1401 0080 FFF7FEFF 		bl	Error_Handler
 1402              	.L147:
 1403 0084 FFF7FEFF 		bl	Error_Handler
 1404              	.L148:
 1405 0088 FFF7FEFF 		bl	Error_Handler
 1406              	.L150:
 1407              		.align	2
 1408              	.L149:
 1409 008c 00000000 		.word	hadc1
 1410 0090 00000450 		.word	1342439424
 1411 0094 01000080 		.word	-2147483647
 1413              		.section	.text.SystemClock_Config,"ax",%progbits
 1414              		.align	1
 1415              		.global	SystemClock_Config
 1416              		.syntax unified
 1417              		.thumb
 1418              		.thumb_func
 1420              	SystemClock_Config:
 1421              		@ args = 0, pretend = 0, frame = 88
 1422              		@ frame_needed = 0, uses_anonymous_args = 0
 1423 0000 00B5     		push	{lr}
 1424 0002 97B0     		sub	sp, sp, #92
 1425 0004 4422     		movs	r2, #68
 1426 0006 0021     		movs	r1, #0
 1427 0008 05A8     		add	r0, sp, #20
 1428 000a FFF7FEFF 		bl	memset
 1429 000e 0023     		movs	r3, #0
 1430 0010 0093     		str	r3, [sp]
 1431 0012 0193     		str	r3, [sp, #4]
 1432 0014 0293     		str	r3, [sp, #8]
 1433 0016 0393     		str	r3, [sp, #12]
 1434 0018 0493     		str	r3, [sp, #16]
 1435 001a 4FF40070 		mov	r0, #512
 1436 001e FFF7FEFF 		bl	HAL_PWREx_ControlVoltageScaling
 1437 0022 38BB     		cbnz	r0, .L156
 1438 0024 FFF7FEFF 		bl	HAL_PWR_EnableBkUpAccess
 1439 0028 154A     		ldr	r2, .L159
 1440 002a D2F89030 		ldr	r3, [r2, #144]
 1441 002e 23F01803 		bic	r3, r3, #24
 1442 0032 C2F89030 		str	r3, [r2, #144]
 1443 0036 3423     		movs	r3, #52
 1444 0038 0593     		str	r3, [sp, #20]
 1445 003a 0123     		movs	r3, #1
 1446 003c 0793     		str	r3, [sp, #28]
 1447 003e 0F93     		str	r3, [sp, #60]
 1448 0040 0C93     		str	r3, [sp, #48]
ARM GAS  C:\Users\kroko\AppData\Local\Temp\ccNGKpsK.s 			page 26


 1449 0042 0023     		movs	r3, #0
 1450 0044 0D93     		str	r3, [sp, #52]
 1451 0046 8022     		movs	r2, #128
 1452 0048 0E92     		str	r2, [sp, #56]
 1453 004a 1093     		str	r3, [sp, #64]
 1454 004c 05A8     		add	r0, sp, #20
 1455 004e FFF7FEFF 		bl	HAL_RCC_OscConfig
 1456 0052 88B9     		cbnz	r0, .L157
 1457 0054 0F23     		movs	r3, #15
 1458 0056 0093     		str	r3, [sp]
 1459 0058 0021     		movs	r1, #0
 1460 005a 0191     		str	r1, [sp, #4]
 1461 005c 0291     		str	r1, [sp, #8]
 1462 005e 0391     		str	r1, [sp, #12]
 1463 0060 0491     		str	r1, [sp, #16]
 1464 0062 6846     		mov	r0, sp
 1465 0064 FFF7FEFF 		bl	HAL_RCC_ClockConfig
 1466 0068 40B9     		cbnz	r0, .L158
 1467 006a FFF7FEFF 		bl	HAL_RCCEx_EnableMSIPLLMode
 1468 006e 17B0     		add	sp, sp, #92
 1469              		@ sp needed
 1470 0070 5DF804FB 		ldr	pc, [sp], #4
 1471              	.L156:
 1472 0074 FFF7FEFF 		bl	Error_Handler
 1473              	.L157:
 1474 0078 FFF7FEFF 		bl	Error_Handler
 1475              	.L158:
 1476 007c FFF7FEFF 		bl	Error_Handler
 1477              	.L160:
 1478              		.align	2
 1479              	.L159:
 1480 0080 00100240 		.word	1073876992
 1482              		.section	.text.power_on,"ax",%progbits
 1483              		.align	1
 1484              		.global	power_on
 1485              		.syntax unified
 1486              		.thumb
 1487              		.thumb_func
 1489              	power_on:
 1490              		@ args = 0, pretend = 0, frame = 0
 1491              		@ frame_needed = 0, uses_anonymous_args = 0
 1492 0000 08B5     		push	{r3, lr}
 1493 0002 0748     		ldr	r0, .L163
 1494 0004 FFF7FEFF 		bl	HAL_RTCEx_DeactivateWakeUpTimer
 1495 0008 FFF7FEFF 		bl	HAL_ResumeTick
 1496 000c FFF7FEFF 		bl	SystemClock_Config
 1497 0010 FFF7FEFF 		bl	MX_GPIO_Init
 1498 0014 FFF7FEFF 		bl	MX_SPI1_Init
 1499 0018 FFF7FEFF 		bl	EPD_Init
 1500 001c 08BD     		pop	{r3, pc}
 1501              	.L164:
 1502 001e 00BF     		.align	2
 1503              	.L163:
 1504 0020 00000000 		.word	hrtc
 1506              		.section	.rodata.get_data.str1.4,"aMS",%progbits,1
 1507              		.align	2
 1508              	.LC7:
ARM GAS  C:\Users\kroko\AppData\Local\Temp\ccNGKpsK.s 			page 27


 1509 0000 48656C6C 		.ascii	"Hello\012\015\000"
 1509      6F0A0D00 
 1510              		.section	.text.get_data,"ax",%progbits
 1511              		.align	1
 1512              		.global	get_data
 1513              		.syntax unified
 1514              		.thumb
 1515              		.thumb_func
 1517              	get_data:
 1518              		@ args = 0, pretend = 0, frame = 0
 1519              		@ frame_needed = 0, uses_anonymous_args = 0
 1520 0000 10B5     		push	{r4, lr}
 1521 0002 2DED028B 		vpush.64	{d8}
 1522 0006 0446     		mov	r4, r0
 1523 0008 0028     		cmp	r0, #0
 1524 000a 3CD0     		beq	.L166
 1525 000c FFF7FEFF 		bl	power_on
 1526              	.L167:
 1527 0010 FFF7FEFF 		bl	q_load
 1528 0014 FFF7FEFF 		bl	DS18_GET
 1529 0018 9FED218A 		vldr.32	s16, .L171
 1530 001c 20EE080A 		vmul.f32	s0, s0, s16
 1531 0020 BCEEC00A 		vcvt.u32.f32	s0, s0
 1532 0024 10EE103A 		vmov	r3, s0	@ int
 1533 0028 98B2     		uxth	r0, r3
 1534 002a FFF7FEFF 		bl	q_push
 1535 002e FFF7FEFF 		bl	DS18_GET
 1536 0032 20EE080A 		vmul.f32	s0, s0, s16
 1537 0036 BCEEC00A 		vcvt.u32.f32	s0, s0
 1538 003a 10EE103A 		vmov	r3, s0	@ int
 1539 003e 98B2     		uxth	r0, r3
 1540 0040 FFF7FEFF 		bl	q_push
 1541 0044 FFF7FEFF 		bl	DS18_GET
 1542 0048 20EE080A 		vmul.f32	s0, s0, s16
 1543 004c BCEEC00A 		vcvt.u32.f32	s0, s0
 1544 0050 10EE103A 		vmov	r3, s0	@ int
 1545 0054 98B2     		uxth	r0, r3
 1546 0056 FFF7FEFF 		bl	q_push
 1547 005a FFF7FEFF 		bl	DS18_GET
 1548 005e 20EE080A 		vmul.f32	s0, s0, s16
 1549 0062 BCEEC00A 		vcvt.u32.f32	s0, s0
 1550 0066 10EE103A 		vmov	r3, s0	@ int
 1551 006a 98B2     		uxth	r0, r3
 1552 006c FFF7FEFF 		bl	q_push
 1553 0070 FFF7FEFF 		bl	plot
 1554 0074 FFF7FEFF 		bl	q_save
 1555 0078 54B1     		cbz	r4, .L168
 1556 007a 0020     		movs	r0, #0
 1557 007c FFF7FEFF 		bl	shutdown
 1558              	.L165:
 1559 0080 BDEC028B 		vldm	sp!, {d8}
 1560 0084 10BD     		pop	{r4, pc}
 1561              	.L166:
 1562 0086 0821     		movs	r1, #8
 1563 0088 0648     		ldr	r0, .L171+4
 1564 008a FFF7FEFF 		bl	CDC_Transmit_FS
 1565 008e BFE7     		b	.L167
ARM GAS  C:\Users\kroko\AppData\Local\Temp\ccNGKpsK.s 			page 28


 1566              	.L168:
 1567 0090 0023     		movs	r3, #0
 1568 0092 0422     		movs	r2, #4
 1569 0094 0A21     		movs	r1, #10
 1570 0096 0448     		ldr	r0, .L171+8
 1571 0098 FFF7FEFF 		bl	HAL_RTCEx_SetWakeUpTimer_IT
 1572 009c F0E7     		b	.L165
 1573              	.L172:
 1574 009e 00BF     		.align	2
 1575              	.L171:
 1576 00a0 0000C842 		.word	1120403456
 1577 00a4 00000000 		.word	.LC7
 1578 00a8 00000000 		.word	hrtc
 1580              		.section	.text.main,"ax",%progbits
 1581              		.align	1
 1582              		.global	main
 1583              		.syntax unified
 1584              		.thumb
 1585              		.thumb_func
 1587              	main:
 1588              		@ args = 0, pretend = 0, frame = 0
 1589              		@ frame_needed = 0, uses_anonymous_args = 0
 1590 0000 F8B5     		push	{r3, r4, r5, r6, r7, lr}
 1591 0002 2DED028B 		vpush.64	{d8}
 1592 0006 FFF7FEFF 		bl	HAL_Init
 1593 000a FFF7FEFF 		bl	SystemClock_Config
 1594 000e FFF7FEFF 		bl	MX_GPIO_Init
 1595 0012 FFF7FEFF 		bl	MX_DMA_Init
 1596 0016 FFF7FEFF 		bl	MX_SPI1_Init
 1597 001a FFF7FEFF 		bl	MX_RTC_Init
 1598 001e FFF7FEFF 		bl	MX_USART2_UART_Init
 1599 0022 FFF7FEFF 		bl	MX_ADC1_Init
 1600 0026 FFF7FEFF 		bl	MX_USB_DEVICE_Init
 1601 002a 0122     		movs	r2, #1
 1602 002c 5449     		ldr	r1, .L189
 1603 002e 5548     		ldr	r0, .L189+4
 1604 0030 FFF7FEFF 		bl	HAL_ADC_Start_DMA
 1605 0034 FFF7FEFF 		bl	DS18_INIT
 1606 0038 FFF7FEFF 		bl	EPD_Init
 1607 003c FFF7FEFF 		bl	q_init
 1608 0040 FFF7FEFF 		bl	q_load
 1609 0044 0028     		cmp	r0, #0
 1610 0046 41D0     		beq	.L174
 1611 0048 0120     		movs	r0, #1
 1612 004a FFF7FEFF 		bl	shutdown
 1613 004e FFF7FEFF 		bl	power_on
 1614              	.L175:
 1615 0052 FFF7FEFF 		bl	DS18_GET
 1616 0056 9FED4C8A 		vldr.32	s16, .L189+8
 1617 005a 60EE087A 		vmul.f32	s15, s0, s16
 1618 005e FCEEE77A 		vcvt.u32.f32	s15, s15
 1619 0062 17EE903A 		vmov	r3, s15	@ int
 1620 0066 98B2     		uxth	r0, r3
 1621 0068 FFF7FEFF 		bl	q_push
 1622 006c FFF7FEFF 		bl	DS18_GET
 1623 0070 60EE087A 		vmul.f32	s15, s0, s16
 1624 0074 FCEEE77A 		vcvt.u32.f32	s15, s15
ARM GAS  C:\Users\kroko\AppData\Local\Temp\ccNGKpsK.s 			page 29


 1625 0078 17EE903A 		vmov	r3, s15	@ int
 1626 007c 98B2     		uxth	r0, r3
 1627 007e FFF7FEFF 		bl	q_push
 1628 0082 FFF7FEFF 		bl	DS18_GET
 1629 0086 60EE087A 		vmul.f32	s15, s0, s16
 1630 008a FCEEE77A 		vcvt.u32.f32	s15, s15
 1631 008e 17EE903A 		vmov	r3, s15	@ int
 1632 0092 98B2     		uxth	r0, r3
 1633 0094 FFF7FEFF 		bl	q_push
 1634 0098 FFF7FEFF 		bl	DS18_GET
 1635 009c 60EE087A 		vmul.f32	s15, s0, s16
 1636 00a0 FCEEE77A 		vcvt.u32.f32	s15, s15
 1637 00a4 17EE903A 		vmov	r3, s15	@ int
 1638 00a8 98B2     		uxth	r0, r3
 1639 00aa FFF7FEFF 		bl	q_push
 1640 00ae FFF7FEFF 		bl	q_save
 1641 00b2 FFF7FEFF 		bl	plot
 1642 00b6 FFF7FEFF 		bl	MX_USB_DEVICE_IsConnected
 1643 00ba 50B1     		cbz	r0, .L176
 1644 00bc 0023     		movs	r3, #0
 1645 00be 0422     		movs	r2, #4
 1646 00c0 0A21     		movs	r1, #10
 1647 00c2 3248     		ldr	r0, .L189+12
 1648 00c4 FFF7FEFF 		bl	HAL_RTCEx_SetWakeUpTimer_IT
 1649              	.L177:
 1650 00c8 0024     		movs	r4, #0
 1651 00ca 46E0     		b	.L185
 1652              	.L174:
 1653 00cc FFF7FEFF 		bl	set_time
 1654 00d0 BFE7     		b	.L175
 1655              	.L176:
 1656 00d2 0020     		movs	r0, #0
 1657 00d4 FFF7FEFF 		bl	shutdown
 1658 00d8 F6E7     		b	.L177
 1659              	.L187:
 1660 00da 0026     		movs	r6, #0
 1661 00dc 2C4B     		ldr	r3, .L189+16
 1662 00de 1E70     		strb	r6, [r3]
 1663 00e0 2C4D     		ldr	r5, .L189+20
 1664 00e2 2878     		ldrb	r0, [r5]	@ zero_extendqisi2
 1665 00e4 80F00100 		eor	r0, r0, #1
 1666 00e8 FFF7FEFF 		bl	get_data
 1667 00ec 2E70     		strb	r6, [r5]
 1668 00ee 38E0     		b	.L178
 1669              	.L188:
 1670 00f0 294B     		ldr	r3, .L189+24
 1671 00f2 0022     		movs	r2, #0
 1672 00f4 1A70     		strb	r2, [r3]
 1673 00f6 FFF7FEFF 		bl	power_on
 1674 00fa FFF7FEFF 		bl	HAL_GetTick
 1675 00fe 0546     		mov	r5, r0
 1676 0100 02E0     		b	.L180
 1677              	.L181:
 1678 0102 FFF7FEFF 		bl	MX_USB_DEVICE_IsConnected
 1679 0106 A8B9     		cbnz	r0, .L182
 1680              	.L180:
 1681 0108 FFF7FEFF 		bl	HAL_GetTick
ARM GAS  C:\Users\kroko\AppData\Local\Temp\ccNGKpsK.s 			page 30


 1682 010c 431B     		subs	r3, r0, r5
 1683 010e 41F28732 		movw	r2, #4999
 1684 0112 9342     		cmp	r3, r2
 1685 0114 0ED8     		bhi	.L182
 1686 0116 1E4B     		ldr	r3, .L189+16
 1687 0118 1B78     		ldrb	r3, [r3]	@ zero_extendqisi2
 1688 011a 002B     		cmp	r3, #0
 1689 011c F1D0     		beq	.L181
 1690 011e 0027     		movs	r7, #0
 1691 0120 1B4B     		ldr	r3, .L189+16
 1692 0122 1F70     		strb	r7, [r3]
 1693 0124 1B4E     		ldr	r6, .L189+20
 1694 0126 3078     		ldrb	r0, [r6]	@ zero_extendqisi2
 1695 0128 80F00100 		eor	r0, r0, #1
 1696 012c FFF7FEFF 		bl	get_data
 1697 0130 3770     		strb	r7, [r6]
 1698 0132 E6E7     		b	.L181
 1699              	.L182:
 1700 0134 194B     		ldr	r3, .L189+28
 1701 0136 9B69     		ldr	r3, [r3, #24]
 1702 0138 13F4806F 		tst	r3, #1024
 1703 013c 15D0     		beq	.L179
 1704 013e 134D     		ldr	r5, .L189+12
 1705 0140 2846     		mov	r0, r5
 1706 0142 FFF7FEFF 		bl	HAL_RTCEx_GetWakeUpTimer
 1707 0146 0146     		mov	r1, r0
 1708 0148 0023     		movs	r3, #0
 1709 014a 0422     		movs	r2, #4
 1710 014c 2846     		mov	r0, r5
 1711 014e FFF7FEFF 		bl	HAL_RTCEx_SetWakeUpTimer_IT
 1712 0152 0AE0     		b	.L179
 1713              	.L184:
 1714 0154 FFF7FEFF 		bl	MX_USB_DEVICE_IsConnected
 1715 0158 0446     		mov	r4, r0
 1716              	.L185:
 1717 015a 0D4B     		ldr	r3, .L189+16
 1718 015c 1B78     		ldrb	r3, [r3]	@ zero_extendqisi2
 1719 015e 002B     		cmp	r3, #0
 1720 0160 BBD1     		bne	.L187
 1721              	.L178:
 1722 0162 0D4B     		ldr	r3, .L189+24
 1723 0164 1B78     		ldrb	r3, [r3]	@ zero_extendqisi2
 1724 0166 002B     		cmp	r3, #0
 1725 0168 C2D1     		bne	.L188
 1726              	.L179:
 1727 016a FFF7FEFF 		bl	MX_USB_DEVICE_IsConnected
 1728 016e 0028     		cmp	r0, #0
 1729 0170 F0D1     		bne	.L184
 1730 0172 002C     		cmp	r4, #0
 1731 0174 EED0     		beq	.L184
 1732 0176 0120     		movs	r0, #1
 1733 0178 FFF7FEFF 		bl	shutdown
 1734 017c EAE7     		b	.L184
 1735              	.L190:
 1736 017e 00BF     		.align	2
 1737              	.L189:
 1738 0180 00000000 		.word	adcData
ARM GAS  C:\Users\kroko\AppData\Local\Temp\ccNGKpsK.s 			page 31


 1739 0184 00000000 		.word	hadc1
 1740 0188 0000C842 		.word	1120403456
 1741 018c 00000000 		.word	hrtc
 1742 0190 00000000 		.word	measure
 1743 0194 00000000 		.word	send_usb
 1744 0198 00000000 		.word	initialise_usb_connection
 1745 019c 00280040 		.word	1073752064
 1747              		.global	initialise_usb_connection
 1748              		.section	.bss.initialise_usb_connection,"aw",%nobits
 1751              	initialise_usb_connection:
 1752 0000 00       		.space	1
 1753              		.global	measure
 1754              		.section	.bss.measure,"aw",%nobits
 1757              	measure:
 1758 0000 00       		.space	1
 1759              		.global	send_usb
 1760              		.section	.bss.send_usb,"aw",%nobits
 1763              	send_usb:
 1764 0000 00       		.space	1
 1765              		.global	BlackImage
 1766              		.section	.ram2_bss,"aw"
 1767              		.align	2
 1770              	BlackImage:
 1771 0000 00000000 		.space	4000
 1771      00000000 
 1771      00000000 
 1771      00000000 
 1771      00000000 
 1772              		.global	temp
 1773              		.section	.bss.temp,"aw",%nobits
 1774              		.align	2
 1777              	temp:
 1778 0000 00000000 		.space	4
 1779              		.global	temperatureSensor
 1780              		.section	.bss.temperatureSensor,"aw",%nobits
 1781              		.align	2
 1784              	temperatureSensor:
 1785 0000 00000000 		.space	24
 1785      00000000 
 1785      00000000 
 1785      00000000 
 1785      00000000 
 1786              		.global	adcData
 1787              		.section	.bss.adcData,"aw",%nobits
 1788              		.align	1
 1791              	adcData:
 1792 0000 0000     		.space	2
 1793              		.global	mcuVoltage
 1794              		.section	.bss.mcuVoltage,"aw",%nobits
 1795              		.align	2
 1798              	mcuVoltage:
 1799 0000 00000000 		.space	4
 1800              		.global	huart2
 1801              		.section	.bss.huart2,"aw",%nobits
 1802              		.align	2
 1805              	huart2:
 1806 0000 00000000 		.space	136
ARM GAS  C:\Users\kroko\AppData\Local\Temp\ccNGKpsK.s 			page 32


 1806      00000000 
 1806      00000000 
 1806      00000000 
 1806      00000000 
 1807              		.global	hspi1
 1808              		.section	.bss.hspi1,"aw",%nobits
 1809              		.align	2
 1812              	hspi1:
 1813 0000 00000000 		.space	100
 1813      00000000 
 1813      00000000 
 1813      00000000 
 1813      00000000 
 1814              		.global	hrtc
 1815              		.section	.bss.hrtc,"aw",%nobits
 1816              		.align	2
 1819              	hrtc:
 1820 0000 00000000 		.space	44
 1820      00000000 
 1820      00000000 
 1820      00000000 
 1820      00000000 
 1821              		.global	hdma_adc1
 1822              		.section	.bss.hdma_adc1,"aw",%nobits
 1823              		.align	2
 1826              	hdma_adc1:
 1827 0000 00000000 		.space	72
 1827      00000000 
 1827      00000000 
 1827      00000000 
 1827      00000000 
 1828              		.global	hadc1
 1829              		.section	.bss.hadc1,"aw",%nobits
 1830              		.align	2
 1833              	hadc1:
 1834 0000 00000000 		.space	100
 1834      00000000 
 1834      00000000 
 1834      00000000 
 1834      00000000 
 1835              		.global	dead_batt_26x16
 1836              		.section	.rodata.dead_batt_26x16,"a"
 1837              		.align	2
 1840              	dead_batt_26x16:
 1841 0000 01010101 		.ascii	"\001\001\001\001\001\001\001\001\001\001\001\001\001"
 1841      01010101 
 1841      01010101 
 1841      01
 1842 000d 01010101 		.ascii	"\001\001\001\001\001\001\001\001\001\001\001\001\001"
 1842      01010101 
 1842      01010101 
 1842      01
 1843 001a 01010101 		.ascii	"\001\001\001\001\001\001\001\001\001\001\001\001\001"
 1843      01010101 
 1843      01010101 
 1843      01
 1844 0027 01010101 		.ascii	"\001\001\001\001\001\001\001\001\001\001\001\001\001"
ARM GAS  C:\Users\kroko\AppData\Local\Temp\ccNGKpsK.s 			page 33


 1844      01010101 
 1844      01010101 
 1844      01
 1845 0034 01010100 		.ascii	"\001\001\001\000\000\000\000\000\000\000\000\000\000"
 1845      00000000 
 1845      00000000 
 1845      00
 1846 0041 00000000 		.ascii	"\000\000\000\000\000\000\000\000\000\001\001\001\001"
 1846      00000000 
 1846      00010101 
 1846      01
 1847 004e 01010000 		.ascii	"\001\001\000\000\001\001\001\001\001\001\001\001\001"
 1847      01010101 
 1847      01010101 
 1847      01
 1848 005b 01010101 		.ascii	"\001\001\001\001\001\001\001\001\000\000\001\001\001"
 1848      01010101 
 1848      00000101 
 1848      01
 1849 0068 01010000 		.ascii	"\001\001\000\000\001\000\000\001\001\001\001\001\001"
 1849      01000001 
 1849      01010101 
 1849      01
 1850 0075 01010101 		.ascii	"\001\001\001\001\001\001\001\001\001\000\001\001\001"
 1850      01010101 
 1850      01000101 
 1850      01
 1851 0082 01010000 		.ascii	"\001\001\000\000\001\000\000\001\001\001\001\001\001"
 1851      01000001 
 1851      01010101 
 1851      01
 1852 008f 01010101 		.ascii	"\001\001\001\001\001\001\001\001\001\000\001\001\001"
 1852      01010101 
 1852      01000101 
 1852      01
 1853 009c 01010000 		.ascii	"\001\001\000\000\001\000\000\001\001\001\001\001\001"
 1853      01000001 
 1853      01010101 
 1853      01
 1854 00a9 01010101 		.ascii	"\001\001\001\001\001\001\001\001\001\000\000\000\001"
 1854      01010101 
 1854      01000000 
 1854      01
 1855 00b6 01010000 		.ascii	"\001\001\000\000\001\000\000\001\001\001\001\001\001"
 1855      01000001 
 1855      01010101 
 1855      01
 1856 00c3 01010101 		.ascii	"\001\001\001\001\001\001\001\001\001\000\000\000\001"
 1856      01010101 
 1856      01000000 
 1856      01
 1857 00d0 01010000 		.ascii	"\001\001\000\000\001\000\000\001\001\001\001\001\001"
 1857      01000001 
 1857      01010101 
 1857      01
 1858 00dd 01010101 		.ascii	"\001\001\001\001\001\001\001\001\001\000\000\000\001"
 1858      01010101 
ARM GAS  C:\Users\kroko\AppData\Local\Temp\ccNGKpsK.s 			page 34


 1858      01000000 
 1858      01
 1859 00ea 01010000 		.ascii	"\001\001\000\000\001\000\000\001\001\001\001\001\001"
 1859      01000001 
 1859      01010101 
 1859      01
 1860 00f7 01010101 		.ascii	"\001\001\001\001\001\001\001\001\001\000\000\000\001"
 1860      01010101 
 1860      01000000 
 1860      01
 1861 0104 01010000 		.ascii	"\001\001\000\000\001\000\000\001\001\001\001\001\001"
 1861      01000001 
 1861      01010101 
 1861      01
 1862 0111 01010101 		.ascii	"\001\001\001\001\001\001\001\001\001\000\000\000\001"
 1862      01010101 
 1862      01000000 
 1862      01
 1863 011e 01010000 		.ascii	"\001\001\000\000\001\000\000\001\001\001\001\001\001"
 1863      01000001 
 1863      01010101 
 1863      01
 1864 012b 01010101 		.ascii	"\001\001\001\001\001\001\001\001\001\000\001\001\001"
 1864      01010101 
 1864      01000101 
 1864      01
 1865 0138 01010000 		.ascii	"\001\001\000\000\001\000\000\001\001\001\001\001\001"
 1865      01000001 
 1865      01010101 
 1865      01
 1866 0145 01010101 		.ascii	"\001\001\001\001\001\001\001\001\001\000\001\001\001"
 1866      01010101 
 1866      01000101 
 1866      01
 1867 0152 01010000 		.ascii	"\001\001\000\000\001\001\001\001\001\001\001\001\001"
 1867      01010101 
 1867      01010101 
 1867      01
 1868 015f 01010101 		.ascii	"\001\001\001\001\001\001\001\001\000\000\001\001\001"
 1868      01010101 
 1868      00000101 
 1868      01
 1869 016c 01010100 		.ascii	"\001\001\001\000\000\000\000\000\000\000\000\000\000"
 1869      00000000 
 1869      00000000 
 1869      00
 1870 0179 00000000 		.ascii	"\000\000\000\000\000\000\000\000\000\001\001\001\001"
 1870      00000000 
 1870      00010101 
 1870      01
 1871 0186 01010101 		.ascii	"\001\001\001\001\001\001\001\001\001\001\001\001\001"
 1871      01010101 
 1871      01010101 
 1871      01
 1872 0193 01010101 		.ascii	"\001\001\001\001\001\001\001\001\001\001\001\001\001"
 1872      01010101 
 1872      01010101 
ARM GAS  C:\Users\kroko\AppData\Local\Temp\ccNGKpsK.s 			page 35


 1872      01
 1873              		.global	__aeabi_d2f
 1874              		.global	__aeabi_ddiv
 1875              		.global	__aeabi_i2d
 1876              		.ident	"GCC: (Arm GNU Toolchain 14.2.Rel1 (Build arm-14.52)) 14.2.1 20241119"
ARM GAS  C:\Users\kroko\AppData\Local\Temp\ccNGKpsK.s 			page 36


DEFINED SYMBOLS
                            *ABS*:00000000 main.c
C:\Users\kroko\AppData\Local\Temp\ccNGKpsK.s:18     .text.MX_GPIO_Init:00000000 $t
C:\Users\kroko\AppData\Local\Temp\ccNGKpsK.s:23     .text.MX_GPIO_Init:00000000 MX_GPIO_Init
C:\Users\kroko\AppData\Local\Temp\ccNGKpsK.s:145    .text.MX_GPIO_Init:0000012c $d
C:\Users\kroko\AppData\Local\Temp\ccNGKpsK.s:150    .text.MX_DMA_Init:00000000 $t
C:\Users\kroko\AppData\Local\Temp\ccNGKpsK.s:155    .text.MX_DMA_Init:00000000 MX_DMA_Init
C:\Users\kroko\AppData\Local\Temp\ccNGKpsK.s:180    .text.MX_DMA_Init:00000030 $d
C:\Users\kroko\AppData\Local\Temp\ccNGKpsK.s:183    .text.map:00000000 $t
C:\Users\kroko\AppData\Local\Temp\ccNGKpsK.s:189    .text.map:00000000 map
C:\Users\kroko\AppData\Local\Temp\ccNGKpsK.s:214    .rodata.plot.str1.4:00000000 $d
C:\Users\kroko\AppData\Local\Temp\ccNGKpsK.s:233    .text.plot:00000000 $t
C:\Users\kroko\AppData\Local\Temp\ccNGKpsK.s:239    .text.plot:00000000 plot
C:\Users\kroko\AppData\Local\Temp\ccNGKpsK.s:558    .text.plot:000002dc $d
C:\Users\kroko\AppData\Local\Temp\ccNGKpsK.s:1770   .ram2_bss:00000000 BlackImage
C:\Users\kroko\AppData\Local\Temp\ccNGKpsK.s:1819   .bss.hrtc:00000000 hrtc
C:\Users\kroko\AppData\Local\Temp\ccNGKpsK.s:567    .text.plot:000002fc $t
C:\Users\kroko\AppData\Local\Temp\ccNGKpsK.s:807    .text.plot:00000550 $d
C:\Users\kroko\AppData\Local\Temp\ccNGKpsK.s:1791   .bss.adcData:00000000 adcData
C:\Users\kroko\AppData\Local\Temp\ccNGKpsK.s:1798   .bss.mcuVoltage:00000000 mcuVoltage
C:\Users\kroko\AppData\Local\Temp\ccNGKpsK.s:1840   .rodata.dead_batt_26x16:00000000 dead_batt_26x16
C:\Users\kroko\AppData\Local\Temp\ccNGKpsK.s:826    .text.shutdown:00000000 $t
C:\Users\kroko\AppData\Local\Temp\ccNGKpsK.s:832    .text.shutdown:00000000 shutdown
C:\Users\kroko\AppData\Local\Temp\ccNGKpsK.s:890    .text.shutdown:0000007c $d
C:\Users\kroko\AppData\Local\Temp\ccNGKpsK.s:1812   .bss.hspi1:00000000 hspi1
C:\Users\kroko\AppData\Local\Temp\ccNGKpsK.s:896    .text.DS18_INIT:00000000 $t
C:\Users\kroko\AppData\Local\Temp\ccNGKpsK.s:902    .text.DS18_INIT:00000000 DS18_INIT
C:\Users\kroko\AppData\Local\Temp\ccNGKpsK.s:936    .text.DS18_INIT:0000004c $d
C:\Users\kroko\AppData\Local\Temp\ccNGKpsK.s:1784   .bss.temperatureSensor:00000000 temperatureSensor
C:\Users\kroko\AppData\Local\Temp\ccNGKpsK.s:1805   .bss.huart2:00000000 huart2
C:\Users\kroko\AppData\Local\Temp\ccNGKpsK.s:940    .text.DS18_GET:00000000 $t
C:\Users\kroko\AppData\Local\Temp\ccNGKpsK.s:946    .text.DS18_GET:00000000 DS18_GET
C:\Users\kroko\AppData\Local\Temp\ccNGKpsK.s:969    .text.DS18_GET:00000030 $d
C:\Users\kroko\AppData\Local\Temp\ccNGKpsK.s:972    .rodata.set_time.str1.4:00000000 $d
C:\Users\kroko\AppData\Local\Temp\ccNGKpsK.s:976    .text.set_time:00000000 $t
C:\Users\kroko\AppData\Local\Temp\ccNGKpsK.s:982    .text.set_time:00000000 set_time
C:\Users\kroko\AppData\Local\Temp\ccNGKpsK.s:1072   .text.set_time:000000e0 $d
C:\Users\kroko\AppData\Local\Temp\ccNGKpsK.s:1078   .text.USB_CDC_RxHandler:00000000 $t
C:\Users\kroko\AppData\Local\Temp\ccNGKpsK.s:1084   .text.USB_CDC_RxHandler:00000000 USB_CDC_RxHandler
C:\Users\kroko\AppData\Local\Temp\ccNGKpsK.s:1093   .text.HAL_RTCEx_WakeUpTimerEventCallback:00000000 $t
C:\Users\kroko\AppData\Local\Temp\ccNGKpsK.s:1099   .text.HAL_RTCEx_WakeUpTimerEventCallback:00000000 HAL_RTCEx_WakeUpTimerEventCallback
C:\Users\kroko\AppData\Local\Temp\ccNGKpsK.s:1113   .text.HAL_RTCEx_WakeUpTimerEventCallback:00000014 $d
C:\Users\kroko\AppData\Local\Temp\ccNGKpsK.s:1757   .bss.measure:00000000 measure
C:\Users\kroko\AppData\Local\Temp\ccNGKpsK.s:1763   .bss.send_usb:00000000 send_usb
C:\Users\kroko\AppData\Local\Temp\ccNGKpsK.s:1117   .text.HAL_GPIO_EXTI_Callback:00000000 $t
C:\Users\kroko\AppData\Local\Temp\ccNGKpsK.s:1123   .text.HAL_GPIO_EXTI_Callback:00000000 HAL_GPIO_EXTI_Callback
C:\Users\kroko\AppData\Local\Temp\ccNGKpsK.s:1147   .text.HAL_GPIO_EXTI_Callback:00000018 $d
C:\Users\kroko\AppData\Local\Temp\ccNGKpsK.s:1751   .bss.initialise_usb_connection:00000000 initialise_usb_connection
C:\Users\kroko\AppData\Local\Temp\ccNGKpsK.s:1150   .text.Error_Handler:00000000 $t
C:\Users\kroko\AppData\Local\Temp\ccNGKpsK.s:1156   .text.Error_Handler:00000000 Error_Handler
C:\Users\kroko\AppData\Local\Temp\ccNGKpsK.s:1171   .text.MX_SPI1_Init:00000000 $t
C:\Users\kroko\AppData\Local\Temp\ccNGKpsK.s:1176   .text.MX_SPI1_Init:00000000 MX_SPI1_Init
C:\Users\kroko\AppData\Local\Temp\ccNGKpsK.s:1212   .text.MX_SPI1_Init:00000048 $d
C:\Users\kroko\AppData\Local\Temp\ccNGKpsK.s:1216   .text.MX_RTC_Init:00000000 $t
C:\Users\kroko\AppData\Local\Temp\ccNGKpsK.s:1221   .text.MX_RTC_Init:00000000 MX_RTC_Init
C:\Users\kroko\AppData\Local\Temp\ccNGKpsK.s:1295   .text.MX_RTC_Init:000000a4 $d
C:\Users\kroko\AppData\Local\Temp\ccNGKpsK.s:1299   .text.MX_USART2_UART_Init:00000000 $t
ARM GAS  C:\Users\kroko\AppData\Local\Temp\ccNGKpsK.s 			page 37


C:\Users\kroko\AppData\Local\Temp\ccNGKpsK.s:1304   .text.MX_USART2_UART_Init:00000000 MX_USART2_UART_Init
C:\Users\kroko\AppData\Local\Temp\ccNGKpsK.s:1331   .text.MX_USART2_UART_Init:00000030 $d
C:\Users\kroko\AppData\Local\Temp\ccNGKpsK.s:1335   .text.MX_ADC1_Init:00000000 $t
C:\Users\kroko\AppData\Local\Temp\ccNGKpsK.s:1340   .text.MX_ADC1_Init:00000000 MX_ADC1_Init
C:\Users\kroko\AppData\Local\Temp\ccNGKpsK.s:1409   .text.MX_ADC1_Init:0000008c $d
C:\Users\kroko\AppData\Local\Temp\ccNGKpsK.s:1833   .bss.hadc1:00000000 hadc1
C:\Users\kroko\AppData\Local\Temp\ccNGKpsK.s:1414   .text.SystemClock_Config:00000000 $t
C:\Users\kroko\AppData\Local\Temp\ccNGKpsK.s:1420   .text.SystemClock_Config:00000000 SystemClock_Config
C:\Users\kroko\AppData\Local\Temp\ccNGKpsK.s:1480   .text.SystemClock_Config:00000080 $d
C:\Users\kroko\AppData\Local\Temp\ccNGKpsK.s:1483   .text.power_on:00000000 $t
C:\Users\kroko\AppData\Local\Temp\ccNGKpsK.s:1489   .text.power_on:00000000 power_on
C:\Users\kroko\AppData\Local\Temp\ccNGKpsK.s:1504   .text.power_on:00000020 $d
C:\Users\kroko\AppData\Local\Temp\ccNGKpsK.s:1507   .rodata.get_data.str1.4:00000000 $d
C:\Users\kroko\AppData\Local\Temp\ccNGKpsK.s:1511   .text.get_data:00000000 $t
C:\Users\kroko\AppData\Local\Temp\ccNGKpsK.s:1517   .text.get_data:00000000 get_data
C:\Users\kroko\AppData\Local\Temp\ccNGKpsK.s:1576   .text.get_data:000000a0 $d
C:\Users\kroko\AppData\Local\Temp\ccNGKpsK.s:1581   .text.main:00000000 $t
C:\Users\kroko\AppData\Local\Temp\ccNGKpsK.s:1587   .text.main:00000000 main
C:\Users\kroko\AppData\Local\Temp\ccNGKpsK.s:1738   .text.main:00000180 $d
C:\Users\kroko\AppData\Local\Temp\ccNGKpsK.s:1752   .bss.initialise_usb_connection:00000000 $d
C:\Users\kroko\AppData\Local\Temp\ccNGKpsK.s:1758   .bss.measure:00000000 $d
C:\Users\kroko\AppData\Local\Temp\ccNGKpsK.s:1764   .bss.send_usb:00000000 $d
C:\Users\kroko\AppData\Local\Temp\ccNGKpsK.s:1767   .ram2_bss:00000000 $d
C:\Users\kroko\AppData\Local\Temp\ccNGKpsK.s:1777   .bss.temp:00000000 temp
C:\Users\kroko\AppData\Local\Temp\ccNGKpsK.s:1774   .bss.temp:00000000 $d
C:\Users\kroko\AppData\Local\Temp\ccNGKpsK.s:1781   .bss.temperatureSensor:00000000 $d
C:\Users\kroko\AppData\Local\Temp\ccNGKpsK.s:1788   .bss.adcData:00000000 $d
C:\Users\kroko\AppData\Local\Temp\ccNGKpsK.s:1795   .bss.mcuVoltage:00000000 $d
C:\Users\kroko\AppData\Local\Temp\ccNGKpsK.s:1802   .bss.huart2:00000000 $d
C:\Users\kroko\AppData\Local\Temp\ccNGKpsK.s:1809   .bss.hspi1:00000000 $d
C:\Users\kroko\AppData\Local\Temp\ccNGKpsK.s:1816   .bss.hrtc:00000000 $d
C:\Users\kroko\AppData\Local\Temp\ccNGKpsK.s:1826   .bss.hdma_adc1:00000000 hdma_adc1
C:\Users\kroko\AppData\Local\Temp\ccNGKpsK.s:1823   .bss.hdma_adc1:00000000 $d
C:\Users\kroko\AppData\Local\Temp\ccNGKpsK.s:1830   .bss.hadc1:00000000 $d
C:\Users\kroko\AppData\Local\Temp\ccNGKpsK.s:1837   .rodata.dead_batt_26x16:00000000 $d

UNDEFINED SYMBOLS
HAL_GPIO_WritePin
HAL_GPIO_Init
HAL_NVIC_SetPriority
HAL_NVIC_EnableIRQ
EPD_NewImage
EPD_SelectImage
EPD_Clear
q_get
q_len
EPD_DrawLine
sprintf
EPD_SetRotate
EPD_DrawString_EN
HAL_RTCEx_BKUPRead
Font8
__aeabi_i2d
__aeabi_ddiv
__aeabi_d2f
HAL_RTC_GetTime
HAL_RTC_GetDate
ARM GAS  C:\Users\kroko\AppData\Local\Temp\ccNGKpsK.s 			page 38


EPD_DrawDate
EPD_Display_Base
HAL_Delay
EPD_DrawBMP
Font12
Font16
EPD_Sleep
EPD_Exit
HAL_SPI_DeInit
HAL_SuspendTick
HAL_NVIC_DisableIRQ
HAL_RTCEx_GetWakeUpTimer
HAL_RTCEx_SetWakeUpTimer_IT
HAL_PWREx_EnableLowPowerRunMode
HAL_PWREx_EnterSTOP2Mode
DS18B20_Init
DS18B20_InitializationCommand
DS18B20_ReadRom
DS18B20_ReadScratchpad
DS18B20_SkipRom
DS18B20_WriteScratchpad
DS18B20_ConvertT
HAL_GetTick
tick
isClicked
HAL_RTC_SetDate
HAL_RTC_SetTime
CDC_Transmit_FS
MX_USB_DEVICE_IsConnected
HAL_SPI_Init
HAL_RTC_Init
HAL_HalfDuplex_Init
HAL_ADC_Init
HAL_ADCEx_MultiModeConfigChannel
HAL_ADC_ConfigChannel
memset
HAL_PWREx_ControlVoltageScaling
HAL_PWR_EnableBkUpAccess
HAL_RCC_OscConfig
HAL_RCC_ClockConfig
HAL_RCCEx_EnableMSIPLLMode
HAL_RTCEx_DeactivateWakeUpTimer
HAL_ResumeTick
EPD_Init
q_load
q_push
q_save
HAL_Init
MX_USB_DEVICE_Init
HAL_ADC_Start_DMA
q_init
