ARM GAS  C:\Users\kroko\AppData\Local\Temp\ccOEJaQd.s 			page 1


   1              		.cpu cortex-m4
   2              		.arch armv7e-m
   3              		.fpu fpv4-sp-d16
   4              		.eabi_attribute 27, 1
   5              		.eabi_attribute 28, 1
   6              		.eabi_attribute 20, 1
   7              		.eabi_attribute 21, 1
   8              		.eabi_attribute 23, 3
   9              		.eabi_attribute 24, 1
  10              		.eabi_attribute 25, 1
  11              		.eabi_attribute 26, 1
  12              		.eabi_attribute 30, 1
  13              		.eabi_attribute 34, 1
  14              		.eabi_attribute 18, 4
  15              		.file	"queue.c"
  16              		.text
  17              		.section	.text.q_init,"ax",%progbits
  18              		.align	1
  19              		.global	q_init
  20              		.syntax unified
  21              		.thumb
  22              		.thumb_func
  24              	q_init:
  25              		@ args = 0, pretend = 0, frame = 0
  26              		@ frame_needed = 0, uses_anonymous_args = 0
  27              		@ link register save eliminated.
  28 0000 054B     		ldr	r3, .L2
  29 0002 0022     		movs	r2, #0
  30 0004 83F86020 		strb	r2, [r3, #96]
  31 0008 83F86320 		strb	r2, [r3, #99]
  32 000c 0121     		movs	r1, #1
  33 000e 83F86210 		strb	r1, [r3, #98]
  34 0012 83F86120 		strb	r2, [r3, #97]
  35 0016 7047     		bx	lr
  36              	.L3:
  37              		.align	2
  38              	.L2:
  39 0018 00000000 		.word	data_queue
  41              		.section	.text.q_push,"ax",%progbits
  42              		.align	1
  43              		.global	q_push
  44              		.syntax unified
  45              		.thumb
  46              		.thumb_func
  48              	q_push:
  49              		@ args = 0, pretend = 0, frame = 64
  50              		@ frame_needed = 0, uses_anonymous_args = 0
  51 0000 70B5     		push	{r4, r5, r6, lr}
  52 0002 90B0     		sub	sp, sp, #64
  53 0004 0546     		mov	r5, r0
  54 0006 314A     		ldr	r2, .L10
  55 0008 92F86030 		ldrb	r3, [r2, #96]	@ zero_extendqisi2
  56 000c 22F81300 		strh	r0, [r2, r3, lsl #1]	@ movhi
  57 0010 0133     		adds	r3, r3, #1
  58 0012 DBB2     		uxtb	r3, r3
  59 0014 82F86030 		strb	r3, [r2, #96]
  60 0018 92F86310 		ldrb	r1, [r2, #99]	@ zero_extendqisi2
ARM GAS  C:\Users\kroko\AppData\Local\Temp\ccOEJaQd.s 			page 2


  61 001c 0131     		adds	r1, r1, #1
  62 001e 82F86310 		strb	r1, [r2, #99]
  63 0022 2F2B     		cmp	r3, #47
  64 0024 05D9     		bls	.L5
  65 0026 1346     		mov	r3, r2
  66 0028 0022     		movs	r2, #0
  67 002a 83F86220 		strb	r2, [r3, #98]
  68 002e 83F86020 		strb	r2, [r3, #96]
  69              	.L5:
  70 0032 264B     		ldr	r3, .L10
  71 0034 93F86230 		ldrb	r3, [r3, #98]	@ zero_extendqisi2
  72 0038 3BB9     		cbnz	r3, .L6
  73 003a 244B     		ldr	r3, .L10
  74 003c 93F86020 		ldrb	r2, [r3, #96]	@ zero_extendqisi2
  75 0040 83F86120 		strb	r2, [r3, #97]
  76 0044 2F22     		movs	r2, #47
  77 0046 83F86320 		strb	r2, [r3, #99]
  78              	.L6:
  79 004a 0BA9     		add	r1, sp, #44
  80 004c 0024     		movs	r4, #0
  81 004e 0B94     		str	r4, [sp, #44]
  82 0050 4C60     		str	r4, [r1, #4]
  83 0052 8C60     		str	r4, [r1, #8]
  84 0054 CC60     		str	r4, [r1, #12]
  85 0056 0C61     		str	r4, [r1, #16]
  86 0058 0A94     		str	r4, [sp, #40]
  87 005a 1D4E     		ldr	r6, .L10+4
  88 005c 2246     		mov	r2, r4
  89 005e 3046     		mov	r0, r6
  90 0060 FFF7FEFF 		bl	HAL_RTC_GetTime
  91 0064 2246     		mov	r2, r4
  92 0066 0AA9     		add	r1, sp, #40
  93 0068 3046     		mov	r0, r6
  94 006a FFF7FEFF 		bl	HAL_RTC_GetDate
  95 006e 9DF82B30 		ldrb	r3, [sp, #43]	@ zero_extendqisi2
  96 0072 6433     		adds	r3, r3, #100
  97 0074 0693     		str	r3, [sp, #24]
  98 0076 9DF82930 		ldrb	r3, [sp, #41]	@ zero_extendqisi2
  99 007a 013B     		subs	r3, r3, #1
 100 007c 0593     		str	r3, [sp, #20]
 101 007e 9DF82A30 		ldrb	r3, [sp, #42]	@ zero_extendqisi2
 102 0082 0493     		str	r3, [sp, #16]
 103 0084 9DF82C30 		ldrb	r3, [sp, #44]	@ zero_extendqisi2
 104 0088 0393     		str	r3, [sp, #12]
 105 008a 9DF82D30 		ldrb	r3, [sp, #45]	@ zero_extendqisi2
 106 008e 0293     		str	r3, [sp, #8]
 107 0090 9DF82E30 		ldrb	r3, [sp, #46]	@ zero_extendqisi2
 108 0094 0193     		str	r3, [sp, #4]
 109 0096 0123     		movs	r3, #1
 110 0098 0993     		str	r3, [sp, #36]
 111 009a 01A8     		add	r0, sp, #4
 112 009c FFF7FEFF 		bl	mktime
 113 00a0 0446     		mov	r4, r0
 114 00a2 FFF7FEFF 		bl	HAL_PWR_EnableBkUpAccess
 115 00a6 0B4B     		ldr	r3, .L10+8
 116 00a8 1B78     		ldrb	r3, [r3]	@ zero_extendqisi2
 117 00aa 2BB1     		cbz	r3, .L9
ARM GAS  C:\Users\kroko\AppData\Local\Temp\ccOEJaQd.s 			page 3


 118              	.L7:
 119 00ac 2146     		mov	r1, r4
 120 00ae 2846     		mov	r0, r5
 121 00b0 FFF7FEFF 		bl	UDISK_push
 122 00b4 10B0     		add	sp, sp, #64
 123              		@ sp needed
 124 00b6 70BD     		pop	{r4, r5, r6, pc}
 125              	.L9:
 126 00b8 2246     		mov	r2, r4
 127 00ba 0521     		movs	r1, #5
 128 00bc 3046     		mov	r0, r6
 129 00be FFF7FEFF 		bl	HAL_RTCEx_BKUPWrite
 130 00c2 044B     		ldr	r3, .L10+8
 131 00c4 0122     		movs	r2, #1
 132 00c6 1A70     		strb	r2, [r3]
 133 00c8 F0E7     		b	.L7
 134              	.L11:
 135 00ca 00BF     		.align	2
 136              	.L10:
 137 00cc 00000000 		.word	data_queue
 138 00d0 00000000 		.word	hrtc
 139 00d4 00000000 		.word	flag
 141              		.section	.text.q_get,"ax",%progbits
 142              		.align	1
 143              		.global	q_get
 144              		.syntax unified
 145              		.thumb
 146              		.thumb_func
 148              	q_get:
 149              		@ args = 0, pretend = 0, frame = 0
 150              		@ frame_needed = 0, uses_anonymous_args = 0
 151              		@ link register save eliminated.
 152 0000 064B     		ldr	r3, .L14
 153 0002 93F86130 		ldrb	r3, [r3, #97]	@ zero_extendqisi2
 154 0006 1844     		add	r0, r0, r3
 155 0008 C0B2     		uxtb	r0, r0
 156 000a 2F28     		cmp	r0, #47
 157 000c 01D9     		bls	.L13
 158 000e 3038     		subs	r0, r0, #48
 159 0010 C0B2     		uxtb	r0, r0
 160              	.L13:
 161 0012 024B     		ldr	r3, .L14
 162 0014 33F81000 		ldrh	r0, [r3, r0, lsl #1]
 163 0018 7047     		bx	lr
 164              	.L15:
 165 001a 00BF     		.align	2
 166              	.L14:
 167 001c 00000000 		.word	data_queue
 169              		.section	.text.q_save,"ax",%progbits
 170              		.align	1
 171              		.global	q_save
 172              		.syntax unified
 173              		.thumb
 174              		.thumb_func
 176              	q_save:
 177              		@ args = 0, pretend = 0, frame = 0
 178              		@ frame_needed = 0, uses_anonymous_args = 0
ARM GAS  C:\Users\kroko\AppData\Local\Temp\ccOEJaQd.s 			page 4


 179 0000 10B5     		push	{r4, lr}
 180 0002 FFF7FEFF 		bl	HAL_PWR_EnableBkUpAccess
 181 0006 184A     		ldr	r2, .L22
 182 0008 0621     		movs	r1, #6
 183 000a 1848     		ldr	r0, .L22+4
 184 000c FFF7FEFF 		bl	HAL_RTCEx_BKUPWrite
 185 0010 0024     		movs	r4, #0
 186 0012 0EE0     		b	.L17
 187              	.L18:
 188 0014 6300     		lsls	r3, r4, #1
 189 0016 1649     		ldr	r1, .L22+8
 190 0018 31F82420 		ldrh	r2, [r1, r4, lsl #2]
 191 001c 0133     		adds	r3, r3, #1
 192 001e 31F81330 		ldrh	r3, [r1, r3, lsl #1]
 193 0022 43EA0242 		orr	r2, r3, r2, lsl #16
 194 0026 04F10801 		add	r1, r4, #8
 195 002a 1048     		ldr	r0, .L22+4
 196 002c FFF7FEFF 		bl	HAL_RTCEx_BKUPWrite
 197 0030 0134     		adds	r4, r4, #1
 198              	.L17:
 199 0032 172C     		cmp	r4, #23
 200 0034 EEDD     		ble	.L18
 201 0036 0E4A     		ldr	r2, .L22+8
 202 0038 92F86310 		ldrb	r1, [r2, #99]	@ zero_extendqisi2
 203 003c 92F86130 		ldrb	r3, [r2, #97]	@ zero_extendqisi2
 204 0040 1B04     		lsls	r3, r3, #16
 205 0042 43EA0163 		orr	r3, r3, r1, lsl #24
 206 0046 92F86010 		ldrb	r1, [r2, #96]	@ zero_extendqisi2
 207 004a 43EA0123 		orr	r3, r3, r1, lsl #8
 208 004e 92F86220 		ldrb	r2, [r2, #98]	@ zero_extendqisi2
 209 0052 32B1     		cbz	r2, .L20
 210 0054 0122     		movs	r2, #1
 211              	.L19:
 212 0056 1A43     		orrs	r2, r2, r3
 213 0058 0721     		movs	r1, #7
 214 005a 0448     		ldr	r0, .L22+4
 215 005c FFF7FEFF 		bl	HAL_RTCEx_BKUPWrite
 216 0060 10BD     		pop	{r4, pc}
 217              	.L20:
 218 0062 0022     		movs	r2, #0
 219 0064 F7E7     		b	.L19
 220              	.L23:
 221 0066 00BF     		.align	2
 222              	.L22:
 223 0068 FF55FFAA 		.word	-1426106881
 224 006c 00000000 		.word	hrtc
 225 0070 00000000 		.word	data_queue
 227              		.section	.text.q_load,"ax",%progbits
 228              		.align	1
 229              		.global	q_load
 230              		.syntax unified
 231              		.thumb
 232              		.thumb_func
 234              	q_load:
 235              		@ args = 0, pretend = 0, frame = 0
 236              		@ frame_needed = 0, uses_anonymous_args = 0
 237 0000 2DE9F041 		push	{r4, r5, r6, r7, r8, lr}
ARM GAS  C:\Users\kroko\AppData\Local\Temp\ccOEJaQd.s 			page 5


 238 0004 0621     		movs	r1, #6
 239 0006 2248     		ldr	r0, .L30
 240 0008 FFF7FEFF 		bl	HAL_RTCEx_BKUPRead
 241 000c 214B     		ldr	r3, .L30+4
 242 000e 9842     		cmp	r0, r3
 243 0010 3BD1     		bne	.L28
 244 0012 0024     		movs	r4, #0
 245 0014 13E0     		b	.L26
 246              	.L27:
 247 0016 04F10808 		add	r8, r4, #8
 248 001a 1D4F     		ldr	r7, .L30
 249 001c 4146     		mov	r1, r8
 250 001e 3846     		mov	r0, r7
 251 0020 FFF7FEFF 		bl	HAL_RTCEx_BKUPRead
 252 0024 6500     		lsls	r5, r4, #1
 253 0026 000C     		lsrs	r0, r0, #16
 254 0028 1B4E     		ldr	r6, .L30+8
 255 002a 26F81500 		strh	r0, [r6, r5, lsl #1]	@ movhi
 256 002e 4146     		mov	r1, r8
 257 0030 3846     		mov	r0, r7
 258 0032 FFF7FEFF 		bl	HAL_RTCEx_BKUPRead
 259 0036 0135     		adds	r5, r5, #1
 260 0038 26F81500 		strh	r0, [r6, r5, lsl #1]	@ movhi
 261 003c 0134     		adds	r4, r4, #1
 262              	.L26:
 263 003e 172C     		cmp	r4, #23
 264 0040 E9DD     		ble	.L27
 265 0042 134D     		ldr	r5, .L30
 266 0044 0721     		movs	r1, #7
 267 0046 2846     		mov	r0, r5
 268 0048 FFF7FEFF 		bl	HAL_RTCEx_BKUPRead
 269 004c 000E     		lsrs	r0, r0, #24
 270 004e 124C     		ldr	r4, .L30+8
 271 0050 84F86300 		strb	r0, [r4, #99]
 272 0054 0721     		movs	r1, #7
 273 0056 2846     		mov	r0, r5
 274 0058 FFF7FEFF 		bl	HAL_RTCEx_BKUPRead
 275 005c C0F30740 		ubfx	r0, r0, #16, #8
 276 0060 84F86100 		strb	r0, [r4, #97]
 277 0064 0721     		movs	r1, #7
 278 0066 2846     		mov	r0, r5
 279 0068 FFF7FEFF 		bl	HAL_RTCEx_BKUPRead
 280 006c C0F30720 		ubfx	r0, r0, #8, #8
 281 0070 84F86000 		strb	r0, [r4, #96]
 282 0074 0721     		movs	r1, #7
 283 0076 2846     		mov	r0, r5
 284 0078 FFF7FEFF 		bl	HAL_RTCEx_BKUPRead
 285 007c 00F00100 		and	r0, r0, #1
 286 0080 84F86200 		strb	r0, [r4, #98]
 287 0084 0120     		movs	r0, #1
 288              	.L25:
 289 0086 BDE8F081 		pop	{r4, r5, r6, r7, r8, pc}
 290              	.L28:
 291 008a 0020     		movs	r0, #0
 292 008c FBE7     		b	.L25
 293              	.L31:
 294 008e 00BF     		.align	2
ARM GAS  C:\Users\kroko\AppData\Local\Temp\ccOEJaQd.s 			page 6


 295              	.L30:
 296 0090 00000000 		.word	hrtc
 297 0094 FF55FFAA 		.word	-1426106881
 298 0098 00000000 		.word	data_queue
 300              		.section	.text.q_len,"ax",%progbits
 301              		.align	1
 302              		.global	q_len
 303              		.syntax unified
 304              		.thumb
 305              		.thumb_func
 307              	q_len:
 308              		@ args = 0, pretend = 0, frame = 0
 309              		@ frame_needed = 0, uses_anonymous_args = 0
 310              		@ link register save eliminated.
 311 0000 014B     		ldr	r3, .L33
 312 0002 93F86300 		ldrb	r0, [r3, #99]	@ zero_extendqisi2
 313 0006 7047     		bx	lr
 314              	.L34:
 315              		.align	2
 316              	.L33:
 317 0008 00000000 		.word	data_queue
 319              		.section	.bss.flag,"aw",%nobits
 322              	flag:
 323 0000 00       		.space	1
 324              		.global	data_queue
 325              		.section	.bss.data_queue,"aw",%nobits
 326              		.align	2
 329              	data_queue:
 330 0000 00000000 		.space	100
 330      00000000 
 330      00000000 
 330      00000000 
 330      00000000 
 331              		.ident	"GCC: (Arm GNU Toolchain 14.2.Rel1 (Build arm-14.52)) 14.2.1 20241119"
ARM GAS  C:\Users\kroko\AppData\Local\Temp\ccOEJaQd.s 			page 7

