ARM GAS  C:\Users\kroko\AppData\Local\Temp\cc17ao3G.s 			page 1


   1              		.cpu cortex-m4
   2              		.arch armv7e-m
   3              		.fpu fpv4-sp-d16
   4              		.eabi_attribute 27, 1
   5              		.eabi_attribute 28, 1
   6              		.eabi_attribute 20, 1
   7              		.eabi_attribute 21, 1
   8              		.eabi_attribute 23, 3
   9              		.eabi_attribute 24, 1
  10              		.eabi_attribute 25, 1
  11              		.eabi_attribute 26, 1
  12              		.eabi_attribute 30, 1
  13              		.eabi_attribute 34, 1
  14              		.eabi_attribute 18, 4
  15              		.file	"stm32l4xx_it.c"
  16              		.text
  17              		.section	.text.NMI_Handler,"ax",%progbits
  18              		.align	1
  19              		.global	NMI_Handler
  20              		.syntax unified
  21              		.thumb
  22              		.thumb_func
  24              	NMI_Handler:
  25              		@ Volatile: function does not return.
  26              		@ args = 0, pretend = 0, frame = 0
  27              		@ frame_needed = 0, uses_anonymous_args = 0
  28              		@ link register save eliminated.
  29              	.L2:
  30 0000 FEE7     		b	.L2
  32              		.section	.text.HardFault_Handler,"ax",%progbits
  33              		.align	1
  34              		.global	HardFault_Handler
  35              		.syntax unified
  36              		.thumb
  37              		.thumb_func
  39              	HardFault_Handler:
  40              		@ Volatile: function does not return.
  41              		@ args = 0, pretend = 0, frame = 0
  42              		@ frame_needed = 0, uses_anonymous_args = 0
  43              		@ link register save eliminated.
  44              	.L4:
  45 0000 FEE7     		b	.L4
  47              		.section	.text.MemManage_Handler,"ax",%progbits
  48              		.align	1
  49              		.global	MemManage_Handler
  50              		.syntax unified
  51              		.thumb
  52              		.thumb_func
  54              	MemManage_Handler:
  55              		@ Volatile: function does not return.
  56              		@ args = 0, pretend = 0, frame = 0
  57              		@ frame_needed = 0, uses_anonymous_args = 0
  58              		@ link register save eliminated.
  59              	.L6:
  60 0000 FEE7     		b	.L6
  62              		.section	.text.BusFault_Handler,"ax",%progbits
  63              		.align	1
ARM GAS  C:\Users\kroko\AppData\Local\Temp\cc17ao3G.s 			page 2


  64              		.global	BusFault_Handler
  65              		.syntax unified
  66              		.thumb
  67              		.thumb_func
  69              	BusFault_Handler:
  70              		@ Volatile: function does not return.
  71              		@ args = 0, pretend = 0, frame = 0
  72              		@ frame_needed = 0, uses_anonymous_args = 0
  73              		@ link register save eliminated.
  74              	.L8:
  75 0000 FEE7     		b	.L8
  77              		.section	.text.UsageFault_Handler,"ax",%progbits
  78              		.align	1
  79              		.global	UsageFault_Handler
  80              		.syntax unified
  81              		.thumb
  82              		.thumb_func
  84              	UsageFault_Handler:
  85              		@ Volatile: function does not return.
  86              		@ args = 0, pretend = 0, frame = 0
  87              		@ frame_needed = 0, uses_anonymous_args = 0
  88              		@ link register save eliminated.
  89              	.L10:
  90 0000 FEE7     		b	.L10
  92              		.section	.text.SVC_Handler,"ax",%progbits
  93              		.align	1
  94              		.global	SVC_Handler
  95              		.syntax unified
  96              		.thumb
  97              		.thumb_func
  99              	SVC_Handler:
 100              		@ args = 0, pretend = 0, frame = 0
 101              		@ frame_needed = 0, uses_anonymous_args = 0
 102              		@ link register save eliminated.
 103 0000 7047     		bx	lr
 105              		.section	.text.DebugMon_Handler,"ax",%progbits
 106              		.align	1
 107              		.global	DebugMon_Handler
 108              		.syntax unified
 109              		.thumb
 110              		.thumb_func
 112              	DebugMon_Handler:
 113              		@ args = 0, pretend = 0, frame = 0
 114              		@ frame_needed = 0, uses_anonymous_args = 0
 115              		@ link register save eliminated.
 116 0000 7047     		bx	lr
 118              		.section	.text.PendSV_Handler,"ax",%progbits
 119              		.align	1
 120              		.global	PendSV_Handler
 121              		.syntax unified
 122              		.thumb
 123              		.thumb_func
 125              	PendSV_Handler:
 126              		@ args = 0, pretend = 0, frame = 0
 127              		@ frame_needed = 0, uses_anonymous_args = 0
 128              		@ link register save eliminated.
 129 0000 7047     		bx	lr
ARM GAS  C:\Users\kroko\AppData\Local\Temp\cc17ao3G.s 			page 3


 131              		.section	.text.SysTick_Handler,"ax",%progbits
 132              		.align	1
 133              		.global	SysTick_Handler
 134              		.syntax unified
 135              		.thumb
 136              		.thumb_func
 138              	SysTick_Handler:
 139              		@ args = 0, pretend = 0, frame = 0
 140              		@ frame_needed = 0, uses_anonymous_args = 0
 141 0000 08B5     		push	{r3, lr}
 142 0002 FFF7FEFF 		bl	HAL_IncTick
 143 0006 08BD     		pop	{r3, pc}
 145              		.section	.text.RTC_WKUP_IRQHandler,"ax",%progbits
 146              		.align	1
 147              		.global	RTC_WKUP_IRQHandler
 148              		.syntax unified
 149              		.thumb
 150              		.thumb_func
 152              	RTC_WKUP_IRQHandler:
 153              		@ args = 0, pretend = 0, frame = 0
 154              		@ frame_needed = 0, uses_anonymous_args = 0
 155 0000 08B5     		push	{r3, lr}
 156 0002 0248     		ldr	r0, .L18
 157 0004 FFF7FEFF 		bl	HAL_RTCEx_WakeUpTimerIRQHandler
 158 0008 08BD     		pop	{r3, pc}
 159              	.L19:
 160 000a 00BF     		.align	2
 161              	.L18:
 162 000c 00000000 		.word	hrtc
 164              		.section	.text.EXTI0_IRQHandler,"ax",%progbits
 165              		.align	1
 166              		.global	EXTI0_IRQHandler
 167              		.syntax unified
 168              		.thumb
 169              		.thumb_func
 171              	EXTI0_IRQHandler:
 172              		@ args = 0, pretend = 0, frame = 0
 173              		@ frame_needed = 0, uses_anonymous_args = 0
 174 0000 08B5     		push	{r3, lr}
 175 0002 0120     		movs	r0, #1
 176 0004 FFF7FEFF 		bl	HAL_GPIO_EXTI_IRQHandler
 177 0008 08BD     		pop	{r3, pc}
 179              		.section	.text.DMA1_Channel1_IRQHandler,"ax",%progbits
 180              		.align	1
 181              		.global	DMA1_Channel1_IRQHandler
 182              		.syntax unified
 183              		.thumb
 184              		.thumb_func
 186              	DMA1_Channel1_IRQHandler:
 187              		@ args = 0, pretend = 0, frame = 0
 188              		@ frame_needed = 0, uses_anonymous_args = 0
 189 0000 08B5     		push	{r3, lr}
 190 0002 0248     		ldr	r0, .L24
 191 0004 FFF7FEFF 		bl	HAL_DMA_IRQHandler
 192 0008 08BD     		pop	{r3, pc}
 193              	.L25:
 194 000a 00BF     		.align	2
ARM GAS  C:\Users\kroko\AppData\Local\Temp\cc17ao3G.s 			page 4


 195              	.L24:
 196 000c 00000000 		.word	hdma_adc1
 198              		.section	.text.ADC1_2_IRQHandler,"ax",%progbits
 199              		.align	1
 200              		.global	ADC1_2_IRQHandler
 201              		.syntax unified
 202              		.thumb
 203              		.thumb_func
 205              	ADC1_2_IRQHandler:
 206              		@ args = 0, pretend = 0, frame = 0
 207              		@ frame_needed = 0, uses_anonymous_args = 0
 208 0000 08B5     		push	{r3, lr}
 209 0002 0248     		ldr	r0, .L28
 210 0004 FFF7FEFF 		bl	HAL_ADC_IRQHandler
 211 0008 08BD     		pop	{r3, pc}
 212              	.L29:
 213 000a 00BF     		.align	2
 214              	.L28:
 215 000c 00000000 		.word	hadc1
 217              		.section	.text.EXTI9_5_IRQHandler,"ax",%progbits
 218              		.align	1
 219              		.global	EXTI9_5_IRQHandler
 220              		.syntax unified
 221              		.thumb
 222              		.thumb_func
 224              	EXTI9_5_IRQHandler:
 225              		@ args = 0, pretend = 0, frame = 0
 226              		@ frame_needed = 0, uses_anonymous_args = 0
 227 0000 08B5     		push	{r3, lr}
 228 0002 2020     		movs	r0, #32
 229 0004 FFF7FEFF 		bl	HAL_GPIO_EXTI_IRQHandler
 230 0008 08BD     		pop	{r3, pc}
 232              		.section	.text.USB_IRQHandler,"ax",%progbits
 233              		.align	1
 234              		.global	USB_IRQHandler
 235              		.syntax unified
 236              		.thumb
 237              		.thumb_func
 239              	USB_IRQHandler:
 240              		@ args = 0, pretend = 0, frame = 0
 241              		@ frame_needed = 0, uses_anonymous_args = 0
 242 0000 08B5     		push	{r3, lr}
 243 0002 0248     		ldr	r0, .L34
 244 0004 FFF7FEFF 		bl	HAL_PCD_IRQHandler
 245 0008 08BD     		pop	{r3, pc}
 246              	.L35:
 247 000a 00BF     		.align	2
 248              	.L34:
 249 000c 00000000 		.word	hpcd_USB_FS
 251              		.ident	"GCC: (Arm GNU Toolchain 14.2.Rel1 (Build arm-14.52)) 14.2.1 20241119"
ARM GAS  C:\Users\kroko\AppData\Local\Temp\cc17ao3G.s 			page 5

