ARM GAS  C:\Users\kroko\AppData\Local\Temp\ccD7coBo.s 			page 1


   1              		.cpu cortex-m4
   2              		.arch armv7e-m
   3              		.fpu fpv4-sp-d16
   4              		.eabi_attribute 27, 1
   5              		.eabi_attribute 28, 1
   6              		.eabi_attribute 20, 1
   7              		.eabi_attribute 21, 1
   8              		.eabi_attribute 23, 3
   9              		.eabi_attribute 24, 1
  10              		.eabi_attribute 25, 1
  11              		.eabi_attribute 26, 1
  12              		.eabi_attribute 30, 1
  13              		.eabi_attribute 34, 1
  14              		.eabi_attribute 18, 4
  15              		.file	"stm32l4xx_hal_uart.c"
  16              		.text
  17              		.section	.text.UART_EndTxTransfer,"ax",%progbits
  18              		.align	1
  19              		.syntax unified
  20              		.thumb
  21              		.thumb_func
  23              	UART_EndTxTransfer:
  24              		@ args = 0, pretend = 0, frame = 0
  25              		@ frame_needed = 0, uses_anonymous_args = 0
  26              		@ link register save eliminated.
  27              	.L2:
  28 0000 0268     		ldr	r2, [r0]
  29              		.syntax unified
  30              	@ 1155 "Drivers/CMSIS/Include/cmsis_gcc.h" 1
  31 0002 52E8003F 		ldrex r3, [r2]
  32              	@ 0 "" 2
  33              		.thumb
  34              		.syntax unified
  35 0006 23F0C003 		bic	r3, r3, #192
  36              		.syntax unified
  37              	@ 1206 "Drivers/CMSIS/Include/cmsis_gcc.h" 1
  38 000a 42E80031 		strex r1, r3, [r2]
  39              	@ 0 "" 2
  40              		.thumb
  41              		.syntax unified
  42 000e 0029     		cmp	r1, #0
  43 0010 F6D1     		bne	.L2
  44 0012 2023     		movs	r3, #32
  45 0014 C367     		str	r3, [r0, #124]
  46 0016 7047     		bx	lr
  48              		.section	.text.UART_EndRxTransfer,"ax",%progbits
  49              		.align	1
  50              		.syntax unified
  51              		.thumb
  52              		.thumb_func
  54              	UART_EndRxTransfer:
  55              		@ args = 0, pretend = 0, frame = 0
  56              		@ frame_needed = 0, uses_anonymous_args = 0
  57              		@ link register save eliminated.
  58              	.L4:
  59 0000 0268     		ldr	r2, [r0]
  60              		.syntax unified
ARM GAS  C:\Users\kroko\AppData\Local\Temp\ccD7coBo.s 			page 2


  61              	@ 1155 "Drivers/CMSIS/Include/cmsis_gcc.h" 1
  62 0002 52E8003F 		ldrex r3, [r2]
  63              	@ 0 "" 2
  64              		.thumb
  65              		.syntax unified
  66 0006 23F49073 		bic	r3, r3, #288
  67              		.syntax unified
  68              	@ 1206 "Drivers/CMSIS/Include/cmsis_gcc.h" 1
  69 000a 42E80031 		strex r1, r3, [r2]
  70              	@ 0 "" 2
  71              		.thumb
  72              		.syntax unified
  73 000e 0029     		cmp	r1, #0
  74 0010 F6D1     		bne	.L4
  75              	.L5:
  76 0012 0268     		ldr	r2, [r0]
  77 0014 02F10803 		add	r3, r2, #8
  78              		.syntax unified
  79              	@ 1155 "Drivers/CMSIS/Include/cmsis_gcc.h" 1
  80 0018 53E8003F 		ldrex r3, [r3]
  81              	@ 0 "" 2
  82              		.thumb
  83              		.syntax unified
  84 001c 23F00103 		bic	r3, r3, #1
  85 0020 0832     		adds	r2, r2, #8
  86              		.syntax unified
  87              	@ 1206 "Drivers/CMSIS/Include/cmsis_gcc.h" 1
  88 0022 42E80031 		strex r1, r3, [r2]
  89              	@ 0 "" 2
  90              		.thumb
  91              		.syntax unified
  92 0026 0029     		cmp	r1, #0
  93 0028 F3D1     		bne	.L5
  94 002a 036E     		ldr	r3, [r0, #96]
  95 002c 012B     		cmp	r3, #1
  96 002e 06D0     		beq	.L7
  97              	.L6:
  98 0030 2023     		movs	r3, #32
  99 0032 C0F88030 		str	r3, [r0, #128]
 100 0036 0023     		movs	r3, #0
 101 0038 0366     		str	r3, [r0, #96]
 102 003a 8366     		str	r3, [r0, #104]
 103 003c 7047     		bx	lr
 104              	.L7:
 105 003e 0268     		ldr	r2, [r0]
 106              		.syntax unified
 107              	@ 1155 "Drivers/CMSIS/Include/cmsis_gcc.h" 1
 108 0040 52E8003F 		ldrex r3, [r2]
 109              	@ 0 "" 2
 110              		.thumb
 111              		.syntax unified
 112 0044 23F01003 		bic	r3, r3, #16
 113              		.syntax unified
 114              	@ 1206 "Drivers/CMSIS/Include/cmsis_gcc.h" 1
 115 0048 42E80031 		strex r1, r3, [r2]
 116              	@ 0 "" 2
 117              		.thumb
ARM GAS  C:\Users\kroko\AppData\Local\Temp\ccD7coBo.s 			page 3


 118              		.syntax unified
 119 004c 0029     		cmp	r1, #0
 120 004e F6D1     		bne	.L7
 121 0050 EEE7     		b	.L6
 123              		.section	.text.UART_TxISR_8BIT,"ax",%progbits
 124              		.align	1
 125              		.syntax unified
 126              		.thumb
 127              		.thumb_func
 129              	UART_TxISR_8BIT:
 130              		@ args = 0, pretend = 0, frame = 0
 131              		@ frame_needed = 0, uses_anonymous_args = 0
 132              		@ link register save eliminated.
 133 0000 C36F     		ldr	r3, [r0, #124]
 134 0002 212B     		cmp	r3, #33
 135 0004 00D0     		beq	.L13
 136              	.L8:
 137 0006 7047     		bx	lr
 138              	.L13:
 139 0008 B0F85230 		ldrh	r3, [r0, #82]
 140 000c 9BB2     		uxth	r3, r3
 141 000e 93B9     		cbnz	r3, .L10
 142              	.L11:
 143 0010 0268     		ldr	r2, [r0]
 144              		.syntax unified
 145              	@ 1155 "Drivers/CMSIS/Include/cmsis_gcc.h" 1
 146 0012 52E8003F 		ldrex r3, [r2]
 147              	@ 0 "" 2
 148              		.thumb
 149              		.syntax unified
 150 0016 23F08003 		bic	r3, r3, #128
 151              		.syntax unified
 152              	@ 1206 "Drivers/CMSIS/Include/cmsis_gcc.h" 1
 153 001a 42E80031 		strex r1, r3, [r2]
 154              	@ 0 "" 2
 155              		.thumb
 156              		.syntax unified
 157 001e 0029     		cmp	r1, #0
 158 0020 F6D1     		bne	.L11
 159              	.L12:
 160 0022 0268     		ldr	r2, [r0]
 161              		.syntax unified
 162              	@ 1155 "Drivers/CMSIS/Include/cmsis_gcc.h" 1
 163 0024 52E8003F 		ldrex r3, [r2]
 164              	@ 0 "" 2
 165              		.thumb
 166              		.syntax unified
 167 0028 43F04003 		orr	r3, r3, #64
 168              		.syntax unified
 169              	@ 1206 "Drivers/CMSIS/Include/cmsis_gcc.h" 1
 170 002c 42E80031 		strex r1, r3, [r2]
 171              	@ 0 "" 2
 172              		.thumb
 173              		.syntax unified
 174 0030 0029     		cmp	r1, #0
 175 0032 F6D1     		bne	.L12
 176 0034 7047     		bx	lr
ARM GAS  C:\Users\kroko\AppData\Local\Temp\ccD7coBo.s 			page 4


 177              	.L10:
 178 0036 C36C     		ldr	r3, [r0, #76]
 179 0038 1A78     		ldrb	r2, [r3]	@ zero_extendqisi2
 180 003a 0368     		ldr	r3, [r0]
 181 003c 1A85     		strh	r2, [r3, #40]	@ movhi
 182 003e C36C     		ldr	r3, [r0, #76]
 183 0040 0133     		adds	r3, r3, #1
 184 0042 C364     		str	r3, [r0, #76]
 185 0044 B0F85230 		ldrh	r3, [r0, #82]
 186 0048 9BB2     		uxth	r3, r3
 187 004a 013B     		subs	r3, r3, #1
 188 004c 9BB2     		uxth	r3, r3
 189 004e A0F85230 		strh	r3, [r0, #82]	@ movhi
 190 0052 D8E7     		b	.L8
 192              		.section	.text.UART_TxISR_16BIT,"ax",%progbits
 193              		.align	1
 194              		.syntax unified
 195              		.thumb
 196              		.thumb_func
 198              	UART_TxISR_16BIT:
 199              		@ args = 0, pretend = 0, frame = 0
 200              		@ frame_needed = 0, uses_anonymous_args = 0
 201              		@ link register save eliminated.
 202 0000 C36F     		ldr	r3, [r0, #124]
 203 0002 212B     		cmp	r3, #33
 204 0004 00D0     		beq	.L19
 205              	.L14:
 206 0006 7047     		bx	lr
 207              	.L19:
 208 0008 B0F85230 		ldrh	r3, [r0, #82]
 209 000c 9BB2     		uxth	r3, r3
 210 000e 93B9     		cbnz	r3, .L16
 211              	.L17:
 212 0010 0268     		ldr	r2, [r0]
 213              		.syntax unified
 214              	@ 1155 "Drivers/CMSIS/Include/cmsis_gcc.h" 1
 215 0012 52E8003F 		ldrex r3, [r2]
 216              	@ 0 "" 2
 217              		.thumb
 218              		.syntax unified
 219 0016 23F08003 		bic	r3, r3, #128
 220              		.syntax unified
 221              	@ 1206 "Drivers/CMSIS/Include/cmsis_gcc.h" 1
 222 001a 42E80031 		strex r1, r3, [r2]
 223              	@ 0 "" 2
 224              		.thumb
 225              		.syntax unified
 226 001e 0029     		cmp	r1, #0
 227 0020 F6D1     		bne	.L17
 228              	.L18:
 229 0022 0268     		ldr	r2, [r0]
 230              		.syntax unified
 231              	@ 1155 "Drivers/CMSIS/Include/cmsis_gcc.h" 1
 232 0024 52E8003F 		ldrex r3, [r2]
 233              	@ 0 "" 2
 234              		.thumb
 235              		.syntax unified
ARM GAS  C:\Users\kroko\AppData\Local\Temp\ccD7coBo.s 			page 5


 236 0028 43F04003 		orr	r3, r3, #64
 237              		.syntax unified
 238              	@ 1206 "Drivers/CMSIS/Include/cmsis_gcc.h" 1
 239 002c 42E80031 		strex r1, r3, [r2]
 240              	@ 0 "" 2
 241              		.thumb
 242              		.syntax unified
 243 0030 0029     		cmp	r1, #0
 244 0032 F6D1     		bne	.L18
 245 0034 7047     		bx	lr
 246              	.L16:
 247 0036 C36C     		ldr	r3, [r0, #76]
 248 0038 1B88     		ldrh	r3, [r3]
 249 003a 0268     		ldr	r2, [r0]
 250 003c C3F30803 		ubfx	r3, r3, #0, #9
 251 0040 1385     		strh	r3, [r2, #40]	@ movhi
 252 0042 C36C     		ldr	r3, [r0, #76]
 253 0044 0233     		adds	r3, r3, #2
 254 0046 C364     		str	r3, [r0, #76]
 255 0048 B0F85230 		ldrh	r3, [r0, #82]
 256 004c 9BB2     		uxth	r3, r3
 257 004e 013B     		subs	r3, r3, #1
 258 0050 9BB2     		uxth	r3, r3
 259 0052 A0F85230 		strh	r3, [r0, #82]	@ movhi
 260 0056 D6E7     		b	.L14
 262              		.section	.text.HAL_UART_MspInit,"ax",%progbits
 263              		.align	1
 264              		.weak	HAL_UART_MspInit
 265              		.syntax unified
 266              		.thumb
 267              		.thumb_func
 269              	HAL_UART_MspInit:
 270              		@ args = 0, pretend = 0, frame = 0
 271              		@ frame_needed = 0, uses_anonymous_args = 0
 272              		@ link register save eliminated.
 273 0000 7047     		bx	lr
 275              		.section	.text.HAL_UART_MspDeInit,"ax",%progbits
 276              		.align	1
 277              		.weak	HAL_UART_MspDeInit
 278              		.syntax unified
 279              		.thumb
 280              		.thumb_func
 282              	HAL_UART_MspDeInit:
 283              		@ args = 0, pretend = 0, frame = 0
 284              		@ frame_needed = 0, uses_anonymous_args = 0
 285              		@ link register save eliminated.
 286 0000 7047     		bx	lr
 288              		.section	.text.HAL_UART_DeInit,"ax",%progbits
 289              		.align	1
 290              		.global	HAL_UART_DeInit
 291              		.syntax unified
 292              		.thumb
 293              		.thumb_func
 295              	HAL_UART_DeInit:
 296              		@ args = 0, pretend = 0, frame = 0
 297              		@ frame_needed = 0, uses_anonymous_args = 0
 298 0000 E0B1     		cbz	r0, .L24
ARM GAS  C:\Users\kroko\AppData\Local\Temp\ccD7coBo.s 			page 6


 299 0002 38B5     		push	{r3, r4, r5, lr}
 300 0004 0546     		mov	r5, r0
 301 0006 2423     		movs	r3, #36
 302 0008 C367     		str	r3, [r0, #124]
 303 000a 0268     		ldr	r2, [r0]
 304 000c 1368     		ldr	r3, [r2]
 305 000e 23F00103 		bic	r3, r3, #1
 306 0012 1360     		str	r3, [r2]
 307 0014 0368     		ldr	r3, [r0]
 308 0016 0024     		movs	r4, #0
 309 0018 1C60     		str	r4, [r3]
 310 001a 0368     		ldr	r3, [r0]
 311 001c 5C60     		str	r4, [r3, #4]
 312 001e 0368     		ldr	r3, [r0]
 313 0020 9C60     		str	r4, [r3, #8]
 314 0022 FFF7FEFF 		bl	HAL_UART_MspDeInit
 315 0026 C5F88440 		str	r4, [r5, #132]
 316 002a EC67     		str	r4, [r5, #124]
 317 002c C5F88040 		str	r4, [r5, #128]
 318 0030 2C66     		str	r4, [r5, #96]
 319 0032 6C66     		str	r4, [r5, #100]
 320 0034 85F87840 		strb	r4, [r5, #120]
 321 0038 2046     		mov	r0, r4
 322 003a 38BD     		pop	{r3, r4, r5, pc}
 323              	.L24:
 324 003c 0120     		movs	r0, #1
 325 003e 7047     		bx	lr
 327              		.section	.text.HAL_UART_Transmit_IT,"ax",%progbits
 328              		.align	1
 329              		.global	HAL_UART_Transmit_IT
 330              		.syntax unified
 331              		.thumb
 332              		.thumb_func
 334              	HAL_UART_Transmit_IT:
 335              		@ args = 0, pretend = 0, frame = 0
 336              		@ frame_needed = 0, uses_anonymous_args = 0
 337              		@ link register save eliminated.
 338 0000 C36F     		ldr	r3, [r0, #124]
 339 0002 202B     		cmp	r3, #32
 340 0004 23D1     		bne	.L34
 341 0006 21B3     		cbz	r1, .L35
 342 0008 2AB3     		cbz	r2, .L36
 343 000a C164     		str	r1, [r0, #76]
 344 000c A0F85020 		strh	r2, [r0, #80]	@ movhi
 345 0010 A0F85220 		strh	r2, [r0, #82]	@ movhi
 346 0014 0023     		movs	r3, #0
 347 0016 C366     		str	r3, [r0, #108]
 348 0018 C0F88430 		str	r3, [r0, #132]
 349 001c 2123     		movs	r3, #33
 350 001e C367     		str	r3, [r0, #124]
 351 0020 8368     		ldr	r3, [r0, #8]
 352 0022 B3F5805F 		cmp	r3, #4096
 353 0026 0CD0     		beq	.L37
 354              	.L31:
 355 0028 0C4B     		ldr	r3, .L38
 356 002a C366     		str	r3, [r0, #108]
 357              	.L33:
ARM GAS  C:\Users\kroko\AppData\Local\Temp\ccD7coBo.s 			page 7


 358 002c 0268     		ldr	r2, [r0]
 359              		.syntax unified
 360              	@ 1155 "Drivers/CMSIS/Include/cmsis_gcc.h" 1
 361 002e 52E8003F 		ldrex r3, [r2]
 362              	@ 0 "" 2
 363              		.thumb
 364              		.syntax unified
 365 0032 43F08003 		orr	r3, r3, #128
 366              		.syntax unified
 367              	@ 1206 "Drivers/CMSIS/Include/cmsis_gcc.h" 1
 368 0036 42E80031 		strex r1, r3, [r2]
 369              	@ 0 "" 2
 370              		.thumb
 371              		.syntax unified
 372 003a 0029     		cmp	r1, #0
 373 003c F6D1     		bne	.L33
 374 003e 0020     		movs	r0, #0
 375 0040 7047     		bx	lr
 376              	.L37:
 377 0042 0369     		ldr	r3, [r0, #16]
 378 0044 002B     		cmp	r3, #0
 379 0046 EFD1     		bne	.L31
 380 0048 054B     		ldr	r3, .L38+4
 381 004a C366     		str	r3, [r0, #108]
 382 004c EEE7     		b	.L33
 383              	.L34:
 384 004e 0220     		movs	r0, #2
 385 0050 7047     		bx	lr
 386              	.L35:
 387 0052 0120     		movs	r0, #1
 388 0054 7047     		bx	lr
 389              	.L36:
 390 0056 0120     		movs	r0, #1
 391 0058 7047     		bx	lr
 392              	.L39:
 393 005a 00BF     		.align	2
 394              	.L38:
 395 005c 00000000 		.word	UART_TxISR_8BIT
 396 0060 00000000 		.word	UART_TxISR_16BIT
 398              		.section	.text.HAL_UART_Transmit_DMA,"ax",%progbits
 399              		.align	1
 400              		.global	HAL_UART_Transmit_DMA
 401              		.syntax unified
 402              		.thumb
 403              		.thumb_func
 405              	HAL_UART_Transmit_DMA:
 406              		@ args = 0, pretend = 0, frame = 0
 407              		@ frame_needed = 0, uses_anonymous_args = 0
 408 0000 1346     		mov	r3, r2
 409 0002 C26F     		ldr	r2, [r0, #124]
 410 0004 202A     		cmp	r2, #32
 411 0006 3BD1     		bne	.L44
 412 0008 10B5     		push	{r4, lr}
 413 000a 0446     		mov	r4, r0
 414 000c 0029     		cmp	r1, #0
 415 000e 39D0     		beq	.L45
 416 0010 002B     		cmp	r3, #0
ARM GAS  C:\Users\kroko\AppData\Local\Temp\ccD7coBo.s 			page 8


 417 0012 39D0     		beq	.L46
 418 0014 C164     		str	r1, [r0, #76]
 419 0016 A0F85030 		strh	r3, [r0, #80]	@ movhi
 420 001a A0F85230 		strh	r3, [r0, #82]	@ movhi
 421 001e 0022     		movs	r2, #0
 422 0020 C0F88420 		str	r2, [r0, #132]
 423 0024 2122     		movs	r2, #33
 424 0026 C267     		str	r2, [r0, #124]
 425 0028 026F     		ldr	r2, [r0, #112]
 426 002a C2B1     		cbz	r2, .L42
 427 002c 1749     		ldr	r1, .L51
 428 002e D162     		str	r1, [r2, #44]
 429 0030 026F     		ldr	r2, [r0, #112]
 430 0032 1749     		ldr	r1, .L51+4
 431 0034 1163     		str	r1, [r2, #48]
 432 0036 026F     		ldr	r2, [r0, #112]
 433 0038 1649     		ldr	r1, .L51+8
 434 003a 5163     		str	r1, [r2, #52]
 435 003c 026F     		ldr	r2, [r0, #112]
 436 003e 0021     		movs	r1, #0
 437 0040 9163     		str	r1, [r2, #56]
 438 0042 0268     		ldr	r2, [r0]
 439 0044 2832     		adds	r2, r2, #40
 440 0046 C16C     		ldr	r1, [r0, #76]
 441 0048 006F     		ldr	r0, [r0, #112]
 442 004a FFF7FEFF 		bl	HAL_DMA_Start_IT
 443 004e 30B1     		cbz	r0, .L42
 444 0050 1023     		movs	r3, #16
 445 0052 C4F88430 		str	r3, [r4, #132]
 446 0056 2023     		movs	r3, #32
 447 0058 E367     		str	r3, [r4, #124]
 448 005a 0120     		movs	r0, #1
 449 005c 0FE0     		b	.L41
 450              	.L42:
 451 005e 2368     		ldr	r3, [r4]
 452 0060 4022     		movs	r2, #64
 453 0062 1A62     		str	r2, [r3, #32]
 454              	.L43:
 455 0064 2268     		ldr	r2, [r4]
 456 0066 02F10803 		add	r3, r2, #8
 457              		.syntax unified
 458              	@ 1155 "Drivers/CMSIS/Include/cmsis_gcc.h" 1
 459 006a 53E8003F 		ldrex r3, [r3]
 460              	@ 0 "" 2
 461              		.thumb
 462              		.syntax unified
 463 006e 43F08003 		orr	r3, r3, #128
 464 0072 0832     		adds	r2, r2, #8
 465              		.syntax unified
 466              	@ 1206 "Drivers/CMSIS/Include/cmsis_gcc.h" 1
 467 0074 42E80031 		strex r1, r3, [r2]
 468              	@ 0 "" 2
 469              		.thumb
 470              		.syntax unified
 471 0078 0029     		cmp	r1, #0
 472 007a F3D1     		bne	.L43
 473 007c 0020     		movs	r0, #0
ARM GAS  C:\Users\kroko\AppData\Local\Temp\ccD7coBo.s 			page 9


 474              	.L41:
 475 007e 10BD     		pop	{r4, pc}
 476              	.L44:
 477 0080 0220     		movs	r0, #2
 478 0082 7047     		bx	lr
 479              	.L45:
 480 0084 0120     		movs	r0, #1
 481 0086 FAE7     		b	.L41
 482              	.L46:
 483 0088 0120     		movs	r0, #1
 484 008a F8E7     		b	.L41
 485              	.L52:
 486              		.align	2
 487              	.L51:
 488 008c 00000000 		.word	UART_DMATransmitCplt
 489 0090 00000000 		.word	UART_DMATxHalfCplt
 490 0094 00000000 		.word	UART_DMAError
 492              		.section	.text.HAL_UART_DMAPause,"ax",%progbits
 493              		.align	1
 494              		.global	HAL_UART_DMAPause
 495              		.syntax unified
 496              		.thumb
 497              		.thumb_func
 499              	HAL_UART_DMAPause:
 500              		@ args = 0, pretend = 0, frame = 0
 501              		@ frame_needed = 0, uses_anonymous_args = 0
 502              		@ link register save eliminated.
 503 0000 10B4     		push	{r4}
 504 0002 C26F     		ldr	r2, [r0, #124]
 505 0004 D0F88040 		ldr	r4, [r0, #128]
 506 0008 0368     		ldr	r3, [r0]
 507 000a 9B68     		ldr	r3, [r3, #8]
 508 000c 13F0800F 		tst	r3, #128
 509 0010 01D0     		beq	.L54
 510 0012 212A     		cmp	r2, #33
 511 0014 0AD0     		beq	.L55
 512              	.L54:
 513 0016 0368     		ldr	r3, [r0]
 514 0018 9B68     		ldr	r3, [r3, #8]
 515 001a 13F0400F 		tst	r3, #64
 516 001e 01D0     		beq	.L56
 517 0020 222C     		cmp	r4, #34
 518 0022 10D0     		beq	.L57
 519              	.L56:
 520 0024 0020     		movs	r0, #0
 521 0026 5DF8044B 		ldr	r4, [sp], #4
 522 002a 7047     		bx	lr
 523              	.L55:
 524 002c 0268     		ldr	r2, [r0]
 525 002e 02F10803 		add	r3, r2, #8
 526              		.syntax unified
 527              	@ 1155 "Drivers/CMSIS/Include/cmsis_gcc.h" 1
 528 0032 53E8003F 		ldrex r3, [r3]
 529              	@ 0 "" 2
 530              		.thumb
 531              		.syntax unified
 532 0036 23F08003 		bic	r3, r3, #128
ARM GAS  C:\Users\kroko\AppData\Local\Temp\ccD7coBo.s 			page 10


 533 003a 0832     		adds	r2, r2, #8
 534              		.syntax unified
 535              	@ 1206 "Drivers/CMSIS/Include/cmsis_gcc.h" 1
 536 003c 42E80031 		strex r1, r3, [r2]
 537              	@ 0 "" 2
 538              		.thumb
 539              		.syntax unified
 540 0040 0029     		cmp	r1, #0
 541 0042 F3D1     		bne	.L55
 542 0044 E7E7     		b	.L54
 543              	.L57:
 544 0046 0268     		ldr	r2, [r0]
 545              		.syntax unified
 546              	@ 1155 "Drivers/CMSIS/Include/cmsis_gcc.h" 1
 547 0048 52E8003F 		ldrex r3, [r2]
 548              	@ 0 "" 2
 549              		.thumb
 550              		.syntax unified
 551 004c 23F48073 		bic	r3, r3, #256
 552              		.syntax unified
 553              	@ 1206 "Drivers/CMSIS/Include/cmsis_gcc.h" 1
 554 0050 42E80031 		strex r1, r3, [r2]
 555              	@ 0 "" 2
 556              		.thumb
 557              		.syntax unified
 558 0054 0029     		cmp	r1, #0
 559 0056 F6D1     		bne	.L57
 560              	.L58:
 561 0058 0268     		ldr	r2, [r0]
 562 005a 02F10803 		add	r3, r2, #8
 563              		.syntax unified
 564              	@ 1155 "Drivers/CMSIS/Include/cmsis_gcc.h" 1
 565 005e 53E8003F 		ldrex r3, [r3]
 566              	@ 0 "" 2
 567              		.thumb
 568              		.syntax unified
 569 0062 23F00103 		bic	r3, r3, #1
 570 0066 0832     		adds	r2, r2, #8
 571              		.syntax unified
 572              	@ 1206 "Drivers/CMSIS/Include/cmsis_gcc.h" 1
 573 0068 42E80031 		strex r1, r3, [r2]
 574              	@ 0 "" 2
 575              		.thumb
 576              		.syntax unified
 577 006c 0029     		cmp	r1, #0
 578 006e F3D1     		bne	.L58
 579              	.L59:
 580 0070 0268     		ldr	r2, [r0]
 581 0072 02F10803 		add	r3, r2, #8
 582              		.syntax unified
 583              	@ 1155 "Drivers/CMSIS/Include/cmsis_gcc.h" 1
 584 0076 53E8003F 		ldrex r3, [r3]
 585              	@ 0 "" 2
 586              		.thumb
 587              		.syntax unified
 588 007a 23F04003 		bic	r3, r3, #64
 589 007e 0832     		adds	r2, r2, #8
ARM GAS  C:\Users\kroko\AppData\Local\Temp\ccD7coBo.s 			page 11


 590              		.syntax unified
 591              	@ 1206 "Drivers/CMSIS/Include/cmsis_gcc.h" 1
 592 0080 42E80031 		strex r1, r3, [r2]
 593              	@ 0 "" 2
 594              		.thumb
 595              		.syntax unified
 596 0084 0029     		cmp	r1, #0
 597 0086 F3D1     		bne	.L59
 598 0088 CCE7     		b	.L56
 600              		.section	.text.HAL_UART_DMAResume,"ax",%progbits
 601              		.align	1
 602              		.global	HAL_UART_DMAResume
 603              		.syntax unified
 604              		.thumb
 605              		.thumb_func
 607              	HAL_UART_DMAResume:
 608              		@ args = 0, pretend = 0, frame = 0
 609              		@ frame_needed = 0, uses_anonymous_args = 0
 610              		@ link register save eliminated.
 611 0000 C36F     		ldr	r3, [r0, #124]
 612 0002 212B     		cmp	r3, #33
 613 0004 05D0     		beq	.L63
 614              	.L62:
 615 0006 D0F88030 		ldr	r3, [r0, #128]
 616 000a 222B     		cmp	r3, #34
 617 000c 0ED0     		beq	.L69
 618              	.L64:
 619 000e 0020     		movs	r0, #0
 620 0010 7047     		bx	lr
 621              	.L63:
 622 0012 0268     		ldr	r2, [r0]
 623 0014 02F10803 		add	r3, r2, #8
 624              		.syntax unified
 625              	@ 1155 "Drivers/CMSIS/Include/cmsis_gcc.h" 1
 626 0018 53E8003F 		ldrex r3, [r3]
 627              	@ 0 "" 2
 628              		.thumb
 629              		.syntax unified
 630 001c 43F08003 		orr	r3, r3, #128
 631 0020 0832     		adds	r2, r2, #8
 632              		.syntax unified
 633              	@ 1206 "Drivers/CMSIS/Include/cmsis_gcc.h" 1
 634 0022 42E80031 		strex r1, r3, [r2]
 635              	@ 0 "" 2
 636              		.thumb
 637              		.syntax unified
 638 0026 0029     		cmp	r1, #0
 639 0028 F3D1     		bne	.L63
 640 002a ECE7     		b	.L62
 641              	.L69:
 642 002c 0368     		ldr	r3, [r0]
 643 002e 0822     		movs	r2, #8
 644 0030 1A62     		str	r2, [r3, #32]
 645 0032 0369     		ldr	r3, [r0, #16]
 646 0034 43B1     		cbz	r3, .L67
 647              	.L66:
 648 0036 0268     		ldr	r2, [r0]
ARM GAS  C:\Users\kroko\AppData\Local\Temp\ccD7coBo.s 			page 12


 649              		.syntax unified
 650              	@ 1155 "Drivers/CMSIS/Include/cmsis_gcc.h" 1
 651 0038 52E8003F 		ldrex r3, [r2]
 652              	@ 0 "" 2
 653              		.thumb
 654              		.syntax unified
 655 003c 43F48073 		orr	r3, r3, #256
 656              		.syntax unified
 657              	@ 1206 "Drivers/CMSIS/Include/cmsis_gcc.h" 1
 658 0040 42E80031 		strex r1, r3, [r2]
 659              	@ 0 "" 2
 660              		.thumb
 661              		.syntax unified
 662 0044 0029     		cmp	r1, #0
 663 0046 F6D1     		bne	.L66
 664              	.L67:
 665 0048 0268     		ldr	r2, [r0]
 666 004a 02F10803 		add	r3, r2, #8
 667              		.syntax unified
 668              	@ 1155 "Drivers/CMSIS/Include/cmsis_gcc.h" 1
 669 004e 53E8003F 		ldrex r3, [r3]
 670              	@ 0 "" 2
 671              		.thumb
 672              		.syntax unified
 673 0052 43F00103 		orr	r3, r3, #1
 674 0056 0832     		adds	r2, r2, #8
 675              		.syntax unified
 676              	@ 1206 "Drivers/CMSIS/Include/cmsis_gcc.h" 1
 677 0058 42E80031 		strex r1, r3, [r2]
 678              	@ 0 "" 2
 679              		.thumb
 680              		.syntax unified
 681 005c 0029     		cmp	r1, #0
 682 005e F3D1     		bne	.L67
 683              	.L68:
 684 0060 0268     		ldr	r2, [r0]
 685 0062 02F10803 		add	r3, r2, #8
 686              		.syntax unified
 687              	@ 1155 "Drivers/CMSIS/Include/cmsis_gcc.h" 1
 688 0066 53E8003F 		ldrex r3, [r3]
 689              	@ 0 "" 2
 690              		.thumb
 691              		.syntax unified
 692 006a 43F04003 		orr	r3, r3, #64
 693 006e 0832     		adds	r2, r2, #8
 694              		.syntax unified
 695              	@ 1206 "Drivers/CMSIS/Include/cmsis_gcc.h" 1
 696 0070 42E80031 		strex r1, r3, [r2]
 697              	@ 0 "" 2
 698              		.thumb
 699              		.syntax unified
 700 0074 0029     		cmp	r1, #0
 701 0076 F3D1     		bne	.L68
 702 0078 C9E7     		b	.L64
 704              		.section	.text.HAL_UART_DMAStop,"ax",%progbits
 705              		.align	1
 706              		.global	HAL_UART_DMAStop
ARM GAS  C:\Users\kroko\AppData\Local\Temp\ccD7coBo.s 			page 13


 707              		.syntax unified
 708              		.thumb
 709              		.thumb_func
 711              	HAL_UART_DMAStop:
 712              		@ args = 0, pretend = 0, frame = 0
 713              		@ frame_needed = 0, uses_anonymous_args = 0
 714 0000 38B5     		push	{r3, r4, r5, lr}
 715 0002 0446     		mov	r4, r0
 716 0004 C26F     		ldr	r2, [r0, #124]
 717 0006 D0F88050 		ldr	r5, [r0, #128]
 718 000a 0368     		ldr	r3, [r0]
 719 000c 9B68     		ldr	r3, [r3, #8]
 720 000e 13F0800F 		tst	r3, #128
 721 0012 01D0     		beq	.L71
 722 0014 212A     		cmp	r2, #33
 723 0016 08D0     		beq	.L72
 724              	.L71:
 725 0018 2368     		ldr	r3, [r4]
 726 001a 9B68     		ldr	r3, [r3, #8]
 727 001c 13F0400F 		tst	r3, #64
 728 0020 42D0     		beq	.L77
 729 0022 222D     		cmp	r5, #34
 730 0024 20D0     		beq	.L75
 731 0026 0020     		movs	r0, #0
 732 0028 3FE0     		b	.L74
 733              	.L72:
 734 002a 2268     		ldr	r2, [r4]
 735 002c 02F10803 		add	r3, r2, #8
 736              		.syntax unified
 737              	@ 1155 "Drivers/CMSIS/Include/cmsis_gcc.h" 1
 738 0030 53E8003F 		ldrex r3, [r3]
 739              	@ 0 "" 2
 740              		.thumb
 741              		.syntax unified
 742 0034 23F08003 		bic	r3, r3, #128
 743 0038 0832     		adds	r2, r2, #8
 744              		.syntax unified
 745              	@ 1206 "Drivers/CMSIS/Include/cmsis_gcc.h" 1
 746 003a 42E80031 		strex r1, r3, [r2]
 747              	@ 0 "" 2
 748              		.thumb
 749              		.syntax unified
 750 003e 0029     		cmp	r1, #0
 751 0040 F3D1     		bne	.L72
 752 0042 206F     		ldr	r0, [r4, #112]
 753 0044 10B1     		cbz	r0, .L73
 754 0046 FFF7FEFF 		bl	HAL_DMA_Abort
 755 004a 18B9     		cbnz	r0, .L80
 756              	.L73:
 757 004c 2046     		mov	r0, r4
 758 004e FFF7FEFF 		bl	UART_EndTxTransfer
 759 0052 E1E7     		b	.L71
 760              	.L80:
 761 0054 206F     		ldr	r0, [r4, #112]
 762 0056 FFF7FEFF 		bl	HAL_DMA_GetError
 763 005a 2028     		cmp	r0, #32
 764 005c F6D1     		bne	.L73
ARM GAS  C:\Users\kroko\AppData\Local\Temp\ccD7coBo.s 			page 14


 765 005e 1023     		movs	r3, #16
 766 0060 C4F88430 		str	r3, [r4, #132]
 767 0064 0320     		movs	r0, #3
 768 0066 20E0     		b	.L74
 769              	.L75:
 770 0068 2268     		ldr	r2, [r4]
 771 006a 02F10803 		add	r3, r2, #8
 772              		.syntax unified
 773              	@ 1155 "Drivers/CMSIS/Include/cmsis_gcc.h" 1
 774 006e 53E8003F 		ldrex r3, [r3]
 775              	@ 0 "" 2
 776              		.thumb
 777              		.syntax unified
 778 0072 23F04003 		bic	r3, r3, #64
 779 0076 0832     		adds	r2, r2, #8
 780              		.syntax unified
 781              	@ 1206 "Drivers/CMSIS/Include/cmsis_gcc.h" 1
 782 0078 42E80031 		strex r1, r3, [r2]
 783              	@ 0 "" 2
 784              		.thumb
 785              		.syntax unified
 786 007c 0029     		cmp	r1, #0
 787 007e F3D1     		bne	.L75
 788 0080 606F     		ldr	r0, [r4, #116]
 789 0082 10B1     		cbz	r0, .L76
 790 0084 FFF7FEFF 		bl	HAL_DMA_Abort
 791 0088 20B9     		cbnz	r0, .L81
 792              	.L76:
 793 008a 2046     		mov	r0, r4
 794 008c FFF7FEFF 		bl	UART_EndRxTransfer
 795 0090 0020     		movs	r0, #0
 796 0092 0AE0     		b	.L74
 797              	.L81:
 798 0094 606F     		ldr	r0, [r4, #116]
 799 0096 FFF7FEFF 		bl	HAL_DMA_GetError
 800 009a 2028     		cmp	r0, #32
 801 009c F5D1     		bne	.L76
 802 009e 1023     		movs	r3, #16
 803 00a0 C4F88430 		str	r3, [r4, #132]
 804 00a4 0320     		movs	r0, #3
 805 00a6 00E0     		b	.L74
 806              	.L77:
 807 00a8 0020     		movs	r0, #0
 808              	.L74:
 809 00aa 38BD     		pop	{r3, r4, r5, pc}
 811              		.section	.text.HAL_UART_Abort,"ax",%progbits
 812              		.align	1
 813              		.global	HAL_UART_Abort
 814              		.syntax unified
 815              		.thumb
 816              		.thumb_func
 818              	HAL_UART_Abort:
 819              		@ args = 0, pretend = 0, frame = 0
 820              		@ frame_needed = 0, uses_anonymous_args = 0
 821 0000 10B5     		push	{r4, lr}
 822 0002 0446     		mov	r4, r0
 823              	.L83:
ARM GAS  C:\Users\kroko\AppData\Local\Temp\ccD7coBo.s 			page 15


 824 0004 2268     		ldr	r2, [r4]
 825              		.syntax unified
 826              	@ 1155 "Drivers/CMSIS/Include/cmsis_gcc.h" 1
 827 0006 52E8003F 		ldrex r3, [r2]
 828              	@ 0 "" 2
 829              		.thumb
 830              		.syntax unified
 831 000a 23F4F073 		bic	r3, r3, #480
 832              		.syntax unified
 833              	@ 1206 "Drivers/CMSIS/Include/cmsis_gcc.h" 1
 834 000e 42E80031 		strex r1, r3, [r2]
 835              	@ 0 "" 2
 836              		.thumb
 837              		.syntax unified
 838 0012 0029     		cmp	r1, #0
 839 0014 F6D1     		bne	.L83
 840              	.L84:
 841 0016 2268     		ldr	r2, [r4]
 842 0018 02F10803 		add	r3, r2, #8
 843              		.syntax unified
 844              	@ 1155 "Drivers/CMSIS/Include/cmsis_gcc.h" 1
 845 001c 53E8003F 		ldrex r3, [r3]
 846              	@ 0 "" 2
 847              		.thumb
 848              		.syntax unified
 849 0020 23F00103 		bic	r3, r3, #1
 850 0024 0832     		adds	r2, r2, #8
 851              		.syntax unified
 852              	@ 1206 "Drivers/CMSIS/Include/cmsis_gcc.h" 1
 853 0026 42E80031 		strex r1, r3, [r2]
 854              	@ 0 "" 2
 855              		.thumb
 856              		.syntax unified
 857 002a 0029     		cmp	r1, #0
 858 002c F3D1     		bne	.L84
 859 002e 236E     		ldr	r3, [r4, #96]
 860 0030 012B     		cmp	r3, #1
 861 0032 48D0     		beq	.L86
 862              	.L85:
 863 0034 2368     		ldr	r3, [r4]
 864 0036 9B68     		ldr	r3, [r3, #8]
 865 0038 13F0800F 		tst	r3, #128
 866 003c 14D0     		beq	.L87
 867              	.L88:
 868 003e 2268     		ldr	r2, [r4]
 869 0040 02F10803 		add	r3, r2, #8
 870              		.syntax unified
 871              	@ 1155 "Drivers/CMSIS/Include/cmsis_gcc.h" 1
 872 0044 53E8003F 		ldrex r3, [r3]
 873              	@ 0 "" 2
 874              		.thumb
 875              		.syntax unified
 876 0048 23F08003 		bic	r3, r3, #128
 877 004c 0832     		adds	r2, r2, #8
 878              		.syntax unified
 879              	@ 1206 "Drivers/CMSIS/Include/cmsis_gcc.h" 1
 880 004e 42E80031 		strex r1, r3, [r2]
ARM GAS  C:\Users\kroko\AppData\Local\Temp\ccD7coBo.s 			page 16


 881              	@ 0 "" 2
 882              		.thumb
 883              		.syntax unified
 884 0052 0029     		cmp	r1, #0
 885 0054 F3D1     		bne	.L88
 886 0056 236F     		ldr	r3, [r4, #112]
 887 0058 33B1     		cbz	r3, .L87
 888 005a 0022     		movs	r2, #0
 889 005c 9A63     		str	r2, [r3, #56]
 890 005e 206F     		ldr	r0, [r4, #112]
 891 0060 FFF7FEFF 		bl	HAL_DMA_Abort
 892 0064 0028     		cmp	r0, #0
 893 0066 38D1     		bne	.L93
 894              	.L87:
 895 0068 2368     		ldr	r3, [r4]
 896 006a 9B68     		ldr	r3, [r3, #8]
 897 006c 13F0400F 		tst	r3, #64
 898 0070 13D0     		beq	.L90
 899              	.L91:
 900 0072 2268     		ldr	r2, [r4]
 901 0074 02F10803 		add	r3, r2, #8
 902              		.syntax unified
 903              	@ 1155 "Drivers/CMSIS/Include/cmsis_gcc.h" 1
 904 0078 53E8003F 		ldrex r3, [r3]
 905              	@ 0 "" 2
 906              		.thumb
 907              		.syntax unified
 908 007c 23F04003 		bic	r3, r3, #64
 909 0080 0832     		adds	r2, r2, #8
 910              		.syntax unified
 911              	@ 1206 "Drivers/CMSIS/Include/cmsis_gcc.h" 1
 912 0082 42E80031 		strex r1, r3, [r2]
 913              	@ 0 "" 2
 914              		.thumb
 915              		.syntax unified
 916 0086 0029     		cmp	r1, #0
 917 0088 F3D1     		bne	.L91
 918 008a 636F     		ldr	r3, [r4, #116]
 919 008c 2BB1     		cbz	r3, .L90
 920 008e 0022     		movs	r2, #0
 921 0090 9A63     		str	r2, [r3, #56]
 922 0092 606F     		ldr	r0, [r4, #116]
 923 0094 FFF7FEFF 		bl	HAL_DMA_Abort
 924 0098 48BB     		cbnz	r0, .L94
 925              	.L90:
 926 009a 0020     		movs	r0, #0
 927 009c A4F85200 		strh	r0, [r4, #82]	@ movhi
 928 00a0 A4F85A00 		strh	r0, [r4, #90]	@ movhi
 929 00a4 2368     		ldr	r3, [r4]
 930 00a6 0F22     		movs	r2, #15
 931 00a8 1A62     		str	r2, [r3, #32]
 932 00aa 2268     		ldr	r2, [r4]
 933 00ac 138B     		ldrh	r3, [r2, #24]
 934 00ae 9BB2     		uxth	r3, r3
 935 00b0 43F00803 		orr	r3, r3, #8
 936 00b4 1383     		strh	r3, [r2, #24]	@ movhi
 937 00b6 2023     		movs	r3, #32
ARM GAS  C:\Users\kroko\AppData\Local\Temp\ccD7coBo.s 			page 17


 938 00b8 E367     		str	r3, [r4, #124]
 939 00ba C4F88030 		str	r3, [r4, #128]
 940 00be 2066     		str	r0, [r4, #96]
 941 00c0 C4F88400 		str	r0, [r4, #132]
 942              	.L89:
 943 00c4 10BD     		pop	{r4, pc}
 944              	.L86:
 945 00c6 2268     		ldr	r2, [r4]
 946              		.syntax unified
 947              	@ 1155 "Drivers/CMSIS/Include/cmsis_gcc.h" 1
 948 00c8 52E8003F 		ldrex r3, [r2]
 949              	@ 0 "" 2
 950              		.thumb
 951              		.syntax unified
 952 00cc 23F01003 		bic	r3, r3, #16
 953              		.syntax unified
 954              	@ 1206 "Drivers/CMSIS/Include/cmsis_gcc.h" 1
 955 00d0 42E80031 		strex r1, r3, [r2]
 956              	@ 0 "" 2
 957              		.thumb
 958              		.syntax unified
 959 00d4 0029     		cmp	r1, #0
 960 00d6 F6D1     		bne	.L86
 961 00d8 ACE7     		b	.L85
 962              	.L93:
 963 00da 206F     		ldr	r0, [r4, #112]
 964 00dc FFF7FEFF 		bl	HAL_DMA_GetError
 965 00e0 2028     		cmp	r0, #32
 966 00e2 C1D1     		bne	.L87
 967 00e4 1023     		movs	r3, #16
 968 00e6 C4F88430 		str	r3, [r4, #132]
 969 00ea 0320     		movs	r0, #3
 970 00ec EAE7     		b	.L89
 971              	.L94:
 972 00ee 606F     		ldr	r0, [r4, #116]
 973 00f0 FFF7FEFF 		bl	HAL_DMA_GetError
 974 00f4 2028     		cmp	r0, #32
 975 00f6 D0D1     		bne	.L90
 976 00f8 1023     		movs	r3, #16
 977 00fa C4F88430 		str	r3, [r4, #132]
 978 00fe 0320     		movs	r0, #3
 979 0100 E0E7     		b	.L89
 981              		.section	.text.HAL_UART_AbortTransmit,"ax",%progbits
 982              		.align	1
 983              		.global	HAL_UART_AbortTransmit
 984              		.syntax unified
 985              		.thumb
 986              		.thumb_func
 988              	HAL_UART_AbortTransmit:
 989              		@ args = 0, pretend = 0, frame = 0
 990              		@ frame_needed = 0, uses_anonymous_args = 0
 991 0000 10B5     		push	{r4, lr}
 992 0002 0446     		mov	r4, r0
 993              	.L96:
 994 0004 2268     		ldr	r2, [r4]
 995              		.syntax unified
 996              	@ 1155 "Drivers/CMSIS/Include/cmsis_gcc.h" 1
ARM GAS  C:\Users\kroko\AppData\Local\Temp\ccD7coBo.s 			page 18


 997 0006 52E8003F 		ldrex r3, [r2]
 998              	@ 0 "" 2
 999              		.thumb
 1000              		.syntax unified
 1001 000a 23F0C003 		bic	r3, r3, #192
 1002              		.syntax unified
 1003              	@ 1206 "Drivers/CMSIS/Include/cmsis_gcc.h" 1
 1004 000e 42E80031 		strex r1, r3, [r2]
 1005              	@ 0 "" 2
 1006              		.thumb
 1007              		.syntax unified
 1008 0012 0029     		cmp	r1, #0
 1009 0014 F6D1     		bne	.L96
 1010 0016 2368     		ldr	r3, [r4]
 1011 0018 9B68     		ldr	r3, [r3, #8]
 1012 001a 13F0800F 		tst	r3, #128
 1013 001e 13D0     		beq	.L97
 1014              	.L98:
 1015 0020 2268     		ldr	r2, [r4]
 1016 0022 02F10803 		add	r3, r2, #8
 1017              		.syntax unified
 1018              	@ 1155 "Drivers/CMSIS/Include/cmsis_gcc.h" 1
 1019 0026 53E8003F 		ldrex r3, [r3]
 1020              	@ 0 "" 2
 1021              		.thumb
 1022              		.syntax unified
 1023 002a 23F08003 		bic	r3, r3, #128
 1024 002e 0832     		adds	r2, r2, #8
 1025              		.syntax unified
 1026              	@ 1206 "Drivers/CMSIS/Include/cmsis_gcc.h" 1
 1027 0030 42E80031 		strex r1, r3, [r2]
 1028              	@ 0 "" 2
 1029              		.thumb
 1030              		.syntax unified
 1031 0034 0029     		cmp	r1, #0
 1032 0036 F3D1     		bne	.L98
 1033 0038 236F     		ldr	r3, [r4, #112]
 1034 003a 2BB1     		cbz	r3, .L97
 1035 003c 0022     		movs	r2, #0
 1036 003e 9A63     		str	r2, [r3, #56]
 1037 0040 206F     		ldr	r0, [r4, #112]
 1038 0042 FFF7FEFF 		bl	HAL_DMA_Abort
 1039 0046 28B9     		cbnz	r0, .L101
 1040              	.L97:
 1041 0048 0020     		movs	r0, #0
 1042 004a A4F85200 		strh	r0, [r4, #82]	@ movhi
 1043 004e 2023     		movs	r3, #32
 1044 0050 E367     		str	r3, [r4, #124]
 1045              	.L99:
 1046 0052 10BD     		pop	{r4, pc}
 1047              	.L101:
 1048 0054 206F     		ldr	r0, [r4, #112]
 1049 0056 FFF7FEFF 		bl	HAL_DMA_GetError
 1050 005a 2028     		cmp	r0, #32
 1051 005c F4D1     		bne	.L97
 1052 005e 1023     		movs	r3, #16
 1053 0060 C4F88430 		str	r3, [r4, #132]
ARM GAS  C:\Users\kroko\AppData\Local\Temp\ccD7coBo.s 			page 19


 1054 0064 0320     		movs	r0, #3
 1055 0066 F4E7     		b	.L99
 1057              		.section	.text.HAL_UART_AbortReceive,"ax",%progbits
 1058              		.align	1
 1059              		.global	HAL_UART_AbortReceive
 1060              		.syntax unified
 1061              		.thumb
 1062              		.thumb_func
 1064              	HAL_UART_AbortReceive:
 1065              		@ args = 0, pretend = 0, frame = 0
 1066              		@ frame_needed = 0, uses_anonymous_args = 0
 1067 0000 10B5     		push	{r4, lr}
 1068 0002 0446     		mov	r4, r0
 1069              	.L103:
 1070 0004 2268     		ldr	r2, [r4]
 1071              		.syntax unified
 1072              	@ 1155 "Drivers/CMSIS/Include/cmsis_gcc.h" 1
 1073 0006 52E8003F 		ldrex r3, [r2]
 1074              	@ 0 "" 2
 1075              		.thumb
 1076              		.syntax unified
 1077 000a 23F49073 		bic	r3, r3, #288
 1078              		.syntax unified
 1079              	@ 1206 "Drivers/CMSIS/Include/cmsis_gcc.h" 1
 1080 000e 42E80031 		strex r1, r3, [r2]
 1081              	@ 0 "" 2
 1082              		.thumb
 1083              		.syntax unified
 1084 0012 0029     		cmp	r1, #0
 1085 0014 F6D1     		bne	.L103
 1086              	.L104:
 1087 0016 2268     		ldr	r2, [r4]
 1088 0018 02F10803 		add	r3, r2, #8
 1089              		.syntax unified
 1090              	@ 1155 "Drivers/CMSIS/Include/cmsis_gcc.h" 1
 1091 001c 53E8003F 		ldrex r3, [r3]
 1092              	@ 0 "" 2
 1093              		.thumb
 1094              		.syntax unified
 1095 0020 23F00103 		bic	r3, r3, #1
 1096 0024 0832     		adds	r2, r2, #8
 1097              		.syntax unified
 1098              	@ 1206 "Drivers/CMSIS/Include/cmsis_gcc.h" 1
 1099 0026 42E80031 		strex r1, r3, [r2]
 1100              	@ 0 "" 2
 1101              		.thumb
 1102              		.syntax unified
 1103 002a 0029     		cmp	r1, #0
 1104 002c F3D1     		bne	.L104
 1105 002e 236E     		ldr	r3, [r4, #96]
 1106 0030 012B     		cmp	r3, #1
 1107 0032 29D0     		beq	.L106
 1108              	.L105:
 1109 0034 2368     		ldr	r3, [r4]
 1110 0036 9B68     		ldr	r3, [r3, #8]
 1111 0038 13F0400F 		tst	r3, #64
 1112 003c 13D0     		beq	.L107
ARM GAS  C:\Users\kroko\AppData\Local\Temp\ccD7coBo.s 			page 20


 1113              	.L108:
 1114 003e 2268     		ldr	r2, [r4]
 1115 0040 02F10803 		add	r3, r2, #8
 1116              		.syntax unified
 1117              	@ 1155 "Drivers/CMSIS/Include/cmsis_gcc.h" 1
 1118 0044 53E8003F 		ldrex r3, [r3]
 1119              	@ 0 "" 2
 1120              		.thumb
 1121              		.syntax unified
 1122 0048 23F04003 		bic	r3, r3, #64
 1123 004c 0832     		adds	r2, r2, #8
 1124              		.syntax unified
 1125              	@ 1206 "Drivers/CMSIS/Include/cmsis_gcc.h" 1
 1126 004e 42E80031 		strex r1, r3, [r2]
 1127              	@ 0 "" 2
 1128              		.thumb
 1129              		.syntax unified
 1130 0052 0029     		cmp	r1, #0
 1131 0054 F3D1     		bne	.L108
 1132 0056 636F     		ldr	r3, [r4, #116]
 1133 0058 2BB1     		cbz	r3, .L107
 1134 005a 0022     		movs	r2, #0
 1135 005c 9A63     		str	r2, [r3, #56]
 1136 005e 606F     		ldr	r0, [r4, #116]
 1137 0060 FFF7FEFF 		bl	HAL_DMA_Abort
 1138 0064 D0B9     		cbnz	r0, .L111
 1139              	.L107:
 1140 0066 0020     		movs	r0, #0
 1141 0068 A4F85A00 		strh	r0, [r4, #90]	@ movhi
 1142 006c 2368     		ldr	r3, [r4]
 1143 006e 0F22     		movs	r2, #15
 1144 0070 1A62     		str	r2, [r3, #32]
 1145 0072 2268     		ldr	r2, [r4]
 1146 0074 138B     		ldrh	r3, [r2, #24]
 1147 0076 9BB2     		uxth	r3, r3
 1148 0078 43F00803 		orr	r3, r3, #8
 1149 007c 1383     		strh	r3, [r2, #24]	@ movhi
 1150 007e 2023     		movs	r3, #32
 1151 0080 C4F88030 		str	r3, [r4, #128]
 1152 0084 2066     		str	r0, [r4, #96]
 1153              	.L109:
 1154 0086 10BD     		pop	{r4, pc}
 1155              	.L106:
 1156 0088 2268     		ldr	r2, [r4]
 1157              		.syntax unified
 1158              	@ 1155 "Drivers/CMSIS/Include/cmsis_gcc.h" 1
 1159 008a 52E8003F 		ldrex r3, [r2]
 1160              	@ 0 "" 2
 1161              		.thumb
 1162              		.syntax unified
 1163 008e 23F01003 		bic	r3, r3, #16
 1164              		.syntax unified
 1165              	@ 1206 "Drivers/CMSIS/Include/cmsis_gcc.h" 1
 1166 0092 42E80031 		strex r1, r3, [r2]
 1167              	@ 0 "" 2
 1168              		.thumb
 1169              		.syntax unified
ARM GAS  C:\Users\kroko\AppData\Local\Temp\ccD7coBo.s 			page 21


 1170 0096 0029     		cmp	r1, #0
 1171 0098 F6D1     		bne	.L106
 1172 009a CBE7     		b	.L105
 1173              	.L111:
 1174 009c 606F     		ldr	r0, [r4, #116]
 1175 009e FFF7FEFF 		bl	HAL_DMA_GetError
 1176 00a2 2028     		cmp	r0, #32
 1177 00a4 DFD1     		bne	.L107
 1178 00a6 1023     		movs	r3, #16
 1179 00a8 C4F88430 		str	r3, [r4, #132]
 1180 00ac 0320     		movs	r0, #3
 1181 00ae EAE7     		b	.L109
 1183              		.section	.text.HAL_UART_TxCpltCallback,"ax",%progbits
 1184              		.align	1
 1185              		.weak	HAL_UART_TxCpltCallback
 1186              		.syntax unified
 1187              		.thumb
 1188              		.thumb_func
 1190              	HAL_UART_TxCpltCallback:
 1191              		@ args = 0, pretend = 0, frame = 0
 1192              		@ frame_needed = 0, uses_anonymous_args = 0
 1193              		@ link register save eliminated.
 1194 0000 7047     		bx	lr
 1196              		.section	.text.UART_DMATransmitCplt,"ax",%progbits
 1197              		.align	1
 1198              		.syntax unified
 1199              		.thumb
 1200              		.thumb_func
 1202              	UART_DMATransmitCplt:
 1203              		@ args = 0, pretend = 0, frame = 0
 1204              		@ frame_needed = 0, uses_anonymous_args = 0
 1205 0000 08B5     		push	{r3, lr}
 1206 0002 0346     		mov	r3, r0
 1207 0004 806A     		ldr	r0, [r0, #40]
 1208 0006 1B68     		ldr	r3, [r3]
 1209 0008 1B68     		ldr	r3, [r3]
 1210 000a 13F0200F 		tst	r3, #32
 1211 000e 18D1     		bne	.L114
 1212 0010 0023     		movs	r3, #0
 1213 0012 A0F85230 		strh	r3, [r0, #82]	@ movhi
 1214              	.L115:
 1215 0016 0268     		ldr	r2, [r0]
 1216 0018 02F10803 		add	r3, r2, #8
 1217              		.syntax unified
 1218              	@ 1155 "Drivers/CMSIS/Include/cmsis_gcc.h" 1
 1219 001c 53E8003F 		ldrex r3, [r3]
 1220              	@ 0 "" 2
 1221              		.thumb
 1222              		.syntax unified
 1223 0020 23F08003 		bic	r3, r3, #128
 1224 0024 0832     		adds	r2, r2, #8
 1225              		.syntax unified
 1226              	@ 1206 "Drivers/CMSIS/Include/cmsis_gcc.h" 1
 1227 0026 42E80031 		strex r1, r3, [r2]
 1228              	@ 0 "" 2
 1229              		.thumb
 1230              		.syntax unified
ARM GAS  C:\Users\kroko\AppData\Local\Temp\ccD7coBo.s 			page 22


 1231 002a 0029     		cmp	r1, #0
 1232 002c F3D1     		bne	.L115
 1233              	.L116:
 1234 002e 0268     		ldr	r2, [r0]
 1235              		.syntax unified
 1236              	@ 1155 "Drivers/CMSIS/Include/cmsis_gcc.h" 1
 1237 0030 52E8003F 		ldrex r3, [r2]
 1238              	@ 0 "" 2
 1239              		.thumb
 1240              		.syntax unified
 1241 0034 43F04003 		orr	r3, r3, #64
 1242              		.syntax unified
 1243              	@ 1206 "Drivers/CMSIS/Include/cmsis_gcc.h" 1
 1244 0038 42E80031 		strex r1, r3, [r2]
 1245              	@ 0 "" 2
 1246              		.thumb
 1247              		.syntax unified
 1248 003c 0029     		cmp	r1, #0
 1249 003e F6D1     		bne	.L116
 1250              	.L113:
 1251 0040 08BD     		pop	{r3, pc}
 1252              	.L114:
 1253 0042 FFF7FEFF 		bl	HAL_UART_TxCpltCallback
 1254 0046 FBE7     		b	.L113
 1256              		.section	.text.UART_EndTransmit_IT,"ax",%progbits
 1257              		.align	1
 1258              		.syntax unified
 1259              		.thumb
 1260              		.thumb_func
 1262              	UART_EndTransmit_IT:
 1263              		@ args = 0, pretend = 0, frame = 0
 1264              		@ frame_needed = 0, uses_anonymous_args = 0
 1265 0000 08B5     		push	{r3, lr}
 1266              	.L120:
 1267 0002 0268     		ldr	r2, [r0]
 1268              		.syntax unified
 1269              	@ 1155 "Drivers/CMSIS/Include/cmsis_gcc.h" 1
 1270 0004 52E8003F 		ldrex r3, [r2]
 1271              	@ 0 "" 2
 1272              		.thumb
 1273              		.syntax unified
 1274 0008 23F04003 		bic	r3, r3, #64
 1275              		.syntax unified
 1276              	@ 1206 "Drivers/CMSIS/Include/cmsis_gcc.h" 1
 1277 000c 42E80031 		strex r1, r3, [r2]
 1278              	@ 0 "" 2
 1279              		.thumb
 1280              		.syntax unified
 1281 0010 0029     		cmp	r1, #0
 1282 0012 F6D1     		bne	.L120
 1283 0014 2023     		movs	r3, #32
 1284 0016 C367     		str	r3, [r0, #124]
 1285 0018 0023     		movs	r3, #0
 1286 001a C366     		str	r3, [r0, #108]
 1287 001c FFF7FEFF 		bl	HAL_UART_TxCpltCallback
 1288 0020 08BD     		pop	{r3, pc}
 1290              		.section	.text.HAL_UART_TxHalfCpltCallback,"ax",%progbits
ARM GAS  C:\Users\kroko\AppData\Local\Temp\ccD7coBo.s 			page 23


 1291              		.align	1
 1292              		.weak	HAL_UART_TxHalfCpltCallback
 1293              		.syntax unified
 1294              		.thumb
 1295              		.thumb_func
 1297              	HAL_UART_TxHalfCpltCallback:
 1298              		@ args = 0, pretend = 0, frame = 0
 1299              		@ frame_needed = 0, uses_anonymous_args = 0
 1300              		@ link register save eliminated.
 1301 0000 7047     		bx	lr
 1303              		.section	.text.UART_DMATxHalfCplt,"ax",%progbits
 1304              		.align	1
 1305              		.syntax unified
 1306              		.thumb
 1307              		.thumb_func
 1309              	UART_DMATxHalfCplt:
 1310              		@ args = 0, pretend = 0, frame = 0
 1311              		@ frame_needed = 0, uses_anonymous_args = 0
 1312 0000 08B5     		push	{r3, lr}
 1313 0002 806A     		ldr	r0, [r0, #40]
 1314 0004 FFF7FEFF 		bl	HAL_UART_TxHalfCpltCallback
 1315 0008 08BD     		pop	{r3, pc}
 1317              		.section	.text.HAL_UART_RxCpltCallback,"ax",%progbits
 1318              		.align	1
 1319              		.weak	HAL_UART_RxCpltCallback
 1320              		.syntax unified
 1321              		.thumb
 1322              		.thumb_func
 1324              	HAL_UART_RxCpltCallback:
 1325              		@ args = 0, pretend = 0, frame = 0
 1326              		@ frame_needed = 0, uses_anonymous_args = 0
 1327              		@ link register save eliminated.
 1328 0000 7047     		bx	lr
 1330              		.section	.text.HAL_UART_RxHalfCpltCallback,"ax",%progbits
 1331              		.align	1
 1332              		.weak	HAL_UART_RxHalfCpltCallback
 1333              		.syntax unified
 1334              		.thumb
 1335              		.thumb_func
 1337              	HAL_UART_RxHalfCpltCallback:
 1338              		@ args = 0, pretend = 0, frame = 0
 1339              		@ frame_needed = 0, uses_anonymous_args = 0
 1340              		@ link register save eliminated.
 1341 0000 7047     		bx	lr
 1343              		.section	.text.HAL_UART_ErrorCallback,"ax",%progbits
 1344              		.align	1
 1345              		.weak	HAL_UART_ErrorCallback
 1346              		.syntax unified
 1347              		.thumb
 1348              		.thumb_func
 1350              	HAL_UART_ErrorCallback:
 1351              		@ args = 0, pretend = 0, frame = 0
 1352              		@ frame_needed = 0, uses_anonymous_args = 0
 1353              		@ link register save eliminated.
 1354 0000 7047     		bx	lr
 1356              		.section	.text.UART_DMAError,"ax",%progbits
 1357              		.align	1
ARM GAS  C:\Users\kroko\AppData\Local\Temp\ccD7coBo.s 			page 24


 1358              		.syntax unified
 1359              		.thumb
 1360              		.thumb_func
 1362              	UART_DMAError:
 1363              		@ args = 0, pretend = 0, frame = 0
 1364              		@ frame_needed = 0, uses_anonymous_args = 0
 1365 0000 38B5     		push	{r3, r4, r5, lr}
 1366 0002 846A     		ldr	r4, [r0, #40]
 1367 0004 E26F     		ldr	r2, [r4, #124]
 1368 0006 D4F88050 		ldr	r5, [r4, #128]
 1369 000a 2368     		ldr	r3, [r4]
 1370 000c 9B68     		ldr	r3, [r3, #8]
 1371 000e 13F0800F 		tst	r3, #128
 1372 0012 01D0     		beq	.L129
 1373 0014 212A     		cmp	r2, #33
 1374 0016 10D0     		beq	.L132
 1375              	.L129:
 1376 0018 2368     		ldr	r3, [r4]
 1377 001a 9B68     		ldr	r3, [r3, #8]
 1378 001c 13F0400F 		tst	r3, #64
 1379 0020 01D0     		beq	.L130
 1380 0022 222D     		cmp	r5, #34
 1381 0024 10D0     		beq	.L133
 1382              	.L130:
 1383 0026 D4F88430 		ldr	r3, [r4, #132]
 1384 002a 43F01003 		orr	r3, r3, #16
 1385 002e C4F88430 		str	r3, [r4, #132]
 1386 0032 2046     		mov	r0, r4
 1387 0034 FFF7FEFF 		bl	HAL_UART_ErrorCallback
 1388 0038 38BD     		pop	{r3, r4, r5, pc}
 1389              	.L132:
 1390 003a 0023     		movs	r3, #0
 1391 003c A4F85230 		strh	r3, [r4, #82]	@ movhi
 1392 0040 2046     		mov	r0, r4
 1393 0042 FFF7FEFF 		bl	UART_EndTxTransfer
 1394 0046 E7E7     		b	.L129
 1395              	.L133:
 1396 0048 0023     		movs	r3, #0
 1397 004a A4F85A30 		strh	r3, [r4, #90]	@ movhi
 1398 004e 2046     		mov	r0, r4
 1399 0050 FFF7FEFF 		bl	UART_EndRxTransfer
 1400 0054 E7E7     		b	.L130
 1402              		.section	.text.UART_DMAAbortOnError,"ax",%progbits
 1403              		.align	1
 1404              		.syntax unified
 1405              		.thumb
 1406              		.thumb_func
 1408              	UART_DMAAbortOnError:
 1409              		@ args = 0, pretend = 0, frame = 0
 1410              		@ frame_needed = 0, uses_anonymous_args = 0
 1411 0000 08B5     		push	{r3, lr}
 1412 0002 806A     		ldr	r0, [r0, #40]
 1413 0004 0023     		movs	r3, #0
 1414 0006 A0F85A30 		strh	r3, [r0, #90]	@ movhi
 1415 000a A0F85230 		strh	r3, [r0, #82]	@ movhi
 1416 000e FFF7FEFF 		bl	HAL_UART_ErrorCallback
 1417 0012 08BD     		pop	{r3, pc}
ARM GAS  C:\Users\kroko\AppData\Local\Temp\ccD7coBo.s 			page 25


 1419              		.section	.text.HAL_UART_AbortCpltCallback,"ax",%progbits
 1420              		.align	1
 1421              		.weak	HAL_UART_AbortCpltCallback
 1422              		.syntax unified
 1423              		.thumb
 1424              		.thumb_func
 1426              	HAL_UART_AbortCpltCallback:
 1427              		@ args = 0, pretend = 0, frame = 0
 1428              		@ frame_needed = 0, uses_anonymous_args = 0
 1429              		@ link register save eliminated.
 1430 0000 7047     		bx	lr
 1432              		.section	.text.HAL_UART_Abort_IT,"ax",%progbits
 1433              		.align	1
 1434              		.global	HAL_UART_Abort_IT
 1435              		.syntax unified
 1436              		.thumb
 1437              		.thumb_func
 1439              	HAL_UART_Abort_IT:
 1440              		@ args = 0, pretend = 0, frame = 0
 1441              		@ frame_needed = 0, uses_anonymous_args = 0
 1442 0000 38B5     		push	{r3, r4, r5, lr}
 1443 0002 0446     		mov	r4, r0
 1444              	.L138:
 1445 0004 2268     		ldr	r2, [r4]
 1446              		.syntax unified
 1447              	@ 1155 "Drivers/CMSIS/Include/cmsis_gcc.h" 1
 1448 0006 52E8003F 		ldrex r3, [r2]
 1449              	@ 0 "" 2
 1450              		.thumb
 1451              		.syntax unified
 1452 000a 23F4F073 		bic	r3, r3, #480
 1453              		.syntax unified
 1454              	@ 1206 "Drivers/CMSIS/Include/cmsis_gcc.h" 1
 1455 000e 42E80031 		strex r1, r3, [r2]
 1456              	@ 0 "" 2
 1457              		.thumb
 1458              		.syntax unified
 1459 0012 0029     		cmp	r1, #0
 1460 0014 F6D1     		bne	.L138
 1461              	.L139:
 1462 0016 2268     		ldr	r2, [r4]
 1463 0018 02F10803 		add	r3, r2, #8
 1464              		.syntax unified
 1465              	@ 1155 "Drivers/CMSIS/Include/cmsis_gcc.h" 1
 1466 001c 53E8003F 		ldrex r3, [r3]
 1467              	@ 0 "" 2
 1468              		.thumb
 1469              		.syntax unified
 1470 0020 23F00103 		bic	r3, r3, #1
 1471 0024 0832     		adds	r2, r2, #8
 1472              		.syntax unified
 1473              	@ 1206 "Drivers/CMSIS/Include/cmsis_gcc.h" 1
 1474 0026 42E80031 		strex r1, r3, [r2]
 1475              	@ 0 "" 2
 1476              		.thumb
 1477              		.syntax unified
 1478 002a 0029     		cmp	r1, #0
ARM GAS  C:\Users\kroko\AppData\Local\Temp\ccD7coBo.s 			page 26


 1479 002c F3D1     		bne	.L139
 1480 002e 236E     		ldr	r3, [r4, #96]
 1481 0030 012B     		cmp	r3, #1
 1482 0032 2ED0     		beq	.L141
 1483              	.L140:
 1484 0034 236F     		ldr	r3, [r4, #112]
 1485 0036 33B1     		cbz	r3, .L142
 1486 0038 2268     		ldr	r2, [r4]
 1487 003a 9268     		ldr	r2, [r2, #8]
 1488 003c 12F0800F 		tst	r2, #128
 1489 0040 31D0     		beq	.L143
 1490 0042 394A     		ldr	r2, .L155
 1491 0044 9A63     		str	r2, [r3, #56]
 1492              	.L142:
 1493 0046 636F     		ldr	r3, [r4, #116]
 1494 0048 33B1     		cbz	r3, .L144
 1495 004a 2268     		ldr	r2, [r4]
 1496 004c 9268     		ldr	r2, [r2, #8]
 1497 004e 12F0400F 		tst	r2, #64
 1498 0052 2BD0     		beq	.L145
 1499 0054 354A     		ldr	r2, .L155+4
 1500 0056 9A63     		str	r2, [r3, #56]
 1501              	.L144:
 1502 0058 2368     		ldr	r3, [r4]
 1503 005a 9B68     		ldr	r3, [r3, #8]
 1504 005c 13F0800F 		tst	r3, #128
 1505 0060 27D0     		beq	.L152
 1506              	.L147:
 1507 0062 2168     		ldr	r1, [r4]
 1508 0064 01F10803 		add	r3, r1, #8
 1509              		.syntax unified
 1510              	@ 1155 "Drivers/CMSIS/Include/cmsis_gcc.h" 1
 1511 0068 53E8003F 		ldrex r3, [r3]
 1512              	@ 0 "" 2
 1513              		.thumb
 1514              		.syntax unified
 1515 006c 23F08003 		bic	r3, r3, #128
 1516 0070 0831     		adds	r1, r1, #8
 1517              		.syntax unified
 1518              	@ 1206 "Drivers/CMSIS/Include/cmsis_gcc.h" 1
 1519 0072 41E80032 		strex r2, r3, [r1]
 1520              	@ 0 "" 2
 1521              		.thumb
 1522              		.syntax unified
 1523 0076 1546     		mov	r5, r2
 1524 0078 002A     		cmp	r2, #0
 1525 007a F2D1     		bne	.L147
 1526 007c 206F     		ldr	r0, [r4, #112]
 1527 007e 0028     		cmp	r0, #0
 1528 0080 4CD0     		beq	.L153
 1529 0082 FFF7FEFF 		bl	HAL_DMA_Abort_IT
 1530 0086 A8B1     		cbz	r0, .L146
 1531 0088 236F     		ldr	r3, [r4, #112]
 1532 008a 0022     		movs	r2, #0
 1533 008c 9A63     		str	r2, [r3, #56]
 1534 008e 0125     		movs	r5, #1
 1535 0090 10E0     		b	.L146
ARM GAS  C:\Users\kroko\AppData\Local\Temp\ccD7coBo.s 			page 27


 1536              	.L141:
 1537 0092 2268     		ldr	r2, [r4]
 1538              		.syntax unified
 1539              	@ 1155 "Drivers/CMSIS/Include/cmsis_gcc.h" 1
 1540 0094 52E8003F 		ldrex r3, [r2]
 1541              	@ 0 "" 2
 1542              		.thumb
 1543              		.syntax unified
 1544 0098 23F01003 		bic	r3, r3, #16
 1545              		.syntax unified
 1546              	@ 1206 "Drivers/CMSIS/Include/cmsis_gcc.h" 1
 1547 009c 42E80031 		strex r1, r3, [r2]
 1548              	@ 0 "" 2
 1549              		.thumb
 1550              		.syntax unified
 1551 00a0 0029     		cmp	r1, #0
 1552 00a2 F6D1     		bne	.L141
 1553 00a4 C6E7     		b	.L140
 1554              	.L143:
 1555 00a6 0022     		movs	r2, #0
 1556 00a8 9A63     		str	r2, [r3, #56]
 1557 00aa CCE7     		b	.L142
 1558              	.L145:
 1559 00ac 0022     		movs	r2, #0
 1560 00ae 9A63     		str	r2, [r3, #56]
 1561 00b0 D2E7     		b	.L144
 1562              	.L152:
 1563 00b2 0125     		movs	r5, #1
 1564              	.L146:
 1565 00b4 2368     		ldr	r3, [r4]
 1566 00b6 9B68     		ldr	r3, [r3, #8]
 1567 00b8 13F0400F 		tst	r3, #64
 1568 00bc 30D0     		beq	.L148
 1569              	.L149:
 1570 00be 2268     		ldr	r2, [r4]
 1571 00c0 02F10803 		add	r3, r2, #8
 1572              		.syntax unified
 1573              	@ 1155 "Drivers/CMSIS/Include/cmsis_gcc.h" 1
 1574 00c4 53E8003F 		ldrex r3, [r3]
 1575              	@ 0 "" 2
 1576              		.thumb
 1577              		.syntax unified
 1578 00c8 23F04003 		bic	r3, r3, #64
 1579 00cc 0832     		adds	r2, r2, #8
 1580              		.syntax unified
 1581              	@ 1206 "Drivers/CMSIS/Include/cmsis_gcc.h" 1
 1582 00ce 42E80031 		strex r1, r3, [r2]
 1583              	@ 0 "" 2
 1584              		.thumb
 1585              		.syntax unified
 1586 00d2 0029     		cmp	r1, #0
 1587 00d4 F3D1     		bne	.L149
 1588 00d6 606F     		ldr	r0, [r4, #116]
 1589 00d8 10B3     		cbz	r0, .L148
 1590 00da FFF7FEFF 		bl	HAL_DMA_Abort_IT
 1591 00de 08B3     		cbz	r0, .L150
 1592 00e0 636F     		ldr	r3, [r4, #116]
ARM GAS  C:\Users\kroko\AppData\Local\Temp\ccD7coBo.s 			page 28


 1593 00e2 0022     		movs	r2, #0
 1594 00e4 9A63     		str	r2, [r3, #56]
 1595              	.L151:
 1596 00e6 0023     		movs	r3, #0
 1597 00e8 A4F85230 		strh	r3, [r4, #82]	@ movhi
 1598 00ec A4F85A30 		strh	r3, [r4, #90]	@ movhi
 1599 00f0 A366     		str	r3, [r4, #104]
 1600 00f2 E366     		str	r3, [r4, #108]
 1601 00f4 C4F88430 		str	r3, [r4, #132]
 1602 00f8 2268     		ldr	r2, [r4]
 1603 00fa 0F21     		movs	r1, #15
 1604 00fc 1162     		str	r1, [r2, #32]
 1605 00fe 2168     		ldr	r1, [r4]
 1606 0100 0A8B     		ldrh	r2, [r1, #24]
 1607 0102 92B2     		uxth	r2, r2
 1608 0104 42F00802 		orr	r2, r2, #8
 1609 0108 0A83     		strh	r2, [r1, #24]	@ movhi
 1610 010a 2022     		movs	r2, #32
 1611 010c E267     		str	r2, [r4, #124]
 1612 010e C4F88020 		str	r2, [r4, #128]
 1613 0112 2366     		str	r3, [r4, #96]
 1614 0114 2046     		mov	r0, r4
 1615 0116 FFF7FEFF 		bl	HAL_UART_AbortCpltCallback
 1616 011a 03E0     		b	.L150
 1617              	.L153:
 1618 011c 0125     		movs	r5, #1
 1619 011e C9E7     		b	.L146
 1620              	.L148:
 1621 0120 012D     		cmp	r5, #1
 1622 0122 E0D0     		beq	.L151
 1623              	.L150:
 1624 0124 0020     		movs	r0, #0
 1625 0126 38BD     		pop	{r3, r4, r5, pc}
 1626              	.L156:
 1627              		.align	2
 1628              	.L155:
 1629 0128 00000000 		.word	UART_DMATxAbortCallback
 1630 012c 00000000 		.word	UART_DMARxAbortCallback
 1632              		.section	.text.UART_DMARxAbortCallback,"ax",%progbits
 1633              		.align	1
 1634              		.syntax unified
 1635              		.thumb
 1636              		.thumb_func
 1638              	UART_DMARxAbortCallback:
 1639              		@ args = 0, pretend = 0, frame = 0
 1640              		@ frame_needed = 0, uses_anonymous_args = 0
 1641 0000 08B5     		push	{r3, lr}
 1642 0002 806A     		ldr	r0, [r0, #40]
 1643 0004 436F     		ldr	r3, [r0, #116]
 1644 0006 0022     		movs	r2, #0
 1645 0008 9A63     		str	r2, [r3, #56]
 1646 000a 036F     		ldr	r3, [r0, #112]
 1647 000c 0BB1     		cbz	r3, .L158
 1648 000e 9B6B     		ldr	r3, [r3, #56]
 1649 0010 B3B9     		cbnz	r3, .L157
 1650              	.L158:
 1651 0012 0022     		movs	r2, #0
ARM GAS  C:\Users\kroko\AppData\Local\Temp\ccD7coBo.s 			page 29


 1652 0014 A0F85220 		strh	r2, [r0, #82]	@ movhi
 1653 0018 A0F85A20 		strh	r2, [r0, #90]	@ movhi
 1654 001c C0F88420 		str	r2, [r0, #132]
 1655 0020 0368     		ldr	r3, [r0]
 1656 0022 0F21     		movs	r1, #15
 1657 0024 1962     		str	r1, [r3, #32]
 1658 0026 0168     		ldr	r1, [r0]
 1659 0028 0B8B     		ldrh	r3, [r1, #24]
 1660 002a 9BB2     		uxth	r3, r3
 1661 002c 43F00803 		orr	r3, r3, #8
 1662 0030 0B83     		strh	r3, [r1, #24]	@ movhi
 1663 0032 2023     		movs	r3, #32
 1664 0034 C367     		str	r3, [r0, #124]
 1665 0036 C0F88030 		str	r3, [r0, #128]
 1666 003a 0266     		str	r2, [r0, #96]
 1667 003c FFF7FEFF 		bl	HAL_UART_AbortCpltCallback
 1668              	.L157:
 1669 0040 08BD     		pop	{r3, pc}
 1671              		.section	.text.UART_DMATxAbortCallback,"ax",%progbits
 1672              		.align	1
 1673              		.syntax unified
 1674              		.thumb
 1675              		.thumb_func
 1677              	UART_DMATxAbortCallback:
 1678              		@ args = 0, pretend = 0, frame = 0
 1679              		@ frame_needed = 0, uses_anonymous_args = 0
 1680 0000 08B5     		push	{r3, lr}
 1681 0002 806A     		ldr	r0, [r0, #40]
 1682 0004 036F     		ldr	r3, [r0, #112]
 1683 0006 0022     		movs	r2, #0
 1684 0008 9A63     		str	r2, [r3, #56]
 1685 000a 436F     		ldr	r3, [r0, #116]
 1686 000c 0BB1     		cbz	r3, .L162
 1687 000e 9B6B     		ldr	r3, [r3, #56]
 1688 0010 83B9     		cbnz	r3, .L161
 1689              	.L162:
 1690 0012 0023     		movs	r3, #0
 1691 0014 A0F85230 		strh	r3, [r0, #82]	@ movhi
 1692 0018 A0F85A30 		strh	r3, [r0, #90]	@ movhi
 1693 001c C0F88430 		str	r3, [r0, #132]
 1694 0020 0268     		ldr	r2, [r0]
 1695 0022 0F21     		movs	r1, #15
 1696 0024 1162     		str	r1, [r2, #32]
 1697 0026 2022     		movs	r2, #32
 1698 0028 C267     		str	r2, [r0, #124]
 1699 002a C0F88020 		str	r2, [r0, #128]
 1700 002e 0366     		str	r3, [r0, #96]
 1701 0030 FFF7FEFF 		bl	HAL_UART_AbortCpltCallback
 1702              	.L161:
 1703 0034 08BD     		pop	{r3, pc}
 1705              		.section	.text.HAL_UART_AbortTransmitCpltCallback,"ax",%progbits
 1706              		.align	1
 1707              		.weak	HAL_UART_AbortTransmitCpltCallback
 1708              		.syntax unified
 1709              		.thumb
 1710              		.thumb_func
 1712              	HAL_UART_AbortTransmitCpltCallback:
ARM GAS  C:\Users\kroko\AppData\Local\Temp\ccD7coBo.s 			page 30


 1713              		@ args = 0, pretend = 0, frame = 0
 1714              		@ frame_needed = 0, uses_anonymous_args = 0
 1715              		@ link register save eliminated.
 1716 0000 7047     		bx	lr
 1718              		.section	.text.HAL_UART_AbortTransmit_IT,"ax",%progbits
 1719              		.align	1
 1720              		.global	HAL_UART_AbortTransmit_IT
 1721              		.syntax unified
 1722              		.thumb
 1723              		.thumb_func
 1725              	HAL_UART_AbortTransmit_IT:
 1726              		@ args = 0, pretend = 0, frame = 0
 1727              		@ frame_needed = 0, uses_anonymous_args = 0
 1728 0000 10B5     		push	{r4, lr}
 1729 0002 0446     		mov	r4, r0
 1730              	.L167:
 1731 0004 2268     		ldr	r2, [r4]
 1732              		.syntax unified
 1733              	@ 1155 "Drivers/CMSIS/Include/cmsis_gcc.h" 1
 1734 0006 52E8003F 		ldrex r3, [r2]
 1735              	@ 0 "" 2
 1736              		.thumb
 1737              		.syntax unified
 1738 000a 23F0C003 		bic	r3, r3, #192
 1739              		.syntax unified
 1740              	@ 1206 "Drivers/CMSIS/Include/cmsis_gcc.h" 1
 1741 000e 42E80031 		strex r1, r3, [r2]
 1742              	@ 0 "" 2
 1743              		.thumb
 1744              		.syntax unified
 1745 0012 0029     		cmp	r1, #0
 1746 0014 F6D1     		bne	.L167
 1747 0016 2368     		ldr	r3, [r4]
 1748 0018 9B68     		ldr	r3, [r3, #8]
 1749 001a 13F0800F 		tst	r3, #128
 1750 001e 21D0     		beq	.L168
 1751              	.L169:
 1752 0020 2268     		ldr	r2, [r4]
 1753 0022 02F10803 		add	r3, r2, #8
 1754              		.syntax unified
 1755              	@ 1155 "Drivers/CMSIS/Include/cmsis_gcc.h" 1
 1756 0026 53E8003F 		ldrex r3, [r3]
 1757              	@ 0 "" 2
 1758              		.thumb
 1759              		.syntax unified
 1760 002a 23F08003 		bic	r3, r3, #128
 1761 002e 0832     		adds	r2, r2, #8
 1762              		.syntax unified
 1763              	@ 1206 "Drivers/CMSIS/Include/cmsis_gcc.h" 1
 1764 0030 42E80031 		strex r1, r3, [r2]
 1765              	@ 0 "" 2
 1766              		.thumb
 1767              		.syntax unified
 1768 0034 0029     		cmp	r1, #0
 1769 0036 F3D1     		bne	.L169
 1770 0038 236F     		ldr	r3, [r4, #112]
 1771 003a 4BB1     		cbz	r3, .L170
ARM GAS  C:\Users\kroko\AppData\Local\Temp\ccD7coBo.s 			page 31


 1772 003c 0F4A     		ldr	r2, .L173
 1773 003e 9A63     		str	r2, [r3, #56]
 1774 0040 206F     		ldr	r0, [r4, #112]
 1775 0042 FFF7FEFF 		bl	HAL_DMA_Abort_IT
 1776 0046 B0B1     		cbz	r0, .L171
 1777 0048 206F     		ldr	r0, [r4, #112]
 1778 004a 836B     		ldr	r3, [r0, #56]
 1779 004c 9847     		blx	r3
 1780 004e 12E0     		b	.L171
 1781              	.L170:
 1782 0050 0023     		movs	r3, #0
 1783 0052 A4F85230 		strh	r3, [r4, #82]	@ movhi
 1784 0056 E366     		str	r3, [r4, #108]
 1785 0058 2023     		movs	r3, #32
 1786 005a E367     		str	r3, [r4, #124]
 1787 005c 2046     		mov	r0, r4
 1788 005e FFF7FEFF 		bl	HAL_UART_AbortTransmitCpltCallback
 1789 0062 08E0     		b	.L171
 1790              	.L168:
 1791 0064 0023     		movs	r3, #0
 1792 0066 A4F85230 		strh	r3, [r4, #82]	@ movhi
 1793 006a E366     		str	r3, [r4, #108]
 1794 006c 2023     		movs	r3, #32
 1795 006e E367     		str	r3, [r4, #124]
 1796 0070 2046     		mov	r0, r4
 1797 0072 FFF7FEFF 		bl	HAL_UART_AbortTransmitCpltCallback
 1798              	.L171:
 1799 0076 0020     		movs	r0, #0
 1800 0078 10BD     		pop	{r4, pc}
 1801              	.L174:
 1802 007a 00BF     		.align	2
 1803              	.L173:
 1804 007c 00000000 		.word	UART_DMATxOnlyAbortCallback
 1806              		.section	.text.UART_DMATxOnlyAbortCallback,"ax",%progbits
 1807              		.align	1
 1808              		.syntax unified
 1809              		.thumb
 1810              		.thumb_func
 1812              	UART_DMATxOnlyAbortCallback:
 1813              		@ args = 0, pretend = 0, frame = 0
 1814              		@ frame_needed = 0, uses_anonymous_args = 0
 1815 0000 08B5     		push	{r3, lr}
 1816 0002 806A     		ldr	r0, [r0, #40]
 1817 0004 0023     		movs	r3, #0
 1818 0006 A0F85230 		strh	r3, [r0, #82]	@ movhi
 1819 000a 2023     		movs	r3, #32
 1820 000c C367     		str	r3, [r0, #124]
 1821 000e FFF7FEFF 		bl	HAL_UART_AbortTransmitCpltCallback
 1822 0012 08BD     		pop	{r3, pc}
 1824              		.section	.text.HAL_UART_AbortReceiveCpltCallback,"ax",%progbits
 1825              		.align	1
 1826              		.weak	HAL_UART_AbortReceiveCpltCallback
 1827              		.syntax unified
 1828              		.thumb
 1829              		.thumb_func
 1831              	HAL_UART_AbortReceiveCpltCallback:
 1832              		@ args = 0, pretend = 0, frame = 0
ARM GAS  C:\Users\kroko\AppData\Local\Temp\ccD7coBo.s 			page 32


 1833              		@ frame_needed = 0, uses_anonymous_args = 0
 1834              		@ link register save eliminated.
 1835 0000 7047     		bx	lr
 1837              		.section	.text.HAL_UART_AbortReceive_IT,"ax",%progbits
 1838              		.align	1
 1839              		.global	HAL_UART_AbortReceive_IT
 1840              		.syntax unified
 1841              		.thumb
 1842              		.thumb_func
 1844              	HAL_UART_AbortReceive_IT:
 1845              		@ args = 0, pretend = 0, frame = 0
 1846              		@ frame_needed = 0, uses_anonymous_args = 0
 1847 0000 10B5     		push	{r4, lr}
 1848 0002 0446     		mov	r4, r0
 1849              	.L179:
 1850 0004 2268     		ldr	r2, [r4]
 1851              		.syntax unified
 1852              	@ 1155 "Drivers/CMSIS/Include/cmsis_gcc.h" 1
 1853 0006 52E8003F 		ldrex r3, [r2]
 1854              	@ 0 "" 2
 1855              		.thumb
 1856              		.syntax unified
 1857 000a 23F49073 		bic	r3, r3, #288
 1858              		.syntax unified
 1859              	@ 1206 "Drivers/CMSIS/Include/cmsis_gcc.h" 1
 1860 000e 42E80031 		strex r1, r3, [r2]
 1861              	@ 0 "" 2
 1862              		.thumb
 1863              		.syntax unified
 1864 0012 0029     		cmp	r1, #0
 1865 0014 F6D1     		bne	.L179
 1866              	.L180:
 1867 0016 2268     		ldr	r2, [r4]
 1868 0018 02F10803 		add	r3, r2, #8
 1869              		.syntax unified
 1870              	@ 1155 "Drivers/CMSIS/Include/cmsis_gcc.h" 1
 1871 001c 53E8003F 		ldrex r3, [r3]
 1872              	@ 0 "" 2
 1873              		.thumb
 1874              		.syntax unified
 1875 0020 23F00103 		bic	r3, r3, #1
 1876 0024 0832     		adds	r2, r2, #8
 1877              		.syntax unified
 1878              	@ 1206 "Drivers/CMSIS/Include/cmsis_gcc.h" 1
 1879 0026 42E80031 		strex r1, r3, [r2]
 1880              	@ 0 "" 2
 1881              		.thumb
 1882              		.syntax unified
 1883 002a 0029     		cmp	r1, #0
 1884 002c F3D1     		bne	.L180
 1885 002e 236E     		ldr	r3, [r4, #96]
 1886 0030 012B     		cmp	r3, #1
 1887 0032 1DD0     		beq	.L182
 1888              	.L181:
 1889 0034 2368     		ldr	r3, [r4]
 1890 0036 9A68     		ldr	r2, [r3, #8]
 1891 0038 12F0400F 		tst	r2, #64
ARM GAS  C:\Users\kroko\AppData\Local\Temp\ccD7coBo.s 			page 33


 1892 003c 37D0     		beq	.L183
 1893              	.L184:
 1894 003e 2268     		ldr	r2, [r4]
 1895 0040 02F10803 		add	r3, r2, #8
 1896              		.syntax unified
 1897              	@ 1155 "Drivers/CMSIS/Include/cmsis_gcc.h" 1
 1898 0044 53E8003F 		ldrex r3, [r3]
 1899              	@ 0 "" 2
 1900              		.thumb
 1901              		.syntax unified
 1902 0048 23F04003 		bic	r3, r3, #64
 1903 004c 0832     		adds	r2, r2, #8
 1904              		.syntax unified
 1905              	@ 1206 "Drivers/CMSIS/Include/cmsis_gcc.h" 1
 1906 004e 42E80031 		strex r1, r3, [r2]
 1907              	@ 0 "" 2
 1908              		.thumb
 1909              		.syntax unified
 1910 0052 0029     		cmp	r1, #0
 1911 0054 F3D1     		bne	.L184
 1912 0056 636F     		ldr	r3, [r4, #116]
 1913 0058 A3B1     		cbz	r3, .L185
 1914 005a 1C4A     		ldr	r2, .L188
 1915 005c 9A63     		str	r2, [r3, #56]
 1916 005e 606F     		ldr	r0, [r4, #116]
 1917 0060 FFF7FEFF 		bl	HAL_DMA_Abort_IT
 1918 0064 0028     		cmp	r0, #0
 1919 0066 2FD0     		beq	.L186
 1920 0068 606F     		ldr	r0, [r4, #116]
 1921 006a 836B     		ldr	r3, [r0, #56]
 1922 006c 9847     		blx	r3
 1923 006e 2BE0     		b	.L186
 1924              	.L182:
 1925 0070 2268     		ldr	r2, [r4]
 1926              		.syntax unified
 1927              	@ 1155 "Drivers/CMSIS/Include/cmsis_gcc.h" 1
 1928 0072 52E8003F 		ldrex r3, [r2]
 1929              	@ 0 "" 2
 1930              		.thumb
 1931              		.syntax unified
 1932 0076 23F01003 		bic	r3, r3, #16
 1933              		.syntax unified
 1934              	@ 1206 "Drivers/CMSIS/Include/cmsis_gcc.h" 1
 1935 007a 42E80031 		strex r1, r3, [r2]
 1936              	@ 0 "" 2
 1937              		.thumb
 1938              		.syntax unified
 1939 007e 0029     		cmp	r1, #0
 1940 0080 F6D1     		bne	.L182
 1941 0082 D7E7     		b	.L181
 1942              	.L185:
 1943 0084 0022     		movs	r2, #0
 1944 0086 A4F85A20 		strh	r2, [r4, #90]	@ movhi
 1945 008a 6265     		str	r2, [r4, #84]
 1946 008c 2368     		ldr	r3, [r4]
 1947 008e 0F21     		movs	r1, #15
 1948 0090 1962     		str	r1, [r3, #32]
ARM GAS  C:\Users\kroko\AppData\Local\Temp\ccD7coBo.s 			page 34


 1949 0092 2168     		ldr	r1, [r4]
 1950 0094 0B8B     		ldrh	r3, [r1, #24]
 1951 0096 9BB2     		uxth	r3, r3
 1952 0098 43F00803 		orr	r3, r3, #8
 1953 009c 0B83     		strh	r3, [r1, #24]	@ movhi
 1954 009e 2023     		movs	r3, #32
 1955 00a0 C4F88030 		str	r3, [r4, #128]
 1956 00a4 2266     		str	r2, [r4, #96]
 1957 00a6 2046     		mov	r0, r4
 1958 00a8 FFF7FEFF 		bl	HAL_UART_AbortReceiveCpltCallback
 1959 00ac 0CE0     		b	.L186
 1960              	.L183:
 1961 00ae 0022     		movs	r2, #0
 1962 00b0 A4F85A20 		strh	r2, [r4, #90]	@ movhi
 1963 00b4 6265     		str	r2, [r4, #84]
 1964 00b6 0F21     		movs	r1, #15
 1965 00b8 1962     		str	r1, [r3, #32]
 1966 00ba 2023     		movs	r3, #32
 1967 00bc C4F88030 		str	r3, [r4, #128]
 1968 00c0 2266     		str	r2, [r4, #96]
 1969 00c2 2046     		mov	r0, r4
 1970 00c4 FFF7FEFF 		bl	HAL_UART_AbortReceiveCpltCallback
 1971              	.L186:
 1972 00c8 0020     		movs	r0, #0
 1973 00ca 10BD     		pop	{r4, pc}
 1974              	.L189:
 1975              		.align	2
 1976              	.L188:
 1977 00cc 00000000 		.word	UART_DMARxOnlyAbortCallback
 1979              		.section	.text.UART_DMARxOnlyAbortCallback,"ax",%progbits
 1980              		.align	1
 1981              		.syntax unified
 1982              		.thumb
 1983              		.thumb_func
 1985              	UART_DMARxOnlyAbortCallback:
 1986              		@ args = 0, pretend = 0, frame = 0
 1987              		@ frame_needed = 0, uses_anonymous_args = 0
 1988 0000 08B5     		push	{r3, lr}
 1989 0002 806A     		ldr	r0, [r0, #40]
 1990 0004 0022     		movs	r2, #0
 1991 0006 A0F85A20 		strh	r2, [r0, #90]	@ movhi
 1992 000a 0368     		ldr	r3, [r0]
 1993 000c 0F21     		movs	r1, #15
 1994 000e 1962     		str	r1, [r3, #32]
 1995 0010 0168     		ldr	r1, [r0]
 1996 0012 0B8B     		ldrh	r3, [r1, #24]
 1997 0014 9BB2     		uxth	r3, r3
 1998 0016 43F00803 		orr	r3, r3, #8
 1999 001a 0B83     		strh	r3, [r1, #24]	@ movhi
 2000 001c 2023     		movs	r3, #32
 2001 001e C0F88030 		str	r3, [r0, #128]
 2002 0022 0266     		str	r2, [r0, #96]
 2003 0024 FFF7FEFF 		bl	HAL_UART_AbortReceiveCpltCallback
 2004 0028 08BD     		pop	{r3, pc}
 2006              		.section	.text.HAL_UARTEx_RxEventCallback,"ax",%progbits
 2007              		.align	1
 2008              		.weak	HAL_UARTEx_RxEventCallback
ARM GAS  C:\Users\kroko\AppData\Local\Temp\ccD7coBo.s 			page 35


 2009              		.syntax unified
 2010              		.thumb
 2011              		.thumb_func
 2013              	HAL_UARTEx_RxEventCallback:
 2014              		@ args = 0, pretend = 0, frame = 0
 2015              		@ frame_needed = 0, uses_anonymous_args = 0
 2016              		@ link register save eliminated.
 2017 0000 7047     		bx	lr
 2019              		.section	.text.HAL_UART_IRQHandler,"ax",%progbits
 2020              		.align	1
 2021              		.global	HAL_UART_IRQHandler
 2022              		.syntax unified
 2023              		.thumb
 2024              		.thumb_func
 2026              	HAL_UART_IRQHandler:
 2027              		@ args = 0, pretend = 0, frame = 0
 2028              		@ frame_needed = 0, uses_anonymous_args = 0
 2029 0000 70B5     		push	{r4, r5, r6, lr}
 2030 0002 0446     		mov	r4, r0
 2031 0004 0268     		ldr	r2, [r0]
 2032 0006 D369     		ldr	r3, [r2, #28]
 2033 0008 1168     		ldr	r1, [r2]
 2034 000a 9068     		ldr	r0, [r2, #8]
 2035 000c 40F60F0C 		movw	ip, #2063
 2036 0010 13EA0C0F 		tst	r3, ip
 2037 0014 0AD1     		bne	.L194
 2038 0016 13F0200F 		tst	r3, #32
 2039 001a 0DD0     		beq	.L195
 2040 001c 11F0200F 		tst	r1, #32
 2041 0020 0AD0     		beq	.L195
 2042 0022 A36E     		ldr	r3, [r4, #104]
 2043 0024 0BB3     		cbz	r3, .L193
 2044 0026 2046     		mov	r0, r4
 2045 0028 9847     		blx	r3
 2046 002a 1EE0     		b	.L193
 2047              	.L194:
 2048 002c 10F00105 		ands	r5, r0, #1
 2049 0030 1CD1     		bne	.L198
 2050 0032 AD4E     		ldr	r6, .L233
 2051 0034 3142     		tst	r1, r6
 2052 0036 19D1     		bne	.L198
 2053              	.L195:
 2054 0038 256E     		ldr	r5, [r4, #96]
 2055 003a 012D     		cmp	r5, #1
 2056 003c 00F0A480 		beq	.L229
 2057              	.L212:
 2058 0040 13F4801F 		tst	r3, #1048576
 2059 0044 03D0     		beq	.L225
 2060 0046 10F4800F 		tst	r0, #4194304
 2061 004a 40F04681 		bne	.L230
 2062              	.L225:
 2063 004e 13F0800F 		tst	r3, #128
 2064 0052 03D0     		beq	.L226
 2065 0054 11F0800F 		tst	r1, #128
 2066 0058 40F04A81 		bne	.L231
 2067              	.L226:
 2068 005c 13F0400F 		tst	r3, #64
ARM GAS  C:\Users\kroko\AppData\Local\Temp\ccD7coBo.s 			page 36


 2069 0060 03D0     		beq	.L193
 2070 0062 11F0400F 		tst	r1, #64
 2071 0066 40F04A81 		bne	.L232
 2072              	.L193:
 2073 006a 70BD     		pop	{r4, r5, r6, pc}
 2074              	.L198:
 2075 006c 13F0010F 		tst	r3, #1
 2076 0070 09D0     		beq	.L199
 2077 0072 11F4807F 		tst	r1, #256
 2078 0076 06D0     		beq	.L199
 2079 0078 0120     		movs	r0, #1
 2080 007a 1062     		str	r0, [r2, #32]
 2081 007c D4F88420 		ldr	r2, [r4, #132]
 2082 0080 0243     		orrs	r2, r2, r0
 2083 0082 C4F88420 		str	r2, [r4, #132]
 2084              	.L199:
 2085 0086 13F0020F 		tst	r3, #2
 2086 008a 09D0     		beq	.L200
 2087 008c 45B1     		cbz	r5, .L200
 2088 008e 2268     		ldr	r2, [r4]
 2089 0090 0220     		movs	r0, #2
 2090 0092 1062     		str	r0, [r2, #32]
 2091 0094 D4F88420 		ldr	r2, [r4, #132]
 2092 0098 42F00402 		orr	r2, r2, #4
 2093 009c C4F88420 		str	r2, [r4, #132]
 2094              	.L200:
 2095 00a0 13F0040F 		tst	r3, #4
 2096 00a4 09D0     		beq	.L201
 2097 00a6 45B1     		cbz	r5, .L201
 2098 00a8 2268     		ldr	r2, [r4]
 2099 00aa 0420     		movs	r0, #4
 2100 00ac 1062     		str	r0, [r2, #32]
 2101 00ae D4F88420 		ldr	r2, [r4, #132]
 2102 00b2 42F00202 		orr	r2, r2, #2
 2103 00b6 C4F88420 		str	r2, [r4, #132]
 2104              	.L201:
 2105 00ba 13F0080F 		tst	r3, #8
 2106 00be 0BD0     		beq	.L202
 2107 00c0 11F0200F 		tst	r1, #32
 2108 00c4 00D1     		bne	.L203
 2109 00c6 3DB1     		cbz	r5, .L202
 2110              	.L203:
 2111 00c8 2268     		ldr	r2, [r4]
 2112 00ca 0820     		movs	r0, #8
 2113 00cc 1062     		str	r0, [r2, #32]
 2114 00ce D4F88420 		ldr	r2, [r4, #132]
 2115 00d2 0243     		orrs	r2, r2, r0
 2116 00d4 C4F88420 		str	r2, [r4, #132]
 2117              	.L202:
 2118 00d8 13F4006F 		tst	r3, #2048
 2119 00dc 0CD0     		beq	.L204
 2120 00de 11F0806F 		tst	r1, #67108864
 2121 00e2 09D0     		beq	.L204
 2122 00e4 2268     		ldr	r2, [r4]
 2123 00e6 4FF40060 		mov	r0, #2048
 2124 00ea 1062     		str	r0, [r2, #32]
 2125 00ec D4F88420 		ldr	r2, [r4, #132]
ARM GAS  C:\Users\kroko\AppData\Local\Temp\ccD7coBo.s 			page 37


 2126 00f0 42F02002 		orr	r2, r2, #32
 2127 00f4 C4F88420 		str	r2, [r4, #132]
 2128              	.L204:
 2129 00f8 D4F88420 		ldr	r2, [r4, #132]
 2130 00fc 002A     		cmp	r2, #0
 2131 00fe B4D0     		beq	.L193
 2132 0100 13F0200F 		tst	r3, #32
 2133 0104 06D0     		beq	.L206
 2134 0106 11F0200F 		tst	r1, #32
 2135 010a 03D0     		beq	.L206
 2136 010c A36E     		ldr	r3, [r4, #104]
 2137 010e 0BB1     		cbz	r3, .L206
 2138 0110 2046     		mov	r0, r4
 2139 0112 9847     		blx	r3
 2140              	.L206:
 2141 0114 D4F88420 		ldr	r2, [r4, #132]
 2142 0118 2368     		ldr	r3, [r4]
 2143 011a 9B68     		ldr	r3, [r3, #8]
 2144 011c 13F0400F 		tst	r3, #64
 2145 0120 02D1     		bne	.L207
 2146 0122 12F0280F 		tst	r2, #40
 2147 0126 28D0     		beq	.L208
 2148              	.L207:
 2149 0128 2046     		mov	r0, r4
 2150 012a FFF7FEFF 		bl	UART_EndRxTransfer
 2151 012e 2368     		ldr	r3, [r4]
 2152 0130 9B68     		ldr	r3, [r3, #8]
 2153 0132 13F0400F 		tst	r3, #64
 2154 0136 1CD0     		beq	.L209
 2155              	.L210:
 2156 0138 2268     		ldr	r2, [r4]
 2157 013a 02F10803 		add	r3, r2, #8
 2158              		.syntax unified
 2159              	@ 1155 "Drivers/CMSIS/Include/cmsis_gcc.h" 1
 2160 013e 53E8003F 		ldrex r3, [r3]
 2161              	@ 0 "" 2
 2162              		.thumb
 2163              		.syntax unified
 2164 0142 23F04003 		bic	r3, r3, #64
 2165 0146 0832     		adds	r2, r2, #8
 2166              		.syntax unified
 2167              	@ 1206 "Drivers/CMSIS/Include/cmsis_gcc.h" 1
 2168 0148 42E80031 		strex r1, r3, [r2]
 2169              	@ 0 "" 2
 2170              		.thumb
 2171              		.syntax unified
 2172 014c 0029     		cmp	r1, #0
 2173 014e F3D1     		bne	.L210
 2174 0150 636F     		ldr	r3, [r4, #116]
 2175 0152 53B1     		cbz	r3, .L211
 2176 0154 654A     		ldr	r2, .L233+4
 2177 0156 9A63     		str	r2, [r3, #56]
 2178 0158 606F     		ldr	r0, [r4, #116]
 2179 015a FFF7FEFF 		bl	HAL_DMA_Abort_IT
 2180 015e 0028     		cmp	r0, #0
 2181 0160 83D0     		beq	.L193
 2182 0162 606F     		ldr	r0, [r4, #116]
ARM GAS  C:\Users\kroko\AppData\Local\Temp\ccD7coBo.s 			page 38


 2183 0164 836B     		ldr	r3, [r0, #56]
 2184 0166 9847     		blx	r3
 2185 0168 7FE7     		b	.L193
 2186              	.L211:
 2187 016a 2046     		mov	r0, r4
 2188 016c FFF7FEFF 		bl	HAL_UART_ErrorCallback
 2189 0170 7BE7     		b	.L193
 2190              	.L209:
 2191 0172 2046     		mov	r0, r4
 2192 0174 FFF7FEFF 		bl	HAL_UART_ErrorCallback
 2193 0178 77E7     		b	.L193
 2194              	.L208:
 2195 017a 2046     		mov	r0, r4
 2196 017c FFF7FEFF 		bl	HAL_UART_ErrorCallback
 2197 0180 0023     		movs	r3, #0
 2198 0182 C4F88430 		str	r3, [r4, #132]
 2199 0186 70E7     		b	.L193
 2200              	.L229:
 2201 0188 13F0100F 		tst	r3, #16
 2202 018c 3FF458AF 		beq	.L212
 2203 0190 11F0100F 		tst	r1, #16
 2204 0194 3FF454AF 		beq	.L212
 2205 0198 1023     		movs	r3, #16
 2206 019a 1362     		str	r3, [r2, #32]
 2207 019c 2368     		ldr	r3, [r4]
 2208 019e 9B68     		ldr	r3, [r3, #8]
 2209 01a0 13F0400F 		tst	r3, #64
 2210 01a4 5FD0     		beq	.L213
 2211 01a6 616F     		ldr	r1, [r4, #116]
 2212 01a8 0A68     		ldr	r2, [r1]
 2213 01aa 5368     		ldr	r3, [r2, #4]
 2214 01ac 9BB2     		uxth	r3, r3
 2215 01ae 002B     		cmp	r3, #0
 2216 01b0 49D0     		beq	.L214
 2217 01b2 B4F85800 		ldrh	r0, [r4, #88]
 2218 01b6 9842     		cmp	r0, r3
 2219 01b8 45D9     		bls	.L214
 2220 01ba A4F85A30 		strh	r3, [r4, #90]	@ movhi
 2221 01be 0B68     		ldr	r3, [r1]
 2222 01c0 1B68     		ldr	r3, [r3]
 2223 01c2 13F0200F 		tst	r3, #32
 2224 01c6 31D1     		bne	.L215
 2225              	.L216:
 2226 01c8 2268     		ldr	r2, [r4]
 2227              		.syntax unified
 2228              	@ 1155 "Drivers/CMSIS/Include/cmsis_gcc.h" 1
 2229 01ca 52E8003F 		ldrex r3, [r2]
 2230              	@ 0 "" 2
 2231              		.thumb
 2232              		.syntax unified
 2233 01ce 23F48073 		bic	r3, r3, #256
 2234              		.syntax unified
 2235              	@ 1206 "Drivers/CMSIS/Include/cmsis_gcc.h" 1
 2236 01d2 42E80031 		strex r1, r3, [r2]
 2237              	@ 0 "" 2
 2238              		.thumb
 2239              		.syntax unified
ARM GAS  C:\Users\kroko\AppData\Local\Temp\ccD7coBo.s 			page 39


 2240 01d6 0029     		cmp	r1, #0
 2241 01d8 F6D1     		bne	.L216
 2242              	.L217:
 2243 01da 2268     		ldr	r2, [r4]
 2244 01dc 02F10803 		add	r3, r2, #8
 2245              		.syntax unified
 2246              	@ 1155 "Drivers/CMSIS/Include/cmsis_gcc.h" 1
 2247 01e0 53E8003F 		ldrex r3, [r3]
 2248              	@ 0 "" 2
 2249              		.thumb
 2250              		.syntax unified
 2251 01e4 23F00103 		bic	r3, r3, #1
 2252 01e8 0832     		adds	r2, r2, #8
 2253              		.syntax unified
 2254              	@ 1206 "Drivers/CMSIS/Include/cmsis_gcc.h" 1
 2255 01ea 42E80031 		strex r1, r3, [r2]
 2256              	@ 0 "" 2
 2257              		.thumb
 2258              		.syntax unified
 2259 01ee 0029     		cmp	r1, #0
 2260 01f0 F3D1     		bne	.L217
 2261              	.L218:
 2262 01f2 2268     		ldr	r2, [r4]
 2263 01f4 02F10803 		add	r3, r2, #8
 2264              		.syntax unified
 2265              	@ 1155 "Drivers/CMSIS/Include/cmsis_gcc.h" 1
 2266 01f8 53E8003F 		ldrex r3, [r3]
 2267              	@ 0 "" 2
 2268              		.thumb
 2269              		.syntax unified
 2270 01fc 23F04003 		bic	r3, r3, #64
 2271 0200 0832     		adds	r2, r2, #8
 2272              		.syntax unified
 2273              	@ 1206 "Drivers/CMSIS/Include/cmsis_gcc.h" 1
 2274 0202 42E80031 		strex r1, r3, [r2]
 2275              	@ 0 "" 2
 2276              		.thumb
 2277              		.syntax unified
 2278 0206 0029     		cmp	r1, #0
 2279 0208 F3D1     		bne	.L218
 2280 020a 2023     		movs	r3, #32
 2281 020c C4F88030 		str	r3, [r4, #128]
 2282 0210 0023     		movs	r3, #0
 2283 0212 2366     		str	r3, [r4, #96]
 2284              	.L219:
 2285 0214 2268     		ldr	r2, [r4]
 2286              		.syntax unified
 2287              	@ 1155 "Drivers/CMSIS/Include/cmsis_gcc.h" 1
 2288 0216 52E8003F 		ldrex r3, [r2]
 2289              	@ 0 "" 2
 2290              		.thumb
 2291              		.syntax unified
 2292 021a 23F01003 		bic	r3, r3, #16
 2293              		.syntax unified
 2294              	@ 1206 "Drivers/CMSIS/Include/cmsis_gcc.h" 1
 2295 021e 42E80031 		strex r1, r3, [r2]
 2296              	@ 0 "" 2
ARM GAS  C:\Users\kroko\AppData\Local\Temp\ccD7coBo.s 			page 40


 2297              		.thumb
 2298              		.syntax unified
 2299 0222 0029     		cmp	r1, #0
 2300 0224 F6D1     		bne	.L219
 2301 0226 606F     		ldr	r0, [r4, #116]
 2302 0228 FFF7FEFF 		bl	HAL_DMA_Abort
 2303              	.L215:
 2304 022c 0223     		movs	r3, #2
 2305 022e 6366     		str	r3, [r4, #100]
 2306 0230 B4F85810 		ldrh	r1, [r4, #88]
 2307 0234 B4F85A30 		ldrh	r3, [r4, #90]
 2308 0238 9BB2     		uxth	r3, r3
 2309 023a C91A     		subs	r1, r1, r3
 2310 023c 89B2     		uxth	r1, r1
 2311 023e 2046     		mov	r0, r4
 2312 0240 FFF7FEFF 		bl	HAL_UARTEx_RxEventCallback
 2313 0244 11E7     		b	.L193
 2314              	.L214:
 2315 0246 B4F85810 		ldrh	r1, [r4, #88]
 2316 024a 9942     		cmp	r1, r3
 2317 024c 7FF40DAF 		bne	.L193
 2318 0250 1368     		ldr	r3, [r2]
 2319 0252 13F0200F 		tst	r3, #32
 2320 0256 3FF408AF 		beq	.L193
 2321 025a 0223     		movs	r3, #2
 2322 025c 6366     		str	r3, [r4, #100]
 2323 025e 2046     		mov	r0, r4
 2324 0260 FFF7FEFF 		bl	HAL_UARTEx_RxEventCallback
 2325 0264 01E7     		b	.L193
 2326              	.L213:
 2327 0266 B4F85810 		ldrh	r1, [r4, #88]
 2328 026a B4F85A30 		ldrh	r3, [r4, #90]
 2329 026e 9BB2     		uxth	r3, r3
 2330 0270 C91A     		subs	r1, r1, r3
 2331 0272 89B2     		uxth	r1, r1
 2332 0274 B4F85A30 		ldrh	r3, [r4, #90]
 2333 0278 9BB2     		uxth	r3, r3
 2334 027a 002B     		cmp	r3, #0
 2335 027c 3FF4F5AE 		beq	.L193
 2336 0280 0029     		cmp	r1, #0
 2337 0282 3FF4F2AE 		beq	.L193
 2338              	.L222:
 2339 0286 2268     		ldr	r2, [r4]
 2340              		.syntax unified
 2341              	@ 1155 "Drivers/CMSIS/Include/cmsis_gcc.h" 1
 2342 0288 52E8003F 		ldrex r3, [r2]
 2343              	@ 0 "" 2
 2344              		.thumb
 2345              		.syntax unified
 2346 028c 23F49073 		bic	r3, r3, #288
 2347              		.syntax unified
 2348              	@ 1206 "Drivers/CMSIS/Include/cmsis_gcc.h" 1
 2349 0290 42E80030 		strex r0, r3, [r2]
 2350              	@ 0 "" 2
 2351              		.thumb
 2352              		.syntax unified
 2353 0294 0028     		cmp	r0, #0
ARM GAS  C:\Users\kroko\AppData\Local\Temp\ccD7coBo.s 			page 41


 2354 0296 F6D1     		bne	.L222
 2355              	.L223:
 2356 0298 2268     		ldr	r2, [r4]
 2357 029a 02F10803 		add	r3, r2, #8
 2358              		.syntax unified
 2359              	@ 1155 "Drivers/CMSIS/Include/cmsis_gcc.h" 1
 2360 029e 53E8003F 		ldrex r3, [r3]
 2361              	@ 0 "" 2
 2362              		.thumb
 2363              		.syntax unified
 2364 02a2 23F00103 		bic	r3, r3, #1
 2365 02a6 0832     		adds	r2, r2, #8
 2366              		.syntax unified
 2367              	@ 1206 "Drivers/CMSIS/Include/cmsis_gcc.h" 1
 2368 02a8 42E80030 		strex r0, r3, [r2]
 2369              	@ 0 "" 2
 2370              		.thumb
 2371              		.syntax unified
 2372 02ac 0028     		cmp	r0, #0
 2373 02ae F3D1     		bne	.L223
 2374 02b0 2023     		movs	r3, #32
 2375 02b2 C4F88030 		str	r3, [r4, #128]
 2376 02b6 0023     		movs	r3, #0
 2377 02b8 2366     		str	r3, [r4, #96]
 2378 02ba A366     		str	r3, [r4, #104]
 2379              	.L224:
 2380 02bc 2268     		ldr	r2, [r4]
 2381              		.syntax unified
 2382              	@ 1155 "Drivers/CMSIS/Include/cmsis_gcc.h" 1
 2383 02be 52E8003F 		ldrex r3, [r2]
 2384              	@ 0 "" 2
 2385              		.thumb
 2386              		.syntax unified
 2387 02c2 23F01003 		bic	r3, r3, #16
 2388              		.syntax unified
 2389              	@ 1206 "Drivers/CMSIS/Include/cmsis_gcc.h" 1
 2390 02c6 42E80030 		strex r0, r3, [r2]
 2391              	@ 0 "" 2
 2392              		.thumb
 2393              		.syntax unified
 2394 02ca 0028     		cmp	r0, #0
 2395 02cc F6D1     		bne	.L224
 2396 02ce 0223     		movs	r3, #2
 2397 02d0 6366     		str	r3, [r4, #100]
 2398 02d2 2046     		mov	r0, r4
 2399 02d4 FFF7FEFF 		bl	HAL_UARTEx_RxEventCallback
 2400 02d8 C7E6     		b	.L193
 2401              	.L230:
 2402 02da 4FF48013 		mov	r3, #1048576
 2403 02de 1362     		str	r3, [r2, #32]
 2404 02e0 2046     		mov	r0, r4
 2405 02e2 FFF7FEFF 		bl	HAL_UARTEx_WakeupCallback
 2406 02e6 C0E6     		b	.L193
 2407              	.L234:
 2408              		.align	2
 2409              	.L233:
 2410 02e8 20010004 		.word	67109152
ARM GAS  C:\Users\kroko\AppData\Local\Temp\ccD7coBo.s 			page 42


 2411 02ec 00000000 		.word	UART_DMAAbortOnError
 2412              	.L231:
 2413 02f0 E36E     		ldr	r3, [r4, #108]
 2414 02f2 002B     		cmp	r3, #0
 2415 02f4 3FF4B9AE 		beq	.L193
 2416 02f8 2046     		mov	r0, r4
 2417 02fa 9847     		blx	r3
 2418 02fc B5E6     		b	.L193
 2419              	.L232:
 2420 02fe 2046     		mov	r0, r4
 2421 0300 FFF7FEFF 		bl	UART_EndTransmit_IT
 2422 0304 B1E6     		b	.L193
 2424 0306 00BF     		.section	.text.UART_RxISR_8BIT,"ax",%progbits
 2425              		.align	1
 2426              		.syntax unified
 2427              		.thumb
 2428              		.thumb_func
 2430              	UART_RxISR_8BIT:
 2431              		@ args = 0, pretend = 0, frame = 0
 2432              		@ frame_needed = 0, uses_anonymous_args = 0
 2433 0000 08B5     		push	{r3, lr}
 2434 0002 B0F85C30 		ldrh	r3, [r0, #92]
 2435 0006 D0F88020 		ldr	r2, [r0, #128]
 2436 000a 222A     		cmp	r2, #34
 2437 000c 06D0     		beq	.L246
 2438 000e 0268     		ldr	r2, [r0]
 2439 0010 138B     		ldrh	r3, [r2, #24]
 2440 0012 9BB2     		uxth	r3, r3
 2441 0014 43F00803 		orr	r3, r3, #8
 2442 0018 1383     		strh	r3, [r2, #24]	@ movhi
 2443              	.L235:
 2444 001a 08BD     		pop	{r3, pc}
 2445              	.L246:
 2446 001c 0268     		ldr	r2, [r0]
 2447 001e 918C     		ldrh	r1, [r2, #36]
 2448 0020 DBB2     		uxtb	r3, r3
 2449 0022 426D     		ldr	r2, [r0, #84]
 2450 0024 0B40     		ands	r3, r3, r1
 2451 0026 1370     		strb	r3, [r2]
 2452 0028 436D     		ldr	r3, [r0, #84]
 2453 002a 0133     		adds	r3, r3, #1
 2454 002c 4365     		str	r3, [r0, #84]
 2455 002e B0F85A30 		ldrh	r3, [r0, #90]
 2456 0032 9BB2     		uxth	r3, r3
 2457 0034 013B     		subs	r3, r3, #1
 2458 0036 9BB2     		uxth	r3, r3
 2459 0038 A0F85A30 		strh	r3, [r0, #90]	@ movhi
 2460 003c B0F85A30 		ldrh	r3, [r0, #90]
 2461 0040 9BB2     		uxth	r3, r3
 2462 0042 002B     		cmp	r3, #0
 2463 0044 E9D1     		bne	.L235
 2464              	.L238:
 2465 0046 0268     		ldr	r2, [r0]
 2466              		.syntax unified
 2467              	@ 1155 "Drivers/CMSIS/Include/cmsis_gcc.h" 1
 2468 0048 52E8003F 		ldrex r3, [r2]
 2469              	@ 0 "" 2
ARM GAS  C:\Users\kroko\AppData\Local\Temp\ccD7coBo.s 			page 43


 2470              		.thumb
 2471              		.syntax unified
 2472 004c 23F49073 		bic	r3, r3, #288
 2473              		.syntax unified
 2474              	@ 1206 "Drivers/CMSIS/Include/cmsis_gcc.h" 1
 2475 0050 42E80031 		strex r1, r3, [r2]
 2476              	@ 0 "" 2
 2477              		.thumb
 2478              		.syntax unified
 2479 0054 0029     		cmp	r1, #0
 2480 0056 F6D1     		bne	.L238
 2481              	.L239:
 2482 0058 0268     		ldr	r2, [r0]
 2483 005a 02F10803 		add	r3, r2, #8
 2484              		.syntax unified
 2485              	@ 1155 "Drivers/CMSIS/Include/cmsis_gcc.h" 1
 2486 005e 53E8003F 		ldrex r3, [r3]
 2487              	@ 0 "" 2
 2488              		.thumb
 2489              		.syntax unified
 2490 0062 23F00103 		bic	r3, r3, #1
 2491 0066 0832     		adds	r2, r2, #8
 2492              		.syntax unified
 2493              	@ 1206 "Drivers/CMSIS/Include/cmsis_gcc.h" 1
 2494 0068 42E80031 		strex r1, r3, [r2]
 2495              	@ 0 "" 2
 2496              		.thumb
 2497              		.syntax unified
 2498 006c 0029     		cmp	r1, #0
 2499 006e F3D1     		bne	.L239
 2500 0070 2023     		movs	r3, #32
 2501 0072 C0F88030 		str	r3, [r0, #128]
 2502 0076 0023     		movs	r3, #0
 2503 0078 8366     		str	r3, [r0, #104]
 2504 007a 4366     		str	r3, [r0, #100]
 2505 007c 0368     		ldr	r3, [r0]
 2506 007e 164A     		ldr	r2, .L247
 2507 0080 9342     		cmp	r3, r2
 2508 0082 0CD0     		beq	.L240
 2509 0084 5B68     		ldr	r3, [r3, #4]
 2510 0086 13F4000F 		tst	r3, #8388608
 2511 008a 08D0     		beq	.L240
 2512              	.L241:
 2513 008c 0268     		ldr	r2, [r0]
 2514              		.syntax unified
 2515              	@ 1155 "Drivers/CMSIS/Include/cmsis_gcc.h" 1
 2516 008e 52E8003F 		ldrex r3, [r2]
 2517              	@ 0 "" 2
 2518              		.thumb
 2519              		.syntax unified
 2520 0092 23F08063 		bic	r3, r3, #67108864
 2521              		.syntax unified
 2522              	@ 1206 "Drivers/CMSIS/Include/cmsis_gcc.h" 1
 2523 0096 42E80031 		strex r1, r3, [r2]
 2524              	@ 0 "" 2
 2525              		.thumb
 2526              		.syntax unified
ARM GAS  C:\Users\kroko\AppData\Local\Temp\ccD7coBo.s 			page 44


 2527 009a 0029     		cmp	r1, #0
 2528 009c F6D1     		bne	.L241
 2529              	.L240:
 2530 009e 036E     		ldr	r3, [r0, #96]
 2531 00a0 012B     		cmp	r3, #1
 2532 00a2 16D1     		bne	.L242
 2533 00a4 0023     		movs	r3, #0
 2534 00a6 0366     		str	r3, [r0, #96]
 2535              	.L243:
 2536 00a8 0268     		ldr	r2, [r0]
 2537              		.syntax unified
 2538              	@ 1155 "Drivers/CMSIS/Include/cmsis_gcc.h" 1
 2539 00aa 52E8003F 		ldrex r3, [r2]
 2540              	@ 0 "" 2
 2541              		.thumb
 2542              		.syntax unified
 2543 00ae 23F01003 		bic	r3, r3, #16
 2544              		.syntax unified
 2545              	@ 1206 "Drivers/CMSIS/Include/cmsis_gcc.h" 1
 2546 00b2 42E80031 		strex r1, r3, [r2]
 2547              	@ 0 "" 2
 2548              		.thumb
 2549              		.syntax unified
 2550 00b6 0029     		cmp	r1, #0
 2551 00b8 F6D1     		bne	.L243
 2552 00ba 0368     		ldr	r3, [r0]
 2553 00bc DA69     		ldr	r2, [r3, #28]
 2554 00be 12F0100F 		tst	r2, #16
 2555 00c2 01D0     		beq	.L244
 2556 00c4 1022     		movs	r2, #16
 2557 00c6 1A62     		str	r2, [r3, #32]
 2558              	.L244:
 2559 00c8 B0F85810 		ldrh	r1, [r0, #88]
 2560 00cc FFF7FEFF 		bl	HAL_UARTEx_RxEventCallback
 2561 00d0 A3E7     		b	.L235
 2562              	.L242:
 2563 00d2 FFF7FEFF 		bl	HAL_UART_RxCpltCallback
 2564 00d6 A0E7     		b	.L235
 2565              	.L248:
 2566              		.align	2
 2567              	.L247:
 2568 00d8 00800040 		.word	1073774592
 2570              		.section	.text.UART_RxISR_16BIT,"ax",%progbits
 2571              		.align	1
 2572              		.syntax unified
 2573              		.thumb
 2574              		.thumb_func
 2576              	UART_RxISR_16BIT:
 2577              		@ args = 0, pretend = 0, frame = 0
 2578              		@ frame_needed = 0, uses_anonymous_args = 0
 2579 0000 08B5     		push	{r3, lr}
 2580 0002 B0F85C30 		ldrh	r3, [r0, #92]
 2581 0006 D0F88020 		ldr	r2, [r0, #128]
 2582 000a 222A     		cmp	r2, #34
 2583 000c 06D0     		beq	.L260
 2584 000e 0268     		ldr	r2, [r0]
 2585 0010 138B     		ldrh	r3, [r2, #24]
ARM GAS  C:\Users\kroko\AppData\Local\Temp\ccD7coBo.s 			page 45


 2586 0012 9BB2     		uxth	r3, r3
 2587 0014 43F00803 		orr	r3, r3, #8
 2588 0018 1383     		strh	r3, [r2, #24]	@ movhi
 2589              	.L249:
 2590 001a 08BD     		pop	{r3, pc}
 2591              	.L260:
 2592 001c 0268     		ldr	r2, [r0]
 2593 001e 918C     		ldrh	r1, [r2, #36]
 2594 0020 426D     		ldr	r2, [r0, #84]
 2595 0022 0B40     		ands	r3, r3, r1
 2596 0024 1380     		strh	r3, [r2]	@ movhi
 2597 0026 436D     		ldr	r3, [r0, #84]
 2598 0028 0233     		adds	r3, r3, #2
 2599 002a 4365     		str	r3, [r0, #84]
 2600 002c B0F85A30 		ldrh	r3, [r0, #90]
 2601 0030 9BB2     		uxth	r3, r3
 2602 0032 013B     		subs	r3, r3, #1
 2603 0034 9BB2     		uxth	r3, r3
 2604 0036 A0F85A30 		strh	r3, [r0, #90]	@ movhi
 2605 003a B0F85A30 		ldrh	r3, [r0, #90]
 2606 003e 9BB2     		uxth	r3, r3
 2607 0040 002B     		cmp	r3, #0
 2608 0042 EAD1     		bne	.L249
 2609              	.L252:
 2610 0044 0268     		ldr	r2, [r0]
 2611              		.syntax unified
 2612              	@ 1155 "Drivers/CMSIS/Include/cmsis_gcc.h" 1
 2613 0046 52E8003F 		ldrex r3, [r2]
 2614              	@ 0 "" 2
 2615              		.thumb
 2616              		.syntax unified
 2617 004a 23F49073 		bic	r3, r3, #288
 2618              		.syntax unified
 2619              	@ 1206 "Drivers/CMSIS/Include/cmsis_gcc.h" 1
 2620 004e 42E80031 		strex r1, r3, [r2]
 2621              	@ 0 "" 2
 2622              		.thumb
 2623              		.syntax unified
 2624 0052 0029     		cmp	r1, #0
 2625 0054 F6D1     		bne	.L252
 2626              	.L253:
 2627 0056 0268     		ldr	r2, [r0]
 2628 0058 02F10803 		add	r3, r2, #8
 2629              		.syntax unified
 2630              	@ 1155 "Drivers/CMSIS/Include/cmsis_gcc.h" 1
 2631 005c 53E8003F 		ldrex r3, [r3]
 2632              	@ 0 "" 2
 2633              		.thumb
 2634              		.syntax unified
 2635 0060 23F00103 		bic	r3, r3, #1
 2636 0064 0832     		adds	r2, r2, #8
 2637              		.syntax unified
 2638              	@ 1206 "Drivers/CMSIS/Include/cmsis_gcc.h" 1
 2639 0066 42E80031 		strex r1, r3, [r2]
 2640              	@ 0 "" 2
 2641              		.thumb
 2642              		.syntax unified
ARM GAS  C:\Users\kroko\AppData\Local\Temp\ccD7coBo.s 			page 46


 2643 006a 0029     		cmp	r1, #0
 2644 006c F3D1     		bne	.L253
 2645 006e 2023     		movs	r3, #32
 2646 0070 C0F88030 		str	r3, [r0, #128]
 2647 0074 0023     		movs	r3, #0
 2648 0076 8366     		str	r3, [r0, #104]
 2649 0078 4366     		str	r3, [r0, #100]
 2650 007a 0368     		ldr	r3, [r0]
 2651 007c 164A     		ldr	r2, .L261
 2652 007e 9342     		cmp	r3, r2
 2653 0080 0CD0     		beq	.L254
 2654 0082 5B68     		ldr	r3, [r3, #4]
 2655 0084 13F4000F 		tst	r3, #8388608
 2656 0088 08D0     		beq	.L254
 2657              	.L255:
 2658 008a 0268     		ldr	r2, [r0]
 2659              		.syntax unified
 2660              	@ 1155 "Drivers/CMSIS/Include/cmsis_gcc.h" 1
 2661 008c 52E8003F 		ldrex r3, [r2]
 2662              	@ 0 "" 2
 2663              		.thumb
 2664              		.syntax unified
 2665 0090 23F08063 		bic	r3, r3, #67108864
 2666              		.syntax unified
 2667              	@ 1206 "Drivers/CMSIS/Include/cmsis_gcc.h" 1
 2668 0094 42E80031 		strex r1, r3, [r2]
 2669              	@ 0 "" 2
 2670              		.thumb
 2671              		.syntax unified
 2672 0098 0029     		cmp	r1, #0
 2673 009a F6D1     		bne	.L255
 2674              	.L254:
 2675 009c 036E     		ldr	r3, [r0, #96]
 2676 009e 012B     		cmp	r3, #1
 2677 00a0 16D1     		bne	.L256
 2678 00a2 0023     		movs	r3, #0
 2679 00a4 0366     		str	r3, [r0, #96]
 2680              	.L257:
 2681 00a6 0268     		ldr	r2, [r0]
 2682              		.syntax unified
 2683              	@ 1155 "Drivers/CMSIS/Include/cmsis_gcc.h" 1
 2684 00a8 52E8003F 		ldrex r3, [r2]
 2685              	@ 0 "" 2
 2686              		.thumb
 2687              		.syntax unified
 2688 00ac 23F01003 		bic	r3, r3, #16
 2689              		.syntax unified
 2690              	@ 1206 "Drivers/CMSIS/Include/cmsis_gcc.h" 1
 2691 00b0 42E80031 		strex r1, r3, [r2]
 2692              	@ 0 "" 2
 2693              		.thumb
 2694              		.syntax unified
 2695 00b4 0029     		cmp	r1, #0
 2696 00b6 F6D1     		bne	.L257
 2697 00b8 0368     		ldr	r3, [r0]
 2698 00ba DA69     		ldr	r2, [r3, #28]
 2699 00bc 12F0100F 		tst	r2, #16
ARM GAS  C:\Users\kroko\AppData\Local\Temp\ccD7coBo.s 			page 47


 2700 00c0 01D0     		beq	.L258
 2701 00c2 1022     		movs	r2, #16
 2702 00c4 1A62     		str	r2, [r3, #32]
 2703              	.L258:
 2704 00c6 B0F85810 		ldrh	r1, [r0, #88]
 2705 00ca FFF7FEFF 		bl	HAL_UARTEx_RxEventCallback
 2706 00ce A4E7     		b	.L249
 2707              	.L256:
 2708 00d0 FFF7FEFF 		bl	HAL_UART_RxCpltCallback
 2709 00d4 A1E7     		b	.L249
 2710              	.L262:
 2711 00d6 00BF     		.align	2
 2712              	.L261:
 2713 00d8 00800040 		.word	1073774592
 2715              		.section	.text.UART_DMARxHalfCplt,"ax",%progbits
 2716              		.align	1
 2717              		.syntax unified
 2718              		.thumb
 2719              		.thumb_func
 2721              	UART_DMARxHalfCplt:
 2722              		@ args = 0, pretend = 0, frame = 0
 2723              		@ frame_needed = 0, uses_anonymous_args = 0
 2724 0000 08B5     		push	{r3, lr}
 2725 0002 806A     		ldr	r0, [r0, #40]
 2726 0004 0123     		movs	r3, #1
 2727 0006 4366     		str	r3, [r0, #100]
 2728 0008 036E     		ldr	r3, [r0, #96]
 2729 000a 012B     		cmp	r3, #1
 2730 000c 02D0     		beq	.L267
 2731 000e FFF7FEFF 		bl	HAL_UART_RxHalfCpltCallback
 2732              	.L263:
 2733 0012 08BD     		pop	{r3, pc}
 2734              	.L267:
 2735 0014 B0F85810 		ldrh	r1, [r0, #88]
 2736 0018 4908     		lsrs	r1, r1, #1
 2737 001a FFF7FEFF 		bl	HAL_UARTEx_RxEventCallback
 2738 001e F8E7     		b	.L263
 2740              		.section	.text.UART_DMAReceiveCplt,"ax",%progbits
 2741              		.align	1
 2742              		.syntax unified
 2743              		.thumb
 2744              		.thumb_func
 2746              	UART_DMAReceiveCplt:
 2747              		@ args = 0, pretend = 0, frame = 0
 2748              		@ frame_needed = 0, uses_anonymous_args = 0
 2749 0000 08B5     		push	{r3, lr}
 2750 0002 0346     		mov	r3, r0
 2751 0004 806A     		ldr	r0, [r0, #40]
 2752 0006 1B68     		ldr	r3, [r3]
 2753 0008 1B68     		ldr	r3, [r3]
 2754 000a 13F0200F 		tst	r3, #32
 2755 000e 29D1     		bne	.L269
 2756 0010 0023     		movs	r3, #0
 2757 0012 A0F85A30 		strh	r3, [r0, #90]	@ movhi
 2758              	.L270:
 2759 0016 0268     		ldr	r2, [r0]
 2760              		.syntax unified
ARM GAS  C:\Users\kroko\AppData\Local\Temp\ccD7coBo.s 			page 48


 2761              	@ 1155 "Drivers/CMSIS/Include/cmsis_gcc.h" 1
 2762 0018 52E8003F 		ldrex r3, [r2]
 2763              	@ 0 "" 2
 2764              		.thumb
 2765              		.syntax unified
 2766 001c 23F48073 		bic	r3, r3, #256
 2767              		.syntax unified
 2768              	@ 1206 "Drivers/CMSIS/Include/cmsis_gcc.h" 1
 2769 0020 42E80031 		strex r1, r3, [r2]
 2770              	@ 0 "" 2
 2771              		.thumb
 2772              		.syntax unified
 2773 0024 0029     		cmp	r1, #0
 2774 0026 F6D1     		bne	.L270
 2775              	.L271:
 2776 0028 0268     		ldr	r2, [r0]
 2777 002a 02F10803 		add	r3, r2, #8
 2778              		.syntax unified
 2779              	@ 1155 "Drivers/CMSIS/Include/cmsis_gcc.h" 1
 2780 002e 53E8003F 		ldrex r3, [r3]
 2781              	@ 0 "" 2
 2782              		.thumb
 2783              		.syntax unified
 2784 0032 23F00103 		bic	r3, r3, #1
 2785 0036 0832     		adds	r2, r2, #8
 2786              		.syntax unified
 2787              	@ 1206 "Drivers/CMSIS/Include/cmsis_gcc.h" 1
 2788 0038 42E80031 		strex r1, r3, [r2]
 2789              	@ 0 "" 2
 2790              		.thumb
 2791              		.syntax unified
 2792 003c 0029     		cmp	r1, #0
 2793 003e F3D1     		bne	.L271
 2794              	.L272:
 2795 0040 0268     		ldr	r2, [r0]
 2796 0042 02F10803 		add	r3, r2, #8
 2797              		.syntax unified
 2798              	@ 1155 "Drivers/CMSIS/Include/cmsis_gcc.h" 1
 2799 0046 53E8003F 		ldrex r3, [r3]
 2800              	@ 0 "" 2
 2801              		.thumb
 2802              		.syntax unified
 2803 004a 23F04003 		bic	r3, r3, #64
 2804 004e 0832     		adds	r2, r2, #8
 2805              		.syntax unified
 2806              	@ 1206 "Drivers/CMSIS/Include/cmsis_gcc.h" 1
 2807 0050 42E80031 		strex r1, r3, [r2]
 2808              	@ 0 "" 2
 2809              		.thumb
 2810              		.syntax unified
 2811 0054 0029     		cmp	r1, #0
 2812 0056 F3D1     		bne	.L272
 2813 0058 2023     		movs	r3, #32
 2814 005a C0F88030 		str	r3, [r0, #128]
 2815 005e 036E     		ldr	r3, [r0, #96]
 2816 0060 012B     		cmp	r3, #1
 2817 0062 07D0     		beq	.L273
ARM GAS  C:\Users\kroko\AppData\Local\Temp\ccD7coBo.s 			page 49


 2818              	.L269:
 2819 0064 0023     		movs	r3, #0
 2820 0066 4366     		str	r3, [r0, #100]
 2821 0068 036E     		ldr	r3, [r0, #96]
 2822 006a 012B     		cmp	r3, #1
 2823 006c 0CD0     		beq	.L277
 2824 006e FFF7FEFF 		bl	HAL_UART_RxCpltCallback
 2825              	.L268:
 2826 0072 08BD     		pop	{r3, pc}
 2827              	.L273:
 2828 0074 0268     		ldr	r2, [r0]
 2829              		.syntax unified
 2830              	@ 1155 "Drivers/CMSIS/Include/cmsis_gcc.h" 1
 2831 0076 52E8003F 		ldrex r3, [r2]
 2832              	@ 0 "" 2
 2833              		.thumb
 2834              		.syntax unified
 2835 007a 23F01003 		bic	r3, r3, #16
 2836              		.syntax unified
 2837              	@ 1206 "Drivers/CMSIS/Include/cmsis_gcc.h" 1
 2838 007e 42E80031 		strex r1, r3, [r2]
 2839              	@ 0 "" 2
 2840              		.thumb
 2841              		.syntax unified
 2842 0082 0029     		cmp	r1, #0
 2843 0084 F6D1     		bne	.L273
 2844 0086 EDE7     		b	.L269
 2845              	.L277:
 2846 0088 B0F85810 		ldrh	r1, [r0, #88]
 2847 008c FFF7FEFF 		bl	HAL_UARTEx_RxEventCallback
 2848 0090 EFE7     		b	.L268
 2850              		.section	.text.HAL_UART_ReceiverTimeout_Config,"ax",%progbits
 2851              		.align	1
 2852              		.global	HAL_UART_ReceiverTimeout_Config
 2853              		.syntax unified
 2854              		.thumb
 2855              		.thumb_func
 2857              	HAL_UART_ReceiverTimeout_Config:
 2858              		@ args = 0, pretend = 0, frame = 0
 2859              		@ frame_needed = 0, uses_anonymous_args = 0
 2860              		@ link register save eliminated.
 2861 0000 0268     		ldr	r2, [r0]
 2862 0002 044B     		ldr	r3, .L280
 2863 0004 9A42     		cmp	r2, r3
 2864 0006 04D0     		beq	.L278
 2865 0008 5369     		ldr	r3, [r2, #20]
 2866 000a 03F07F43 		and	r3, r3, #-16777216
 2867 000e 1943     		orrs	r1, r1, r3
 2868 0010 5161     		str	r1, [r2, #20]
 2869              	.L278:
 2870 0012 7047     		bx	lr
 2871              	.L281:
 2872              		.align	2
 2873              	.L280:
 2874 0014 00800040 		.word	1073774592
 2876              		.section	.text.HAL_UART_EnableReceiverTimeout,"ax",%progbits
 2877              		.align	1
ARM GAS  C:\Users\kroko\AppData\Local\Temp\ccD7coBo.s 			page 50


 2878              		.global	HAL_UART_EnableReceiverTimeout
 2879              		.syntax unified
 2880              		.thumb
 2881              		.thumb_func
 2883              	HAL_UART_EnableReceiverTimeout:
 2884              		@ args = 0, pretend = 0, frame = 0
 2885              		@ frame_needed = 0, uses_anonymous_args = 0
 2886              		@ link register save eliminated.
 2887 0000 0368     		ldr	r3, [r0]
 2888 0002 104A     		ldr	r2, .L287
 2889 0004 9342     		cmp	r3, r2
 2890 0006 16D0     		beq	.L284
 2891 0008 C26F     		ldr	r2, [r0, #124]
 2892 000a 202A     		cmp	r2, #32
 2893 000c 15D1     		bne	.L285
 2894 000e 90F87820 		ldrb	r2, [r0, #120]	@ zero_extendqisi2
 2895 0012 012A     		cmp	r2, #1
 2896 0014 13D0     		beq	.L286
 2897 0016 0122     		movs	r2, #1
 2898 0018 80F87820 		strb	r2, [r0, #120]
 2899 001c 2422     		movs	r2, #36
 2900 001e C267     		str	r2, [r0, #124]
 2901 0020 5A68     		ldr	r2, [r3, #4]
 2902 0022 42F40002 		orr	r2, r2, #8388608
 2903 0026 5A60     		str	r2, [r3, #4]
 2904 0028 2023     		movs	r3, #32
 2905 002a C367     		str	r3, [r0, #124]
 2906 002c 0023     		movs	r3, #0
 2907 002e 80F87830 		strb	r3, [r0, #120]
 2908 0032 1846     		mov	r0, r3
 2909 0034 7047     		bx	lr
 2910              	.L284:
 2911 0036 0120     		movs	r0, #1
 2912 0038 7047     		bx	lr
 2913              	.L285:
 2914 003a 0220     		movs	r0, #2
 2915 003c 7047     		bx	lr
 2916              	.L286:
 2917 003e 0220     		movs	r0, #2
 2918 0040 7047     		bx	lr
 2919              	.L288:
 2920 0042 00BF     		.align	2
 2921              	.L287:
 2922 0044 00800040 		.word	1073774592
 2924              		.section	.text.HAL_UART_DisableReceiverTimeout,"ax",%progbits
 2925              		.align	1
 2926              		.global	HAL_UART_DisableReceiverTimeout
 2927              		.syntax unified
 2928              		.thumb
 2929              		.thumb_func
 2931              	HAL_UART_DisableReceiverTimeout:
 2932              		@ args = 0, pretend = 0, frame = 0
 2933              		@ frame_needed = 0, uses_anonymous_args = 0
 2934              		@ link register save eliminated.
 2935 0000 0368     		ldr	r3, [r0]
 2936 0002 104A     		ldr	r2, .L294
 2937 0004 9342     		cmp	r3, r2
ARM GAS  C:\Users\kroko\AppData\Local\Temp\ccD7coBo.s 			page 51


 2938 0006 16D0     		beq	.L291
 2939 0008 C26F     		ldr	r2, [r0, #124]
 2940 000a 202A     		cmp	r2, #32
 2941 000c 15D1     		bne	.L292
 2942 000e 90F87820 		ldrb	r2, [r0, #120]	@ zero_extendqisi2
 2943 0012 012A     		cmp	r2, #1
 2944 0014 13D0     		beq	.L293
 2945 0016 0122     		movs	r2, #1
 2946 0018 80F87820 		strb	r2, [r0, #120]
 2947 001c 2422     		movs	r2, #36
 2948 001e C267     		str	r2, [r0, #124]
 2949 0020 5A68     		ldr	r2, [r3, #4]
 2950 0022 22F40002 		bic	r2, r2, #8388608
 2951 0026 5A60     		str	r2, [r3, #4]
 2952 0028 2023     		movs	r3, #32
 2953 002a C367     		str	r3, [r0, #124]
 2954 002c 0023     		movs	r3, #0
 2955 002e 80F87830 		strb	r3, [r0, #120]
 2956 0032 1846     		mov	r0, r3
 2957 0034 7047     		bx	lr
 2958              	.L291:
 2959 0036 0120     		movs	r0, #1
 2960 0038 7047     		bx	lr
 2961              	.L292:
 2962 003a 0220     		movs	r0, #2
 2963 003c 7047     		bx	lr
 2964              	.L293:
 2965 003e 0220     		movs	r0, #2
 2966 0040 7047     		bx	lr
 2967              	.L295:
 2968 0042 00BF     		.align	2
 2969              	.L294:
 2970 0044 00800040 		.word	1073774592
 2972              		.section	.text.HAL_MultiProcessor_EnterMuteMode,"ax",%progbits
 2973              		.align	1
 2974              		.global	HAL_MultiProcessor_EnterMuteMode
 2975              		.syntax unified
 2976              		.thumb
 2977              		.thumb_func
 2979              	HAL_MultiProcessor_EnterMuteMode:
 2980              		@ args = 0, pretend = 0, frame = 0
 2981              		@ frame_needed = 0, uses_anonymous_args = 0
 2982              		@ link register save eliminated.
 2983 0000 0268     		ldr	r2, [r0]
 2984 0002 138B     		ldrh	r3, [r2, #24]
 2985 0004 9BB2     		uxth	r3, r3
 2986 0006 43F00403 		orr	r3, r3, #4
 2987 000a 1383     		strh	r3, [r2, #24]	@ movhi
 2988 000c 7047     		bx	lr
 2990              		.section	.text.HAL_HalfDuplex_EnableTransmitter,"ax",%progbits
 2991              		.align	1
 2992              		.global	HAL_HalfDuplex_EnableTransmitter
 2993              		.syntax unified
 2994              		.thumb
 2995              		.thumb_func
 2997              	HAL_HalfDuplex_EnableTransmitter:
 2998              		@ args = 0, pretend = 0, frame = 0
ARM GAS  C:\Users\kroko\AppData\Local\Temp\ccD7coBo.s 			page 52


 2999              		@ frame_needed = 0, uses_anonymous_args = 0
 3000              		@ link register save eliminated.
 3001 0000 90F87830 		ldrb	r3, [r0, #120]	@ zero_extendqisi2
 3002 0004 012B     		cmp	r3, #1
 3003 0006 1DD0     		beq	.L301
 3004 0008 0123     		movs	r3, #1
 3005 000a 80F87830 		strb	r3, [r0, #120]
 3006 000e 2423     		movs	r3, #36
 3007 0010 C367     		str	r3, [r0, #124]
 3008              	.L299:
 3009 0012 0268     		ldr	r2, [r0]
 3010              		.syntax unified
 3011              	@ 1155 "Drivers/CMSIS/Include/cmsis_gcc.h" 1
 3012 0014 52E8003F 		ldrex r3, [r2]
 3013              	@ 0 "" 2
 3014              		.thumb
 3015              		.syntax unified
 3016 0018 23F00C03 		bic	r3, r3, #12
 3017              		.syntax unified
 3018              	@ 1206 "Drivers/CMSIS/Include/cmsis_gcc.h" 1
 3019 001c 42E80031 		strex r1, r3, [r2]
 3020              	@ 0 "" 2
 3021              		.thumb
 3022              		.syntax unified
 3023 0020 0029     		cmp	r1, #0
 3024 0022 F6D1     		bne	.L299
 3025              	.L300:
 3026 0024 0268     		ldr	r2, [r0]
 3027              		.syntax unified
 3028              	@ 1155 "Drivers/CMSIS/Include/cmsis_gcc.h" 1
 3029 0026 52E8003F 		ldrex r3, [r2]
 3030              	@ 0 "" 2
 3031              		.thumb
 3032              		.syntax unified
 3033 002a 43F00803 		orr	r3, r3, #8
 3034              		.syntax unified
 3035              	@ 1206 "Drivers/CMSIS/Include/cmsis_gcc.h" 1
 3036 002e 42E80031 		strex r1, r3, [r2]
 3037              	@ 0 "" 2
 3038              		.thumb
 3039              		.syntax unified
 3040 0032 0029     		cmp	r1, #0
 3041 0034 F6D1     		bne	.L300
 3042 0036 2023     		movs	r3, #32
 3043 0038 C367     		str	r3, [r0, #124]
 3044 003a 0023     		movs	r3, #0
 3045 003c 80F87830 		strb	r3, [r0, #120]
 3046 0040 1846     		mov	r0, r3
 3047 0042 7047     		bx	lr
 3048              	.L301:
 3049 0044 0220     		movs	r0, #2
 3050 0046 7047     		bx	lr
 3052              		.section	.text.HAL_HalfDuplex_EnableReceiver,"ax",%progbits
 3053              		.align	1
 3054              		.global	HAL_HalfDuplex_EnableReceiver
 3055              		.syntax unified
 3056              		.thumb
ARM GAS  C:\Users\kroko\AppData\Local\Temp\ccD7coBo.s 			page 53


 3057              		.thumb_func
 3059              	HAL_HalfDuplex_EnableReceiver:
 3060              		@ args = 0, pretend = 0, frame = 0
 3061              		@ frame_needed = 0, uses_anonymous_args = 0
 3062              		@ link register save eliminated.
 3063 0000 90F87830 		ldrb	r3, [r0, #120]	@ zero_extendqisi2
 3064 0004 012B     		cmp	r3, #1
 3065 0006 1DD0     		beq	.L306
 3066 0008 0123     		movs	r3, #1
 3067 000a 80F87830 		strb	r3, [r0, #120]
 3068 000e 2423     		movs	r3, #36
 3069 0010 C367     		str	r3, [r0, #124]
 3070              	.L304:
 3071 0012 0268     		ldr	r2, [r0]
 3072              		.syntax unified
 3073              	@ 1155 "Drivers/CMSIS/Include/cmsis_gcc.h" 1
 3074 0014 52E8003F 		ldrex r3, [r2]
 3075              	@ 0 "" 2
 3076              		.thumb
 3077              		.syntax unified
 3078 0018 23F00C03 		bic	r3, r3, #12
 3079              		.syntax unified
 3080              	@ 1206 "Drivers/CMSIS/Include/cmsis_gcc.h" 1
 3081 001c 42E80031 		strex r1, r3, [r2]
 3082              	@ 0 "" 2
 3083              		.thumb
 3084              		.syntax unified
 3085 0020 0029     		cmp	r1, #0
 3086 0022 F6D1     		bne	.L304
 3087              	.L305:
 3088 0024 0268     		ldr	r2, [r0]
 3089              		.syntax unified
 3090              	@ 1155 "Drivers/CMSIS/Include/cmsis_gcc.h" 1
 3091 0026 52E8003F 		ldrex r3, [r2]
 3092              	@ 0 "" 2
 3093              		.thumb
 3094              		.syntax unified
 3095 002a 43F00403 		orr	r3, r3, #4
 3096              		.syntax unified
 3097              	@ 1206 "Drivers/CMSIS/Include/cmsis_gcc.h" 1
 3098 002e 42E80031 		strex r1, r3, [r2]
 3099              	@ 0 "" 2
 3100              		.thumb
 3101              		.syntax unified
 3102 0032 0029     		cmp	r1, #0
 3103 0034 F6D1     		bne	.L305
 3104 0036 2023     		movs	r3, #32
 3105 0038 C367     		str	r3, [r0, #124]
 3106 003a 0023     		movs	r3, #0
 3107 003c 80F87830 		strb	r3, [r0, #120]
 3108 0040 1846     		mov	r0, r3
 3109 0042 7047     		bx	lr
 3110              	.L306:
 3111 0044 0220     		movs	r0, #2
 3112 0046 7047     		bx	lr
 3114              		.section	.text.HAL_LIN_SendBreak,"ax",%progbits
 3115              		.align	1
ARM GAS  C:\Users\kroko\AppData\Local\Temp\ccD7coBo.s 			page 54


 3116              		.global	HAL_LIN_SendBreak
 3117              		.syntax unified
 3118              		.thumb
 3119              		.thumb_func
 3121              	HAL_LIN_SendBreak:
 3122              		@ args = 0, pretend = 0, frame = 0
 3123              		@ frame_needed = 0, uses_anonymous_args = 0
 3124              		@ link register save eliminated.
 3125 0000 90F87830 		ldrb	r3, [r0, #120]	@ zero_extendqisi2
 3126 0004 012B     		cmp	r3, #1
 3127 0006 11D0     		beq	.L309
 3128 0008 0123     		movs	r3, #1
 3129 000a 80F87830 		strb	r3, [r0, #120]
 3130 000e 2423     		movs	r3, #36
 3131 0010 C367     		str	r3, [r0, #124]
 3132 0012 0268     		ldr	r2, [r0]
 3133 0014 138B     		ldrh	r3, [r2, #24]
 3134 0016 9BB2     		uxth	r3, r3
 3135 0018 43F00203 		orr	r3, r3, #2
 3136 001c 1383     		strh	r3, [r2, #24]	@ movhi
 3137 001e 2023     		movs	r3, #32
 3138 0020 C367     		str	r3, [r0, #124]
 3139 0022 0023     		movs	r3, #0
 3140 0024 80F87830 		strb	r3, [r0, #120]
 3141 0028 1846     		mov	r0, r3
 3142 002a 7047     		bx	lr
 3143              	.L309:
 3144 002c 0220     		movs	r0, #2
 3145 002e 7047     		bx	lr
 3147              		.section	.text.HAL_UART_GetState,"ax",%progbits
 3148              		.align	1
 3149              		.global	HAL_UART_GetState
 3150              		.syntax unified
 3151              		.thumb
 3152              		.thumb_func
 3154              	HAL_UART_GetState:
 3155              		@ args = 0, pretend = 0, frame = 0
 3156              		@ frame_needed = 0, uses_anonymous_args = 0
 3157              		@ link register save eliminated.
 3158 0000 C26F     		ldr	r2, [r0, #124]
 3159 0002 D0F88000 		ldr	r0, [r0, #128]
 3160 0006 1043     		orrs	r0, r0, r2
 3161 0008 7047     		bx	lr
 3163              		.section	.text.HAL_UART_GetError,"ax",%progbits
 3164              		.align	1
 3165              		.global	HAL_UART_GetError
 3166              		.syntax unified
 3167              		.thumb
 3168              		.thumb_func
 3170              	HAL_UART_GetError:
 3171              		@ args = 0, pretend = 0, frame = 0
 3172              		@ frame_needed = 0, uses_anonymous_args = 0
 3173              		@ link register save eliminated.
 3174 0000 D0F88400 		ldr	r0, [r0, #132]
 3175 0004 7047     		bx	lr
 3177              		.section	.text.UART_SetConfig,"ax",%progbits
 3178              		.align	1
ARM GAS  C:\Users\kroko\AppData\Local\Temp\ccD7coBo.s 			page 55


 3179              		.global	UART_SetConfig
 3180              		.syntax unified
 3181              		.thumb
 3182              		.thumb_func
 3184              	UART_SetConfig:
 3185              		@ args = 0, pretend = 0, frame = 0
 3186              		@ frame_needed = 0, uses_anonymous_args = 0
 3187 0000 10B5     		push	{r4, lr}
 3188 0002 0446     		mov	r4, r0
 3189 0004 8368     		ldr	r3, [r0, #8]
 3190 0006 0269     		ldr	r2, [r0, #16]
 3191 0008 1343     		orrs	r3, r3, r2
 3192 000a 4269     		ldr	r2, [r0, #20]
 3193 000c 1343     		orrs	r3, r3, r2
 3194 000e C269     		ldr	r2, [r0, #28]
 3195 0010 1343     		orrs	r3, r3, r2
 3196 0012 0168     		ldr	r1, [r0]
 3197 0014 0868     		ldr	r0, [r1]
 3198 0016 944A     		ldr	r2, .L385
 3199 0018 0240     		ands	r2, r2, r0
 3200 001a 1A43     		orrs	r2, r2, r3
 3201 001c 0A60     		str	r2, [r1]
 3202 001e 2268     		ldr	r2, [r4]
 3203 0020 5368     		ldr	r3, [r2, #4]
 3204 0022 23F44053 		bic	r3, r3, #12288
 3205 0026 E168     		ldr	r1, [r4, #12]
 3206 0028 0B43     		orrs	r3, r3, r1
 3207 002a 5360     		str	r3, [r2, #4]
 3208 002c A169     		ldr	r1, [r4, #24]
 3209 002e 2268     		ldr	r2, [r4]
 3210 0030 8E4B     		ldr	r3, .L385+4
 3211 0032 9A42     		cmp	r2, r3
 3212 0034 01D0     		beq	.L313
 3213 0036 236A     		ldr	r3, [r4, #32]
 3214 0038 1943     		orrs	r1, r1, r3
 3215              	.L313:
 3216 003a 9368     		ldr	r3, [r2, #8]
 3217 003c 23F43063 		bic	r3, r3, #2816
 3218 0040 0B43     		orrs	r3, r3, r1
 3219 0042 9360     		str	r3, [r2, #8]
 3220 0044 2368     		ldr	r3, [r4]
 3221 0046 8A4A     		ldr	r2, .L385+8
 3222 0048 9342     		cmp	r3, r2
 3223 004a 1FD0     		beq	.L379
 3224 004c 894A     		ldr	r2, .L385+12
 3225 004e 9342     		cmp	r3, r2
 3226 0050 30D0     		beq	.L380
 3227 0052 894A     		ldr	r2, .L385+16
 3228 0054 9342     		cmp	r3, r2
 3229 0056 46D0     		beq	.L381
 3230 0058 844A     		ldr	r2, .L385+4
 3231 005a 9342     		cmp	r3, r2
 3232 005c 55D0     		beq	.L382
 3233 005e 1022     		movs	r2, #16
 3234              	.L318:
 3235 0060 8249     		ldr	r1, .L385+4
 3236 0062 8B42     		cmp	r3, r1
ARM GAS  C:\Users\kroko\AppData\Local\Temp\ccD7coBo.s 			page 56


 3237 0064 7AD0     		beq	.L383
 3238 0066 E069     		ldr	r0, [r4, #28]
 3239 0068 B0F5004F 		cmp	r0, #32768
 3240 006c 00F0A680 		beq	.L384
 3241 0070 082A     		cmp	r2, #8
 3242 0072 00F20981 		bhi	.L373
 3243 0076 DFE812F0 		tbh	[pc, r2, lsl #1]
 3244              	.L347:
 3245 007a CE00     		.2byte	(.L351-.L347)/2
 3246 007c E200     		.2byte	(.L350-.L347)/2
 3247 007e CC00     		.2byte	(.L349-.L347)/2
 3248 0080 0701     		.2byte	(.L373-.L347)/2
 3249 0082 E500     		.2byte	(.L348-.L347)/2
 3250 0084 0701     		.2byte	(.L373-.L347)/2
 3251 0086 0701     		.2byte	(.L373-.L347)/2
 3252 0088 0701     		.2byte	(.L373-.L347)/2
 3253 008a E800     		.2byte	(.L374-.L347)/2
 3254              		.p2align 1
 3255              	.L379:
 3256 008c 02F55842 		add	r2, r2, #55296
 3257 0090 D2F88820 		ldr	r2, [r2, #136]
 3258 0094 02F00302 		and	r2, r2, #3
 3259 0098 032A     		cmp	r2, #3
 3260 009a 09D8     		bhi	.L315
 3261 009c DFE802F0 		tbb	[pc, r2]
 3262              	.L317:
 3263 00a0 02       		.byte	(.L320-.L317)/2
 3264 00a1 04       		.byte	(.L319-.L317)/2
 3265 00a2 4A       		.byte	(.L353-.L317)/2
 3266 00a3 06       		.byte	(.L316-.L317)/2
 3267              		.p2align 1
 3268              	.L320:
 3269 00a4 0122     		movs	r2, #1
 3270 00a6 DBE7     		b	.L318
 3271              	.L319:
 3272 00a8 0422     		movs	r2, #4
 3273 00aa D9E7     		b	.L318
 3274              	.L316:
 3275 00ac 0822     		movs	r2, #8
 3276 00ae D7E7     		b	.L318
 3277              	.L315:
 3278 00b0 1022     		movs	r2, #16
 3279 00b2 D5E7     		b	.L318
 3280              	.L380:
 3281 00b4 02F5E632 		add	r2, r2, #117760
 3282 00b8 D2F88820 		ldr	r2, [r2, #136]
 3283 00bc 02F00C02 		and	r2, r2, #12
 3284 00c0 0C2A     		cmp	r2, #12
 3285 00c2 0ED8     		bhi	.L322
 3286 00c4 DFE802F0 		tbb	[pc, r2]
 3287              	.L324:
 3288 00c8 07       		.byte	(.L326-.L324)/2
 3289 00c9 0D       		.byte	(.L322-.L324)/2
 3290 00ca 0D       		.byte	(.L322-.L324)/2
 3291 00cb 0D       		.byte	(.L322-.L324)/2
 3292 00cc 09       		.byte	(.L325-.L324)/2
 3293 00cd 0D       		.byte	(.L322-.L324)/2
ARM GAS  C:\Users\kroko\AppData\Local\Temp\ccD7coBo.s 			page 57


 3294 00ce 0D       		.byte	(.L322-.L324)/2
 3295 00cf 0D       		.byte	(.L322-.L324)/2
 3296 00d0 38       		.byte	(.L354-.L324)/2
 3297 00d1 0D       		.byte	(.L322-.L324)/2
 3298 00d2 0D       		.byte	(.L322-.L324)/2
 3299 00d3 0D       		.byte	(.L322-.L324)/2
 3300 00d4 0B       		.byte	(.L323-.L324)/2
 3301 00d5 00       		.p2align 1
 3302              	.L326:
 3303 00d6 0022     		movs	r2, #0
 3304 00d8 C2E7     		b	.L318
 3305              	.L325:
 3306 00da 0422     		movs	r2, #4
 3307 00dc C0E7     		b	.L318
 3308              	.L323:
 3309 00de 0822     		movs	r2, #8
 3310 00e0 BEE7     		b	.L318
 3311              	.L322:
 3312 00e2 1022     		movs	r2, #16
 3313 00e4 BCE7     		b	.L318
 3314              	.L381:
 3315 00e6 02F5E432 		add	r2, r2, #116736
 3316 00ea D2F88820 		ldr	r2, [r2, #136]
 3317 00ee 02F03002 		and	r2, r2, #48
 3318 00f2 202A     		cmp	r2, #32
 3319 00f4 22D0     		beq	.L355
 3320 00f6 04D8     		bhi	.L328
 3321 00f8 12B3     		cbz	r2, .L356
 3322 00fa 102A     		cmp	r2, #16
 3323 00fc 22D1     		bne	.L357
 3324 00fe 0422     		movs	r2, #4
 3325 0100 AEE7     		b	.L318
 3326              	.L328:
 3327 0102 302A     		cmp	r2, #48
 3328 0104 20D1     		bne	.L358
 3329 0106 0822     		movs	r2, #8
 3330 0108 AAE7     		b	.L318
 3331              	.L382:
 3332 010a 02F5C832 		add	r2, r2, #102400
 3333 010e D2F88820 		ldr	r2, [r2, #136]
 3334 0112 02F44062 		and	r2, r2, #3072
 3335 0116 B2F5006F 		cmp	r2, #2048
 3336 011a 17D0     		beq	.L360
 3337 011c 05D8     		bhi	.L329
 3338 011e BAB1     		cbz	r2, .L361
 3339 0120 B2F5806F 		cmp	r2, #1024
 3340 0124 16D1     		bne	.L362
 3341 0126 0422     		movs	r2, #4
 3342 0128 9AE7     		b	.L318
 3343              	.L329:
 3344 012a B2F5406F 		cmp	r2, #3072
 3345 012e 13D1     		bne	.L363
 3346 0130 0822     		movs	r2, #8
 3347 0132 95E7     		b	.L318
 3348              	.L353:
 3349 0134 0222     		movs	r2, #2
 3350 0136 93E7     		b	.L318
ARM GAS  C:\Users\kroko\AppData\Local\Temp\ccD7coBo.s 			page 58


 3351              	.L354:
 3352 0138 0222     		movs	r2, #2
 3353 013a 91E7     		b	.L318
 3354              	.L355:
 3355 013c 0222     		movs	r2, #2
 3356 013e 8FE7     		b	.L318
 3357              	.L356:
 3358 0140 0022     		movs	r2, #0
 3359 0142 8DE7     		b	.L318
 3360              	.L357:
 3361 0144 1022     		movs	r2, #16
 3362 0146 8BE7     		b	.L318
 3363              	.L358:
 3364 0148 1022     		movs	r2, #16
 3365 014a 89E7     		b	.L318
 3366              	.L360:
 3367 014c 0222     		movs	r2, #2
 3368 014e 87E7     		b	.L318
 3369              	.L361:
 3370 0150 0022     		movs	r2, #0
 3371 0152 85E7     		b	.L318
 3372              	.L362:
 3373 0154 1022     		movs	r2, #16
 3374 0156 83E7     		b	.L318
 3375              	.L363:
 3376 0158 1022     		movs	r2, #16
 3377 015a 81E7     		b	.L318
 3378              	.L383:
 3379 015c 082A     		cmp	r2, #8
 3380 015e 77D8     		bhi	.L364
 3381 0160 DFE802F0 		tbb	[pc, r2]
 3382              	.L333:
 3383 0164 08       		.byte	(.L336-.L333)/2
 3384 0165 76       		.byte	(.L364-.L333)/2
 3385 0166 10       		.byte	(.L365-.L333)/2
 3386 0167 76       		.byte	(.L364-.L333)/2
 3387 0168 0D       		.byte	(.L334-.L333)/2
 3388 0169 76       		.byte	(.L364-.L333)/2
 3389 016a 76       		.byte	(.L364-.L333)/2
 3390 016b 76       		.byte	(.L364-.L333)/2
 3391 016c 05       		.byte	(.L332-.L333)/2
 3392 016d 00       		.p2align 1
 3393              	.L332:
 3394 016e 4FF40040 		mov	r0, #32768
 3395 0172 08E0     		b	.L335
 3396              	.L336:
 3397 0174 FFF7FEFF 		bl	HAL_RCC_GetPCLK1Freq
 3398              	.L337:
 3399 0178 28B9     		cbnz	r0, .L335
 3400 017a 0020     		movs	r0, #0
 3401 017c 85E0     		b	.L331
 3402              	.L334:
 3403 017e FFF7FEFF 		bl	HAL_RCC_GetSysClockFreq
 3404 0182 F9E7     		b	.L337
 3405              	.L365:
 3406 0184 3D48     		ldr	r0, .L385+20
 3407              	.L335:
ARM GAS  C:\Users\kroko\AppData\Local\Temp\ccD7coBo.s 			page 59


 3408 0186 6268     		ldr	r2, [r4, #4]
 3409 0188 02EB4203 		add	r3, r2, r2, lsl #1
 3410 018c 8342     		cmp	r3, r0
 3411 018e 61D8     		bhi	.L367
 3412 0190 B0EB023F 		cmp	r0, r2, lsl #12
 3413 0194 60D8     		bhi	.L368
 3414 0196 010E     		lsrs	r1, r0, #24
 3415 0198 0002     		lsls	r0, r0, #8
 3416 019a 5308     		lsrs	r3, r2, #1
 3417 019c C018     		adds	r0, r0, r3
 3418 019e 4FF00003 		mov	r3, #0
 3419 01a2 41F10001 		adc	r1, r1, #0
 3420 01a6 FFF7FEFF 		bl	__aeabi_uldivmod
 3421 01aa A0F54072 		sub	r2, r0, #768
 3422 01ae 344B     		ldr	r3, .L385+24
 3423 01b0 9A42     		cmp	r2, r3
 3424 01b2 53D8     		bhi	.L369
 3425 01b4 2368     		ldr	r3, [r4]
 3426 01b6 D860     		str	r0, [r3, #12]
 3427 01b8 0020     		movs	r0, #0
 3428 01ba 66E0     		b	.L331
 3429              	.L384:
 3430 01bc 082A     		cmp	r2, #8
 3431 01be 4FD8     		bhi	.L370
 3432 01c0 DFE802F0 		tbb	[pc, r2]
 3433              	.L340:
 3434 01c4 07       		.byte	(.L344-.L340)/2
 3435 01c5 21       		.byte	(.L343-.L340)/2
 3436 01c6 05       		.byte	(.L342-.L340)/2
 3437 01c7 4E       		.byte	(.L370-.L340)/2
 3438 01c8 24       		.byte	(.L341-.L340)/2
 3439 01c9 4E       		.byte	(.L370-.L340)/2
 3440 01ca 4E       		.byte	(.L370-.L340)/2
 3441 01cb 4E       		.byte	(.L370-.L340)/2
 3442 01cc 0B       		.byte	(.L339-.L340)/2
 3443 01cd 00       		.p2align 1
 3444              	.L342:
 3445 01ce 2B48     		ldr	r0, .L385+20
 3446 01d0 03E0     		b	.L339
 3447              	.L344:
 3448 01d2 FFF7FEFF 		bl	HAL_RCC_GetPCLK1Freq
 3449              	.L345:
 3450 01d6 0028     		cmp	r0, #0
 3451 01d8 44D0     		beq	.L371
 3452              	.L339:
 3453 01da 6268     		ldr	r2, [r4, #4]
 3454 01dc 5308     		lsrs	r3, r2, #1
 3455 01de 03EB4003 		add	r3, r3, r0, lsl #1
 3456 01e2 B3FBF2F3 		udiv	r3, r3, r2
 3457 01e6 A3F11001 		sub	r1, r3, #16
 3458 01ea 4FF6EF72 		movw	r2, #65519
 3459 01ee 9142     		cmp	r1, r2
 3460 01f0 48D8     		bhi	.L372
 3461 01f2 9AB2     		uxth	r2, r3
 3462 01f4 22F00F02 		bic	r2, r2, #15
 3463 01f8 C3F34203 		ubfx	r3, r3, #1, #3
 3464 01fc 1343     		orrs	r3, r3, r2
ARM GAS  C:\Users\kroko\AppData\Local\Temp\ccD7coBo.s 			page 60


 3465 01fe 2268     		ldr	r2, [r4]
 3466 0200 D360     		str	r3, [r2, #12]
 3467 0202 0020     		movs	r0, #0
 3468 0204 41E0     		b	.L331
 3469              	.L343:
 3470 0206 FFF7FEFF 		bl	HAL_RCC_GetPCLK2Freq
 3471 020a E4E7     		b	.L345
 3472              	.L341:
 3473 020c FFF7FEFF 		bl	HAL_RCC_GetSysClockFreq
 3474 0210 E1E7     		b	.L345
 3475              	.L349:
 3476 0212 1A48     		ldr	r0, .L385+20
 3477 0214 03E0     		b	.L346
 3478              	.L351:
 3479 0216 FFF7FEFF 		bl	HAL_RCC_GetPCLK1Freq
 3480              	.L352:
 3481 021a 0028     		cmp	r0, #0
 3482 021c 39D0     		beq	.L375
 3483              	.L346:
 3484 021e 6368     		ldr	r3, [r4, #4]
 3485 0220 00EB5300 		add	r0, r0, r3, lsr #1
 3486 0224 B0FBF3F0 		udiv	r0, r0, r3
 3487 0228 A0F11002 		sub	r2, r0, #16
 3488 022c 4FF6EF73 		movw	r3, #65519
 3489 0230 9A42     		cmp	r2, r3
 3490 0232 30D8     		bhi	.L376
 3491 0234 2368     		ldr	r3, [r4]
 3492 0236 80B2     		uxth	r0, r0
 3493 0238 D860     		str	r0, [r3, #12]
 3494 023a 0020     		movs	r0, #0
 3495 023c 25E0     		b	.L331
 3496              	.L350:
 3497 023e FFF7FEFF 		bl	HAL_RCC_GetPCLK2Freq
 3498 0242 EAE7     		b	.L352
 3499              	.L348:
 3500 0244 FFF7FEFF 		bl	HAL_RCC_GetSysClockFreq
 3501 0248 E7E7     		b	.L352
 3502              	.L374:
 3503 024a 4FF40040 		mov	r0, #32768
 3504 024e E6E7     		b	.L346
 3505              	.L364:
 3506 0250 0120     		movs	r0, #1
 3507 0252 1AE0     		b	.L331
 3508              	.L367:
 3509 0254 0120     		movs	r0, #1
 3510 0256 18E0     		b	.L331
 3511              	.L368:
 3512 0258 0120     		movs	r0, #1
 3513 025a 16E0     		b	.L331
 3514              	.L369:
 3515 025c 0120     		movs	r0, #1
 3516 025e 14E0     		b	.L331
 3517              	.L370:
 3518 0260 0120     		movs	r0, #1
 3519 0262 12E0     		b	.L331
 3520              	.L371:
 3521 0264 0020     		movs	r0, #0
ARM GAS  C:\Users\kroko\AppData\Local\Temp\ccD7coBo.s 			page 61


 3522 0266 10E0     		b	.L331
 3523              	.L386:
 3524              		.align	2
 3525              	.L385:
 3526 0268 F369FFEF 		.word	-268473869
 3527 026c 00800040 		.word	1073774592
 3528 0270 00380140 		.word	1073821696
 3529 0274 00440040 		.word	1073759232
 3530 0278 00480040 		.word	1073760256
 3531 027c 0024F400 		.word	16000000
 3532 0280 FFFC0F00 		.word	1047807
 3533              	.L372:
 3534 0284 0120     		movs	r0, #1
 3535 0286 00E0     		b	.L331
 3536              	.L373:
 3537 0288 0120     		movs	r0, #1
 3538              	.L331:
 3539 028a 0023     		movs	r3, #0
 3540 028c A366     		str	r3, [r4, #104]
 3541 028e E366     		str	r3, [r4, #108]
 3542 0290 10BD     		pop	{r4, pc}
 3543              	.L375:
 3544 0292 0020     		movs	r0, #0
 3545 0294 F9E7     		b	.L331
 3546              	.L376:
 3547 0296 0120     		movs	r0, #1
 3548 0298 F7E7     		b	.L331
 3550 029a 00BF     		.section	.text.UART_AdvFeatureConfig,"ax",%progbits
 3551              		.align	1
 3552              		.global	UART_AdvFeatureConfig
 3553              		.syntax unified
 3554              		.thumb
 3555              		.thumb_func
 3557              	UART_AdvFeatureConfig:
 3558              		@ args = 0, pretend = 0, frame = 0
 3559              		@ frame_needed = 0, uses_anonymous_args = 0
 3560              		@ link register save eliminated.
 3561 0000 436A     		ldr	r3, [r0, #36]
 3562 0002 13F0080F 		tst	r3, #8
 3563 0006 06D0     		beq	.L388
 3564 0008 0268     		ldr	r2, [r0]
 3565 000a 5368     		ldr	r3, [r2, #4]
 3566 000c 23F40043 		bic	r3, r3, #32768
 3567 0010 416B     		ldr	r1, [r0, #52]
 3568 0012 0B43     		orrs	r3, r3, r1
 3569 0014 5360     		str	r3, [r2, #4]
 3570              	.L388:
 3571 0016 436A     		ldr	r3, [r0, #36]
 3572 0018 13F0010F 		tst	r3, #1
 3573 001c 06D0     		beq	.L389
 3574 001e 0268     		ldr	r2, [r0]
 3575 0020 5368     		ldr	r3, [r2, #4]
 3576 0022 23F40033 		bic	r3, r3, #131072
 3577 0026 816A     		ldr	r1, [r0, #40]
 3578 0028 0B43     		orrs	r3, r3, r1
 3579 002a 5360     		str	r3, [r2, #4]
 3580              	.L389:
ARM GAS  C:\Users\kroko\AppData\Local\Temp\ccD7coBo.s 			page 62


 3581 002c 436A     		ldr	r3, [r0, #36]
 3582 002e 13F0020F 		tst	r3, #2
 3583 0032 06D0     		beq	.L390
 3584 0034 0268     		ldr	r2, [r0]
 3585 0036 5368     		ldr	r3, [r2, #4]
 3586 0038 23F48033 		bic	r3, r3, #65536
 3587 003c C16A     		ldr	r1, [r0, #44]
 3588 003e 0B43     		orrs	r3, r3, r1
 3589 0040 5360     		str	r3, [r2, #4]
 3590              	.L390:
 3591 0042 436A     		ldr	r3, [r0, #36]
 3592 0044 13F0040F 		tst	r3, #4
 3593 0048 06D0     		beq	.L391
 3594 004a 0268     		ldr	r2, [r0]
 3595 004c 5368     		ldr	r3, [r2, #4]
 3596 004e 23F48023 		bic	r3, r3, #262144
 3597 0052 016B     		ldr	r1, [r0, #48]
 3598 0054 0B43     		orrs	r3, r3, r1
 3599 0056 5360     		str	r3, [r2, #4]
 3600              	.L391:
 3601 0058 436A     		ldr	r3, [r0, #36]
 3602 005a 13F0100F 		tst	r3, #16
 3603 005e 06D0     		beq	.L392
 3604 0060 0268     		ldr	r2, [r0]
 3605 0062 9368     		ldr	r3, [r2, #8]
 3606 0064 23F48053 		bic	r3, r3, #4096
 3607 0068 816B     		ldr	r1, [r0, #56]
 3608 006a 0B43     		orrs	r3, r3, r1
 3609 006c 9360     		str	r3, [r2, #8]
 3610              	.L392:
 3611 006e 436A     		ldr	r3, [r0, #36]
 3612 0070 13F0200F 		tst	r3, #32
 3613 0074 06D0     		beq	.L393
 3614 0076 0268     		ldr	r2, [r0]
 3615 0078 9368     		ldr	r3, [r2, #8]
 3616 007a 23F40053 		bic	r3, r3, #8192
 3617 007e C16B     		ldr	r1, [r0, #60]
 3618 0080 0B43     		orrs	r3, r3, r1
 3619 0082 9360     		str	r3, [r2, #8]
 3620              	.L393:
 3621 0084 436A     		ldr	r3, [r0, #36]
 3622 0086 13F0400F 		tst	r3, #64
 3623 008a 0AD0     		beq	.L394
 3624 008c 0268     		ldr	r2, [r0]
 3625 008e 5368     		ldr	r3, [r2, #4]
 3626 0090 23F48013 		bic	r3, r3, #1048576
 3627 0094 016C     		ldr	r1, [r0, #64]
 3628 0096 0B43     		orrs	r3, r3, r1
 3629 0098 5360     		str	r3, [r2, #4]
 3630 009a 036C     		ldr	r3, [r0, #64]
 3631 009c B3F5801F 		cmp	r3, #1048576
 3632 00a0 0BD0     		beq	.L396
 3633              	.L394:
 3634 00a2 436A     		ldr	r3, [r0, #36]
 3635 00a4 13F0800F 		tst	r3, #128
 3636 00a8 06D0     		beq	.L387
 3637 00aa 0268     		ldr	r2, [r0]
ARM GAS  C:\Users\kroko\AppData\Local\Temp\ccD7coBo.s 			page 63


 3638 00ac 5368     		ldr	r3, [r2, #4]
 3639 00ae 23F40023 		bic	r3, r3, #524288
 3640 00b2 816C     		ldr	r1, [r0, #72]
 3641 00b4 0B43     		orrs	r3, r3, r1
 3642 00b6 5360     		str	r3, [r2, #4]
 3643              	.L387:
 3644 00b8 7047     		bx	lr
 3645              	.L396:
 3646 00ba 0268     		ldr	r2, [r0]
 3647 00bc 5368     		ldr	r3, [r2, #4]
 3648 00be 23F4C003 		bic	r3, r3, #6291456
 3649 00c2 416C     		ldr	r1, [r0, #68]
 3650 00c4 0B43     		orrs	r3, r3, r1
 3651 00c6 5360     		str	r3, [r2, #4]
 3652 00c8 EBE7     		b	.L394
 3654              		.section	.text.UART_WaitOnFlagUntilTimeout,"ax",%progbits
 3655              		.align	1
 3656              		.global	UART_WaitOnFlagUntilTimeout
 3657              		.syntax unified
 3658              		.thumb
 3659              		.thumb_func
 3661              	UART_WaitOnFlagUntilTimeout:
 3662              		@ args = 4, pretend = 0, frame = 0
 3663              		@ frame_needed = 0, uses_anonymous_args = 0
 3664 0000 2DE9F843 		push	{r3, r4, r5, r6, r7, r8, r9, lr}
 3665 0004 0546     		mov	r5, r0
 3666 0006 0E46     		mov	r6, r1
 3667 0008 1746     		mov	r7, r2
 3668 000a 9946     		mov	r9, r3
 3669 000c DDF82080 		ldr	r8, [sp, #32]
 3670              	.L399:
 3671 0010 2B68     		ldr	r3, [r5]
 3672 0012 DC69     		ldr	r4, [r3, #28]
 3673 0014 36EA0404 		bics	r4, r6, r4
 3674 0018 0CBF     		ite	eq
 3675 001a 0124     		moveq	r4, #1
 3676 001c 0024     		movne	r4, #0
 3677 001e BC42     		cmp	r4, r7
 3678 0020 36D1     		bne	.L406
 3679 0022 B8F1FF3F 		cmp	r8, #-1
 3680 0026 F3D0     		beq	.L399
 3681 0028 FFF7FEFF 		bl	HAL_GetTick
 3682 002c A0EB0900 		sub	r0, r0, r9
 3683 0030 4045     		cmp	r0, r8
 3684 0032 30D8     		bhi	.L403
 3685 0034 B8F1000F 		cmp	r8, #0
 3686 0038 2FD0     		beq	.L404
 3687 003a 2B68     		ldr	r3, [r5]
 3688 003c 1A68     		ldr	r2, [r3]
 3689 003e 12F0040F 		tst	r2, #4
 3690 0042 E5D0     		beq	.L399
 3691 0044 802E     		cmp	r6, #128
 3692 0046 E3D0     		beq	.L399
 3693 0048 402E     		cmp	r6, #64
 3694 004a E1D0     		beq	.L399
 3695 004c DA69     		ldr	r2, [r3, #28]
 3696 004e 12F0080F 		tst	r2, #8
ARM GAS  C:\Users\kroko\AppData\Local\Temp\ccD7coBo.s 			page 64


 3697 0052 11D1     		bne	.L407
 3698 0054 DA69     		ldr	r2, [r3, #28]
 3699 0056 12F4006F 		tst	r2, #2048
 3700 005a D9D0     		beq	.L399
 3701 005c 4FF40062 		mov	r2, #2048
 3702 0060 1A62     		str	r2, [r3, #32]
 3703 0062 2846     		mov	r0, r5
 3704 0064 FFF7FEFF 		bl	UART_EndRxTransfer
 3705 0068 2023     		movs	r3, #32
 3706 006a C5F88430 		str	r3, [r5, #132]
 3707 006e 0023     		movs	r3, #0
 3708 0070 85F87830 		strb	r3, [r5, #120]
 3709 0074 0320     		movs	r0, #3
 3710 0076 0CE0     		b	.L400
 3711              	.L407:
 3712 0078 0824     		movs	r4, #8
 3713 007a 1C62     		str	r4, [r3, #32]
 3714 007c 2846     		mov	r0, r5
 3715 007e FFF7FEFF 		bl	UART_EndRxTransfer
 3716 0082 C5F88440 		str	r4, [r5, #132]
 3717 0086 0023     		movs	r3, #0
 3718 0088 85F87830 		strb	r3, [r5, #120]
 3719 008c 0120     		movs	r0, #1
 3720 008e 00E0     		b	.L400
 3721              	.L406:
 3722 0090 0020     		movs	r0, #0
 3723              	.L400:
 3724 0092 BDE8F883 		pop	{r3, r4, r5, r6, r7, r8, r9, pc}
 3725              	.L403:
 3726 0096 0320     		movs	r0, #3
 3727 0098 FBE7     		b	.L400
 3728              	.L404:
 3729 009a 0320     		movs	r0, #3
 3730 009c F9E7     		b	.L400
 3732              		.section	.text.HAL_UART_Transmit,"ax",%progbits
 3733              		.align	1
 3734              		.global	HAL_UART_Transmit
 3735              		.syntax unified
 3736              		.thumb
 3737              		.thumb_func
 3739              	HAL_UART_Transmit:
 3740              		@ args = 0, pretend = 0, frame = 0
 3741              		@ frame_needed = 0, uses_anonymous_args = 0
 3742 0000 2DE9F041 		push	{r4, r5, r6, r7, r8, lr}
 3743 0004 82B0     		sub	sp, sp, #8
 3744 0006 1E46     		mov	r6, r3
 3745 0008 C36F     		ldr	r3, [r0, #124]
 3746 000a 202B     		cmp	r3, #32
 3747 000c 56D1     		bne	.L417
 3748 000e 0446     		mov	r4, r0
 3749 0010 0D46     		mov	r5, r1
 3750 0012 9046     		mov	r8, r2
 3751 0014 0029     		cmp	r1, #0
 3752 0016 55D0     		beq	.L418
 3753 0018 0AB9     		cbnz	r2, .L423
 3754 001a 0120     		movs	r0, #1
 3755 001c 4FE0     		b	.L409
ARM GAS  C:\Users\kroko\AppData\Local\Temp\ccD7coBo.s 			page 65


 3756              	.L423:
 3757 001e 0023     		movs	r3, #0
 3758 0020 C0F88430 		str	r3, [r0, #132]
 3759 0024 2123     		movs	r3, #33
 3760 0026 C367     		str	r3, [r0, #124]
 3761 0028 FFF7FEFF 		bl	HAL_GetTick
 3762 002c 0746     		mov	r7, r0
 3763 002e A4F85080 		strh	r8, [r4, #80]	@ movhi
 3764 0032 A4F85280 		strh	r8, [r4, #82]	@ movhi
 3765 0036 A368     		ldr	r3, [r4, #8]
 3766 0038 B3F5805F 		cmp	r3, #4096
 3767 003c 02D0     		beq	.L424
 3768 003e 4FF00008 		mov	r8, #0
 3769 0042 15E0     		b	.L414
 3770              	.L424:
 3771 0044 2369     		ldr	r3, [r4, #16]
 3772 0046 3BB3     		cbz	r3, .L421
 3773 0048 4FF00008 		mov	r8, #0
 3774 004c 10E0     		b	.L414
 3775              	.L426:
 3776 004e 2023     		movs	r3, #32
 3777 0050 E367     		str	r3, [r4, #124]
 3778 0052 0320     		movs	r0, #3
 3779 0054 33E0     		b	.L409
 3780              	.L427:
 3781 0056 38F8023B 		ldrh	r3, [r8], #2
 3782 005a 2268     		ldr	r2, [r4]
 3783 005c C3F30803 		ubfx	r3, r3, #0, #9
 3784 0060 1385     		strh	r3, [r2, #40]	@ movhi
 3785              	.L413:
 3786 0062 B4F85220 		ldrh	r2, [r4, #82]
 3787 0066 92B2     		uxth	r2, r2
 3788 0068 013A     		subs	r2, r2, #1
 3789 006a 92B2     		uxth	r2, r2
 3790 006c A4F85220 		strh	r2, [r4, #82]	@ movhi
 3791              	.L414:
 3792 0070 B4F85230 		ldrh	r3, [r4, #82]
 3793 0074 9BB2     		uxth	r3, r3
 3794 0076 93B1     		cbz	r3, .L425
 3795 0078 0096     		str	r6, [sp]
 3796 007a 3B46     		mov	r3, r7
 3797 007c 0022     		movs	r2, #0
 3798 007e 8021     		movs	r1, #128
 3799 0080 2046     		mov	r0, r4
 3800 0082 FFF7FEFF 		bl	UART_WaitOnFlagUntilTimeout
 3801 0086 0028     		cmp	r0, #0
 3802 0088 E1D1     		bne	.L426
 3803 008a 002D     		cmp	r5, #0
 3804 008c E3D0     		beq	.L427
 3805 008e 15F8012B 		ldrb	r2, [r5], #1	@ zero_extendqisi2
 3806 0092 2368     		ldr	r3, [r4]
 3807 0094 1A85     		strh	r2, [r3, #40]	@ movhi
 3808 0096 E4E7     		b	.L413
 3809              	.L421:
 3810 0098 A846     		mov	r8, r5
 3811 009a 0025     		movs	r5, #0
 3812 009c E8E7     		b	.L414
ARM GAS  C:\Users\kroko\AppData\Local\Temp\ccD7coBo.s 			page 66


 3813              	.L425:
 3814 009e 0096     		str	r6, [sp]
 3815 00a0 3B46     		mov	r3, r7
 3816 00a2 0022     		movs	r2, #0
 3817 00a4 4021     		movs	r1, #64
 3818 00a6 2046     		mov	r0, r4
 3819 00a8 FFF7FEFF 		bl	UART_WaitOnFlagUntilTimeout
 3820 00ac 10B9     		cbnz	r0, .L428
 3821 00ae 2023     		movs	r3, #32
 3822 00b0 E367     		str	r3, [r4, #124]
 3823 00b2 04E0     		b	.L409
 3824              	.L428:
 3825 00b4 2023     		movs	r3, #32
 3826 00b6 E367     		str	r3, [r4, #124]
 3827 00b8 0320     		movs	r0, #3
 3828 00ba 00E0     		b	.L409
 3829              	.L417:
 3830 00bc 0220     		movs	r0, #2
 3831              	.L409:
 3832 00be 02B0     		add	sp, sp, #8
 3833              		@ sp needed
 3834 00c0 BDE8F081 		pop	{r4, r5, r6, r7, r8, pc}
 3835              	.L418:
 3836 00c4 0120     		movs	r0, #1
 3837 00c6 FAE7     		b	.L409
 3839              		.section	.text.HAL_UART_Receive,"ax",%progbits
 3840              		.align	1
 3841              		.global	HAL_UART_Receive
 3842              		.syntax unified
 3843              		.thumb
 3844              		.thumb_func
 3846              	HAL_UART_Receive:
 3847              		@ args = 0, pretend = 0, frame = 0
 3848              		@ frame_needed = 0, uses_anonymous_args = 0
 3849 0000 2DE9F043 		push	{r4, r5, r6, r7, r8, r9, lr}
 3850 0004 83B0     		sub	sp, sp, #12
 3851 0006 1E46     		mov	r6, r3
 3852 0008 D0F88030 		ldr	r3, [r0, #128]
 3853 000c 202B     		cmp	r3, #32
 3854 000e 7DD1     		bne	.L444
 3855 0010 0446     		mov	r4, r0
 3856 0012 0D46     		mov	r5, r1
 3857 0014 9046     		mov	r8, r2
 3858 0016 0029     		cmp	r1, #0
 3859 0018 7CD0     		beq	.L445
 3860 001a 0AB9     		cbnz	r2, .L450
 3861 001c 0120     		movs	r0, #1
 3862 001e 76E0     		b	.L430
 3863              	.L450:
 3864 0020 0023     		movs	r3, #0
 3865 0022 C0F88430 		str	r3, [r0, #132]
 3866 0026 2222     		movs	r2, #34
 3867 0028 C0F88020 		str	r2, [r0, #128]
 3868 002c 0366     		str	r3, [r0, #96]
 3869 002e FFF7FEFF 		bl	HAL_GetTick
 3870 0032 0746     		mov	r7, r0
 3871 0034 A4F85880 		strh	r8, [r4, #88]	@ movhi
ARM GAS  C:\Users\kroko\AppData\Local\Temp\ccD7coBo.s 			page 67


 3872 0038 A4F85A80 		strh	r8, [r4, #90]	@ movhi
 3873 003c A368     		ldr	r3, [r4, #8]
 3874 003e B3F5805F 		cmp	r3, #4096
 3875 0042 06D0     		beq	.L451
 3876 0044 A3B9     		cbnz	r3, .L434
 3877 0046 2269     		ldr	r2, [r4, #16]
 3878 0048 72B9     		cbnz	r2, .L435
 3879 004a FF22     		movs	r2, #255
 3880 004c A4F85C20 		strh	r2, [r4, #92]	@ movhi
 3881 0050 14E0     		b	.L433
 3882              	.L451:
 3883 0052 2269     		ldr	r2, [r4, #16]
 3884 0054 22B9     		cbnz	r2, .L432
 3885 0056 40F2FF12 		movw	r2, #511
 3886 005a A4F85C20 		strh	r2, [r4, #92]	@ movhi
 3887 005e 0DE0     		b	.L433
 3888              	.L432:
 3889 0060 FF22     		movs	r2, #255
 3890 0062 A4F85C20 		strh	r2, [r4, #92]	@ movhi
 3891 0066 09E0     		b	.L433
 3892              	.L435:
 3893 0068 7F22     		movs	r2, #127
 3894 006a A4F85C20 		strh	r2, [r4, #92]	@ movhi
 3895 006e 05E0     		b	.L433
 3896              	.L434:
 3897 0070 B3F1805F 		cmp	r3, #268435456
 3898 0074 0AD0     		beq	.L452
 3899 0076 0022     		movs	r2, #0
 3900 0078 A4F85C20 		strh	r2, [r4, #92]	@ movhi
 3901              	.L433:
 3902 007c B4F85C80 		ldrh	r8, [r4, #92]
 3903 0080 B3F5805F 		cmp	r3, #4096
 3904 0084 0CD0     		beq	.L453
 3905 0086 4FF00009 		mov	r9, #0
 3906 008a 20E0     		b	.L442
 3907              	.L452:
 3908 008c 2269     		ldr	r2, [r4, #16]
 3909 008e 1AB9     		cbnz	r2, .L437
 3910 0090 7F22     		movs	r2, #127
 3911 0092 A4F85C20 		strh	r2, [r4, #92]	@ movhi
 3912 0096 F1E7     		b	.L433
 3913              	.L437:
 3914 0098 3F22     		movs	r2, #63
 3915 009a A4F85C20 		strh	r2, [r4, #92]	@ movhi
 3916 009e EDE7     		b	.L433
 3917              	.L453:
 3918 00a0 2369     		ldr	r3, [r4, #16]
 3919 00a2 5BB3     		cbz	r3, .L448
 3920 00a4 4FF00009 		mov	r9, #0
 3921 00a8 11E0     		b	.L442
 3922              	.L455:
 3923 00aa 2023     		movs	r3, #32
 3924 00ac C4F88030 		str	r3, [r4, #128]
 3925 00b0 0320     		movs	r0, #3
 3926 00b2 2CE0     		b	.L430
 3927              	.L456:
 3928 00b4 2368     		ldr	r3, [r4]
ARM GAS  C:\Users\kroko\AppData\Local\Temp\ccD7coBo.s 			page 68


 3929 00b6 9B8C     		ldrh	r3, [r3, #36]
 3930 00b8 08EA0303 		and	r3, r8, r3
 3931 00bc 29F8023B 		strh	r3, [r9], #2	@ movhi
 3932              	.L441:
 3933 00c0 B4F85A20 		ldrh	r2, [r4, #90]
 3934 00c4 92B2     		uxth	r2, r2
 3935 00c6 013A     		subs	r2, r2, #1
 3936 00c8 92B2     		uxth	r2, r2
 3937 00ca A4F85A20 		strh	r2, [r4, #90]	@ movhi
 3938              	.L442:
 3939 00ce B4F85A30 		ldrh	r3, [r4, #90]
 3940 00d2 9BB2     		uxth	r3, r3
 3941 00d4 ABB1     		cbz	r3, .L454
 3942 00d6 0096     		str	r6, [sp]
 3943 00d8 3B46     		mov	r3, r7
 3944 00da 0022     		movs	r2, #0
 3945 00dc 2021     		movs	r1, #32
 3946 00de 2046     		mov	r0, r4
 3947 00e0 FFF7FEFF 		bl	UART_WaitOnFlagUntilTimeout
 3948 00e4 0028     		cmp	r0, #0
 3949 00e6 E0D1     		bne	.L455
 3950 00e8 002D     		cmp	r5, #0
 3951 00ea E3D0     		beq	.L456
 3952 00ec 2368     		ldr	r3, [r4]
 3953 00ee 9A8C     		ldrh	r2, [r3, #36]
 3954 00f0 5FFA88F3 		uxtb	r3, r8
 3955 00f4 1340     		ands	r3, r3, r2
 3956 00f6 05F8013B 		strb	r3, [r5], #1
 3957 00fa E1E7     		b	.L441
 3958              	.L448:
 3959 00fc A946     		mov	r9, r5
 3960 00fe 0025     		movs	r5, #0
 3961 0100 E5E7     		b	.L442
 3962              	.L454:
 3963 0102 2023     		movs	r3, #32
 3964 0104 C4F88030 		str	r3, [r4, #128]
 3965 0108 0020     		movs	r0, #0
 3966 010a 00E0     		b	.L430
 3967              	.L444:
 3968 010c 0220     		movs	r0, #2
 3969              	.L430:
 3970 010e 03B0     		add	sp, sp, #12
 3971              		@ sp needed
 3972 0110 BDE8F083 		pop	{r4, r5, r6, r7, r8, r9, pc}
 3973              	.L445:
 3974 0114 0120     		movs	r0, #1
 3975 0116 FAE7     		b	.L430
 3977              		.section	.text.UART_CheckIdleState,"ax",%progbits
 3978              		.align	1
 3979              		.global	UART_CheckIdleState
 3980              		.syntax unified
 3981              		.thumb
 3982              		.thumb_func
 3984              	UART_CheckIdleState:
 3985              		@ args = 0, pretend = 0, frame = 0
 3986              		@ frame_needed = 0, uses_anonymous_args = 0
 3987 0000 30B5     		push	{r4, r5, lr}
ARM GAS  C:\Users\kroko\AppData\Local\Temp\ccD7coBo.s 			page 69


 3988 0002 83B0     		sub	sp, sp, #12
 3989 0004 0446     		mov	r4, r0
 3990 0006 0023     		movs	r3, #0
 3991 0008 C0F88430 		str	r3, [r0, #132]
 3992 000c FFF7FEFF 		bl	HAL_GetTick
 3993 0010 0546     		mov	r5, r0
 3994 0012 2268     		ldr	r2, [r4]
 3995 0014 1268     		ldr	r2, [r2]
 3996 0016 12F0080F 		tst	r2, #8
 3997 001a 0FD1     		bne	.L465
 3998              	.L458:
 3999 001c 2368     		ldr	r3, [r4]
 4000 001e 1B68     		ldr	r3, [r3]
 4001 0020 13F0040F 		tst	r3, #4
 4002 0024 26D1     		bne	.L466
 4003              	.L461:
 4004 0026 2023     		movs	r3, #32
 4005 0028 E367     		str	r3, [r4, #124]
 4006 002a C4F88030 		str	r3, [r4, #128]
 4007 002e 0020     		movs	r0, #0
 4008 0030 2066     		str	r0, [r4, #96]
 4009 0032 6066     		str	r0, [r4, #100]
 4010 0034 84F87800 		strb	r0, [r4, #120]
 4011              	.L460:
 4012 0038 03B0     		add	sp, sp, #12
 4013              		@ sp needed
 4014 003a 30BD     		pop	{r4, r5, pc}
 4015              	.L465:
 4016 003c 6FF07E43 		mvn	r3, #-33554432
 4017 0040 0093     		str	r3, [sp]
 4018 0042 0346     		mov	r3, r0
 4019 0044 0022     		movs	r2, #0
 4020 0046 4FF40011 		mov	r1, #2097152
 4021 004a 2046     		mov	r0, r4
 4022 004c FFF7FEFF 		bl	UART_WaitOnFlagUntilTimeout
 4023 0050 0028     		cmp	r0, #0
 4024 0052 E3D0     		beq	.L458
 4025              	.L459:
 4026 0054 2268     		ldr	r2, [r4]
 4027              		.syntax unified
 4028              	@ 1155 "Drivers/CMSIS/Include/cmsis_gcc.h" 1
 4029 0056 52E8003F 		ldrex r3, [r2]
 4030              	@ 0 "" 2
 4031              		.thumb
 4032              		.syntax unified
 4033 005a 23F08003 		bic	r3, r3, #128
 4034              		.syntax unified
 4035              	@ 1206 "Drivers/CMSIS/Include/cmsis_gcc.h" 1
 4036 005e 42E80031 		strex r1, r3, [r2]
 4037              	@ 0 "" 2
 4038              		.thumb
 4039              		.syntax unified
 4040 0062 0029     		cmp	r1, #0
 4041 0064 F6D1     		bne	.L459
 4042 0066 2023     		movs	r3, #32
 4043 0068 E367     		str	r3, [r4, #124]
 4044 006a 0023     		movs	r3, #0
ARM GAS  C:\Users\kroko\AppData\Local\Temp\ccD7coBo.s 			page 70


 4045 006c 84F87830 		strb	r3, [r4, #120]
 4046 0070 0320     		movs	r0, #3
 4047 0072 E1E7     		b	.L460
 4048              	.L466:
 4049 0074 6FF07E43 		mvn	r3, #-33554432
 4050 0078 0093     		str	r3, [sp]
 4051 007a 2B46     		mov	r3, r5
 4052 007c 0022     		movs	r2, #0
 4053 007e 4FF48001 		mov	r1, #4194304
 4054 0082 2046     		mov	r0, r4
 4055 0084 FFF7FEFF 		bl	UART_WaitOnFlagUntilTimeout
 4056 0088 0028     		cmp	r0, #0
 4057 008a CCD0     		beq	.L461
 4058              	.L462:
 4059 008c 2268     		ldr	r2, [r4]
 4060              		.syntax unified
 4061              	@ 1155 "Drivers/CMSIS/Include/cmsis_gcc.h" 1
 4062 008e 52E8003F 		ldrex r3, [r2]
 4063              	@ 0 "" 2
 4064              		.thumb
 4065              		.syntax unified
 4066 0092 23F49073 		bic	r3, r3, #288
 4067              		.syntax unified
 4068              	@ 1206 "Drivers/CMSIS/Include/cmsis_gcc.h" 1
 4069 0096 42E80031 		strex r1, r3, [r2]
 4070              	@ 0 "" 2
 4071              		.thumb
 4072              		.syntax unified
 4073 009a 0029     		cmp	r1, #0
 4074 009c F6D1     		bne	.L462
 4075              	.L463:
 4076 009e 2268     		ldr	r2, [r4]
 4077 00a0 02F10803 		add	r3, r2, #8
 4078              		.syntax unified
 4079              	@ 1155 "Drivers/CMSIS/Include/cmsis_gcc.h" 1
 4080 00a4 53E8003F 		ldrex r3, [r3]
 4081              	@ 0 "" 2
 4082              		.thumb
 4083              		.syntax unified
 4084 00a8 23F00103 		bic	r3, r3, #1
 4085 00ac 0832     		adds	r2, r2, #8
 4086              		.syntax unified
 4087              	@ 1206 "Drivers/CMSIS/Include/cmsis_gcc.h" 1
 4088 00ae 42E80031 		strex r1, r3, [r2]
 4089              	@ 0 "" 2
 4090              		.thumb
 4091              		.syntax unified
 4092 00b2 0029     		cmp	r1, #0
 4093 00b4 F3D1     		bne	.L463
 4094 00b6 2023     		movs	r3, #32
 4095 00b8 C4F88030 		str	r3, [r4, #128]
 4096 00bc 0023     		movs	r3, #0
 4097 00be 84F87830 		strb	r3, [r4, #120]
 4098 00c2 0320     		movs	r0, #3
 4099 00c4 B8E7     		b	.L460
 4101              		.section	.text.HAL_UART_Init,"ax",%progbits
 4102              		.align	1
ARM GAS  C:\Users\kroko\AppData\Local\Temp\ccD7coBo.s 			page 71


 4103              		.global	HAL_UART_Init
 4104              		.syntax unified
 4105              		.thumb
 4106              		.thumb_func
 4108              	HAL_UART_Init:
 4109              		@ args = 0, pretend = 0, frame = 0
 4110              		@ frame_needed = 0, uses_anonymous_args = 0
 4111 0000 68B3     		cbz	r0, .L471
 4112 0002 10B5     		push	{r4, lr}
 4113 0004 0446     		mov	r4, r0
 4114 0006 C36F     		ldr	r3, [r0, #124]
 4115 0008 03B3     		cbz	r3, .L476
 4116              	.L469:
 4117 000a 2423     		movs	r3, #36
 4118 000c E367     		str	r3, [r4, #124]
 4119 000e 2268     		ldr	r2, [r4]
 4120 0010 1368     		ldr	r3, [r2]
 4121 0012 23F00103 		bic	r3, r3, #1
 4122 0016 1360     		str	r3, [r2]
 4123 0018 636A     		ldr	r3, [r4, #36]
 4124 001a E3B9     		cbnz	r3, .L477
 4125              	.L470:
 4126 001c 2046     		mov	r0, r4
 4127 001e FFF7FEFF 		bl	UART_SetConfig
 4128 0022 0128     		cmp	r0, #1
 4129 0024 11D0     		beq	.L468
 4130 0026 2268     		ldr	r2, [r4]
 4131 0028 5368     		ldr	r3, [r2, #4]
 4132 002a 23F49043 		bic	r3, r3, #18432
 4133 002e 5360     		str	r3, [r2, #4]
 4134 0030 2268     		ldr	r2, [r4]
 4135 0032 9368     		ldr	r3, [r2, #8]
 4136 0034 23F02A03 		bic	r3, r3, #42
 4137 0038 9360     		str	r3, [r2, #8]
 4138 003a 2268     		ldr	r2, [r4]
 4139 003c 1368     		ldr	r3, [r2]
 4140 003e 43F00103 		orr	r3, r3, #1
 4141 0042 1360     		str	r3, [r2]
 4142 0044 2046     		mov	r0, r4
 4143 0046 FFF7FEFF 		bl	UART_CheckIdleState
 4144              	.L468:
 4145 004a 10BD     		pop	{r4, pc}
 4146              	.L476:
 4147 004c 80F87830 		strb	r3, [r0, #120]
 4148 0050 FFF7FEFF 		bl	HAL_UART_MspInit
 4149 0054 D9E7     		b	.L469
 4150              	.L477:
 4151 0056 2046     		mov	r0, r4
 4152 0058 FFF7FEFF 		bl	UART_AdvFeatureConfig
 4153 005c DEE7     		b	.L470
 4154              	.L471:
 4155 005e 0120     		movs	r0, #1
 4156 0060 7047     		bx	lr
 4158              		.section	.text.HAL_HalfDuplex_Init,"ax",%progbits
 4159              		.align	1
 4160              		.global	HAL_HalfDuplex_Init
 4161              		.syntax unified
ARM GAS  C:\Users\kroko\AppData\Local\Temp\ccD7coBo.s 			page 72


 4162              		.thumb
 4163              		.thumb_func
 4165              	HAL_HalfDuplex_Init:
 4166              		@ args = 0, pretend = 0, frame = 0
 4167              		@ frame_needed = 0, uses_anonymous_args = 0
 4168 0000 0028     		cmp	r0, #0
 4169 0002 32D0     		beq	.L482
 4170 0004 10B5     		push	{r4, lr}
 4171 0006 0446     		mov	r4, r0
 4172 0008 C36F     		ldr	r3, [r0, #124]
 4173 000a 2BB3     		cbz	r3, .L487
 4174              	.L480:
 4175 000c 2423     		movs	r3, #36
 4176 000e E367     		str	r3, [r4, #124]
 4177 0010 2268     		ldr	r2, [r4]
 4178 0012 1368     		ldr	r3, [r2]
 4179 0014 23F00103 		bic	r3, r3, #1
 4180 0018 1360     		str	r3, [r2]
 4181 001a 636A     		ldr	r3, [r4, #36]
 4182 001c 0BBB     		cbnz	r3, .L488
 4183              	.L481:
 4184 001e 2046     		mov	r0, r4
 4185 0020 FFF7FEFF 		bl	UART_SetConfig
 4186 0024 0128     		cmp	r0, #1
 4187 0026 16D0     		beq	.L479
 4188 0028 2268     		ldr	r2, [r4]
 4189 002a 5368     		ldr	r3, [r2, #4]
 4190 002c 23F49043 		bic	r3, r3, #18432
 4191 0030 5360     		str	r3, [r2, #4]
 4192 0032 2268     		ldr	r2, [r4]
 4193 0034 9368     		ldr	r3, [r2, #8]
 4194 0036 23F02203 		bic	r3, r3, #34
 4195 003a 9360     		str	r3, [r2, #8]
 4196 003c 2268     		ldr	r2, [r4]
 4197 003e 9368     		ldr	r3, [r2, #8]
 4198 0040 43F00803 		orr	r3, r3, #8
 4199 0044 9360     		str	r3, [r2, #8]
 4200 0046 2268     		ldr	r2, [r4]
 4201 0048 1368     		ldr	r3, [r2]
 4202 004a 43F00103 		orr	r3, r3, #1
 4203 004e 1360     		str	r3, [r2]
 4204 0050 2046     		mov	r0, r4
 4205 0052 FFF7FEFF 		bl	UART_CheckIdleState
 4206              	.L479:
 4207 0056 10BD     		pop	{r4, pc}
 4208              	.L487:
 4209 0058 80F87830 		strb	r3, [r0, #120]
 4210 005c FFF7FEFF 		bl	HAL_UART_MspInit
 4211 0060 D4E7     		b	.L480
 4212              	.L488:
 4213 0062 2046     		mov	r0, r4
 4214 0064 FFF7FEFF 		bl	UART_AdvFeatureConfig
 4215 0068 D9E7     		b	.L481
 4216              	.L482:
 4217 006a 0120     		movs	r0, #1
 4218 006c 7047     		bx	lr
 4220              		.section	.text.HAL_LIN_Init,"ax",%progbits
ARM GAS  C:\Users\kroko\AppData\Local\Temp\ccD7coBo.s 			page 73


 4221              		.align	1
 4222              		.global	HAL_LIN_Init
 4223              		.syntax unified
 4224              		.thumb
 4225              		.thumb_func
 4227              	HAL_LIN_Init:
 4228              		@ args = 0, pretend = 0, frame = 0
 4229              		@ frame_needed = 0, uses_anonymous_args = 0
 4230 0000 0028     		cmp	r0, #0
 4231 0002 40D0     		beq	.L493
 4232 0004 38B5     		push	{r3, r4, r5, lr}
 4233 0006 0D46     		mov	r5, r1
 4234 0008 0446     		mov	r4, r0
 4235 000a C369     		ldr	r3, [r0, #28]
 4236 000c B3F5004F 		cmp	r3, #32768
 4237 0010 3BD0     		beq	.L494
 4238 0012 8368     		ldr	r3, [r0, #8]
 4239 0014 002B     		cmp	r3, #0
 4240 0016 3AD1     		bne	.L495
 4241 0018 C36F     		ldr	r3, [r0, #124]
 4242 001a 5BB3     		cbz	r3, .L500
 4243              	.L491:
 4244 001c 2423     		movs	r3, #36
 4245 001e E367     		str	r3, [r4, #124]
 4246 0020 2268     		ldr	r2, [r4]
 4247 0022 1368     		ldr	r3, [r2]
 4248 0024 23F00103 		bic	r3, r3, #1
 4249 0028 1360     		str	r3, [r2]
 4250 002a 636A     		ldr	r3, [r4, #36]
 4251 002c 3BBB     		cbnz	r3, .L501
 4252              	.L492:
 4253 002e 2046     		mov	r0, r4
 4254 0030 FFF7FEFF 		bl	UART_SetConfig
 4255 0034 0128     		cmp	r0, #1
 4256 0036 1CD0     		beq	.L490
 4257 0038 2268     		ldr	r2, [r4]
 4258 003a 5368     		ldr	r3, [r2, #4]
 4259 003c 23F40063 		bic	r3, r3, #2048
 4260 0040 5360     		str	r3, [r2, #4]
 4261 0042 2268     		ldr	r2, [r4]
 4262 0044 9368     		ldr	r3, [r2, #8]
 4263 0046 23F02A03 		bic	r3, r3, #42
 4264 004a 9360     		str	r3, [r2, #8]
 4265 004c 2268     		ldr	r2, [r4]
 4266 004e 5368     		ldr	r3, [r2, #4]
 4267 0050 43F48043 		orr	r3, r3, #16384
 4268 0054 5360     		str	r3, [r2, #4]
 4269 0056 2268     		ldr	r2, [r4]
 4270 0058 5368     		ldr	r3, [r2, #4]
 4271 005a 23F02003 		bic	r3, r3, #32
 4272 005e 2B43     		orrs	r3, r3, r5
 4273 0060 5360     		str	r3, [r2, #4]
 4274 0062 2268     		ldr	r2, [r4]
 4275 0064 1368     		ldr	r3, [r2]
 4276 0066 43F00103 		orr	r3, r3, #1
 4277 006a 1360     		str	r3, [r2]
 4278 006c 2046     		mov	r0, r4
ARM GAS  C:\Users\kroko\AppData\Local\Temp\ccD7coBo.s 			page 74


 4279 006e FFF7FEFF 		bl	UART_CheckIdleState
 4280              	.L490:
 4281 0072 38BD     		pop	{r3, r4, r5, pc}
 4282              	.L500:
 4283 0074 80F87830 		strb	r3, [r0, #120]
 4284 0078 FFF7FEFF 		bl	HAL_UART_MspInit
 4285 007c CEE7     		b	.L491
 4286              	.L501:
 4287 007e 2046     		mov	r0, r4
 4288 0080 FFF7FEFF 		bl	UART_AdvFeatureConfig
 4289 0084 D3E7     		b	.L492
 4290              	.L493:
 4291 0086 0120     		movs	r0, #1
 4292 0088 7047     		bx	lr
 4293              	.L494:
 4294 008a 0120     		movs	r0, #1
 4295 008c F1E7     		b	.L490
 4296              	.L495:
 4297 008e 0120     		movs	r0, #1
 4298 0090 EFE7     		b	.L490
 4300              		.section	.text.HAL_MultiProcessor_Init,"ax",%progbits
 4301              		.align	1
 4302              		.global	HAL_MultiProcessor_Init
 4303              		.syntax unified
 4304              		.thumb
 4305              		.thumb_func
 4307              	HAL_MultiProcessor_Init:
 4308              		@ args = 0, pretend = 0, frame = 0
 4309              		@ frame_needed = 0, uses_anonymous_args = 0
 4310 0000 0028     		cmp	r0, #0
 4311 0002 40D0     		beq	.L507
 4312 0004 70B5     		push	{r4, r5, r6, lr}
 4313 0006 0E46     		mov	r6, r1
 4314 0008 1546     		mov	r5, r2
 4315 000a 0446     		mov	r4, r0
 4316 000c C36F     		ldr	r3, [r0, #124]
 4317 000e 4BB3     		cbz	r3, .L512
 4318              	.L504:
 4319 0010 2423     		movs	r3, #36
 4320 0012 E367     		str	r3, [r4, #124]
 4321 0014 2268     		ldr	r2, [r4]
 4322 0016 1368     		ldr	r3, [r2]
 4323 0018 23F00103 		bic	r3, r3, #1
 4324 001c 1360     		str	r3, [r2]
 4325 001e 636A     		ldr	r3, [r4, #36]
 4326 0020 2BBB     		cbnz	r3, .L513
 4327              	.L505:
 4328 0022 2046     		mov	r0, r4
 4329 0024 FFF7FEFF 		bl	UART_SetConfig
 4330 0028 0128     		cmp	r0, #1
 4331 002a 1AD0     		beq	.L503
 4332 002c 2268     		ldr	r2, [r4]
 4333 002e 5368     		ldr	r3, [r2, #4]
 4334 0030 23F49043 		bic	r3, r3, #18432
 4335 0034 5360     		str	r3, [r2, #4]
 4336 0036 2268     		ldr	r2, [r4]
 4337 0038 9368     		ldr	r3, [r2, #8]
ARM GAS  C:\Users\kroko\AppData\Local\Temp\ccD7coBo.s 			page 75


 4338 003a 23F02A03 		bic	r3, r3, #42
 4339 003e 9360     		str	r3, [r2, #8]
 4340 0040 B5F5006F 		cmp	r5, #2048
 4341 0044 17D0     		beq	.L514
 4342              	.L506:
 4343 0046 2268     		ldr	r2, [r4]
 4344 0048 1368     		ldr	r3, [r2]
 4345 004a 23F40063 		bic	r3, r3, #2048
 4346 004e 2B43     		orrs	r3, r3, r5
 4347 0050 1360     		str	r3, [r2]
 4348 0052 2268     		ldr	r2, [r4]
 4349 0054 1368     		ldr	r3, [r2]
 4350 0056 43F00103 		orr	r3, r3, #1
 4351 005a 1360     		str	r3, [r2]
 4352 005c 2046     		mov	r0, r4
 4353 005e FFF7FEFF 		bl	UART_CheckIdleState
 4354              	.L503:
 4355 0062 70BD     		pop	{r4, r5, r6, pc}
 4356              	.L512:
 4357 0064 80F87830 		strb	r3, [r0, #120]
 4358 0068 FFF7FEFF 		bl	HAL_UART_MspInit
 4359 006c D0E7     		b	.L504
 4360              	.L513:
 4361 006e 2046     		mov	r0, r4
 4362 0070 FFF7FEFF 		bl	UART_AdvFeatureConfig
 4363 0074 D5E7     		b	.L505
 4364              	.L514:
 4365 0076 2268     		ldr	r2, [r4]
 4366 0078 5368     		ldr	r3, [r2, #4]
 4367 007a 23F07F43 		bic	r3, r3, #-16777216
 4368 007e 43EA0663 		orr	r3, r3, r6, lsl #24
 4369 0082 5360     		str	r3, [r2, #4]
 4370 0084 DFE7     		b	.L506
 4371              	.L507:
 4372 0086 0120     		movs	r0, #1
 4373 0088 7047     		bx	lr
 4375              		.section	.text.HAL_MultiProcessor_EnableMuteMode,"ax",%progbits
 4376              		.align	1
 4377              		.global	HAL_MultiProcessor_EnableMuteMode
 4378              		.syntax unified
 4379              		.thumb
 4380              		.thumb_func
 4382              	HAL_MultiProcessor_EnableMuteMode:
 4383              		@ args = 0, pretend = 0, frame = 0
 4384              		@ frame_needed = 0, uses_anonymous_args = 0
 4385 0000 08B5     		push	{r3, lr}
 4386 0002 90F87830 		ldrb	r3, [r0, #120]	@ zero_extendqisi2
 4387 0006 012B     		cmp	r3, #1
 4388 0008 12D0     		beq	.L518
 4389 000a 0123     		movs	r3, #1
 4390 000c 80F87830 		strb	r3, [r0, #120]
 4391 0010 2423     		movs	r3, #36
 4392 0012 C367     		str	r3, [r0, #124]
 4393              	.L517:
 4394 0014 0268     		ldr	r2, [r0]
 4395              		.syntax unified
 4396              	@ 1155 "Drivers/CMSIS/Include/cmsis_gcc.h" 1
ARM GAS  C:\Users\kroko\AppData\Local\Temp\ccD7coBo.s 			page 76


 4397 0016 52E8003F 		ldrex r3, [r2]
 4398              	@ 0 "" 2
 4399              		.thumb
 4400              		.syntax unified
 4401 001a 43F40053 		orr	r3, r3, #8192
 4402              		.syntax unified
 4403              	@ 1206 "Drivers/CMSIS/Include/cmsis_gcc.h" 1
 4404 001e 42E80031 		strex r1, r3, [r2]
 4405              	@ 0 "" 2
 4406              		.thumb
 4407              		.syntax unified
 4408 0022 0029     		cmp	r1, #0
 4409 0024 F6D1     		bne	.L517
 4410 0026 2023     		movs	r3, #32
 4411 0028 C367     		str	r3, [r0, #124]
 4412 002a FFF7FEFF 		bl	UART_CheckIdleState
 4413              	.L516:
 4414 002e 08BD     		pop	{r3, pc}
 4415              	.L518:
 4416 0030 0220     		movs	r0, #2
 4417 0032 FCE7     		b	.L516
 4419              		.section	.text.HAL_MultiProcessor_DisableMuteMode,"ax",%progbits
 4420              		.align	1
 4421              		.global	HAL_MultiProcessor_DisableMuteMode
 4422              		.syntax unified
 4423              		.thumb
 4424              		.thumb_func
 4426              	HAL_MultiProcessor_DisableMuteMode:
 4427              		@ args = 0, pretend = 0, frame = 0
 4428              		@ frame_needed = 0, uses_anonymous_args = 0
 4429 0000 08B5     		push	{r3, lr}
 4430 0002 90F87830 		ldrb	r3, [r0, #120]	@ zero_extendqisi2
 4431 0006 012B     		cmp	r3, #1
 4432 0008 12D0     		beq	.L523
 4433 000a 0123     		movs	r3, #1
 4434 000c 80F87830 		strb	r3, [r0, #120]
 4435 0010 2423     		movs	r3, #36
 4436 0012 C367     		str	r3, [r0, #124]
 4437              	.L522:
 4438 0014 0268     		ldr	r2, [r0]
 4439              		.syntax unified
 4440              	@ 1155 "Drivers/CMSIS/Include/cmsis_gcc.h" 1
 4441 0016 52E8003F 		ldrex r3, [r2]
 4442              	@ 0 "" 2
 4443              		.thumb
 4444              		.syntax unified
 4445 001a 23F40053 		bic	r3, r3, #8192
 4446              		.syntax unified
 4447              	@ 1206 "Drivers/CMSIS/Include/cmsis_gcc.h" 1
 4448 001e 42E80031 		strex r1, r3, [r2]
 4449              	@ 0 "" 2
 4450              		.thumb
 4451              		.syntax unified
 4452 0022 0029     		cmp	r1, #0
 4453 0024 F6D1     		bne	.L522
 4454 0026 2023     		movs	r3, #32
 4455 0028 C367     		str	r3, [r0, #124]
ARM GAS  C:\Users\kroko\AppData\Local\Temp\ccD7coBo.s 			page 77


 4456 002a FFF7FEFF 		bl	UART_CheckIdleState
 4457              	.L521:
 4458 002e 08BD     		pop	{r3, pc}
 4459              	.L523:
 4460 0030 0220     		movs	r0, #2
 4461 0032 FCE7     		b	.L521
 4463              		.section	.text.UART_Start_Receive_IT,"ax",%progbits
 4464              		.align	1
 4465              		.global	UART_Start_Receive_IT
 4466              		.syntax unified
 4467              		.thumb
 4468              		.thumb_func
 4470              	UART_Start_Receive_IT:
 4471              		@ args = 0, pretend = 0, frame = 0
 4472              		@ frame_needed = 0, uses_anonymous_args = 0
 4473              		@ link register save eliminated.
 4474 0000 4165     		str	r1, [r0, #84]
 4475 0002 A0F85820 		strh	r2, [r0, #88]	@ movhi
 4476 0006 A0F85A20 		strh	r2, [r0, #90]	@ movhi
 4477 000a 0023     		movs	r3, #0
 4478 000c 8366     		str	r3, [r0, #104]
 4479 000e 8368     		ldr	r3, [r0, #8]
 4480 0010 B3F5805F 		cmp	r3, #4096
 4481 0014 06D0     		beq	.L539
 4482 0016 A3B9     		cbnz	r3, .L529
 4483 0018 0369     		ldr	r3, [r0, #16]
 4484 001a 73B9     		cbnz	r3, .L530
 4485 001c FF23     		movs	r3, #255
 4486 001e A0F85C30 		strh	r3, [r0, #92]	@ movhi
 4487 0022 14E0     		b	.L528
 4488              	.L539:
 4489 0024 0369     		ldr	r3, [r0, #16]
 4490 0026 23B9     		cbnz	r3, .L527
 4491 0028 40F2FF13 		movw	r3, #511
 4492 002c A0F85C30 		strh	r3, [r0, #92]	@ movhi
 4493 0030 0DE0     		b	.L528
 4494              	.L527:
 4495 0032 FF23     		movs	r3, #255
 4496 0034 A0F85C30 		strh	r3, [r0, #92]	@ movhi
 4497 0038 09E0     		b	.L528
 4498              	.L530:
 4499 003a 7F23     		movs	r3, #127
 4500 003c A0F85C30 		strh	r3, [r0, #92]	@ movhi
 4501 0040 05E0     		b	.L528
 4502              	.L529:
 4503 0042 B3F1805F 		cmp	r3, #268435456
 4504 0046 27D0     		beq	.L540
 4505 0048 0023     		movs	r3, #0
 4506 004a A0F85C30 		strh	r3, [r0, #92]	@ movhi
 4507              	.L528:
 4508 004e 0023     		movs	r3, #0
 4509 0050 C0F88430 		str	r3, [r0, #132]
 4510 0054 2223     		movs	r3, #34
 4511 0056 C0F88030 		str	r3, [r0, #128]
 4512              	.L533:
 4513 005a 0268     		ldr	r2, [r0]
 4514 005c 02F10803 		add	r3, r2, #8
ARM GAS  C:\Users\kroko\AppData\Local\Temp\ccD7coBo.s 			page 78


 4515              		.syntax unified
 4516              	@ 1155 "Drivers/CMSIS/Include/cmsis_gcc.h" 1
 4517 0060 53E8003F 		ldrex r3, [r3]
 4518              	@ 0 "" 2
 4519              		.thumb
 4520              		.syntax unified
 4521 0064 43F00103 		orr	r3, r3, #1
 4522 0068 0832     		adds	r2, r2, #8
 4523              		.syntax unified
 4524              	@ 1206 "Drivers/CMSIS/Include/cmsis_gcc.h" 1
 4525 006a 42E80031 		strex r1, r3, [r2]
 4526              	@ 0 "" 2
 4527              		.thumb
 4528              		.syntax unified
 4529 006e 0029     		cmp	r1, #0
 4530 0070 F3D1     		bne	.L533
 4531 0072 8368     		ldr	r3, [r0, #8]
 4532 0074 B3F5805F 		cmp	r3, #4096
 4533 0078 18D0     		beq	.L541
 4534              	.L534:
 4535 007a 144B     		ldr	r3, .L542
 4536 007c 8366     		str	r3, [r0, #104]
 4537              	.L535:
 4538 007e 0369     		ldr	r3, [r0, #16]
 4539 0080 D3B1     		cbz	r3, .L536
 4540              	.L537:
 4541 0082 0268     		ldr	r2, [r0]
 4542              		.syntax unified
 4543              	@ 1155 "Drivers/CMSIS/Include/cmsis_gcc.h" 1
 4544 0084 52E8003F 		ldrex r3, [r2]
 4545              	@ 0 "" 2
 4546              		.thumb
 4547              		.syntax unified
 4548 0088 43F49073 		orr	r3, r3, #288
 4549              		.syntax unified
 4550              	@ 1206 "Drivers/CMSIS/Include/cmsis_gcc.h" 1
 4551 008c 42E80031 		strex r1, r3, [r2]
 4552              	@ 0 "" 2
 4553              		.thumb
 4554              		.syntax unified
 4555 0090 0029     		cmp	r1, #0
 4556 0092 F6D1     		bne	.L537
 4557              	.L538:
 4558 0094 0020     		movs	r0, #0
 4559 0096 7047     		bx	lr
 4560              	.L540:
 4561 0098 0369     		ldr	r3, [r0, #16]
 4562 009a 1BB9     		cbnz	r3, .L532
 4563 009c 7F23     		movs	r3, #127
 4564 009e A0F85C30 		strh	r3, [r0, #92]	@ movhi
 4565 00a2 D4E7     		b	.L528
 4566              	.L532:
 4567 00a4 3F23     		movs	r3, #63
 4568 00a6 A0F85C30 		strh	r3, [r0, #92]	@ movhi
 4569 00aa D0E7     		b	.L528
 4570              	.L541:
 4571 00ac 0369     		ldr	r3, [r0, #16]
ARM GAS  C:\Users\kroko\AppData\Local\Temp\ccD7coBo.s 			page 79


 4572 00ae 002B     		cmp	r3, #0
 4573 00b0 E3D1     		bne	.L534
 4574 00b2 074B     		ldr	r3, .L542+4
 4575 00b4 8366     		str	r3, [r0, #104]
 4576 00b6 E2E7     		b	.L535
 4577              	.L536:
 4578 00b8 0268     		ldr	r2, [r0]
 4579              		.syntax unified
 4580              	@ 1155 "Drivers/CMSIS/Include/cmsis_gcc.h" 1
 4581 00ba 52E8003F 		ldrex r3, [r2]
 4582              	@ 0 "" 2
 4583              		.thumb
 4584              		.syntax unified
 4585 00be 43F02003 		orr	r3, r3, #32
 4586              		.syntax unified
 4587              	@ 1206 "Drivers/CMSIS/Include/cmsis_gcc.h" 1
 4588 00c2 42E80031 		strex r1, r3, [r2]
 4589              	@ 0 "" 2
 4590              		.thumb
 4591              		.syntax unified
 4592 00c6 0029     		cmp	r1, #0
 4593 00c8 F6D1     		bne	.L536
 4594 00ca E3E7     		b	.L538
 4595              	.L543:
 4596              		.align	2
 4597              	.L542:
 4598 00cc 00000000 		.word	UART_RxISR_8BIT
 4599 00d0 00000000 		.word	UART_RxISR_16BIT
 4601              		.section	.text.HAL_UART_Receive_IT,"ax",%progbits
 4602              		.align	1
 4603              		.global	HAL_UART_Receive_IT
 4604              		.syntax unified
 4605              		.thumb
 4606              		.thumb_func
 4608              	HAL_UART_Receive_IT:
 4609              		@ args = 0, pretend = 0, frame = 0
 4610              		@ frame_needed = 0, uses_anonymous_args = 0
 4611 0000 38B5     		push	{r3, r4, r5, lr}
 4612 0002 D0F88030 		ldr	r3, [r0, #128]
 4613 0006 202B     		cmp	r3, #32
 4614 0008 17D1     		bne	.L548
 4615 000a C1B1     		cbz	r1, .L549
 4616 000c CAB1     		cbz	r2, .L550
 4617 000e 0023     		movs	r3, #0
 4618 0010 0366     		str	r3, [r0, #96]
 4619 0012 0368     		ldr	r3, [r0]
 4620 0014 0C4C     		ldr	r4, .L552
 4621 0016 A342     		cmp	r3, r4
 4622 0018 0CD0     		beq	.L546
 4623 001a 5B68     		ldr	r3, [r3, #4]
 4624 001c 13F4000F 		tst	r3, #8388608
 4625 0020 08D0     		beq	.L546
 4626              	.L547:
 4627 0022 0468     		ldr	r4, [r0]
 4628              		.syntax unified
 4629              	@ 1155 "Drivers/CMSIS/Include/cmsis_gcc.h" 1
 4630 0024 54E8003F 		ldrex r3, [r4]
ARM GAS  C:\Users\kroko\AppData\Local\Temp\ccD7coBo.s 			page 80


 4631              	@ 0 "" 2
 4632              		.thumb
 4633              		.syntax unified
 4634 0028 43F08063 		orr	r3, r3, #67108864
 4635              		.syntax unified
 4636              	@ 1206 "Drivers/CMSIS/Include/cmsis_gcc.h" 1
 4637 002c 44E80035 		strex r5, r3, [r4]
 4638              	@ 0 "" 2
 4639              		.thumb
 4640              		.syntax unified
 4641 0030 002D     		cmp	r5, #0
 4642 0032 F6D1     		bne	.L547
 4643              	.L546:
 4644 0034 FFF7FEFF 		bl	UART_Start_Receive_IT
 4645 0038 00E0     		b	.L545
 4646              	.L548:
 4647 003a 0220     		movs	r0, #2
 4648              	.L545:
 4649 003c 38BD     		pop	{r3, r4, r5, pc}
 4650              	.L549:
 4651 003e 0120     		movs	r0, #1
 4652 0040 FCE7     		b	.L545
 4653              	.L550:
 4654 0042 0120     		movs	r0, #1
 4655 0044 FAE7     		b	.L545
 4656              	.L553:
 4657 0046 00BF     		.align	2
 4658              	.L552:
 4659 0048 00800040 		.word	1073774592
 4661              		.section	.text.UART_Start_Receive_DMA,"ax",%progbits
 4662              		.align	1
 4663              		.global	UART_Start_Receive_DMA
 4664              		.syntax unified
 4665              		.thumb
 4666              		.thumb_func
 4668              	UART_Start_Receive_DMA:
 4669              		@ args = 0, pretend = 0, frame = 0
 4670              		@ frame_needed = 0, uses_anonymous_args = 0
 4671 0000 10B5     		push	{r4, lr}
 4672 0002 0446     		mov	r4, r0
 4673 0004 1346     		mov	r3, r2
 4674 0006 4165     		str	r1, [r0, #84]
 4675 0008 A0F85820 		strh	r2, [r0, #88]	@ movhi
 4676 000c 0022     		movs	r2, #0
 4677 000e C0F88420 		str	r2, [r0, #132]
 4678 0012 2222     		movs	r2, #34
 4679 0014 C0F88020 		str	r2, [r0, #128]
 4680 0018 426F     		ldr	r2, [r0, #116]
 4681 001a 8AB1     		cbz	r2, .L555
 4682 001c 1F49     		ldr	r1, .L563
 4683 001e D162     		str	r1, [r2, #44]
 4684 0020 426F     		ldr	r2, [r0, #116]
 4685 0022 1F49     		ldr	r1, .L563+4
 4686 0024 1163     		str	r1, [r2, #48]
 4687 0026 426F     		ldr	r2, [r0, #116]
 4688 0028 1E49     		ldr	r1, .L563+8
 4689 002a 5163     		str	r1, [r2, #52]
ARM GAS  C:\Users\kroko\AppData\Local\Temp\ccD7coBo.s 			page 81


 4690 002c 426F     		ldr	r2, [r0, #116]
 4691 002e 0021     		movs	r1, #0
 4692 0030 9163     		str	r1, [r2, #56]
 4693 0032 0168     		ldr	r1, [r0]
 4694 0034 426D     		ldr	r2, [r0, #84]
 4695 0036 2431     		adds	r1, r1, #36
 4696 0038 406F     		ldr	r0, [r0, #116]
 4697 003a FFF7FEFF 		bl	HAL_DMA_Start_IT
 4698 003e 20BB     		cbnz	r0, .L562
 4699              	.L555:
 4700 0040 2369     		ldr	r3, [r4, #16]
 4701 0042 43B1     		cbz	r3, .L559
 4702              	.L558:
 4703 0044 2268     		ldr	r2, [r4]
 4704              		.syntax unified
 4705              	@ 1155 "Drivers/CMSIS/Include/cmsis_gcc.h" 1
 4706 0046 52E8003F 		ldrex r3, [r2]
 4707              	@ 0 "" 2
 4708              		.thumb
 4709              		.syntax unified
 4710 004a 43F48073 		orr	r3, r3, #256
 4711              		.syntax unified
 4712              	@ 1206 "Drivers/CMSIS/Include/cmsis_gcc.h" 1
 4713 004e 42E80031 		strex r1, r3, [r2]
 4714              	@ 0 "" 2
 4715              		.thumb
 4716              		.syntax unified
 4717 0052 0029     		cmp	r1, #0
 4718 0054 F6D1     		bne	.L558
 4719              	.L559:
 4720 0056 2268     		ldr	r2, [r4]
 4721 0058 02F10803 		add	r3, r2, #8
 4722              		.syntax unified
 4723              	@ 1155 "Drivers/CMSIS/Include/cmsis_gcc.h" 1
 4724 005c 53E8003F 		ldrex r3, [r3]
 4725              	@ 0 "" 2
 4726              		.thumb
 4727              		.syntax unified
 4728 0060 43F00103 		orr	r3, r3, #1
 4729 0064 0832     		adds	r2, r2, #8
 4730              		.syntax unified
 4731              	@ 1206 "Drivers/CMSIS/Include/cmsis_gcc.h" 1
 4732 0066 42E80031 		strex r1, r3, [r2]
 4733              	@ 0 "" 2
 4734              		.thumb
 4735              		.syntax unified
 4736 006a 0029     		cmp	r1, #0
 4737 006c F3D1     		bne	.L559
 4738              	.L560:
 4739 006e 2268     		ldr	r2, [r4]
 4740 0070 02F10803 		add	r3, r2, #8
 4741              		.syntax unified
 4742              	@ 1155 "Drivers/CMSIS/Include/cmsis_gcc.h" 1
 4743 0074 53E8003F 		ldrex r3, [r3]
 4744              	@ 0 "" 2
 4745              		.thumb
 4746              		.syntax unified
ARM GAS  C:\Users\kroko\AppData\Local\Temp\ccD7coBo.s 			page 82


 4747 0078 43F04003 		orr	r3, r3, #64
 4748 007c 0832     		adds	r2, r2, #8
 4749              		.syntax unified
 4750              	@ 1206 "Drivers/CMSIS/Include/cmsis_gcc.h" 1
 4751 007e 42E80031 		strex r1, r3, [r2]
 4752              	@ 0 "" 2
 4753              		.thumb
 4754              		.syntax unified
 4755 0082 0029     		cmp	r1, #0
 4756 0084 F3D1     		bne	.L560
 4757 0086 0020     		movs	r0, #0
 4758              	.L556:
 4759 0088 10BD     		pop	{r4, pc}
 4760              	.L562:
 4761 008a 1023     		movs	r3, #16
 4762 008c C4F88430 		str	r3, [r4, #132]
 4763 0090 2023     		movs	r3, #32
 4764 0092 C4F88030 		str	r3, [r4, #128]
 4765 0096 0120     		movs	r0, #1
 4766 0098 F6E7     		b	.L556
 4767              	.L564:
 4768 009a 00BF     		.align	2
 4769              	.L563:
 4770 009c 00000000 		.word	UART_DMAReceiveCplt
 4771 00a0 00000000 		.word	UART_DMARxHalfCplt
 4772 00a4 00000000 		.word	UART_DMAError
 4774              		.section	.text.HAL_UART_Receive_DMA,"ax",%progbits
 4775              		.align	1
 4776              		.global	HAL_UART_Receive_DMA
 4777              		.syntax unified
 4778              		.thumb
 4779              		.thumb_func
 4781              	HAL_UART_Receive_DMA:
 4782              		@ args = 0, pretend = 0, frame = 0
 4783              		@ frame_needed = 0, uses_anonymous_args = 0
 4784 0000 38B5     		push	{r3, r4, r5, lr}
 4785 0002 D0F88030 		ldr	r3, [r0, #128]
 4786 0006 202B     		cmp	r3, #32
 4787 0008 17D1     		bne	.L569
 4788 000a C1B1     		cbz	r1, .L570
 4789 000c CAB1     		cbz	r2, .L571
 4790 000e 0023     		movs	r3, #0
 4791 0010 0366     		str	r3, [r0, #96]
 4792 0012 0368     		ldr	r3, [r0]
 4793 0014 0C4C     		ldr	r4, .L573
 4794 0016 A342     		cmp	r3, r4
 4795 0018 0CD0     		beq	.L567
 4796 001a 5B68     		ldr	r3, [r3, #4]
 4797 001c 13F4000F 		tst	r3, #8388608
 4798 0020 08D0     		beq	.L567
 4799              	.L568:
 4800 0022 0468     		ldr	r4, [r0]
 4801              		.syntax unified
 4802              	@ 1155 "Drivers/CMSIS/Include/cmsis_gcc.h" 1
 4803 0024 54E8003F 		ldrex r3, [r4]
 4804              	@ 0 "" 2
 4805              		.thumb
ARM GAS  C:\Users\kroko\AppData\Local\Temp\ccD7coBo.s 			page 83


 4806              		.syntax unified
 4807 0028 43F08063 		orr	r3, r3, #67108864
 4808              		.syntax unified
 4809              	@ 1206 "Drivers/CMSIS/Include/cmsis_gcc.h" 1
 4810 002c 44E80035 		strex r5, r3, [r4]
 4811              	@ 0 "" 2
 4812              		.thumb
 4813              		.syntax unified
 4814 0030 002D     		cmp	r5, #0
 4815 0032 F6D1     		bne	.L568
 4816              	.L567:
 4817 0034 FFF7FEFF 		bl	UART_Start_Receive_DMA
 4818 0038 00E0     		b	.L566
 4819              	.L569:
 4820 003a 0220     		movs	r0, #2
 4821              	.L566:
 4822 003c 38BD     		pop	{r3, r4, r5, pc}
 4823              	.L570:
 4824 003e 0120     		movs	r0, #1
 4825 0040 FCE7     		b	.L566
 4826              	.L571:
 4827 0042 0120     		movs	r0, #1
 4828 0044 FAE7     		b	.L566
 4829              	.L574:
 4830 0046 00BF     		.align	2
 4831              	.L573:
 4832 0048 00800040 		.word	1073774592
 4834              		.global	__aeabi_uldivmod
 4835              		.ident	"GCC: (Arm GNU Toolchain 14.2.Rel1 (Build arm-14.52)) 14.2.1 20241119"
ARM GAS  C:\Users\kroko\AppData\Local\Temp\ccD7coBo.s 			page 84

