
build/release/TermaInk.elf:     file format elf32-littlearm

Sections:
Idx Name          Size      VMA       LMA       File off  Algn
  0 .ram2         00000fa0  10000000  10000000  00010000  2**2
                  ALLOC
  1 .isr_vector   00000190  08000000  08000000  00001000  2**0
                  CONTENTS, ALLOC, LOAD, READONLY, DATA
  2 .text         0000b6c0  08000190  08000190  00001190  2**4
                  CONTENTS, ALLOC, LOAD, READONLY, CODE
  3 .rodata       00001828  0800b850  0800b850  0000c850  2**2
                  CONTENTS, ALLOC, LOAD, READONLY, DATA
  4 .ARM.extab    00000000  0800d078  0800d078  0000f278  2**0
                  CONTENTS
  5 .ARM          00000008  0800d078  0800d078  0000e078  2**2
                  CONTENTS, ALLOC, LOAD, READONLY, DATA
  6 .preinit_array 00000000  0800d080  0800d080  0000f278  2**0
                  CONTENTS, ALLOC, LOAD, DATA
  7 .init_array   00000008  0800d080  0800d080  0000e080  2**2
                  CONTENTS, ALLOC, LOAD, DATA
  8 .fini_array   00000008  0800d088  0800d088  0000e088  2**2
                  CONTENTS, ALLOC, LOAD, DATA
  9 .data         00000278  20000000  0800d090  0000f000  2**3
                  CONTENTS, ALLOC, LOAD, DATA
 10 .bss          000015dc  20000278  0800d308  0000f278  2**2
                  ALLOC
 11 ._user_heap_stack 00000a04  20001854  0800d308  0000f854  2**0
                  ALLOC
 12 .ARM.attributes 00000030  00000000  00000000  0000f278  2**0
                  CONTENTS, READONLY
 13 .comment      00000045  00000000  00000000  0000f2a8  2**0
                  CONTENTS, READONLY
 14 .debug_frame  00000d6c  00000000  00000000  0000f2f0  2**2
                  CONTENTS, READONLY, DEBUGGING, OCTETS
 15 .debug_line_str 000001f0  00000000  00000000  0001005c  2**0
                  CONTENTS, READONLY, DEBUGGING, OCTETS

Disassembly of section .text:

08000190 <strcmp>:
 8000190:	f810 2b01 	ldrb.w	r2, [r0], #1
 8000194:	f811 3b01 	ldrb.w	r3, [r1], #1
 8000198:	2a01      	cmp	r2, #1
 800019a:	bf28      	it	cs
 800019c:	429a      	cmpcs	r2, r3
 800019e:	d0f7      	beq.n	8000190 <strcmp>
 80001a0:	1ad0      	subs	r0, r2, r3
 80001a2:	4770      	bx	lr

080001a4 <strlen>:
 80001a4:	4603      	mov	r3, r0
 80001a6:	f813 2b01 	ldrb.w	r2, [r3], #1
 80001aa:	2a00      	cmp	r2, #0
 80001ac:	d1fb      	bne.n	80001a6 <strlen+0x2>
 80001ae:	1a18      	subs	r0, r3, r0
 80001b0:	3801      	subs	r0, #1
 80001b2:	4770      	bx	lr
	...

080001c0 <memchr>:
 80001c0:	f001 01ff 	and.w	r1, r1, #255	@ 0xff
 80001c4:	2a10      	cmp	r2, #16
 80001c6:	db2b      	blt.n	8000220 <memchr+0x60>
 80001c8:	f010 0f07 	tst.w	r0, #7
 80001cc:	d008      	beq.n	80001e0 <memchr+0x20>
 80001ce:	f810 3b01 	ldrb.w	r3, [r0], #1
 80001d2:	3a01      	subs	r2, #1
 80001d4:	428b      	cmp	r3, r1
 80001d6:	d02d      	beq.n	8000234 <memchr+0x74>
 80001d8:	f010 0f07 	tst.w	r0, #7
 80001dc:	b342      	cbz	r2, 8000230 <memchr+0x70>
 80001de:	d1f6      	bne.n	80001ce <memchr+0xe>
 80001e0:	b4f0      	push	{r4, r5, r6, r7}
 80001e2:	ea41 2101 	orr.w	r1, r1, r1, lsl #8
 80001e6:	ea41 4101 	orr.w	r1, r1, r1, lsl #16
 80001ea:	f022 0407 	bic.w	r4, r2, #7
 80001ee:	f07f 0700 	mvns.w	r7, #0
 80001f2:	2300      	movs	r3, #0
 80001f4:	e8f0 5602 	ldrd	r5, r6, [r0], #8
 80001f8:	3c08      	subs	r4, #8
 80001fa:	ea85 0501 	eor.w	r5, r5, r1
 80001fe:	ea86 0601 	eor.w	r6, r6, r1
 8000202:	fa85 f547 	uadd8	r5, r5, r7
 8000206:	faa3 f587 	sel	r5, r3, r7
 800020a:	fa86 f647 	uadd8	r6, r6, r7
 800020e:	faa5 f687 	sel	r6, r5, r7
 8000212:	b98e      	cbnz	r6, 8000238 <memchr+0x78>
 8000214:	d1ee      	bne.n	80001f4 <memchr+0x34>
 8000216:	bcf0      	pop	{r4, r5, r6, r7}
 8000218:	f001 01ff 	and.w	r1, r1, #255	@ 0xff
 800021c:	f002 0207 	and.w	r2, r2, #7
 8000220:	b132      	cbz	r2, 8000230 <memchr+0x70>
 8000222:	f810 3b01 	ldrb.w	r3, [r0], #1
 8000226:	3a01      	subs	r2, #1
 8000228:	ea83 0301 	eor.w	r3, r3, r1
 800022c:	b113      	cbz	r3, 8000234 <memchr+0x74>
 800022e:	d1f8      	bne.n	8000222 <memchr+0x62>
 8000230:	2000      	movs	r0, #0
 8000232:	4770      	bx	lr
 8000234:	3801      	subs	r0, #1
 8000236:	4770      	bx	lr
 8000238:	2d00      	cmp	r5, #0
 800023a:	bf06      	itte	eq
 800023c:	4635      	moveq	r5, r6
 800023e:	3803      	subeq	r0, #3
 8000240:	3807      	subne	r0, #7
 8000242:	f015 0f01 	tst.w	r5, #1
 8000246:	d107      	bne.n	8000258 <memchr+0x98>
 8000248:	3001      	adds	r0, #1
 800024a:	f415 7f80 	tst.w	r5, #256	@ 0x100
 800024e:	bf02      	ittt	eq
 8000250:	3001      	addeq	r0, #1
 8000252:	f415 3fc0 	tsteq.w	r5, #98304	@ 0x18000
 8000256:	3001      	addeq	r0, #1
 8000258:	bcf0      	pop	{r4, r5, r6, r7}
 800025a:	3801      	subs	r0, #1
 800025c:	4770      	bx	lr
 800025e:	bf00      	nop

08000260 <__aeabi_drsub>:
 8000260:	f081 4100 	eor.w	r1, r1, #2147483648	@ 0x80000000
 8000264:	e002      	b.n	800026c <__adddf3>
 8000266:	bf00      	nop

08000268 <__aeabi_dsub>:
 8000268:	f083 4300 	eor.w	r3, r3, #2147483648	@ 0x80000000

0800026c <__adddf3>:
 800026c:	b530      	push	{r4, r5, lr}
 800026e:	ea4f 0441 	mov.w	r4, r1, lsl #1
 8000272:	ea4f 0543 	mov.w	r5, r3, lsl #1
 8000276:	ea94 0f05 	teq	r4, r5
 800027a:	bf08      	it	eq
 800027c:	ea90 0f02 	teqeq	r0, r2
 8000280:	bf1f      	itttt	ne
 8000282:	ea54 0c00 	orrsne.w	ip, r4, r0
 8000286:	ea55 0c02 	orrsne.w	ip, r5, r2
 800028a:	ea7f 5c64 	mvnsne.w	ip, r4, asr #21
 800028e:	ea7f 5c65 	mvnsne.w	ip, r5, asr #21
 8000292:	f000 80e2 	beq.w	800045a <__adddf3+0x1ee>
 8000296:	ea4f 5454 	mov.w	r4, r4, lsr #21
 800029a:	ebd4 5555 	rsbs	r5, r4, r5, lsr #21
 800029e:	bfb8      	it	lt
 80002a0:	426d      	neglt	r5, r5
 80002a2:	dd0c      	ble.n	80002be <__adddf3+0x52>
 80002a4:	442c      	add	r4, r5
 80002a6:	ea80 0202 	eor.w	r2, r0, r2
 80002aa:	ea81 0303 	eor.w	r3, r1, r3
 80002ae:	ea82 0000 	eor.w	r0, r2, r0
 80002b2:	ea83 0101 	eor.w	r1, r3, r1
 80002b6:	ea80 0202 	eor.w	r2, r0, r2
 80002ba:	ea81 0303 	eor.w	r3, r1, r3
 80002be:	2d36      	cmp	r5, #54	@ 0x36
 80002c0:	bf88      	it	hi
 80002c2:	bd30      	pophi	{r4, r5, pc}
 80002c4:	f011 4f00 	tst.w	r1, #2147483648	@ 0x80000000
 80002c8:	ea4f 3101 	mov.w	r1, r1, lsl #12
 80002cc:	f44f 1c80 	mov.w	ip, #1048576	@ 0x100000
 80002d0:	ea4c 3111 	orr.w	r1, ip, r1, lsr #12
 80002d4:	d002      	beq.n	80002dc <__adddf3+0x70>
 80002d6:	4240      	negs	r0, r0
 80002d8:	eb61 0141 	sbc.w	r1, r1, r1, lsl #1
 80002dc:	f013 4f00 	tst.w	r3, #2147483648	@ 0x80000000
 80002e0:	ea4f 3303 	mov.w	r3, r3, lsl #12
 80002e4:	ea4c 3313 	orr.w	r3, ip, r3, lsr #12
 80002e8:	d002      	beq.n	80002f0 <__adddf3+0x84>
 80002ea:	4252      	negs	r2, r2
 80002ec:	eb63 0343 	sbc.w	r3, r3, r3, lsl #1
 80002f0:	ea94 0f05 	teq	r4, r5
 80002f4:	f000 80a7 	beq.w	8000446 <__adddf3+0x1da>
 80002f8:	f1a4 0401 	sub.w	r4, r4, #1
 80002fc:	f1d5 0e20 	rsbs	lr, r5, #32
 8000300:	db0d      	blt.n	800031e <__adddf3+0xb2>
 8000302:	fa02 fc0e 	lsl.w	ip, r2, lr
 8000306:	fa22 f205 	lsr.w	r2, r2, r5
 800030a:	1880      	adds	r0, r0, r2
 800030c:	f141 0100 	adc.w	r1, r1, #0
 8000310:	fa03 f20e 	lsl.w	r2, r3, lr
 8000314:	1880      	adds	r0, r0, r2
 8000316:	fa43 f305 	asr.w	r3, r3, r5
 800031a:	4159      	adcs	r1, r3
 800031c:	e00e      	b.n	800033c <__adddf3+0xd0>
 800031e:	f1a5 0520 	sub.w	r5, r5, #32
 8000322:	f10e 0e20 	add.w	lr, lr, #32
 8000326:	2a01      	cmp	r2, #1
 8000328:	fa03 fc0e 	lsl.w	ip, r3, lr
 800032c:	bf28      	it	cs
 800032e:	f04c 0c02 	orrcs.w	ip, ip, #2
 8000332:	fa43 f305 	asr.w	r3, r3, r5
 8000336:	18c0      	adds	r0, r0, r3
 8000338:	eb51 71e3 	adcs.w	r1, r1, r3, asr #31
 800033c:	f001 4500 	and.w	r5, r1, #2147483648	@ 0x80000000
 8000340:	d507      	bpl.n	8000352 <__adddf3+0xe6>
 8000342:	f04f 0e00 	mov.w	lr, #0
 8000346:	f1dc 0c00 	rsbs	ip, ip, #0
 800034a:	eb7e 0000 	sbcs.w	r0, lr, r0
 800034e:	eb6e 0101 	sbc.w	r1, lr, r1
 8000352:	f5b1 1f80 	cmp.w	r1, #1048576	@ 0x100000
 8000356:	d31b      	bcc.n	8000390 <__adddf3+0x124>
 8000358:	f5b1 1f00 	cmp.w	r1, #2097152	@ 0x200000
 800035c:	d30c      	bcc.n	8000378 <__adddf3+0x10c>
 800035e:	0849      	lsrs	r1, r1, #1
 8000360:	ea5f 0030 	movs.w	r0, r0, rrx
 8000364:	ea4f 0c3c 	mov.w	ip, ip, rrx
 8000368:	f104 0401 	add.w	r4, r4, #1
 800036c:	ea4f 5244 	mov.w	r2, r4, lsl #21
 8000370:	f512 0f80 	cmn.w	r2, #4194304	@ 0x400000
 8000374:	f080 809a 	bcs.w	80004ac <__adddf3+0x240>
 8000378:	f1bc 4f00 	cmp.w	ip, #2147483648	@ 0x80000000
 800037c:	bf08      	it	eq
 800037e:	ea5f 0c50 	movseq.w	ip, r0, lsr #1
 8000382:	f150 0000 	adcs.w	r0, r0, #0
 8000386:	eb41 5104 	adc.w	r1, r1, r4, lsl #20
 800038a:	ea41 0105 	orr.w	r1, r1, r5
 800038e:	bd30      	pop	{r4, r5, pc}
 8000390:	ea5f 0c4c 	movs.w	ip, ip, lsl #1
 8000394:	4140      	adcs	r0, r0
 8000396:	eb41 0101 	adc.w	r1, r1, r1
 800039a:	3c01      	subs	r4, #1
 800039c:	bf28      	it	cs
 800039e:	f5b1 1f80 	cmpcs.w	r1, #1048576	@ 0x100000
 80003a2:	d2e9      	bcs.n	8000378 <__adddf3+0x10c>
 80003a4:	f091 0f00 	teq	r1, #0
 80003a8:	bf04      	itt	eq
 80003aa:	4601      	moveq	r1, r0
 80003ac:	2000      	moveq	r0, #0
 80003ae:	fab1 f381 	clz	r3, r1
 80003b2:	bf08      	it	eq
 80003b4:	3320      	addeq	r3, #32
 80003b6:	f1a3 030b 	sub.w	r3, r3, #11
 80003ba:	f1b3 0220 	subs.w	r2, r3, #32
 80003be:	da0c      	bge.n	80003da <__adddf3+0x16e>
 80003c0:	320c      	adds	r2, #12
 80003c2:	dd08      	ble.n	80003d6 <__adddf3+0x16a>
 80003c4:	f102 0c14 	add.w	ip, r2, #20
 80003c8:	f1c2 020c 	rsb	r2, r2, #12
 80003cc:	fa01 f00c 	lsl.w	r0, r1, ip
 80003d0:	fa21 f102 	lsr.w	r1, r1, r2
 80003d4:	e00c      	b.n	80003f0 <__adddf3+0x184>
 80003d6:	f102 0214 	add.w	r2, r2, #20
 80003da:	bfd8      	it	le
 80003dc:	f1c2 0c20 	rsble	ip, r2, #32
 80003e0:	fa01 f102 	lsl.w	r1, r1, r2
 80003e4:	fa20 fc0c 	lsr.w	ip, r0, ip
 80003e8:	bfdc      	itt	le
 80003ea:	ea41 010c 	orrle.w	r1, r1, ip
 80003ee:	4090      	lslle	r0, r2
 80003f0:	1ae4      	subs	r4, r4, r3
 80003f2:	bfa2      	ittt	ge
 80003f4:	eb01 5104 	addge.w	r1, r1, r4, lsl #20
 80003f8:	4329      	orrge	r1, r5
 80003fa:	bd30      	popge	{r4, r5, pc}
 80003fc:	ea6f 0404 	mvn.w	r4, r4
 8000400:	3c1f      	subs	r4, #31
 8000402:	da1c      	bge.n	800043e <__adddf3+0x1d2>
 8000404:	340c      	adds	r4, #12
 8000406:	dc0e      	bgt.n	8000426 <__adddf3+0x1ba>
 8000408:	f104 0414 	add.w	r4, r4, #20
 800040c:	f1c4 0220 	rsb	r2, r4, #32
 8000410:	fa20 f004 	lsr.w	r0, r0, r4
 8000414:	fa01 f302 	lsl.w	r3, r1, r2
 8000418:	ea40 0003 	orr.w	r0, r0, r3
 800041c:	fa21 f304 	lsr.w	r3, r1, r4
 8000420:	ea45 0103 	orr.w	r1, r5, r3
 8000424:	bd30      	pop	{r4, r5, pc}
 8000426:	f1c4 040c 	rsb	r4, r4, #12
 800042a:	f1c4 0220 	rsb	r2, r4, #32
 800042e:	fa20 f002 	lsr.w	r0, r0, r2
 8000432:	fa01 f304 	lsl.w	r3, r1, r4
 8000436:	ea40 0003 	orr.w	r0, r0, r3
 800043a:	4629      	mov	r1, r5
 800043c:	bd30      	pop	{r4, r5, pc}
 800043e:	fa21 f004 	lsr.w	r0, r1, r4
 8000442:	4629      	mov	r1, r5
 8000444:	bd30      	pop	{r4, r5, pc}
 8000446:	f094 0f00 	teq	r4, #0
 800044a:	f483 1380 	eor.w	r3, r3, #1048576	@ 0x100000
 800044e:	bf06      	itte	eq
 8000450:	f481 1180 	eoreq.w	r1, r1, #1048576	@ 0x100000
 8000454:	3401      	addeq	r4, #1
 8000456:	3d01      	subne	r5, #1
 8000458:	e74e      	b.n	80002f8 <__adddf3+0x8c>
 800045a:	ea7f 5c64 	mvns.w	ip, r4, asr #21
 800045e:	bf18      	it	ne
 8000460:	ea7f 5c65 	mvnsne.w	ip, r5, asr #21
 8000464:	d029      	beq.n	80004ba <__adddf3+0x24e>
 8000466:	ea94 0f05 	teq	r4, r5
 800046a:	bf08      	it	eq
 800046c:	ea90 0f02 	teqeq	r0, r2
 8000470:	d005      	beq.n	800047e <__adddf3+0x212>
 8000472:	ea54 0c00 	orrs.w	ip, r4, r0
 8000476:	bf04      	itt	eq
 8000478:	4619      	moveq	r1, r3
 800047a:	4610      	moveq	r0, r2
 800047c:	bd30      	pop	{r4, r5, pc}
 800047e:	ea91 0f03 	teq	r1, r3
 8000482:	bf1e      	ittt	ne
 8000484:	2100      	movne	r1, #0
 8000486:	2000      	movne	r0, #0
 8000488:	bd30      	popne	{r4, r5, pc}
 800048a:	ea5f 5c54 	movs.w	ip, r4, lsr #21
 800048e:	d105      	bne.n	800049c <__adddf3+0x230>
 8000490:	0040      	lsls	r0, r0, #1
 8000492:	4149      	adcs	r1, r1
 8000494:	bf28      	it	cs
 8000496:	f041 4100 	orrcs.w	r1, r1, #2147483648	@ 0x80000000
 800049a:	bd30      	pop	{r4, r5, pc}
 800049c:	f514 0480 	adds.w	r4, r4, #4194304	@ 0x400000
 80004a0:	bf3c      	itt	cc
 80004a2:	f501 1180 	addcc.w	r1, r1, #1048576	@ 0x100000
 80004a6:	bd30      	popcc	{r4, r5, pc}
 80004a8:	f001 4500 	and.w	r5, r1, #2147483648	@ 0x80000000
 80004ac:	f045 41fe 	orr.w	r1, r5, #2130706432	@ 0x7f000000
 80004b0:	f441 0170 	orr.w	r1, r1, #15728640	@ 0xf00000
 80004b4:	f04f 0000 	mov.w	r0, #0
 80004b8:	bd30      	pop	{r4, r5, pc}
 80004ba:	ea7f 5c64 	mvns.w	ip, r4, asr #21
 80004be:	bf1a      	itte	ne
 80004c0:	4619      	movne	r1, r3
 80004c2:	4610      	movne	r0, r2
 80004c4:	ea7f 5c65 	mvnseq.w	ip, r5, asr #21
 80004c8:	bf1c      	itt	ne
 80004ca:	460b      	movne	r3, r1
 80004cc:	4602      	movne	r2, r0
 80004ce:	ea50 3401 	orrs.w	r4, r0, r1, lsl #12
 80004d2:	bf06      	itte	eq
 80004d4:	ea52 3503 	orrseq.w	r5, r2, r3, lsl #12
 80004d8:	ea91 0f03 	teqeq	r1, r3
 80004dc:	f441 2100 	orrne.w	r1, r1, #524288	@ 0x80000
 80004e0:	bd30      	pop	{r4, r5, pc}
 80004e2:	bf00      	nop

080004e4 <__aeabi_ui2d>:
 80004e4:	f090 0f00 	teq	r0, #0
 80004e8:	bf04      	itt	eq
 80004ea:	2100      	moveq	r1, #0
 80004ec:	4770      	bxeq	lr
 80004ee:	b530      	push	{r4, r5, lr}
 80004f0:	f44f 6480 	mov.w	r4, #1024	@ 0x400
 80004f4:	f104 0432 	add.w	r4, r4, #50	@ 0x32
 80004f8:	f04f 0500 	mov.w	r5, #0
 80004fc:	f04f 0100 	mov.w	r1, #0
 8000500:	e750      	b.n	80003a4 <__adddf3+0x138>
 8000502:	bf00      	nop

08000504 <__aeabi_i2d>:
 8000504:	f090 0f00 	teq	r0, #0
 8000508:	bf04      	itt	eq
 800050a:	2100      	moveq	r1, #0
 800050c:	4770      	bxeq	lr
 800050e:	b530      	push	{r4, r5, lr}
 8000510:	f44f 6480 	mov.w	r4, #1024	@ 0x400
 8000514:	f104 0432 	add.w	r4, r4, #50	@ 0x32
 8000518:	f010 4500 	ands.w	r5, r0, #2147483648	@ 0x80000000
 800051c:	bf48      	it	mi
 800051e:	4240      	negmi	r0, r0
 8000520:	f04f 0100 	mov.w	r1, #0
 8000524:	e73e      	b.n	80003a4 <__adddf3+0x138>
 8000526:	bf00      	nop

08000528 <__aeabi_f2d>:
 8000528:	0042      	lsls	r2, r0, #1
 800052a:	ea4f 01e2 	mov.w	r1, r2, asr #3
 800052e:	ea4f 0131 	mov.w	r1, r1, rrx
 8000532:	ea4f 7002 	mov.w	r0, r2, lsl #28
 8000536:	bf1f      	itttt	ne
 8000538:	f012 437f 	andsne.w	r3, r2, #4278190080	@ 0xff000000
 800053c:	f093 4f7f 	teqne	r3, #4278190080	@ 0xff000000
 8000540:	f081 5160 	eorne.w	r1, r1, #939524096	@ 0x38000000
 8000544:	4770      	bxne	lr
 8000546:	f032 427f 	bics.w	r2, r2, #4278190080	@ 0xff000000
 800054a:	bf08      	it	eq
 800054c:	4770      	bxeq	lr
 800054e:	f093 4f7f 	teq	r3, #4278190080	@ 0xff000000
 8000552:	bf04      	itt	eq
 8000554:	f441 2100 	orreq.w	r1, r1, #524288	@ 0x80000
 8000558:	4770      	bxeq	lr
 800055a:	b530      	push	{r4, r5, lr}
 800055c:	f44f 7460 	mov.w	r4, #896	@ 0x380
 8000560:	f001 4500 	and.w	r5, r1, #2147483648	@ 0x80000000
 8000564:	f021 4100 	bic.w	r1, r1, #2147483648	@ 0x80000000
 8000568:	e71c      	b.n	80003a4 <__adddf3+0x138>
 800056a:	bf00      	nop

0800056c <__aeabi_ul2d>:
 800056c:	ea50 0201 	orrs.w	r2, r0, r1
 8000570:	bf08      	it	eq
 8000572:	4770      	bxeq	lr
 8000574:	b530      	push	{r4, r5, lr}
 8000576:	f04f 0500 	mov.w	r5, #0
 800057a:	e00a      	b.n	8000592 <__aeabi_l2d+0x16>

0800057c <__aeabi_l2d>:
 800057c:	ea50 0201 	orrs.w	r2, r0, r1
 8000580:	bf08      	it	eq
 8000582:	4770      	bxeq	lr
 8000584:	b530      	push	{r4, r5, lr}
 8000586:	f011 4500 	ands.w	r5, r1, #2147483648	@ 0x80000000
 800058a:	d502      	bpl.n	8000592 <__aeabi_l2d+0x16>
 800058c:	4240      	negs	r0, r0
 800058e:	eb61 0141 	sbc.w	r1, r1, r1, lsl #1
 8000592:	f44f 6480 	mov.w	r4, #1024	@ 0x400
 8000596:	f104 0432 	add.w	r4, r4, #50	@ 0x32
 800059a:	ea5f 5c91 	movs.w	ip, r1, lsr #22
 800059e:	f43f aed8 	beq.w	8000352 <__adddf3+0xe6>
 80005a2:	f04f 0203 	mov.w	r2, #3
 80005a6:	ea5f 0cdc 	movs.w	ip, ip, lsr #3
 80005aa:	bf18      	it	ne
 80005ac:	3203      	addne	r2, #3
 80005ae:	ea5f 0cdc 	movs.w	ip, ip, lsr #3
 80005b2:	bf18      	it	ne
 80005b4:	3203      	addne	r2, #3
 80005b6:	eb02 02dc 	add.w	r2, r2, ip, lsr #3
 80005ba:	f1c2 0320 	rsb	r3, r2, #32
 80005be:	fa00 fc03 	lsl.w	ip, r0, r3
 80005c2:	fa20 f002 	lsr.w	r0, r0, r2
 80005c6:	fa01 fe03 	lsl.w	lr, r1, r3
 80005ca:	ea40 000e 	orr.w	r0, r0, lr
 80005ce:	fa21 f102 	lsr.w	r1, r1, r2
 80005d2:	4414      	add	r4, r2
 80005d4:	e6bd      	b.n	8000352 <__adddf3+0xe6>
 80005d6:	bf00      	nop

080005d8 <__aeabi_dmul>:
 80005d8:	b570      	push	{r4, r5, r6, lr}
 80005da:	f04f 0cff 	mov.w	ip, #255	@ 0xff
 80005de:	f44c 6ce0 	orr.w	ip, ip, #1792	@ 0x700
 80005e2:	ea1c 5411 	ands.w	r4, ip, r1, lsr #20
 80005e6:	bf1d      	ittte	ne
 80005e8:	ea1c 5513 	andsne.w	r5, ip, r3, lsr #20
 80005ec:	ea94 0f0c 	teqne	r4, ip
 80005f0:	ea95 0f0c 	teqne	r5, ip
 80005f4:	f000 f8de 	bleq	80007b4 <__aeabi_dmul+0x1dc>
 80005f8:	442c      	add	r4, r5
 80005fa:	ea81 0603 	eor.w	r6, r1, r3
 80005fe:	ea21 514c 	bic.w	r1, r1, ip, lsl #21
 8000602:	ea23 534c 	bic.w	r3, r3, ip, lsl #21
 8000606:	ea50 3501 	orrs.w	r5, r0, r1, lsl #12
 800060a:	bf18      	it	ne
 800060c:	ea52 3503 	orrsne.w	r5, r2, r3, lsl #12
 8000610:	f441 1180 	orr.w	r1, r1, #1048576	@ 0x100000
 8000614:	f443 1380 	orr.w	r3, r3, #1048576	@ 0x100000
 8000618:	d038      	beq.n	800068c <__aeabi_dmul+0xb4>
 800061a:	fba0 ce02 	umull	ip, lr, r0, r2
 800061e:	f04f 0500 	mov.w	r5, #0
 8000622:	fbe1 e502 	umlal	lr, r5, r1, r2
 8000626:	f006 4200 	and.w	r2, r6, #2147483648	@ 0x80000000
 800062a:	fbe0 e503 	umlal	lr, r5, r0, r3
 800062e:	f04f 0600 	mov.w	r6, #0
 8000632:	fbe1 5603 	umlal	r5, r6, r1, r3
 8000636:	f09c 0f00 	teq	ip, #0
 800063a:	bf18      	it	ne
 800063c:	f04e 0e01 	orrne.w	lr, lr, #1
 8000640:	f1a4 04ff 	sub.w	r4, r4, #255	@ 0xff
 8000644:	f5b6 7f00 	cmp.w	r6, #512	@ 0x200
 8000648:	f564 7440 	sbc.w	r4, r4, #768	@ 0x300
 800064c:	d204      	bcs.n	8000658 <__aeabi_dmul+0x80>
 800064e:	ea5f 0e4e 	movs.w	lr, lr, lsl #1
 8000652:	416d      	adcs	r5, r5
 8000654:	eb46 0606 	adc.w	r6, r6, r6
 8000658:	ea42 21c6 	orr.w	r1, r2, r6, lsl #11
 800065c:	ea41 5155 	orr.w	r1, r1, r5, lsr #21
 8000660:	ea4f 20c5 	mov.w	r0, r5, lsl #11
 8000664:	ea40 505e 	orr.w	r0, r0, lr, lsr #21
 8000668:	ea4f 2ece 	mov.w	lr, lr, lsl #11
 800066c:	f1b4 0cfd 	subs.w	ip, r4, #253	@ 0xfd
 8000670:	bf88      	it	hi
 8000672:	f5bc 6fe0 	cmphi.w	ip, #1792	@ 0x700
 8000676:	d81e      	bhi.n	80006b6 <__aeabi_dmul+0xde>
 8000678:	f1be 4f00 	cmp.w	lr, #2147483648	@ 0x80000000
 800067c:	bf08      	it	eq
 800067e:	ea5f 0e50 	movseq.w	lr, r0, lsr #1
 8000682:	f150 0000 	adcs.w	r0, r0, #0
 8000686:	eb41 5104 	adc.w	r1, r1, r4, lsl #20
 800068a:	bd70      	pop	{r4, r5, r6, pc}
 800068c:	f006 4600 	and.w	r6, r6, #2147483648	@ 0x80000000
 8000690:	ea46 0101 	orr.w	r1, r6, r1
 8000694:	ea40 0002 	orr.w	r0, r0, r2
 8000698:	ea81 0103 	eor.w	r1, r1, r3
 800069c:	ebb4 045c 	subs.w	r4, r4, ip, lsr #1
 80006a0:	bfc2      	ittt	gt
 80006a2:	ebd4 050c 	rsbsgt	r5, r4, ip
 80006a6:	ea41 5104 	orrgt.w	r1, r1, r4, lsl #20
 80006aa:	bd70      	popgt	{r4, r5, r6, pc}
 80006ac:	f441 1180 	orr.w	r1, r1, #1048576	@ 0x100000
 80006b0:	f04f 0e00 	mov.w	lr, #0
 80006b4:	3c01      	subs	r4, #1
 80006b6:	f300 80ab 	bgt.w	8000810 <__aeabi_dmul+0x238>
 80006ba:	f114 0f36 	cmn.w	r4, #54	@ 0x36
 80006be:	bfde      	ittt	le
 80006c0:	2000      	movle	r0, #0
 80006c2:	f001 4100 	andle.w	r1, r1, #2147483648	@ 0x80000000
 80006c6:	bd70      	pople	{r4, r5, r6, pc}
 80006c8:	f1c4 0400 	rsb	r4, r4, #0
 80006cc:	3c20      	subs	r4, #32
 80006ce:	da35      	bge.n	800073c <__aeabi_dmul+0x164>
 80006d0:	340c      	adds	r4, #12
 80006d2:	dc1b      	bgt.n	800070c <__aeabi_dmul+0x134>
 80006d4:	f104 0414 	add.w	r4, r4, #20
 80006d8:	f1c4 0520 	rsb	r5, r4, #32
 80006dc:	fa00 f305 	lsl.w	r3, r0, r5
 80006e0:	fa20 f004 	lsr.w	r0, r0, r4
 80006e4:	fa01 f205 	lsl.w	r2, r1, r5
 80006e8:	ea40 0002 	orr.w	r0, r0, r2
 80006ec:	f001 4200 	and.w	r2, r1, #2147483648	@ 0x80000000
 80006f0:	f021 4100 	bic.w	r1, r1, #2147483648	@ 0x80000000
 80006f4:	eb10 70d3 	adds.w	r0, r0, r3, lsr #31
 80006f8:	fa21 f604 	lsr.w	r6, r1, r4
 80006fc:	eb42 0106 	adc.w	r1, r2, r6
 8000700:	ea5e 0e43 	orrs.w	lr, lr, r3, lsl #1
 8000704:	bf08      	it	eq
 8000706:	ea20 70d3 	biceq.w	r0, r0, r3, lsr #31
 800070a:	bd70      	pop	{r4, r5, r6, pc}
 800070c:	f1c4 040c 	rsb	r4, r4, #12
 8000710:	f1c4 0520 	rsb	r5, r4, #32
 8000714:	fa00 f304 	lsl.w	r3, r0, r4
 8000718:	fa20 f005 	lsr.w	r0, r0, r5
 800071c:	fa01 f204 	lsl.w	r2, r1, r4
 8000720:	ea40 0002 	orr.w	r0, r0, r2
 8000724:	f001 4100 	and.w	r1, r1, #2147483648	@ 0x80000000
 8000728:	eb10 70d3 	adds.w	r0, r0, r3, lsr #31
 800072c:	f141 0100 	adc.w	r1, r1, #0
 8000730:	ea5e 0e43 	orrs.w	lr, lr, r3, lsl #1
 8000734:	bf08      	it	eq
 8000736:	ea20 70d3 	biceq.w	r0, r0, r3, lsr #31
 800073a:	bd70      	pop	{r4, r5, r6, pc}
 800073c:	f1c4 0520 	rsb	r5, r4, #32
 8000740:	fa00 f205 	lsl.w	r2, r0, r5
 8000744:	ea4e 0e02 	orr.w	lr, lr, r2
 8000748:	fa20 f304 	lsr.w	r3, r0, r4
 800074c:	fa01 f205 	lsl.w	r2, r1, r5
 8000750:	ea43 0302 	orr.w	r3, r3, r2
 8000754:	fa21 f004 	lsr.w	r0, r1, r4
 8000758:	f001 4100 	and.w	r1, r1, #2147483648	@ 0x80000000
 800075c:	fa21 f204 	lsr.w	r2, r1, r4
 8000760:	ea20 0002 	bic.w	r0, r0, r2
 8000764:	eb00 70d3 	add.w	r0, r0, r3, lsr #31
 8000768:	ea5e 0e43 	orrs.w	lr, lr, r3, lsl #1
 800076c:	bf08      	it	eq
 800076e:	ea20 70d3 	biceq.w	r0, r0, r3, lsr #31
 8000772:	bd70      	pop	{r4, r5, r6, pc}
 8000774:	f094 0f00 	teq	r4, #0
 8000778:	d10f      	bne.n	800079a <__aeabi_dmul+0x1c2>
 800077a:	f001 4600 	and.w	r6, r1, #2147483648	@ 0x80000000
 800077e:	0040      	lsls	r0, r0, #1
 8000780:	eb41 0101 	adc.w	r1, r1, r1
 8000784:	f411 1f80 	tst.w	r1, #1048576	@ 0x100000
 8000788:	bf08      	it	eq
 800078a:	3c01      	subeq	r4, #1
 800078c:	d0f7      	beq.n	800077e <__aeabi_dmul+0x1a6>
 800078e:	ea41 0106 	orr.w	r1, r1, r6
 8000792:	f095 0f00 	teq	r5, #0
 8000796:	bf18      	it	ne
 8000798:	4770      	bxne	lr
 800079a:	f003 4600 	and.w	r6, r3, #2147483648	@ 0x80000000
 800079e:	0052      	lsls	r2, r2, #1
 80007a0:	eb43 0303 	adc.w	r3, r3, r3
 80007a4:	f413 1f80 	tst.w	r3, #1048576	@ 0x100000
 80007a8:	bf08      	it	eq
 80007aa:	3d01      	subeq	r5, #1
 80007ac:	d0f7      	beq.n	800079e <__aeabi_dmul+0x1c6>
 80007ae:	ea43 0306 	orr.w	r3, r3, r6
 80007b2:	4770      	bx	lr
 80007b4:	ea94 0f0c 	teq	r4, ip
 80007b8:	ea0c 5513 	and.w	r5, ip, r3, lsr #20
 80007bc:	bf18      	it	ne
 80007be:	ea95 0f0c 	teqne	r5, ip
 80007c2:	d00c      	beq.n	80007de <__aeabi_dmul+0x206>
 80007c4:	ea50 0641 	orrs.w	r6, r0, r1, lsl #1
 80007c8:	bf18      	it	ne
 80007ca:	ea52 0643 	orrsne.w	r6, r2, r3, lsl #1
 80007ce:	d1d1      	bne.n	8000774 <__aeabi_dmul+0x19c>
 80007d0:	ea81 0103 	eor.w	r1, r1, r3
 80007d4:	f001 4100 	and.w	r1, r1, #2147483648	@ 0x80000000
 80007d8:	f04f 0000 	mov.w	r0, #0
 80007dc:	bd70      	pop	{r4, r5, r6, pc}
 80007de:	ea50 0641 	orrs.w	r6, r0, r1, lsl #1
 80007e2:	bf06      	itte	eq
 80007e4:	4610      	moveq	r0, r2
 80007e6:	4619      	moveq	r1, r3
 80007e8:	ea52 0643 	orrsne.w	r6, r2, r3, lsl #1
 80007ec:	d019      	beq.n	8000822 <__aeabi_dmul+0x24a>
 80007ee:	ea94 0f0c 	teq	r4, ip
 80007f2:	d102      	bne.n	80007fa <__aeabi_dmul+0x222>
 80007f4:	ea50 3601 	orrs.w	r6, r0, r1, lsl #12
 80007f8:	d113      	bne.n	8000822 <__aeabi_dmul+0x24a>
 80007fa:	ea95 0f0c 	teq	r5, ip
 80007fe:	d105      	bne.n	800080c <__aeabi_dmul+0x234>
 8000800:	ea52 3603 	orrs.w	r6, r2, r3, lsl #12
 8000804:	bf1c      	itt	ne
 8000806:	4610      	movne	r0, r2
 8000808:	4619      	movne	r1, r3
 800080a:	d10a      	bne.n	8000822 <__aeabi_dmul+0x24a>
 800080c:	ea81 0103 	eor.w	r1, r1, r3
 8000810:	f001 4100 	and.w	r1, r1, #2147483648	@ 0x80000000
 8000814:	f041 41fe 	orr.w	r1, r1, #2130706432	@ 0x7f000000
 8000818:	f441 0170 	orr.w	r1, r1, #15728640	@ 0xf00000
 800081c:	f04f 0000 	mov.w	r0, #0
 8000820:	bd70      	pop	{r4, r5, r6, pc}
 8000822:	f041 41fe 	orr.w	r1, r1, #2130706432	@ 0x7f000000
 8000826:	f441 0178 	orr.w	r1, r1, #16252928	@ 0xf80000
 800082a:	bd70      	pop	{r4, r5, r6, pc}

0800082c <__aeabi_ddiv>:
 800082c:	b570      	push	{r4, r5, r6, lr}
 800082e:	f04f 0cff 	mov.w	ip, #255	@ 0xff
 8000832:	f44c 6ce0 	orr.w	ip, ip, #1792	@ 0x700
 8000836:	ea1c 5411 	ands.w	r4, ip, r1, lsr #20
 800083a:	bf1d      	ittte	ne
 800083c:	ea1c 5513 	andsne.w	r5, ip, r3, lsr #20
 8000840:	ea94 0f0c 	teqne	r4, ip
 8000844:	ea95 0f0c 	teqne	r5, ip
 8000848:	f000 f8a7 	bleq	800099a <__aeabi_ddiv+0x16e>
 800084c:	eba4 0405 	sub.w	r4, r4, r5
 8000850:	ea81 0e03 	eor.w	lr, r1, r3
 8000854:	ea52 3503 	orrs.w	r5, r2, r3, lsl #12
 8000858:	ea4f 3101 	mov.w	r1, r1, lsl #12
 800085c:	f000 8088 	beq.w	8000970 <__aeabi_ddiv+0x144>
 8000860:	ea4f 3303 	mov.w	r3, r3, lsl #12
 8000864:	f04f 5580 	mov.w	r5, #268435456	@ 0x10000000
 8000868:	ea45 1313 	orr.w	r3, r5, r3, lsr #4
 800086c:	ea43 6312 	orr.w	r3, r3, r2, lsr #24
 8000870:	ea4f 2202 	mov.w	r2, r2, lsl #8
 8000874:	ea45 1511 	orr.w	r5, r5, r1, lsr #4
 8000878:	ea45 6510 	orr.w	r5, r5, r0, lsr #24
 800087c:	ea4f 2600 	mov.w	r6, r0, lsl #8
 8000880:	f00e 4100 	and.w	r1, lr, #2147483648	@ 0x80000000
 8000884:	429d      	cmp	r5, r3
 8000886:	bf08      	it	eq
 8000888:	4296      	cmpeq	r6, r2
 800088a:	f144 04fd 	adc.w	r4, r4, #253	@ 0xfd
 800088e:	f504 7440 	add.w	r4, r4, #768	@ 0x300
 8000892:	d202      	bcs.n	800089a <__aeabi_ddiv+0x6e>
 8000894:	085b      	lsrs	r3, r3, #1
 8000896:	ea4f 0232 	mov.w	r2, r2, rrx
 800089a:	1ab6      	subs	r6, r6, r2
 800089c:	eb65 0503 	sbc.w	r5, r5, r3
 80008a0:	085b      	lsrs	r3, r3, #1
 80008a2:	ea4f 0232 	mov.w	r2, r2, rrx
 80008a6:	f44f 1080 	mov.w	r0, #1048576	@ 0x100000
 80008aa:	f44f 2c00 	mov.w	ip, #524288	@ 0x80000
 80008ae:	ebb6 0e02 	subs.w	lr, r6, r2
 80008b2:	eb75 0e03 	sbcs.w	lr, r5, r3
 80008b6:	bf22      	ittt	cs
 80008b8:	1ab6      	subcs	r6, r6, r2
 80008ba:	4675      	movcs	r5, lr
 80008bc:	ea40 000c 	orrcs.w	r0, r0, ip
 80008c0:	085b      	lsrs	r3, r3, #1
 80008c2:	ea4f 0232 	mov.w	r2, r2, rrx
 80008c6:	ebb6 0e02 	subs.w	lr, r6, r2
 80008ca:	eb75 0e03 	sbcs.w	lr, r5, r3
 80008ce:	bf22      	ittt	cs
 80008d0:	1ab6      	subcs	r6, r6, r2
 80008d2:	4675      	movcs	r5, lr
 80008d4:	ea40 005c 	orrcs.w	r0, r0, ip, lsr #1
 80008d8:	085b      	lsrs	r3, r3, #1
 80008da:	ea4f 0232 	mov.w	r2, r2, rrx
 80008de:	ebb6 0e02 	subs.w	lr, r6, r2
 80008e2:	eb75 0e03 	sbcs.w	lr, r5, r3
 80008e6:	bf22      	ittt	cs
 80008e8:	1ab6      	subcs	r6, r6, r2
 80008ea:	4675      	movcs	r5, lr
 80008ec:	ea40 009c 	orrcs.w	r0, r0, ip, lsr #2
 80008f0:	085b      	lsrs	r3, r3, #1
 80008f2:	ea4f 0232 	mov.w	r2, r2, rrx
 80008f6:	ebb6 0e02 	subs.w	lr, r6, r2
 80008fa:	eb75 0e03 	sbcs.w	lr, r5, r3
 80008fe:	bf22      	ittt	cs
 8000900:	1ab6      	subcs	r6, r6, r2
 8000902:	4675      	movcs	r5, lr
 8000904:	ea40 00dc 	orrcs.w	r0, r0, ip, lsr #3
 8000908:	ea55 0e06 	orrs.w	lr, r5, r6
 800090c:	d018      	beq.n	8000940 <__aeabi_ddiv+0x114>
 800090e:	ea4f 1505 	mov.w	r5, r5, lsl #4
 8000912:	ea45 7516 	orr.w	r5, r5, r6, lsr #28
 8000916:	ea4f 1606 	mov.w	r6, r6, lsl #4
 800091a:	ea4f 03c3 	mov.w	r3, r3, lsl #3
 800091e:	ea43 7352 	orr.w	r3, r3, r2, lsr #29
 8000922:	ea4f 02c2 	mov.w	r2, r2, lsl #3
 8000926:	ea5f 1c1c 	movs.w	ip, ip, lsr #4
 800092a:	d1c0      	bne.n	80008ae <__aeabi_ddiv+0x82>
 800092c:	f411 1f80 	tst.w	r1, #1048576	@ 0x100000
 8000930:	d10b      	bne.n	800094a <__aeabi_ddiv+0x11e>
 8000932:	ea41 0100 	orr.w	r1, r1, r0
 8000936:	f04f 0000 	mov.w	r0, #0
 800093a:	f04f 4c00 	mov.w	ip, #2147483648	@ 0x80000000
 800093e:	e7b6      	b.n	80008ae <__aeabi_ddiv+0x82>
 8000940:	f411 1f80 	tst.w	r1, #1048576	@ 0x100000
 8000944:	bf04      	itt	eq
 8000946:	4301      	orreq	r1, r0
 8000948:	2000      	moveq	r0, #0
 800094a:	f1b4 0cfd 	subs.w	ip, r4, #253	@ 0xfd
 800094e:	bf88      	it	hi
 8000950:	f5bc 6fe0 	cmphi.w	ip, #1792	@ 0x700
 8000954:	f63f aeaf 	bhi.w	80006b6 <__aeabi_dmul+0xde>
 8000958:	ebb5 0c03 	subs.w	ip, r5, r3
 800095c:	bf04      	itt	eq
 800095e:	ebb6 0c02 	subseq.w	ip, r6, r2
 8000962:	ea5f 0c50 	movseq.w	ip, r0, lsr #1
 8000966:	f150 0000 	adcs.w	r0, r0, #0
 800096a:	eb41 5104 	adc.w	r1, r1, r4, lsl #20
 800096e:	bd70      	pop	{r4, r5, r6, pc}
 8000970:	f00e 4e00 	and.w	lr, lr, #2147483648	@ 0x80000000
 8000974:	ea4e 3111 	orr.w	r1, lr, r1, lsr #12
 8000978:	eb14 045c 	adds.w	r4, r4, ip, lsr #1
 800097c:	bfc2      	ittt	gt
 800097e:	ebd4 050c 	rsbsgt	r5, r4, ip
 8000982:	ea41 5104 	orrgt.w	r1, r1, r4, lsl #20
 8000986:	bd70      	popgt	{r4, r5, r6, pc}
 8000988:	f441 1180 	orr.w	r1, r1, #1048576	@ 0x100000
 800098c:	f04f 0e00 	mov.w	lr, #0
 8000990:	3c01      	subs	r4, #1
 8000992:	e690      	b.n	80006b6 <__aeabi_dmul+0xde>
 8000994:	ea45 0e06 	orr.w	lr, r5, r6
 8000998:	e68d      	b.n	80006b6 <__aeabi_dmul+0xde>
 800099a:	ea0c 5513 	and.w	r5, ip, r3, lsr #20
 800099e:	ea94 0f0c 	teq	r4, ip
 80009a2:	bf08      	it	eq
 80009a4:	ea95 0f0c 	teqeq	r5, ip
 80009a8:	f43f af3b 	beq.w	8000822 <__aeabi_dmul+0x24a>
 80009ac:	ea94 0f0c 	teq	r4, ip
 80009b0:	d10a      	bne.n	80009c8 <__aeabi_ddiv+0x19c>
 80009b2:	ea50 3401 	orrs.w	r4, r0, r1, lsl #12
 80009b6:	f47f af34 	bne.w	8000822 <__aeabi_dmul+0x24a>
 80009ba:	ea95 0f0c 	teq	r5, ip
 80009be:	f47f af25 	bne.w	800080c <__aeabi_dmul+0x234>
 80009c2:	4610      	mov	r0, r2
 80009c4:	4619      	mov	r1, r3
 80009c6:	e72c      	b.n	8000822 <__aeabi_dmul+0x24a>
 80009c8:	ea95 0f0c 	teq	r5, ip
 80009cc:	d106      	bne.n	80009dc <__aeabi_ddiv+0x1b0>
 80009ce:	ea52 3503 	orrs.w	r5, r2, r3, lsl #12
 80009d2:	f43f aefd 	beq.w	80007d0 <__aeabi_dmul+0x1f8>
 80009d6:	4610      	mov	r0, r2
 80009d8:	4619      	mov	r1, r3
 80009da:	e722      	b.n	8000822 <__aeabi_dmul+0x24a>
 80009dc:	ea50 0641 	orrs.w	r6, r0, r1, lsl #1
 80009e0:	bf18      	it	ne
 80009e2:	ea52 0643 	orrsne.w	r6, r2, r3, lsl #1
 80009e6:	f47f aec5 	bne.w	8000774 <__aeabi_dmul+0x19c>
 80009ea:	ea50 0441 	orrs.w	r4, r0, r1, lsl #1
 80009ee:	f47f af0d 	bne.w	800080c <__aeabi_dmul+0x234>
 80009f2:	ea52 0543 	orrs.w	r5, r2, r3, lsl #1
 80009f6:	f47f aeeb 	bne.w	80007d0 <__aeabi_dmul+0x1f8>
 80009fa:	e712      	b.n	8000822 <__aeabi_dmul+0x24a>

080009fc <__aeabi_d2f>:
 80009fc:	ea4f 0241 	mov.w	r2, r1, lsl #1
 8000a00:	f1b2 43e0 	subs.w	r3, r2, #1879048192	@ 0x70000000
 8000a04:	bf24      	itt	cs
 8000a06:	f5b3 1c00 	subscs.w	ip, r3, #2097152	@ 0x200000
 8000a0a:	f1dc 5cfe 	rsbscs	ip, ip, #532676608	@ 0x1fc00000
 8000a0e:	d90d      	bls.n	8000a2c <__aeabi_d2f+0x30>
 8000a10:	f001 4c00 	and.w	ip, r1, #2147483648	@ 0x80000000
 8000a14:	ea4f 02c0 	mov.w	r2, r0, lsl #3
 8000a18:	ea4c 7050 	orr.w	r0, ip, r0, lsr #29
 8000a1c:	f1b2 4f00 	cmp.w	r2, #2147483648	@ 0x80000000
 8000a20:	eb40 0083 	adc.w	r0, r0, r3, lsl #2
 8000a24:	bf08      	it	eq
 8000a26:	f020 0001 	biceq.w	r0, r0, #1
 8000a2a:	4770      	bx	lr
 8000a2c:	f011 4f80 	tst.w	r1, #1073741824	@ 0x40000000
 8000a30:	d121      	bne.n	8000a76 <__aeabi_d2f+0x7a>
 8000a32:	f113 7238 	adds.w	r2, r3, #48234496	@ 0x2e00000
 8000a36:	bfbc      	itt	lt
 8000a38:	f001 4000 	andlt.w	r0, r1, #2147483648	@ 0x80000000
 8000a3c:	4770      	bxlt	lr
 8000a3e:	f441 1180 	orr.w	r1, r1, #1048576	@ 0x100000
 8000a42:	ea4f 5252 	mov.w	r2, r2, lsr #21
 8000a46:	f1c2 0218 	rsb	r2, r2, #24
 8000a4a:	f1c2 0c20 	rsb	ip, r2, #32
 8000a4e:	fa10 f30c 	lsls.w	r3, r0, ip
 8000a52:	fa20 f002 	lsr.w	r0, r0, r2
 8000a56:	bf18      	it	ne
 8000a58:	f040 0001 	orrne.w	r0, r0, #1
 8000a5c:	ea4f 23c1 	mov.w	r3, r1, lsl #11
 8000a60:	ea4f 23d3 	mov.w	r3, r3, lsr #11
 8000a64:	fa03 fc0c 	lsl.w	ip, r3, ip
 8000a68:	ea40 000c 	orr.w	r0, r0, ip
 8000a6c:	fa23 f302 	lsr.w	r3, r3, r2
 8000a70:	ea4f 0343 	mov.w	r3, r3, lsl #1
 8000a74:	e7cc      	b.n	8000a10 <__aeabi_d2f+0x14>
 8000a76:	ea7f 5362 	mvns.w	r3, r2, asr #21
 8000a7a:	d107      	bne.n	8000a8c <__aeabi_d2f+0x90>
 8000a7c:	ea50 3301 	orrs.w	r3, r0, r1, lsl #12
 8000a80:	bf1e      	ittt	ne
 8000a82:	f04f 40fe 	movne.w	r0, #2130706432	@ 0x7f000000
 8000a86:	f440 0040 	orrne.w	r0, r0, #12582912	@ 0xc00000
 8000a8a:	4770      	bxne	lr
 8000a8c:	f001 4000 	and.w	r0, r1, #2147483648	@ 0x80000000
 8000a90:	f040 40fe 	orr.w	r0, r0, #2130706432	@ 0x7f000000
 8000a94:	f440 0000 	orr.w	r0, r0, #8388608	@ 0x800000
 8000a98:	4770      	bx	lr
 8000a9a:	bf00      	nop

08000a9c <__aeabi_uldivmod>:
 8000a9c:	b953      	cbnz	r3, 8000ab4 <__aeabi_uldivmod+0x18>
 8000a9e:	b94a      	cbnz	r2, 8000ab4 <__aeabi_uldivmod+0x18>
 8000aa0:	2900      	cmp	r1, #0
 8000aa2:	bf08      	it	eq
 8000aa4:	2800      	cmpeq	r0, #0
 8000aa6:	bf1c      	itt	ne
 8000aa8:	f04f 31ff 	movne.w	r1, #4294967295
 8000aac:	f04f 30ff 	movne.w	r0, #4294967295
 8000ab0:	f000 b80c 	b.w	8000acc <__aeabi_idiv0>
 8000ab4:	f1ad 0c08 	sub.w	ip, sp, #8
 8000ab8:	e96d ce04 	strd	ip, lr, [sp, #-16]!
 8000abc:	f00a fd40 	bl	800b540 <__udivmoddi4>
 8000ac0:	f8dd e004 	ldr.w	lr, [sp, #4]
 8000ac4:	e9dd 2302 	ldrd	r2, r3, [sp, #8]
 8000ac8:	b004      	add	sp, #16
 8000aca:	4770      	bx	lr

08000acc <__aeabi_idiv0>:
 8000acc:	4770      	bx	lr
 8000ace:	bf00      	nop

08000ad0 <deregister_tm_clones>:
 8000ad0:	4803      	ldr	r0, [pc, #12]	@ (8000ae0 <deregister_tm_clones+0x10>)
 8000ad2:	4b04      	ldr	r3, [pc, #16]	@ (8000ae4 <deregister_tm_clones+0x14>)
 8000ad4:	4283      	cmp	r3, r0
 8000ad6:	d002      	beq.n	8000ade <deregister_tm_clones+0xe>
 8000ad8:	4b03      	ldr	r3, [pc, #12]	@ (8000ae8 <deregister_tm_clones+0x18>)
 8000ada:	b103      	cbz	r3, 8000ade <deregister_tm_clones+0xe>
 8000adc:	4718      	bx	r3
 8000ade:	4770      	bx	lr
 8000ae0:	20000278 	.word	0x20000278
 8000ae4:	20000278 	.word	0x20000278
 8000ae8:	00000000 	.word	0x00000000

08000aec <register_tm_clones>:
 8000aec:	4805      	ldr	r0, [pc, #20]	@ (8000b04 <register_tm_clones+0x18>)
 8000aee:	4b06      	ldr	r3, [pc, #24]	@ (8000b08 <register_tm_clones+0x1c>)
 8000af0:	1a1b      	subs	r3, r3, r0
 8000af2:	0fd9      	lsrs	r1, r3, #31
 8000af4:	eb01 01a3 	add.w	r1, r1, r3, asr #2
 8000af8:	1049      	asrs	r1, r1, #1
 8000afa:	d002      	beq.n	8000b02 <register_tm_clones+0x16>
 8000afc:	4b03      	ldr	r3, [pc, #12]	@ (8000b0c <register_tm_clones+0x20>)
 8000afe:	b103      	cbz	r3, 8000b02 <register_tm_clones+0x16>
 8000b00:	4718      	bx	r3
 8000b02:	4770      	bx	lr
 8000b04:	20000278 	.word	0x20000278
 8000b08:	20000278 	.word	0x20000278
 8000b0c:	00000000 	.word	0x00000000

08000b10 <__do_global_dtors_aux>:
 8000b10:	b510      	push	{r4, lr}
 8000b12:	4c06      	ldr	r4, [pc, #24]	@ (8000b2c <__do_global_dtors_aux+0x1c>)
 8000b14:	7823      	ldrb	r3, [r4, #0]
 8000b16:	b943      	cbnz	r3, 8000b2a <__do_global_dtors_aux+0x1a>
 8000b18:	f7ff ffda 	bl	8000ad0 <deregister_tm_clones>
 8000b1c:	4b04      	ldr	r3, [pc, #16]	@ (8000b30 <__do_global_dtors_aux+0x20>)
 8000b1e:	b113      	cbz	r3, 8000b26 <__do_global_dtors_aux+0x16>
 8000b20:	4804      	ldr	r0, [pc, #16]	@ (8000b34 <__do_global_dtors_aux+0x24>)
 8000b22:	f3af 8000 	nop.w
 8000b26:	2301      	movs	r3, #1
 8000b28:	7023      	strb	r3, [r4, #0]
 8000b2a:	bd10      	pop	{r4, pc}
 8000b2c:	20000278 	.word	0x20000278
 8000b30:	00000000 	.word	0x00000000
 8000b34:	0800b838 	.word	0x0800b838

08000b38 <frame_dummy>:
 8000b38:	b508      	push	{r3, lr}
 8000b3a:	4b05      	ldr	r3, [pc, #20]	@ (8000b50 <frame_dummy+0x18>)
 8000b3c:	b11b      	cbz	r3, 8000b46 <frame_dummy+0xe>
 8000b3e:	4905      	ldr	r1, [pc, #20]	@ (8000b54 <frame_dummy+0x1c>)
 8000b40:	4805      	ldr	r0, [pc, #20]	@ (8000b58 <frame_dummy+0x20>)
 8000b42:	f3af 8000 	nop.w
 8000b46:	e8bd 4008 	ldmia.w	sp!, {r3, lr}
 8000b4a:	f7ff bfcf 	b.w	8000aec <register_tm_clones>
 8000b4e:	bf00      	nop
 8000b50:	00000000 	.word	0x00000000
 8000b54:	2000027c 	.word	0x2000027c
 8000b58:	0800b838 	.word	0x0800b838

08000b5c <EPD_Reset>:
 8000b5c:	b508      	push	{r3, lr}
 8000b5e:	2201      	movs	r2, #1
 8000b60:	2108      	movs	r1, #8
 8000b62:	f04f 4090 	mov.w	r0, #1207959552	@ 0x48000000
 8000b66:	f003 f9fc 	bl	8003f62 <HAL_GPIO_WritePin>
 8000b6a:	2014      	movs	r0, #20
 8000b6c:	f002 f840 	bl	8002bf0 <HAL_Delay>
 8000b70:	2200      	movs	r2, #0
 8000b72:	2108      	movs	r1, #8
 8000b74:	f04f 4090 	mov.w	r0, #1207959552	@ 0x48000000
 8000b78:	f003 f9f3 	bl	8003f62 <HAL_GPIO_WritePin>
 8000b7c:	2002      	movs	r0, #2
 8000b7e:	f002 f837 	bl	8002bf0 <HAL_Delay>
 8000b82:	2201      	movs	r2, #1
 8000b84:	2108      	movs	r1, #8
 8000b86:	f04f 4090 	mov.w	r0, #1207959552	@ 0x48000000
 8000b8a:	f003 f9ea 	bl	8003f62 <HAL_GPIO_WritePin>
 8000b8e:	2014      	movs	r0, #20
 8000b90:	f002 f82e 	bl	8002bf0 <HAL_Delay>
 8000b94:	bd08      	pop	{r3, pc}

08000b96 <EPD_SendCommand>:
 8000b96:	b510      	push	{r4, lr}
 8000b98:	4604      	mov	r4, r0
 8000b9a:	2200      	movs	r2, #0
 8000b9c:	2140      	movs	r1, #64	@ 0x40
 8000b9e:	f04f 4090 	mov.w	r0, #1207959552	@ 0x48000000
 8000ba2:	f003 f9de 	bl	8003f62 <HAL_GPIO_WritePin>
 8000ba6:	2200      	movs	r2, #0
 8000ba8:	2110      	movs	r1, #16
 8000baa:	f04f 4090 	mov.w	r0, #1207959552	@ 0x48000000
 8000bae:	f003 f9d8 	bl	8003f62 <HAL_GPIO_WritePin>
 8000bb2:	4620      	mov	r0, r4
 8000bb4:	f000 f94c 	bl	8000e50 <DEV_SPI_WriteByte>
 8000bb8:	2201      	movs	r2, #1
 8000bba:	2110      	movs	r1, #16
 8000bbc:	f04f 4090 	mov.w	r0, #1207959552	@ 0x48000000
 8000bc0:	f003 f9cf 	bl	8003f62 <HAL_GPIO_WritePin>
 8000bc4:	bd10      	pop	{r4, pc}

08000bc6 <EPD_SendData>:
 8000bc6:	b510      	push	{r4, lr}
 8000bc8:	4604      	mov	r4, r0
 8000bca:	2201      	movs	r2, #1
 8000bcc:	2140      	movs	r1, #64	@ 0x40
 8000bce:	f04f 4090 	mov.w	r0, #1207959552	@ 0x48000000
 8000bd2:	f003 f9c6 	bl	8003f62 <HAL_GPIO_WritePin>
 8000bd6:	2200      	movs	r2, #0
 8000bd8:	2110      	movs	r1, #16
 8000bda:	f04f 4090 	mov.w	r0, #1207959552	@ 0x48000000
 8000bde:	f003 f9c0 	bl	8003f62 <HAL_GPIO_WritePin>
 8000be2:	4620      	mov	r0, r4
 8000be4:	f000 f934 	bl	8000e50 <DEV_SPI_WriteByte>
 8000be8:	2201      	movs	r2, #1
 8000bea:	2110      	movs	r1, #16
 8000bec:	f04f 4090 	mov.w	r0, #1207959552	@ 0x48000000
 8000bf0:	f003 f9b7 	bl	8003f62 <HAL_GPIO_WritePin>
 8000bf4:	bd10      	pop	{r4, pc}

08000bf6 <EPD_SetWindows>:
 8000bf6:	b5f8      	push	{r3, r4, r5, r6, r7, lr}
 8000bf8:	4607      	mov	r7, r0
 8000bfa:	460d      	mov	r5, r1
 8000bfc:	4616      	mov	r6, r2
 8000bfe:	461c      	mov	r4, r3
 8000c00:	2044      	movs	r0, #68	@ 0x44
 8000c02:	f7ff ffc8 	bl	8000b96 <EPD_SendCommand>
 8000c06:	f3c7 00c7 	ubfx	r0, r7, #3, #8
 8000c0a:	f7ff ffdc 	bl	8000bc6 <EPD_SendData>
 8000c0e:	f3c6 00c7 	ubfx	r0, r6, #3, #8
 8000c12:	f7ff ffd8 	bl	8000bc6 <EPD_SendData>
 8000c16:	2045      	movs	r0, #69	@ 0x45
 8000c18:	f7ff ffbd 	bl	8000b96 <EPD_SendCommand>
 8000c1c:	b2e8      	uxtb	r0, r5
 8000c1e:	f7ff ffd2 	bl	8000bc6 <EPD_SendData>
 8000c22:	0a28      	lsrs	r0, r5, #8
 8000c24:	f7ff ffcf 	bl	8000bc6 <EPD_SendData>
 8000c28:	b2e0      	uxtb	r0, r4
 8000c2a:	f7ff ffcc 	bl	8000bc6 <EPD_SendData>
 8000c2e:	0a20      	lsrs	r0, r4, #8
 8000c30:	f7ff ffc9 	bl	8000bc6 <EPD_SendData>
 8000c34:	bdf8      	pop	{r3, r4, r5, r6, r7, pc}

08000c36 <EPD_SetCursor>:
 8000c36:	b538      	push	{r3, r4, r5, lr}
 8000c38:	4605      	mov	r5, r0
 8000c3a:	460c      	mov	r4, r1
 8000c3c:	204e      	movs	r0, #78	@ 0x4e
 8000c3e:	f7ff ffaa 	bl	8000b96 <EPD_SendCommand>
 8000c42:	b2e8      	uxtb	r0, r5
 8000c44:	f7ff ffbf 	bl	8000bc6 <EPD_SendData>
 8000c48:	204f      	movs	r0, #79	@ 0x4f
 8000c4a:	f7ff ffa4 	bl	8000b96 <EPD_SendCommand>
 8000c4e:	b2e0      	uxtb	r0, r4
 8000c50:	f7ff ffb9 	bl	8000bc6 <EPD_SendData>
 8000c54:	0a20      	lsrs	r0, r4, #8
 8000c56:	f7ff ffb6 	bl	8000bc6 <EPD_SendData>
 8000c5a:	bd38      	pop	{r3, r4, r5, pc}

08000c5c <EPD_ReadBusy>:
 8000c5c:	b508      	push	{r3, lr}
 8000c5e:	2120      	movs	r1, #32
 8000c60:	f04f 4090 	mov.w	r0, #1207959552	@ 0x48000000
 8000c64:	f003 f976 	bl	8003f54 <HAL_GPIO_ReadPin>
 8000c68:	b118      	cbz	r0, 8000c72 <EPD_ReadBusy+0x16>
 8000c6a:	200a      	movs	r0, #10
 8000c6c:	f001 ffc0 	bl	8002bf0 <HAL_Delay>
 8000c70:	e7f5      	b.n	8000c5e <EPD_ReadBusy+0x2>
 8000c72:	200a      	movs	r0, #10
 8000c74:	f001 ffbc 	bl	8002bf0 <HAL_Delay>
 8000c78:	bd08      	pop	{r3, pc}

08000c7a <EPD_LUT>:
 8000c7a:	b538      	push	{r3, r4, r5, lr}
 8000c7c:	4605      	mov	r5, r0
 8000c7e:	2032      	movs	r0, #50	@ 0x32
 8000c80:	f7ff ff89 	bl	8000b96 <EPD_SendCommand>
 8000c84:	2400      	movs	r4, #0
 8000c86:	e004      	b.n	8000c92 <EPD_LUT+0x18>
 8000c88:	5d28      	ldrb	r0, [r5, r4]
 8000c8a:	f7ff ff9c 	bl	8000bc6 <EPD_SendData>
 8000c8e:	3401      	adds	r4, #1
 8000c90:	b2e4      	uxtb	r4, r4
 8000c92:	2c98      	cmp	r4, #152	@ 0x98
 8000c94:	d9f8      	bls.n	8000c88 <EPD_LUT+0xe>
 8000c96:	f7ff ffe1 	bl	8000c5c <EPD_ReadBusy>
 8000c9a:	bd38      	pop	{r3, r4, r5, pc}

08000c9c <EPD_2IN13_V2_LUT_by_host>:
 8000c9c:	b510      	push	{r4, lr}
 8000c9e:	4604      	mov	r4, r0
 8000ca0:	f7ff ffeb 	bl	8000c7a <EPD_LUT>
 8000ca4:	203f      	movs	r0, #63	@ 0x3f
 8000ca6:	f7ff ff76 	bl	8000b96 <EPD_SendCommand>
 8000caa:	f894 0099 	ldrb.w	r0, [r4, #153]	@ 0x99
 8000cae:	f7ff ff8a 	bl	8000bc6 <EPD_SendData>
 8000cb2:	2003      	movs	r0, #3
 8000cb4:	f7ff ff6f 	bl	8000b96 <EPD_SendCommand>
 8000cb8:	f894 009a 	ldrb.w	r0, [r4, #154]	@ 0x9a
 8000cbc:	f7ff ff83 	bl	8000bc6 <EPD_SendData>
 8000cc0:	2004      	movs	r0, #4
 8000cc2:	f7ff ff68 	bl	8000b96 <EPD_SendCommand>
 8000cc6:	f894 009b 	ldrb.w	r0, [r4, #155]	@ 0x9b
 8000cca:	f7ff ff7c 	bl	8000bc6 <EPD_SendData>
 8000cce:	f894 009c 	ldrb.w	r0, [r4, #156]	@ 0x9c
 8000cd2:	f7ff ff78 	bl	8000bc6 <EPD_SendData>
 8000cd6:	f894 009d 	ldrb.w	r0, [r4, #157]	@ 0x9d
 8000cda:	f7ff ff74 	bl	8000bc6 <EPD_SendData>
 8000cde:	202c      	movs	r0, #44	@ 0x2c
 8000ce0:	f7ff ff59 	bl	8000b96 <EPD_SendCommand>
 8000ce4:	f894 009e 	ldrb.w	r0, [r4, #158]	@ 0x9e
 8000ce8:	f7ff ff6d 	bl	8000bc6 <EPD_SendData>
 8000cec:	bd10      	pop	{r4, pc}

08000cee <EPD_TurnOnDisplay>:
 8000cee:	b508      	push	{r3, lr}
 8000cf0:	2022      	movs	r0, #34	@ 0x22
 8000cf2:	f7ff ff50 	bl	8000b96 <EPD_SendCommand>
 8000cf6:	20c7      	movs	r0, #199	@ 0xc7
 8000cf8:	f7ff ff65 	bl	8000bc6 <EPD_SendData>
 8000cfc:	2020      	movs	r0, #32
 8000cfe:	f7ff ff4a 	bl	8000b96 <EPD_SendCommand>
 8000d02:	f7ff ffab 	bl	8000c5c <EPD_ReadBusy>
 8000d06:	bd08      	pop	{r3, pc}

08000d08 <EPD_Init>:
 8000d08:	b508      	push	{r3, lr}
 8000d0a:	2200      	movs	r2, #0
 8000d0c:	2102      	movs	r1, #2
 8000d0e:	4824      	ldr	r0, [pc, #144]	@ (8000da0 <EPD_Init+0x98>)
 8000d10:	f003 f927 	bl	8003f62 <HAL_GPIO_WritePin>
 8000d14:	2064      	movs	r0, #100	@ 0x64
 8000d16:	f001 ff6b 	bl	8002bf0 <HAL_Delay>
 8000d1a:	f7ff ff1f 	bl	8000b5c <EPD_Reset>
 8000d1e:	2064      	movs	r0, #100	@ 0x64
 8000d20:	f001 ff66 	bl	8002bf0 <HAL_Delay>
 8000d24:	f7ff ff9a 	bl	8000c5c <EPD_ReadBusy>
 8000d28:	2012      	movs	r0, #18
 8000d2a:	f7ff ff34 	bl	8000b96 <EPD_SendCommand>
 8000d2e:	f7ff ff95 	bl	8000c5c <EPD_ReadBusy>
 8000d32:	2001      	movs	r0, #1
 8000d34:	f7ff ff2f 	bl	8000b96 <EPD_SendCommand>
 8000d38:	20f9      	movs	r0, #249	@ 0xf9
 8000d3a:	f7ff ff44 	bl	8000bc6 <EPD_SendData>
 8000d3e:	2000      	movs	r0, #0
 8000d40:	f7ff ff41 	bl	8000bc6 <EPD_SendData>
 8000d44:	2000      	movs	r0, #0
 8000d46:	f7ff ff3e 	bl	8000bc6 <EPD_SendData>
 8000d4a:	2011      	movs	r0, #17
 8000d4c:	f7ff ff23 	bl	8000b96 <EPD_SendCommand>
 8000d50:	2003      	movs	r0, #3
 8000d52:	f7ff ff38 	bl	8000bc6 <EPD_SendData>
 8000d56:	23f9      	movs	r3, #249	@ 0xf9
 8000d58:	2279      	movs	r2, #121	@ 0x79
 8000d5a:	2100      	movs	r1, #0
 8000d5c:	4608      	mov	r0, r1
 8000d5e:	f7ff ff4a 	bl	8000bf6 <EPD_SetWindows>
 8000d62:	2100      	movs	r1, #0
 8000d64:	4608      	mov	r0, r1
 8000d66:	f7ff ff66 	bl	8000c36 <EPD_SetCursor>
 8000d6a:	203c      	movs	r0, #60	@ 0x3c
 8000d6c:	f7ff ff13 	bl	8000b96 <EPD_SendCommand>
 8000d70:	2005      	movs	r0, #5
 8000d72:	f7ff ff28 	bl	8000bc6 <EPD_SendData>
 8000d76:	2021      	movs	r0, #33	@ 0x21
 8000d78:	f7ff ff0d 	bl	8000b96 <EPD_SendCommand>
 8000d7c:	2000      	movs	r0, #0
 8000d7e:	f7ff ff22 	bl	8000bc6 <EPD_SendData>
 8000d82:	2080      	movs	r0, #128	@ 0x80
 8000d84:	f7ff ff1f 	bl	8000bc6 <EPD_SendData>
 8000d88:	2018      	movs	r0, #24
 8000d8a:	f7ff ff04 	bl	8000b96 <EPD_SendCommand>
 8000d8e:	2080      	movs	r0, #128	@ 0x80
 8000d90:	f7ff ff19 	bl	8000bc6 <EPD_SendData>
 8000d94:	f7ff ff62 	bl	8000c5c <EPD_ReadBusy>
 8000d98:	4802      	ldr	r0, [pc, #8]	@ (8000da4 <EPD_Init+0x9c>)
 8000d9a:	f7ff ff7f 	bl	8000c9c <EPD_2IN13_V2_LUT_by_host>
 8000d9e:	bd08      	pop	{r3, pc}
 8000da0:	48000400 	.word	0x48000400
 8000da4:	20000000 	.word	0x20000000

08000da8 <EPD_Display_Base>:
 8000da8:	b570      	push	{r4, r5, r6, lr}
 8000daa:	4605      	mov	r5, r0
 8000dac:	2024      	movs	r0, #36	@ 0x24
 8000dae:	f7ff fef2 	bl	8000b96 <EPD_SendCommand>
 8000db2:	2600      	movs	r6, #0
 8000db4:	e001      	b.n	8000dba <EPD_Display_Base+0x12>
 8000db6:	3601      	adds	r6, #1
 8000db8:	b2b6      	uxth	r6, r6
 8000dba:	2ef9      	cmp	r6, #249	@ 0xf9
 8000dbc:	d80a      	bhi.n	8000dd4 <EPD_Display_Base+0x2c>
 8000dbe:	2400      	movs	r4, #0
 8000dc0:	2c0f      	cmp	r4, #15
 8000dc2:	d8f8      	bhi.n	8000db6 <EPD_Display_Base+0xe>
 8000dc4:	eb04 1306 	add.w	r3, r4, r6, lsl #4
 8000dc8:	5ce8      	ldrb	r0, [r5, r3]
 8000dca:	f7ff fefc 	bl	8000bc6 <EPD_SendData>
 8000dce:	3401      	adds	r4, #1
 8000dd0:	b2a4      	uxth	r4, r4
 8000dd2:	e7f5      	b.n	8000dc0 <EPD_Display_Base+0x18>
 8000dd4:	2026      	movs	r0, #38	@ 0x26
 8000dd6:	f7ff fede 	bl	8000b96 <EPD_SendCommand>
 8000dda:	2600      	movs	r6, #0
 8000ddc:	e00a      	b.n	8000df4 <EPD_Display_Base+0x4c>
 8000dde:	eb04 1306 	add.w	r3, r4, r6, lsl #4
 8000de2:	5ce8      	ldrb	r0, [r5, r3]
 8000de4:	f7ff feef 	bl	8000bc6 <EPD_SendData>
 8000de8:	3401      	adds	r4, #1
 8000dea:	b2a4      	uxth	r4, r4
 8000dec:	2c0f      	cmp	r4, #15
 8000dee:	d9f6      	bls.n	8000dde <EPD_Display_Base+0x36>
 8000df0:	3601      	adds	r6, #1
 8000df2:	b2b6      	uxth	r6, r6
 8000df4:	2ef9      	cmp	r6, #249	@ 0xf9
 8000df6:	d801      	bhi.n	8000dfc <EPD_Display_Base+0x54>
 8000df8:	2400      	movs	r4, #0
 8000dfa:	e7f7      	b.n	8000dec <EPD_Display_Base+0x44>
 8000dfc:	f7ff ff77 	bl	8000cee <EPD_TurnOnDisplay>
 8000e00:	bd70      	pop	{r4, r5, r6, pc}

08000e02 <EPD_Sleep>:
 8000e02:	b508      	push	{r3, lr}
 8000e04:	2010      	movs	r0, #16
 8000e06:	f7ff fec6 	bl	8000b96 <EPD_SendCommand>
 8000e0a:	2001      	movs	r0, #1
 8000e0c:	f7ff fedb 	bl	8000bc6 <EPD_SendData>
 8000e10:	2064      	movs	r0, #100	@ 0x64
 8000e12:	f001 feed 	bl	8002bf0 <HAL_Delay>
 8000e16:	bd08      	pop	{r3, pc}

08000e18 <EPD_Exit>:
 8000e18:	b508      	push	{r3, lr}
 8000e1a:	2200      	movs	r2, #0
 8000e1c:	2140      	movs	r1, #64	@ 0x40
 8000e1e:	f04f 4090 	mov.w	r0, #1207959552	@ 0x48000000
 8000e22:	f003 f89e 	bl	8003f62 <HAL_GPIO_WritePin>
 8000e26:	2200      	movs	r2, #0
 8000e28:	2110      	movs	r1, #16
 8000e2a:	f04f 4090 	mov.w	r0, #1207959552	@ 0x48000000
 8000e2e:	f003 f898 	bl	8003f62 <HAL_GPIO_WritePin>
 8000e32:	2201      	movs	r2, #1
 8000e34:	2102      	movs	r1, #2
 8000e36:	4805      	ldr	r0, [pc, #20]	@ (8000e4c <EPD_Exit+0x34>)
 8000e38:	f003 f893 	bl	8003f62 <HAL_GPIO_WritePin>
 8000e3c:	2200      	movs	r2, #0
 8000e3e:	2108      	movs	r1, #8
 8000e40:	f04f 4090 	mov.w	r0, #1207959552	@ 0x48000000
 8000e44:	f003 f88d 	bl	8003f62 <HAL_GPIO_WritePin>
 8000e48:	bd08      	pop	{r3, pc}
 8000e4a:	bf00      	nop
 8000e4c:	48000400 	.word	0x48000400

08000e50 <DEV_SPI_WriteByte>:
 8000e50:	b500      	push	{lr}
 8000e52:	b083      	sub	sp, #12
 8000e54:	f88d 0007 	strb.w	r0, [sp, #7]
 8000e58:	f44f 737a 	mov.w	r3, #1000	@ 0x3e8
 8000e5c:	2201      	movs	r2, #1
 8000e5e:	f10d 0107 	add.w	r1, sp, #7
 8000e62:	4803      	ldr	r0, [pc, #12]	@ (8000e70 <DEV_SPI_WriteByte+0x20>)
 8000e64:	f005 fca4 	bl	80067b0 <HAL_SPI_Transmit>
 8000e68:	b003      	add	sp, #12
 8000e6a:	f85d fb04 	ldr.w	pc, [sp], #4
 8000e6e:	bf00      	nop
 8000e70:	20000358 	.word	0x20000358

08000e74 <EPD_NewImage>:
 8000e74:	b430      	push	{r4, r5}
 8000e76:	4c12      	ldr	r4, [pc, #72]	@ (8000ec0 <EPD_NewImage+0x4c>)
 8000e78:	2500      	movs	r5, #0
 8000e7a:	6025      	str	r5, [r4, #0]
 8000e7c:	6020      	str	r0, [r4, #0]
 8000e7e:	8121      	strh	r1, [r4, #8]
 8000e80:	8162      	strh	r2, [r4, #10]
 8000e82:	f8bd 0008 	ldrh.w	r0, [sp, #8]
 8000e86:	81a0      	strh	r0, [r4, #12]
 8000e88:	2002      	movs	r0, #2
 8000e8a:	82e0      	strh	r0, [r4, #22]
 8000e8c:	f011 0f07 	tst.w	r1, #7
 8000e90:	d10d      	bne.n	8000eae <EPD_NewImage+0x3a>
 8000e92:	08cc      	lsrs	r4, r1, #3
 8000e94:	480a      	ldr	r0, [pc, #40]	@ (8000ec0 <EPD_NewImage+0x4c>)
 8000e96:	8244      	strh	r4, [r0, #18]
 8000e98:	8282      	strh	r2, [r0, #20]
 8000e9a:	81c3      	strh	r3, [r0, #14]
 8000e9c:	2400      	movs	r4, #0
 8000e9e:	8204      	strh	r4, [r0, #16]
 8000ea0:	b143      	cbz	r3, 8000eb4 <EPD_NewImage+0x40>
 8000ea2:	2bb4      	cmp	r3, #180	@ 0xb4
 8000ea4:	d006      	beq.n	8000eb4 <EPD_NewImage+0x40>
 8000ea6:	4b06      	ldr	r3, [pc, #24]	@ (8000ec0 <EPD_NewImage+0x4c>)
 8000ea8:	809a      	strh	r2, [r3, #4]
 8000eaa:	80d9      	strh	r1, [r3, #6]
 8000eac:	e005      	b.n	8000eba <EPD_NewImage+0x46>
 8000eae:	08cc      	lsrs	r4, r1, #3
 8000eb0:	3401      	adds	r4, #1
 8000eb2:	e7ef      	b.n	8000e94 <EPD_NewImage+0x20>
 8000eb4:	4b02      	ldr	r3, [pc, #8]	@ (8000ec0 <EPD_NewImage+0x4c>)
 8000eb6:	8099      	strh	r1, [r3, #4]
 8000eb8:	80da      	strh	r2, [r3, #6]
 8000eba:	bc30      	pop	{r4, r5}
 8000ebc:	4770      	bx	lr
 8000ebe:	bf00      	nop
 8000ec0:	20000294 	.word	0x20000294

08000ec4 <EPD_SelectImage>:
 8000ec4:	4b01      	ldr	r3, [pc, #4]	@ (8000ecc <EPD_SelectImage+0x8>)
 8000ec6:	6018      	str	r0, [r3, #0]
 8000ec8:	4770      	bx	lr
 8000eca:	bf00      	nop
 8000ecc:	20000294 	.word	0x20000294

08000ed0 <EPD_SetRotate>:
 8000ed0:	4603      	mov	r3, r0
 8000ed2:	b130      	cbz	r0, 8000ee2 <EPD_SetRotate+0x12>
 8000ed4:	285a      	cmp	r0, #90	@ 0x5a
 8000ed6:	d004      	beq.n	8000ee2 <EPD_SetRotate+0x12>
 8000ed8:	28b4      	cmp	r0, #180	@ 0xb4
 8000eda:	d002      	beq.n	8000ee2 <EPD_SetRotate+0x12>
 8000edc:	f5b0 7f87 	cmp.w	r0, #270	@ 0x10e
 8000ee0:	d101      	bne.n	8000ee6 <EPD_SetRotate+0x16>
 8000ee2:	4a01      	ldr	r2, [pc, #4]	@ (8000ee8 <EPD_SetRotate+0x18>)
 8000ee4:	81d3      	strh	r3, [r2, #14]
 8000ee6:	4770      	bx	lr
 8000ee8:	20000294 	.word	0x20000294

08000eec <EPD_SetPixel>:
 8000eec:	4b58      	ldr	r3, [pc, #352]	@ (8001050 <EPD_SetPixel+0x164>)
 8000eee:	889b      	ldrh	r3, [r3, #4]
 8000ef0:	4283      	cmp	r3, r0
 8000ef2:	f0c0 80ab 	bcc.w	800104c <EPD_SetPixel+0x160>
 8000ef6:	4b56      	ldr	r3, [pc, #344]	@ (8001050 <EPD_SetPixel+0x164>)
 8000ef8:	88db      	ldrh	r3, [r3, #6]
 8000efa:	428b      	cmp	r3, r1
 8000efc:	f0c0 80a6 	bcc.w	800104c <EPD_SetPixel+0x160>
 8000f00:	b410      	push	{r4}
 8000f02:	4b53      	ldr	r3, [pc, #332]	@ (8001050 <EPD_SetPixel+0x164>)
 8000f04:	89db      	ldrh	r3, [r3, #14]
 8000f06:	2bb4      	cmp	r3, #180	@ 0xb4
 8000f08:	d016      	beq.n	8000f38 <EPD_SetPixel+0x4c>
 8000f0a:	d80a      	bhi.n	8000f22 <EPD_SetPixel+0x36>
 8000f0c:	b1fb      	cbz	r3, 8000f4e <EPD_SetPixel+0x62>
 8000f0e:	2b5a      	cmp	r3, #90	@ 0x5a
 8000f10:	d13b      	bne.n	8000f8a <EPD_SetPixel+0x9e>
 8000f12:	4b4f      	ldr	r3, [pc, #316]	@ (8001050 <EPD_SetPixel+0x164>)
 8000f14:	891b      	ldrh	r3, [r3, #8]
 8000f16:	1a5b      	subs	r3, r3, r1
 8000f18:	b29b      	uxth	r3, r3
 8000f1a:	3b01      	subs	r3, #1
 8000f1c:	4601      	mov	r1, r0
 8000f1e:	b298      	uxth	r0, r3
 8000f20:	e015      	b.n	8000f4e <EPD_SetPixel+0x62>
 8000f22:	f5b3 7f87 	cmp.w	r3, #270	@ 0x10e
 8000f26:	d130      	bne.n	8000f8a <EPD_SetPixel+0x9e>
 8000f28:	4b49      	ldr	r3, [pc, #292]	@ (8001050 <EPD_SetPixel+0x164>)
 8000f2a:	895b      	ldrh	r3, [r3, #10]
 8000f2c:	1a1b      	subs	r3, r3, r0
 8000f2e:	b29b      	uxth	r3, r3
 8000f30:	3b01      	subs	r3, #1
 8000f32:	4608      	mov	r0, r1
 8000f34:	b299      	uxth	r1, r3
 8000f36:	e00a      	b.n	8000f4e <EPD_SetPixel+0x62>
 8000f38:	4c45      	ldr	r4, [pc, #276]	@ (8001050 <EPD_SetPixel+0x164>)
 8000f3a:	8923      	ldrh	r3, [r4, #8]
 8000f3c:	1a1b      	subs	r3, r3, r0
 8000f3e:	b29b      	uxth	r3, r3
 8000f40:	3b01      	subs	r3, #1
 8000f42:	b298      	uxth	r0, r3
 8000f44:	8963      	ldrh	r3, [r4, #10]
 8000f46:	1a5b      	subs	r3, r3, r1
 8000f48:	b29b      	uxth	r3, r3
 8000f4a:	3b01      	subs	r3, #1
 8000f4c:	b299      	uxth	r1, r3
 8000f4e:	4b40      	ldr	r3, [pc, #256]	@ (8001050 <EPD_SetPixel+0x164>)
 8000f50:	8a1b      	ldrh	r3, [r3, #16]
 8000f52:	2b03      	cmp	r3, #3
 8000f54:	d819      	bhi.n	8000f8a <EPD_SetPixel+0x9e>
 8000f56:	e8df f003 	tbb	[pc, r3]
 8000f5a:	0208      	.short	0x0208
 8000f5c:	221b      	.short	0x221b
 8000f5e:	4b3c      	ldr	r3, [pc, #240]	@ (8001050 <EPD_SetPixel+0x164>)
 8000f60:	891b      	ldrh	r3, [r3, #8]
 8000f62:	1a1b      	subs	r3, r3, r0
 8000f64:	b29b      	uxth	r3, r3
 8000f66:	3b01      	subs	r3, #1
 8000f68:	b298      	uxth	r0, r3
 8000f6a:	4b39      	ldr	r3, [pc, #228]	@ (8001050 <EPD_SetPixel+0x164>)
 8000f6c:	891b      	ldrh	r3, [r3, #8]
 8000f6e:	4283      	cmp	r3, r0
 8000f70:	d30b      	bcc.n	8000f8a <EPD_SetPixel+0x9e>
 8000f72:	4b37      	ldr	r3, [pc, #220]	@ (8001050 <EPD_SetPixel+0x164>)
 8000f74:	895b      	ldrh	r3, [r3, #10]
 8000f76:	428b      	cmp	r3, r1
 8000f78:	d307      	bcc.n	8000f8a <EPD_SetPixel+0x9e>
 8000f7a:	4b35      	ldr	r3, [pc, #212]	@ (8001050 <EPD_SetPixel+0x164>)
 8000f7c:	8adb      	ldrh	r3, [r3, #22]
 8000f7e:	2b02      	cmp	r3, #2
 8000f80:	d019      	beq.n	8000fb6 <EPD_SetPixel+0xca>
 8000f82:	2b04      	cmp	r3, #4
 8000f84:	d030      	beq.n	8000fe8 <EPD_SetPixel+0xfc>
 8000f86:	2b07      	cmp	r3, #7
 8000f88:	d048      	beq.n	800101c <EPD_SetPixel+0x130>
 8000f8a:	f85d 4b04 	ldr.w	r4, [sp], #4
 8000f8e:	4770      	bx	lr
 8000f90:	4b2f      	ldr	r3, [pc, #188]	@ (8001050 <EPD_SetPixel+0x164>)
 8000f92:	895b      	ldrh	r3, [r3, #10]
 8000f94:	1a5b      	subs	r3, r3, r1
 8000f96:	b29b      	uxth	r3, r3
 8000f98:	3b01      	subs	r3, #1
 8000f9a:	b299      	uxth	r1, r3
 8000f9c:	e7e5      	b.n	8000f6a <EPD_SetPixel+0x7e>
 8000f9e:	4c2c      	ldr	r4, [pc, #176]	@ (8001050 <EPD_SetPixel+0x164>)
 8000fa0:	8923      	ldrh	r3, [r4, #8]
 8000fa2:	1a1b      	subs	r3, r3, r0
 8000fa4:	b29b      	uxth	r3, r3
 8000fa6:	3b01      	subs	r3, #1
 8000fa8:	b298      	uxth	r0, r3
 8000faa:	8963      	ldrh	r3, [r4, #10]
 8000fac:	1a5b      	subs	r3, r3, r1
 8000fae:	b29b      	uxth	r3, r3
 8000fb0:	3b01      	subs	r3, #1
 8000fb2:	b299      	uxth	r1, r3
 8000fb4:	e7d9      	b.n	8000f6a <EPD_SetPixel+0x7e>
 8000fb6:	f3c0 03cf 	ubfx	r3, r0, #3, #16
 8000fba:	4c25      	ldr	r4, [pc, #148]	@ (8001050 <EPD_SetPixel+0x164>)
 8000fbc:	f8b4 c012 	ldrh.w	ip, [r4, #18]
 8000fc0:	fb0c 3301 	mla	r3, ip, r1, r3
 8000fc4:	6824      	ldr	r4, [r4, #0]
 8000fc6:	5ce1      	ldrb	r1, [r4, r3]
 8000fc8:	b93a      	cbnz	r2, 8000fda <EPD_SetPixel+0xee>
 8000fca:	f000 0007 	and.w	r0, r0, #7
 8000fce:	f06f 0280 	mvn.w	r2, #128	@ 0x80
 8000fd2:	4102      	asrs	r2, r0
 8000fd4:	4011      	ands	r1, r2
 8000fd6:	54e1      	strb	r1, [r4, r3]
 8000fd8:	e7d7      	b.n	8000f8a <EPD_SetPixel+0x9e>
 8000fda:	f000 0007 	and.w	r0, r0, #7
 8000fde:	2280      	movs	r2, #128	@ 0x80
 8000fe0:	4102      	asrs	r2, r0
 8000fe2:	4311      	orrs	r1, r2
 8000fe4:	54e1      	strb	r1, [r4, r3]
 8000fe6:	e7d0      	b.n	8000f8a <EPD_SetPixel+0x9e>
 8000fe8:	f3c0 048f 	ubfx	r4, r0, #2, #16
 8000fec:	4b18      	ldr	r3, [pc, #96]	@ (8001050 <EPD_SetPixel+0x164>)
 8000fee:	f8b3 c012 	ldrh.w	ip, [r3, #18]
 8000ff2:	fb0c 4101 	mla	r1, ip, r1, r4
 8000ff6:	f002 0203 	and.w	r2, r2, #3
 8000ffa:	681c      	ldr	r4, [r3, #0]
 8000ffc:	f814 c001 	ldrb.w	ip, [r4, r1]
 8001000:	f000 0003 	and.w	r0, r0, #3
 8001004:	0040      	lsls	r0, r0, #1
 8001006:	f06f 03c0 	mvn.w	r3, #192	@ 0xc0
 800100a:	4103      	asrs	r3, r0
 800100c:	ea03 030c 	and.w	r3, r3, ip
 8001010:	b25b      	sxtb	r3, r3
 8001012:	0192      	lsls	r2, r2, #6
 8001014:	4102      	asrs	r2, r0
 8001016:	4313      	orrs	r3, r2
 8001018:	5463      	strb	r3, [r4, r1]
 800101a:	e7b6      	b.n	8000f8a <EPD_SetPixel+0x9e>
 800101c:	f3c0 044f 	ubfx	r4, r0, #1, #16
 8001020:	4b0b      	ldr	r3, [pc, #44]	@ (8001050 <EPD_SetPixel+0x164>)
 8001022:	f8b3 c012 	ldrh.w	ip, [r3, #18]
 8001026:	fb0c 4101 	mla	r1, ip, r1, r4
 800102a:	681c      	ldr	r4, [r3, #0]
 800102c:	f814 c001 	ldrb.w	ip, [r4, r1]
 8001030:	f000 0001 	and.w	r0, r0, #1
 8001034:	0080      	lsls	r0, r0, #2
 8001036:	f06f 03f0 	mvn.w	r3, #240	@ 0xf0
 800103a:	4103      	asrs	r3, r0
 800103c:	ea03 030c 	and.w	r3, r3, ip
 8001040:	b25b      	sxtb	r3, r3
 8001042:	0112      	lsls	r2, r2, #4
 8001044:	4102      	asrs	r2, r0
 8001046:	4313      	orrs	r3, r2
 8001048:	5463      	strb	r3, [r4, r1]
 800104a:	e79e      	b.n	8000f8a <EPD_SetPixel+0x9e>
 800104c:	4770      	bx	lr
 800104e:	bf00      	nop
 8001050:	20000294 	.word	0x20000294

08001054 <EPD_Clear>:
 8001054:	4b2f      	ldr	r3, [pc, #188]	@ (8001114 <EPD_Clear+0xc0>)
 8001056:	8adb      	ldrh	r3, [r3, #22]
 8001058:	2b02      	cmp	r3, #2
 800105a:	d01a      	beq.n	8001092 <EPD_Clear+0x3e>
 800105c:	b510      	push	{r4, lr}
 800105e:	2b04      	cmp	r3, #4
 8001060:	d03a      	beq.n	80010d8 <EPD_Clear+0x84>
 8001062:	2b07      	cmp	r3, #7
 8001064:	d053      	beq.n	800110e <EPD_Clear+0xba>
 8001066:	bd10      	pop	{r4, pc}
 8001068:	fb02 320c 	mla	r2, r2, ip, r3
 800106c:	4929      	ldr	r1, [pc, #164]	@ (8001114 <EPD_Clear+0xc0>)
 800106e:	6809      	ldr	r1, [r1, #0]
 8001070:	5488      	strb	r0, [r1, r2]
 8001072:	3301      	adds	r3, #1
 8001074:	b29b      	uxth	r3, r3
 8001076:	4a27      	ldr	r2, [pc, #156]	@ (8001114 <EPD_Clear+0xc0>)
 8001078:	8a52      	ldrh	r2, [r2, #18]
 800107a:	429a      	cmp	r2, r3
 800107c:	d8f4      	bhi.n	8001068 <EPD_Clear+0x14>
 800107e:	f10c 0c01 	add.w	ip, ip, #1
 8001082:	fa1f fc8c 	uxth.w	ip, ip
 8001086:	4b23      	ldr	r3, [pc, #140]	@ (8001114 <EPD_Clear+0xc0>)
 8001088:	8a9b      	ldrh	r3, [r3, #20]
 800108a:	4563      	cmp	r3, ip
 800108c:	d904      	bls.n	8001098 <EPD_Clear+0x44>
 800108e:	2300      	movs	r3, #0
 8001090:	e7f1      	b.n	8001076 <EPD_Clear+0x22>
 8001092:	f04f 0c00 	mov.w	ip, #0
 8001096:	e7f6      	b.n	8001086 <EPD_Clear+0x32>
 8001098:	4770      	bx	lr
 800109a:	fb03 1c0e 	mla	ip, r3, lr, r1
 800109e:	b242      	sxtb	r2, r0
 80010a0:	0113      	lsls	r3, r2, #4
 80010a2:	ea43 1382 	orr.w	r3, r3, r2, lsl #6
 80010a6:	b25b      	sxtb	r3, r3
 80010a8:	ea43 0382 	orr.w	r3, r3, r2, lsl #2
 80010ac:	b25b      	sxtb	r3, r3
 80010ae:	4c19      	ldr	r4, [pc, #100]	@ (8001114 <EPD_Clear+0xc0>)
 80010b0:	6824      	ldr	r4, [r4, #0]
 80010b2:	431a      	orrs	r2, r3
 80010b4:	f804 200c 	strb.w	r2, [r4, ip]
 80010b8:	3101      	adds	r1, #1
 80010ba:	b289      	uxth	r1, r1
 80010bc:	4b15      	ldr	r3, [pc, #84]	@ (8001114 <EPD_Clear+0xc0>)
 80010be:	8a5b      	ldrh	r3, [r3, #18]
 80010c0:	428b      	cmp	r3, r1
 80010c2:	d8ea      	bhi.n	800109a <EPD_Clear+0x46>
 80010c4:	f10e 0e01 	add.w	lr, lr, #1
 80010c8:	fa1f fe8e 	uxth.w	lr, lr
 80010cc:	4b11      	ldr	r3, [pc, #68]	@ (8001114 <EPD_Clear+0xc0>)
 80010ce:	8a9b      	ldrh	r3, [r3, #20]
 80010d0:	4573      	cmp	r3, lr
 80010d2:	d9c8      	bls.n	8001066 <EPD_Clear+0x12>
 80010d4:	2100      	movs	r1, #0
 80010d6:	e7f1      	b.n	80010bc <EPD_Clear+0x68>
 80010d8:	f04f 0e00 	mov.w	lr, #0
 80010dc:	e7f6      	b.n	80010cc <EPD_Clear+0x78>
 80010de:	f10c 0c01 	add.w	ip, ip, #1
 80010e2:	fa1f fc8c 	uxth.w	ip, ip
 80010e6:	4b0b      	ldr	r3, [pc, #44]	@ (8001114 <EPD_Clear+0xc0>)
 80010e8:	8a9b      	ldrh	r3, [r3, #20]
 80010ea:	4563      	cmp	r3, ip
 80010ec:	d9bb      	bls.n	8001066 <EPD_Clear+0x12>
 80010ee:	2200      	movs	r2, #0
 80010f0:	4b08      	ldr	r3, [pc, #32]	@ (8001114 <EPD_Clear+0xc0>)
 80010f2:	8a5b      	ldrh	r3, [r3, #18]
 80010f4:	4293      	cmp	r3, r2
 80010f6:	d9f2      	bls.n	80010de <EPD_Clear+0x8a>
 80010f8:	fb03 210c 	mla	r1, r3, ip, r2
 80010fc:	b243      	sxtb	r3, r0
 80010fe:	4c05      	ldr	r4, [pc, #20]	@ (8001114 <EPD_Clear+0xc0>)
 8001100:	6824      	ldr	r4, [r4, #0]
 8001102:	ea43 1303 	orr.w	r3, r3, r3, lsl #4
 8001106:	5463      	strb	r3, [r4, r1]
 8001108:	3201      	adds	r2, #1
 800110a:	b292      	uxth	r2, r2
 800110c:	e7f0      	b.n	80010f0 <EPD_Clear+0x9c>
 800110e:	f04f 0c00 	mov.w	ip, #0
 8001112:	e7e8      	b.n	80010e6 <EPD_Clear+0x92>
 8001114:	20000294 	.word	0x20000294

08001118 <EPD_DrawPoint>:
 8001118:	e92d 4ff8 	stmdb	sp!, {r3, r4, r5, r6, r7, r8, r9, sl, fp, lr}
 800111c:	461d      	mov	r5, r3
 800111e:	4b2d      	ldr	r3, [pc, #180]	@ (80011d4 <EPD_DrawPoint+0xbc>)
 8001120:	889b      	ldrh	r3, [r3, #4]
 8001122:	4283      	cmp	r3, r0
 8001124:	d353      	bcc.n	80011ce <EPD_DrawPoint+0xb6>
 8001126:	4606      	mov	r6, r0
 8001128:	460f      	mov	r7, r1
 800112a:	4690      	mov	r8, r2
 800112c:	4b29      	ldr	r3, [pc, #164]	@ (80011d4 <EPD_DrawPoint+0xbc>)
 800112e:	88db      	ldrh	r3, [r3, #6]
 8001130:	428b      	cmp	r3, r1
 8001132:	d34c      	bcc.n	80011ce <EPD_DrawPoint+0xb6>
 8001134:	f89d 3028 	ldrb.w	r3, [sp, #40]	@ 0x28
 8001138:	2b01      	cmp	r3, #1
 800113a:	d029      	beq.n	8001190 <EPD_DrawPoint+0x78>
 800113c:	f04f 0900 	mov.w	r9, #0
 8001140:	e040      	b.n	80011c4 <EPD_DrawPoint+0xac>
 8001142:	3401      	adds	r4, #1
 8001144:	b224      	sxth	r4, r4
 8001146:	46a2      	mov	sl, r4
 8001148:	ea4f 0945 	mov.w	r9, r5, lsl #1
 800114c:	f109 39ff 	add.w	r9, r9, #4294967295
 8001150:	454c      	cmp	r4, r9
 8001152:	da3c      	bge.n	80011ce <EPD_DrawPoint+0xb6>
 8001154:	2300      	movs	r3, #0
 8001156:	454b      	cmp	r3, r9
 8001158:	daf3      	bge.n	8001142 <EPD_DrawPoint+0x2a>
 800115a:	eb06 020a 	add.w	r2, r6, sl
 800115e:	1b52      	subs	r2, r2, r5
 8001160:	2a00      	cmp	r2, #0
 8001162:	dbee      	blt.n	8001142 <EPD_DrawPoint+0x2a>
 8001164:	18fa      	adds	r2, r7, r3
 8001166:	1b52      	subs	r2, r2, r5
 8001168:	2a00      	cmp	r2, #0
 800116a:	dbea      	blt.n	8001142 <EPD_DrawPoint+0x2a>
 800116c:	1930      	adds	r0, r6, r4
 800116e:	b280      	uxth	r0, r0
 8001170:	fa1f fb83 	uxth.w	fp, r3
 8001174:	eb0b 0107 	add.w	r1, fp, r7
 8001178:	b289      	uxth	r1, r1
 800117a:	1b49      	subs	r1, r1, r5
 800117c:	1b40      	subs	r0, r0, r5
 800117e:	4642      	mov	r2, r8
 8001180:	b289      	uxth	r1, r1
 8001182:	b280      	uxth	r0, r0
 8001184:	f7ff feb2 	bl	8000eec <EPD_SetPixel>
 8001188:	f10b 0301 	add.w	r3, fp, #1
 800118c:	b21b      	sxth	r3, r3
 800118e:	e7e2      	b.n	8001156 <EPD_DrawPoint+0x3e>
 8001190:	2400      	movs	r4, #0
 8001192:	e7d8      	b.n	8001146 <EPD_DrawPoint+0x2e>
 8001194:	eb06 0009 	add.w	r0, r6, r9
 8001198:	b280      	uxth	r0, r0
 800119a:	fa1f f48c 	uxth.w	r4, ip
 800119e:	19e1      	adds	r1, r4, r7
 80011a0:	b289      	uxth	r1, r1
 80011a2:	3901      	subs	r1, #1
 80011a4:	3801      	subs	r0, #1
 80011a6:	4642      	mov	r2, r8
 80011a8:	b289      	uxth	r1, r1
 80011aa:	b280      	uxth	r0, r0
 80011ac:	f7ff fe9e 	bl	8000eec <EPD_SetPixel>
 80011b0:	f104 0c01 	add.w	ip, r4, #1
 80011b4:	fa0f fc8c 	sxth.w	ip, ip
 80011b8:	45ac      	cmp	ip, r5
 80011ba:	dbeb      	blt.n	8001194 <EPD_DrawPoint+0x7c>
 80011bc:	f109 0901 	add.w	r9, r9, #1
 80011c0:	fa0f f989 	sxth.w	r9, r9
 80011c4:	45a9      	cmp	r9, r5
 80011c6:	da02      	bge.n	80011ce <EPD_DrawPoint+0xb6>
 80011c8:	f04f 0c00 	mov.w	ip, #0
 80011cc:	e7f4      	b.n	80011b8 <EPD_DrawPoint+0xa0>
 80011ce:	e8bd 8ff8 	ldmia.w	sp!, {r3, r4, r5, r6, r7, r8, r9, sl, fp, pc}
 80011d2:	bf00      	nop
 80011d4:	20000294 	.word	0x20000294

080011d8 <EPD_DrawLine>:
 80011d8:	e92d 4ff0 	stmdb	sp!, {r4, r5, r6, r7, r8, r9, sl, fp, lr}
 80011dc:	b08b      	sub	sp, #44	@ 0x2c
 80011de:	4605      	mov	r5, r0
 80011e0:	460e      	mov	r6, r1
 80011e2:	9206      	str	r2, [sp, #24]
 80011e4:	461c      	mov	r4, r3
 80011e6:	9305      	str	r3, [sp, #20]
 80011e8:	f8bd 1050 	ldrh.w	r1, [sp, #80]	@ 0x50
 80011ec:	9103      	str	r1, [sp, #12]
 80011ee:	f89d b054 	ldrb.w	fp, [sp, #84]	@ 0x54
 80011f2:	f89d a058 	ldrb.w	sl, [sp, #88]	@ 0x58
 80011f6:	4b37      	ldr	r3, [pc, #220]	@ (80012d4 <EPD_DrawLine+0xfc>)
 80011f8:	889b      	ldrh	r3, [r3, #4]
 80011fa:	4283      	cmp	r3, r0
 80011fc:	d366      	bcc.n	80012cc <EPD_DrawLine+0xf4>
 80011fe:	4610      	mov	r0, r2
 8001200:	4a34      	ldr	r2, [pc, #208]	@ (80012d4 <EPD_DrawLine+0xfc>)
 8001202:	88d2      	ldrh	r2, [r2, #6]
 8001204:	42b2      	cmp	r2, r6
 8001206:	d361      	bcc.n	80012cc <EPD_DrawLine+0xf4>
 8001208:	4283      	cmp	r3, r0
 800120a:	d35f      	bcc.n	80012cc <EPD_DrawLine+0xf4>
 800120c:	42a2      	cmp	r2, r4
 800120e:	d35d      	bcc.n	80012cc <EPD_DrawLine+0xf4>
 8001210:	eba0 0905 	sub.w	r9, r0, r5
 8001214:	f1b9 0f00 	cmp.w	r9, #0
 8001218:	bfb8      	it	lt
 800121a:	f1c9 0900 	rsblt	r9, r9, #0
 800121e:	1ba3      	subs	r3, r4, r6
 8001220:	ea83 71e3 	eor.w	r1, r3, r3, asr #31
 8001224:	eba1 71e3 	sub.w	r1, r1, r3, asr #31
 8001228:	9107      	str	r1, [sp, #28]
 800122a:	424b      	negs	r3, r1
 800122c:	9304      	str	r3, [sp, #16]
 800122e:	4285      	cmp	r5, r0
 8001230:	d20b      	bcs.n	800124a <EPD_DrawLine+0x72>
 8001232:	2301      	movs	r3, #1
 8001234:	9308      	str	r3, [sp, #32]
 8001236:	9b05      	ldr	r3, [sp, #20]
 8001238:	429e      	cmp	r6, r3
 800123a:	d20a      	bcs.n	8001252 <EPD_DrawLine+0x7a>
 800123c:	2301      	movs	r3, #1
 800123e:	9309      	str	r3, [sp, #36]	@ 0x24
 8001240:	9b07      	ldr	r3, [sp, #28]
 8001242:	eba9 0803 	sub.w	r8, r9, r3
 8001246:	2400      	movs	r4, #0
 8001248:	e026      	b.n	8001298 <EPD_DrawLine+0xc0>
 800124a:	f04f 33ff 	mov.w	r3, #4294967295
 800124e:	9308      	str	r3, [sp, #32]
 8001250:	e7f1      	b.n	8001236 <EPD_DrawLine+0x5e>
 8001252:	f04f 33ff 	mov.w	r3, #4294967295
 8001256:	9309      	str	r3, [sp, #36]	@ 0x24
 8001258:	e7f2      	b.n	8001240 <EPD_DrawLine+0x68>
 800125a:	2301      	movs	r3, #1
 800125c:	9300      	str	r3, [sp, #0]
 800125e:	465b      	mov	r3, fp
 8001260:	9a03      	ldr	r2, [sp, #12]
 8001262:	4631      	mov	r1, r6
 8001264:	4628      	mov	r0, r5
 8001266:	f7ff ff57 	bl	8001118 <EPD_DrawPoint>
 800126a:	9b04      	ldr	r3, [sp, #16]
 800126c:	ebb3 0f48 	cmp.w	r3, r8, lsl #1
 8001270:	dc08      	bgt.n	8001284 <EPD_DrawLine+0xac>
 8001272:	9b06      	ldr	r3, [sp, #24]
 8001274:	429d      	cmp	r5, r3
 8001276:	d029      	beq.n	80012cc <EPD_DrawLine+0xf4>
 8001278:	9b07      	ldr	r3, [sp, #28]
 800127a:	eba8 0803 	sub.w	r8, r8, r3
 800127e:	9b08      	ldr	r3, [sp, #32]
 8001280:	441d      	add	r5, r3
 8001282:	b2ad      	uxth	r5, r5
 8001284:	ebb9 0f48 	cmp.w	r9, r8, lsl #1
 8001288:	db06      	blt.n	8001298 <EPD_DrawLine+0xc0>
 800128a:	9b05      	ldr	r3, [sp, #20]
 800128c:	429e      	cmp	r6, r3
 800128e:	d01d      	beq.n	80012cc <EPD_DrawLine+0xf4>
 8001290:	44c8      	add	r8, r9
 8001292:	9b09      	ldr	r3, [sp, #36]	@ 0x24
 8001294:	441e      	add	r6, r3
 8001296:	b2b6      	uxth	r6, r6
 8001298:	3401      	adds	r4, #1
 800129a:	b2e4      	uxtb	r4, r4
 800129c:	f1ba 0f01 	cmp.w	sl, #1
 80012a0:	d1db      	bne.n	800125a <EPD_DrawLine+0x82>
 80012a2:	4b0d      	ldr	r3, [pc, #52]	@ (80012d8 <EPD_DrawLine+0x100>)
 80012a4:	fba3 2304 	umull	r2, r3, r3, r4
 80012a8:	f023 0701 	bic.w	r7, r3, #1
 80012ac:	eb07 0753 	add.w	r7, r7, r3, lsr #1
 80012b0:	1be7      	subs	r7, r4, r7
 80012b2:	f017 07ff 	ands.w	r7, r7, #255	@ 0xff
 80012b6:	d1d0      	bne.n	800125a <EPD_DrawLine+0x82>
 80012b8:	2301      	movs	r3, #1
 80012ba:	9300      	str	r3, [sp, #0]
 80012bc:	465b      	mov	r3, fp
 80012be:	22ff      	movs	r2, #255	@ 0xff
 80012c0:	4631      	mov	r1, r6
 80012c2:	4628      	mov	r0, r5
 80012c4:	f7ff ff28 	bl	8001118 <EPD_DrawPoint>
 80012c8:	463c      	mov	r4, r7
 80012ca:	e7ce      	b.n	800126a <EPD_DrawLine+0x92>
 80012cc:	b00b      	add	sp, #44	@ 0x2c
 80012ce:	e8bd 8ff0 	ldmia.w	sp!, {r4, r5, r6, r7, r8, r9, sl, fp, pc}
 80012d2:	bf00      	nop
 80012d4:	20000294 	.word	0x20000294
 80012d8:	aaaaaaab 	.word	0xaaaaaaab

080012dc <EPD_DrawChar>:
 80012dc:	e92d 4ff8 	stmdb	sp!, {r3, r4, r5, r6, r7, r8, r9, sl, fp, lr}
 80012e0:	461f      	mov	r7, r3
 80012e2:	f8bd b028 	ldrh.w	fp, [sp, #40]	@ 0x28
 80012e6:	f8bd 802c 	ldrh.w	r8, [sp, #44]	@ 0x2c
 80012ea:	4b30      	ldr	r3, [pc, #192]	@ (80013ac <EPD_DrawChar+0xd0>)
 80012ec:	889b      	ldrh	r3, [r3, #4]
 80012ee:	4283      	cmp	r3, r0
 80012f0:	d359      	bcc.n	80013a6 <EPD_DrawChar+0xca>
 80012f2:	4681      	mov	r9, r0
 80012f4:	468a      	mov	sl, r1
 80012f6:	4b2d      	ldr	r3, [pc, #180]	@ (80013ac <EPD_DrawChar+0xd0>)
 80012f8:	88db      	ldrh	r3, [r3, #6]
 80012fa:	428b      	cmp	r3, r1
 80012fc:	d353      	bcc.n	80013a6 <EPD_DrawChar+0xca>
 80012fe:	3a20      	subs	r2, #32
 8001300:	88fb      	ldrh	r3, [r7, #6]
 8001302:	fb02 f303 	mul.w	r3, r2, r3
 8001306:	88b9      	ldrh	r1, [r7, #4]
 8001308:	f011 0207 	ands.w	r2, r1, #7
 800130c:	bf18      	it	ne
 800130e:	2201      	movne	r2, #1
 8001310:	eb02 02d1 	add.w	r2, r2, r1, lsr #3
 8001314:	683d      	ldr	r5, [r7, #0]
 8001316:	fb02 5503 	mla	r5, r2, r3, r5
 800131a:	2600      	movs	r6, #0
 800131c:	e03e      	b.n	800139c <EPD_DrawChar+0xc0>
 800131e:	782a      	ldrb	r2, [r5, #0]
 8001320:	f004 0107 	and.w	r1, r4, #7
 8001324:	2380      	movs	r3, #128	@ 0x80
 8001326:	410b      	asrs	r3, r1
 8001328:	421a      	tst	r2, r3
 800132a:	d012      	beq.n	8001352 <EPD_DrawChar+0x76>
 800132c:	eb06 010a 	add.w	r1, r6, sl
 8001330:	eb04 0009 	add.w	r0, r4, r9
 8001334:	465a      	mov	r2, fp
 8001336:	b289      	uxth	r1, r1
 8001338:	b280      	uxth	r0, r0
 800133a:	f7ff fdd7 	bl	8000eec <EPD_SetPixel>
 800133e:	e008      	b.n	8001352 <EPD_DrawChar+0x76>
 8001340:	eb06 010a 	add.w	r1, r6, sl
 8001344:	eb04 0009 	add.w	r0, r4, r9
 8001348:	4642      	mov	r2, r8
 800134a:	b289      	uxth	r1, r1
 800134c:	b280      	uxth	r0, r0
 800134e:	f7ff fdcd 	bl	8000eec <EPD_SetPixel>
 8001352:	f004 0307 	and.w	r3, r4, #7
 8001356:	2b07      	cmp	r3, #7
 8001358:	d018      	beq.n	800138c <EPD_DrawChar+0xb0>
 800135a:	3401      	adds	r4, #1
 800135c:	b2a4      	uxth	r4, r4
 800135e:	88bb      	ldrh	r3, [r7, #4]
 8001360:	42a3      	cmp	r3, r4
 8001362:	d915      	bls.n	8001390 <EPD_DrawChar+0xb4>
 8001364:	f1b8 0fff 	cmp.w	r8, #255	@ 0xff
 8001368:	d0d9      	beq.n	800131e <EPD_DrawChar+0x42>
 800136a:	782a      	ldrb	r2, [r5, #0]
 800136c:	f004 0107 	and.w	r1, r4, #7
 8001370:	2380      	movs	r3, #128	@ 0x80
 8001372:	410b      	asrs	r3, r1
 8001374:	421a      	tst	r2, r3
 8001376:	d0e3      	beq.n	8001340 <EPD_DrawChar+0x64>
 8001378:	eb06 010a 	add.w	r1, r6, sl
 800137c:	eb04 0009 	add.w	r0, r4, r9
 8001380:	465a      	mov	r2, fp
 8001382:	b289      	uxth	r1, r1
 8001384:	b280      	uxth	r0, r0
 8001386:	f7ff fdb1 	bl	8000eec <EPD_SetPixel>
 800138a:	e7e2      	b.n	8001352 <EPD_DrawChar+0x76>
 800138c:	3501      	adds	r5, #1
 800138e:	e7e4      	b.n	800135a <EPD_DrawChar+0x7e>
 8001390:	f013 0f07 	tst.w	r3, #7
 8001394:	d000      	beq.n	8001398 <EPD_DrawChar+0xbc>
 8001396:	3501      	adds	r5, #1
 8001398:	3601      	adds	r6, #1
 800139a:	b2b6      	uxth	r6, r6
 800139c:	88fb      	ldrh	r3, [r7, #6]
 800139e:	42b3      	cmp	r3, r6
 80013a0:	d901      	bls.n	80013a6 <EPD_DrawChar+0xca>
 80013a2:	2400      	movs	r4, #0
 80013a4:	e7db      	b.n	800135e <EPD_DrawChar+0x82>
 80013a6:	e8bd 8ff8 	ldmia.w	sp!, {r3, r4, r5, r6, r7, r8, r9, sl, fp, pc}
 80013aa:	bf00      	nop
 80013ac:	20000294 	.word	0x20000294

080013b0 <EPD_DrawString_EN>:
 80013b0:	e92d 4ff0 	stmdb	sp!, {r4, r5, r6, r7, r8, r9, sl, fp, lr}
 80013b4:	b083      	sub	sp, #12
 80013b6:	461c      	mov	r4, r3
 80013b8:	f8bd a030 	ldrh.w	sl, [sp, #48]	@ 0x30
 80013bc:	f8bd b034 	ldrh.w	fp, [sp, #52]	@ 0x34
 80013c0:	4b19      	ldr	r3, [pc, #100]	@ (8001428 <EPD_DrawString_EN+0x78>)
 80013c2:	889b      	ldrh	r3, [r3, #4]
 80013c4:	4283      	cmp	r3, r0
 80013c6:	d32b      	bcc.n	8001420 <EPD_DrawString_EN+0x70>
 80013c8:	4680      	mov	r8, r0
 80013ca:	4689      	mov	r9, r1
 80013cc:	4616      	mov	r6, r2
 80013ce:	4b16      	ldr	r3, [pc, #88]	@ (8001428 <EPD_DrawString_EN+0x78>)
 80013d0:	88db      	ldrh	r3, [r3, #6]
 80013d2:	428b      	cmp	r3, r1
 80013d4:	d324      	bcc.n	8001420 <EPD_DrawString_EN+0x70>
 80013d6:	460f      	mov	r7, r1
 80013d8:	4605      	mov	r5, r0
 80013da:	e00c      	b.n	80013f6 <EPD_DrawString_EN+0x46>
 80013dc:	f8cd a004 	str.w	sl, [sp, #4]
 80013e0:	f8cd b000 	str.w	fp, [sp]
 80013e4:	4623      	mov	r3, r4
 80013e6:	4639      	mov	r1, r7
 80013e8:	4628      	mov	r0, r5
 80013ea:	f7ff ff77 	bl	80012dc <EPD_DrawChar>
 80013ee:	3601      	adds	r6, #1
 80013f0:	88a3      	ldrh	r3, [r4, #4]
 80013f2:	442b      	add	r3, r5
 80013f4:	b29d      	uxth	r5, r3
 80013f6:	7832      	ldrb	r2, [r6, #0]
 80013f8:	b192      	cbz	r2, 8001420 <EPD_DrawString_EN+0x70>
 80013fa:	88a3      	ldrh	r3, [r4, #4]
 80013fc:	442b      	add	r3, r5
 80013fe:	490a      	ldr	r1, [pc, #40]	@ (8001428 <EPD_DrawString_EN+0x78>)
 8001400:	8889      	ldrh	r1, [r1, #4]
 8001402:	428b      	cmp	r3, r1
 8001404:	dd03      	ble.n	800140e <EPD_DrawString_EN+0x5e>
 8001406:	88e3      	ldrh	r3, [r4, #6]
 8001408:	443b      	add	r3, r7
 800140a:	b29f      	uxth	r7, r3
 800140c:	4645      	mov	r5, r8
 800140e:	88e3      	ldrh	r3, [r4, #6]
 8001410:	443b      	add	r3, r7
 8001412:	4905      	ldr	r1, [pc, #20]	@ (8001428 <EPD_DrawString_EN+0x78>)
 8001414:	88c9      	ldrh	r1, [r1, #6]
 8001416:	428b      	cmp	r3, r1
 8001418:	dde0      	ble.n	80013dc <EPD_DrawString_EN+0x2c>
 800141a:	464f      	mov	r7, r9
 800141c:	4645      	mov	r5, r8
 800141e:	e7dd      	b.n	80013dc <EPD_DrawString_EN+0x2c>
 8001420:	b003      	add	sp, #12
 8001422:	e8bd 8ff0 	ldmia.w	sp!, {r4, r5, r6, r7, r8, r9, sl, fp, pc}
 8001426:	bf00      	nop
 8001428:	20000294 	.word	0x20000294

0800142c <EPD_DrawDate>:
 800142c:	e92d 4ff0 	stmdb	sp!, {r4, r5, r6, r7, r8, r9, sl, fp, lr}
 8001430:	b08b      	sub	sp, #44	@ 0x2c
 8001432:	4606      	mov	r6, r0
 8001434:	460f      	mov	r7, r1
 8001436:	4615      	mov	r5, r2
 8001438:	4698      	mov	r8, r3
 800143a:	f8bd a050 	ldrh.w	sl, [sp, #80]	@ 0x50
 800143e:	f8bd 9054 	ldrh.w	r9, [sp, #84]	@ 0x54
 8001442:	4a5e      	ldr	r2, [pc, #376]	@ (80015bc <EPD_DrawDate+0x190>)
 8001444:	ac07      	add	r4, sp, #28
 8001446:	ca07      	ldmia	r2, {r0, r1, r2}
 8001448:	c403      	stmia	r4!, {r0, r1}
 800144a:	8022      	strh	r2, [r4, #0]
 800144c:	889c      	ldrh	r4, [r3, #4]
 800144e:	9503      	str	r5, [sp, #12]
 8001450:	78ea      	ldrb	r2, [r5, #3]
 8001452:	4d5b      	ldr	r5, [pc, #364]	@ (80015c0 <EPD_DrawDate+0x194>)
 8001454:	fba5 1202 	umull	r1, r2, r5, r2
 8001458:	a90a      	add	r1, sp, #40	@ 0x28
 800145a:	eb01 02d2 	add.w	r2, r1, r2, lsr #3
 800145e:	f812 2c0c 	ldrb.w	r2, [r2, #-12]
 8001462:	f8cd a004 	str.w	sl, [sp, #4]
 8001466:	f8cd 9000 	str.w	r9, [sp]
 800146a:	4639      	mov	r1, r7
 800146c:	4630      	mov	r0, r6
 800146e:	f7ff ff35 	bl	80012dc <EPD_DrawChar>
 8001472:	eb04 0b06 	add.w	fp, r4, r6
 8001476:	fa1f fb8b 	uxth.w	fp, fp
 800147a:	9a03      	ldr	r2, [sp, #12]
 800147c:	78d3      	ldrb	r3, [r2, #3]
 800147e:	fba5 1203 	umull	r1, r2, r5, r3
 8001482:	08d2      	lsrs	r2, r2, #3
 8001484:	eb02 0282 	add.w	r2, r2, r2, lsl #2
 8001488:	eba3 0342 	sub.w	r3, r3, r2, lsl #1
 800148c:	a90a      	add	r1, sp, #40	@ 0x28
 800148e:	fa51 f383 	uxtab	r3, r1, r3
 8001492:	f813 2c0c 	ldrb.w	r2, [r3, #-12]
 8001496:	f8cd a004 	str.w	sl, [sp, #4]
 800149a:	f8cd 9000 	str.w	r9, [sp]
 800149e:	4643      	mov	r3, r8
 80014a0:	4639      	mov	r1, r7
 80014a2:	4658      	mov	r0, fp
 80014a4:	f7ff ff1a 	bl	80012dc <EPD_DrawChar>
 80014a8:	08a3      	lsrs	r3, r4, #2
 80014aa:	9305      	str	r3, [sp, #20]
 80014ac:	eb0b 0094 	add.w	r0, fp, r4, lsr #2
 80014b0:	ea4f 0b54 	mov.w	fp, r4, lsr #1
 80014b4:	fa1b f080 	uxtah	r0, fp, r0
 80014b8:	f8cd a004 	str.w	sl, [sp, #4]
 80014bc:	f8cd 9000 	str.w	r9, [sp]
 80014c0:	4643      	mov	r3, r8
 80014c2:	222e      	movs	r2, #46	@ 0x2e
 80014c4:	4639      	mov	r1, r7
 80014c6:	b280      	uxth	r0, r0
 80014c8:	f7ff ff08 	bl	80012dc <EPD_DrawChar>
 80014cc:	eb06 0044 	add.w	r0, r6, r4, lsl #1
 80014d0:	9a03      	ldr	r2, [sp, #12]
 80014d2:	7893      	ldrb	r3, [r2, #2]
 80014d4:	fba5 2303 	umull	r2, r3, r5, r3
 80014d8:	f10d 0c28 	add.w	ip, sp, #40	@ 0x28
 80014dc:	eb0c 03d3 	add.w	r3, ip, r3, lsr #3
 80014e0:	f813 2c0c 	ldrb.w	r2, [r3, #-12]
 80014e4:	fa1b f080 	uxtah	r0, fp, r0
 80014e8:	f8cd a004 	str.w	sl, [sp, #4]
 80014ec:	f8cd 9000 	str.w	r9, [sp]
 80014f0:	4643      	mov	r3, r8
 80014f2:	4639      	mov	r1, r7
 80014f4:	b280      	uxth	r0, r0
 80014f6:	f7ff fef1 	bl	80012dc <EPD_DrawChar>
 80014fa:	eb04 0344 	add.w	r3, r4, r4, lsl #1
 80014fe:	9304      	str	r3, [sp, #16]
 8001500:	18f0      	adds	r0, r6, r3
 8001502:	9a03      	ldr	r2, [sp, #12]
 8001504:	7893      	ldrb	r3, [r2, #2]
 8001506:	fba5 1203 	umull	r1, r2, r5, r3
 800150a:	08d2      	lsrs	r2, r2, #3
 800150c:	eb02 0282 	add.w	r2, r2, r2, lsl #2
 8001510:	eba3 0342 	sub.w	r3, r3, r2, lsl #1
 8001514:	f10d 0c28 	add.w	ip, sp, #40	@ 0x28
 8001518:	fa5c f383 	uxtab	r3, ip, r3
 800151c:	f813 2c0c 	ldrb.w	r2, [r3, #-12]
 8001520:	fa1b f080 	uxtah	r0, fp, r0
 8001524:	f8cd a004 	str.w	sl, [sp, #4]
 8001528:	f8cd 9000 	str.w	r9, [sp]
 800152c:	4643      	mov	r3, r8
 800152e:	4639      	mov	r1, r7
 8001530:	b280      	uxth	r0, r0
 8001532:	f7ff fed3 	bl	80012dc <EPD_DrawChar>
 8001536:	eb06 0084 	add.w	r0, r6, r4, lsl #2
 800153a:	fa1b f080 	uxtah	r0, fp, r0
 800153e:	b280      	uxth	r0, r0
 8001540:	9905      	ldr	r1, [sp, #20]
 8001542:	1a40      	subs	r0, r0, r1
 8001544:	f8cd a004 	str.w	sl, [sp, #4]
 8001548:	f8cd 9000 	str.w	r9, [sp]
 800154c:	4643      	mov	r3, r8
 800154e:	222e      	movs	r2, #46	@ 0x2e
 8001550:	4639      	mov	r1, r7
 8001552:	b280      	uxth	r0, r0
 8001554:	f7ff fec2 	bl	80012dc <EPD_DrawChar>
 8001558:	9a03      	ldr	r2, [sp, #12]
 800155a:	8813      	ldrh	r3, [r2, #0]
 800155c:	fba5 2303 	umull	r2, r3, r5, r3
 8001560:	a90a      	add	r1, sp, #40	@ 0x28
 8001562:	eb01 03d3 	add.w	r3, r1, r3, lsr #3
 8001566:	f813 2c0c 	ldrb.w	r2, [r3, #-12]
 800156a:	eb04 0484 	add.w	r4, r4, r4, lsl #2
 800156e:	1930      	adds	r0, r6, r4
 8001570:	f8cd a004 	str.w	sl, [sp, #4]
 8001574:	f8cd 9000 	str.w	r9, [sp]
 8001578:	4643      	mov	r3, r8
 800157a:	4639      	mov	r1, r7
 800157c:	b280      	uxth	r0, r0
 800157e:	f7ff fead 	bl	80012dc <EPD_DrawChar>
 8001582:	9a03      	ldr	r2, [sp, #12]
 8001584:	8813      	ldrh	r3, [r2, #0]
 8001586:	fba5 2503 	umull	r2, r5, r5, r3
 800158a:	08ed      	lsrs	r5, r5, #3
 800158c:	eb05 0585 	add.w	r5, r5, r5, lsl #2
 8001590:	eba3 0345 	sub.w	r3, r3, r5, lsl #1
 8001594:	aa0a      	add	r2, sp, #40	@ 0x28
 8001596:	fa12 f383 	uxtah	r3, r2, r3
 800159a:	f813 2c0c 	ldrb.w	r2, [r3, #-12]
 800159e:	9b04      	ldr	r3, [sp, #16]
 80015a0:	eb06 0043 	add.w	r0, r6, r3, lsl #1
 80015a4:	f8cd a004 	str.w	sl, [sp, #4]
 80015a8:	f8cd 9000 	str.w	r9, [sp]
 80015ac:	4643      	mov	r3, r8
 80015ae:	4639      	mov	r1, r7
 80015b0:	b280      	uxth	r0, r0
 80015b2:	f7ff fe93 	bl	80012dc <EPD_DrawChar>
 80015b6:	b00b      	add	sp, #44	@ 0x2c
 80015b8:	e8bd 8ff0 	ldmia.w	sp!, {r4, r5, r6, r7, r8, r9, sl, fp, pc}
 80015bc:	0800b85c 	.word	0x0800b85c
 80015c0:	cccccccd 	.word	0xcccccccd

080015c4 <EPD_DrawBMP>:
 80015c4:	e92d 47f0 	stmdb	sp!, {r4, r5, r6, r7, r8, r9, sl, lr}
 80015c8:	4682      	mov	sl, r0
 80015ca:	4689      	mov	r9, r1
 80015cc:	4617      	mov	r7, r2
 80015ce:	461e      	mov	r6, r3
 80015d0:	f8dd 8020 	ldr.w	r8, [sp, #32]
 80015d4:	2500      	movs	r5, #0
 80015d6:	e012      	b.n	80015fe <EPD_DrawBMP+0x3a>
 80015d8:	2200      	movs	r2, #0
 80015da:	eb05 0109 	add.w	r1, r5, r9
 80015de:	eb04 000a 	add.w	r0, r4, sl
 80015e2:	f7ff fc83 	bl	8000eec <EPD_SetPixel>
 80015e6:	3401      	adds	r4, #1
 80015e8:	b2e4      	uxtb	r4, r4
 80015ea:	42bc      	cmp	r4, r7
 80015ec:	d205      	bcs.n	80015fa <EPD_DrawBMP+0x36>
 80015ee:	fb06 8304 	mla	r3, r6, r4, r8
 80015f2:	5d5b      	ldrb	r3, [r3, r5]
 80015f4:	2b00      	cmp	r3, #0
 80015f6:	d1f6      	bne.n	80015e6 <EPD_DrawBMP+0x22>
 80015f8:	e7ee      	b.n	80015d8 <EPD_DrawBMP+0x14>
 80015fa:	3501      	adds	r5, #1
 80015fc:	b2ed      	uxtb	r5, r5
 80015fe:	42b5      	cmp	r5, r6
 8001600:	d201      	bcs.n	8001606 <EPD_DrawBMP+0x42>
 8001602:	2400      	movs	r4, #0
 8001604:	e7f1      	b.n	80015ea <EPD_DrawBMP+0x26>
 8001606:	e8bd 87f0 	ldmia.w	sp!, {r4, r5, r6, r7, r8, r9, sl, pc}

0800160a <tick>:
 800160a:	b5f8      	push	{r3, r4, r5, r6, r7, lr}
 800160c:	4604      	mov	r4, r0
 800160e:	8881      	ldrh	r1, [r0, #4]
 8001610:	6800      	ldr	r0, [r0, #0]
 8001612:	f002 fc9f 	bl	8003f54 <HAL_GPIO_ReadPin>
 8001616:	fab0 f580 	clz	r5, r0
 800161a:	096d      	lsrs	r5, r5, #5
 800161c:	79a7      	ldrb	r7, [r4, #6]
 800161e:	42af      	cmp	r7, r5
 8001620:	bf0c      	ite	eq
 8001622:	2601      	moveq	r6, #1
 8001624:	2600      	movne	r6, #0
 8001626:	d001      	beq.n	800162c <tick+0x22>
 8001628:	7c23      	ldrb	r3, [r4, #16]
 800162a:	b13b      	cbz	r3, 800163c <tick+0x32>
 800162c:	42af      	cmp	r7, r5
 800162e:	d017      	beq.n	8001660 <tick+0x56>
 8001630:	7c23      	ldrb	r3, [r4, #16]
 8001632:	b90b      	cbnz	r3, 8001638 <tick+0x2e>
 8001634:	42af      	cmp	r7, r5
 8001636:	d025      	beq.n	8001684 <tick+0x7a>
 8001638:	4630      	mov	r0, r6
 800163a:	bdf8      	pop	{r3, r4, r5, r6, r7, pc}
 800163c:	f001 fad2 	bl	8002be4 <HAL_GetTick>
 8001640:	68a3      	ldr	r3, [r4, #8]
 8001642:	1ac0      	subs	r0, r0, r3
 8001644:	2864      	cmp	r0, #100	@ 0x64
 8001646:	d9f1      	bls.n	800162c <tick+0x22>
 8001648:	2301      	movs	r3, #1
 800164a:	7423      	strb	r3, [r4, #16]
 800164c:	7c63      	ldrb	r3, [r4, #17]
 800164e:	b90b      	cbnz	r3, 8001654 <tick+0x4a>
 8001650:	2301      	movs	r3, #1
 8001652:	74e3      	strb	r3, [r4, #19]
 8001654:	2300      	movs	r3, #0
 8001656:	7463      	strb	r3, [r4, #17]
 8001658:	f001 fac4 	bl	8002be4 <HAL_GetTick>
 800165c:	60a0      	str	r0, [r4, #8]
 800165e:	e7e5      	b.n	800162c <tick+0x22>
 8001660:	7c23      	ldrb	r3, [r4, #16]
 8001662:	2b00      	cmp	r3, #0
 8001664:	d0e4      	beq.n	8001630 <tick+0x26>
 8001666:	f001 fabd 	bl	8002be4 <HAL_GetTick>
 800166a:	68a3      	ldr	r3, [r4, #8]
 800166c:	1ac0      	subs	r0, r0, r3
 800166e:	2864      	cmp	r0, #100	@ 0x64
 8001670:	d9de      	bls.n	8001630 <tick+0x26>
 8001672:	2300      	movs	r3, #0
 8001674:	7423      	strb	r3, [r4, #16]
 8001676:	f001 fab5 	bl	8002be4 <HAL_GetTick>
 800167a:	60a0      	str	r0, [r4, #8]
 800167c:	f001 fab2 	bl	8002be4 <HAL_GetTick>
 8001680:	60e0      	str	r0, [r4, #12]
 8001682:	e7d5      	b.n	8001630 <tick+0x26>
 8001684:	f001 faae 	bl	8002be4 <HAL_GetTick>
 8001688:	68e3      	ldr	r3, [r4, #12]
 800168a:	1ac0      	subs	r0, r0, r3
 800168c:	28c7      	cmp	r0, #199	@ 0xc7
 800168e:	d9d3      	bls.n	8001638 <tick+0x2e>
 8001690:	7c63      	ldrb	r3, [r4, #17]
 8001692:	2b00      	cmp	r3, #0
 8001694:	d1d0      	bne.n	8001638 <tick+0x2e>
 8001696:	2301      	movs	r3, #1
 8001698:	7463      	strb	r3, [r4, #17]
 800169a:	f001 faa3 	bl	8002be4 <HAL_GetTick>
 800169e:	60e0      	str	r0, [r4, #12]
 80016a0:	e7ca      	b.n	8001638 <tick+0x2e>

080016a2 <isClicked>:
 80016a2:	4603      	mov	r3, r0
 80016a4:	7cc0      	ldrb	r0, [r0, #19]
 80016a6:	b900      	cbnz	r0, 80016aa <isClicked+0x8>
 80016a8:	4770      	bx	lr
 80016aa:	2200      	movs	r2, #0
 80016ac:	74da      	strb	r2, [r3, #19]
 80016ae:	e7fb      	b.n	80016a8 <isClicked+0x6>

080016b0 <CalculateChecksum>:
 80016b0:	b500      	push	{lr}
 80016b2:	4686      	mov	lr, r0
 80016b4:	2000      	movs	r0, #0
 80016b6:	460b      	mov	r3, r1
 80016b8:	3901      	subs	r1, #1
 80016ba:	b2c9      	uxtb	r1, r1
 80016bc:	b1a3      	cbz	r3, 80016e8 <CalculateChecksum+0x38>
 80016be:	f81e cb01 	ldrb.w	ip, [lr], #1
 80016c2:	2308      	movs	r3, #8
 80016c4:	e003      	b.n	80016ce <CalculateChecksum+0x1e>
 80016c6:	ea4f 0c5c 	mov.w	ip, ip, lsr #1
 80016ca:	3b01      	subs	r3, #1
 80016cc:	b2db      	uxtb	r3, r3
 80016ce:	2b00      	cmp	r3, #0
 80016d0:	d0f1      	beq.n	80016b6 <CalculateChecksum+0x6>
 80016d2:	ea80 020c 	eor.w	r2, r0, ip
 80016d6:	f012 0f01 	tst.w	r2, #1
 80016da:	ea4f 0050 	mov.w	r0, r0, lsr #1
 80016de:	d0f2      	beq.n	80016c6 <CalculateChecksum+0x16>
 80016e0:	f080 008c 	eor.w	r0, r0, #140	@ 0x8c
 80016e4:	b2c0      	uxtb	r0, r0
 80016e6:	e7ee      	b.n	80016c6 <CalculateChecksum+0x16>
 80016e8:	f85d fb04 	ldr.w	pc, [sp], #4

080016ec <ExecuteCommand>:
 80016ec:	b5f0      	push	{r4, r5, r6, r7, lr}
 80016ee:	b083      	sub	sp, #12
 80016f0:	9101      	str	r1, [sp, #4]
 80016f2:	7843      	ldrb	r3, [r0, #1]
 80016f4:	b91b      	cbnz	r3, 80016fe <ExecuteCommand+0x12>
 80016f6:	2701      	movs	r7, #1
 80016f8:	4638      	mov	r0, r7
 80016fa:	b003      	add	sp, #12
 80016fc:	bdf0      	pop	{r4, r5, r6, r7, pc}
 80016fe:	4605      	mov	r5, r0
 8001700:	4616      	mov	r6, r2
 8001702:	f89d 1004 	ldrb.w	r1, [sp, #4]
 8001706:	6840      	ldr	r0, [r0, #4]
 8001708:	f001 f8ba 	bl	8002880 <OneWire_ProcessByte>
 800170c:	f89d 7005 	ldrb.w	r7, [sp, #5]
 8001710:	b9b7      	cbnz	r7, 8001740 <ExecuteCommand+0x54>
 8001712:	463c      	mov	r4, r7
 8001714:	e01c      	b.n	8001750 <ExecuteCommand+0x64>
 8001716:	21ff      	movs	r1, #255	@ 0xff
 8001718:	6868      	ldr	r0, [r5, #4]
 800171a:	f001 f8b1 	bl	8002880 <OneWire_ProcessByte>
 800171e:	5530      	strb	r0, [r6, r4]
 8001720:	3401      	adds	r4, #1
 8001722:	b2e4      	uxtb	r4, r4
 8001724:	42a7      	cmp	r7, r4
 8001726:	d8f6      	bhi.n	8001716 <ExecuteCommand+0x2a>
 8001728:	1e79      	subs	r1, r7, #1
 800172a:	b2c9      	uxtb	r1, r1
 800172c:	4630      	mov	r0, r6
 800172e:	f7ff ffbf 	bl	80016b0 <CalculateChecksum>
 8001732:	443e      	add	r6, r7
 8001734:	f816 3c01 	ldrb.w	r3, [r6, #-1]
 8001738:	4283      	cmp	r3, r0
 800173a:	d10e      	bne.n	800175a <ExecuteCommand+0x6e>
 800173c:	2700      	movs	r7, #0
 800173e:	e7db      	b.n	80016f8 <ExecuteCommand+0xc>
 8001740:	2400      	movs	r4, #0
 8001742:	e7ef      	b.n	8001724 <ExecuteCommand+0x38>
 8001744:	5d31      	ldrb	r1, [r6, r4]
 8001746:	6868      	ldr	r0, [r5, #4]
 8001748:	f001 f89a 	bl	8002880 <OneWire_ProcessByte>
 800174c:	3401      	adds	r4, #1
 800174e:	b2e4      	uxtb	r4, r4
 8001750:	f89d 3006 	ldrb.w	r3, [sp, #6]
 8001754:	42a3      	cmp	r3, r4
 8001756:	d8f5      	bhi.n	8001744 <ExecuteCommand+0x58>
 8001758:	e7ce      	b.n	80016f8 <ExecuteCommand+0xc>
 800175a:	2701      	movs	r7, #1
 800175c:	e7cc      	b.n	80016f8 <ExecuteCommand+0xc>

0800175e <WaitForConversionFinished>:
 800175e:	b510      	push	{r4, lr}
 8001760:	4604      	mov	r4, r0
 8001762:	2101      	movs	r1, #1
 8001764:	6840      	ldr	r0, [r0, #4]
 8001766:	f001 f86d 	bl	8002844 <OneWire_ProcessBit>
 800176a:	e003      	b.n	8001774 <WaitForConversionFinished+0x16>
 800176c:	2101      	movs	r1, #1
 800176e:	6860      	ldr	r0, [r4, #4]
 8001770:	f001 f868 	bl	8002844 <OneWire_ProcessBit>
 8001774:	28ff      	cmp	r0, #255	@ 0xff
 8001776:	d1f9      	bne.n	800176c <WaitForConversionFinished+0xe>
 8001778:	bd10      	pop	{r4, pc}

0800177a <DS18B20_ConvertT>:
 800177a:	b570      	push	{r4, r5, r6, lr}
 800177c:	b082      	sub	sp, #8
 800177e:	4606      	mov	r6, r0
 8001780:	460c      	mov	r4, r1
 8001782:	f10d 0207 	add.w	r2, sp, #7
 8001786:	2144      	movs	r1, #68	@ 0x44
 8001788:	f7ff ffb0 	bl	80016ec <ExecuteCommand>
 800178c:	4605      	mov	r5, r0
 800178e:	2c01      	cmp	r4, #1
 8001790:	d004      	beq.n	800179c <DS18B20_ConvertT+0x22>
 8001792:	2c02      	cmp	r4, #2
 8001794:	d006      	beq.n	80017a4 <DS18B20_ConvertT+0x2a>
 8001796:	4628      	mov	r0, r5
 8001798:	b002      	add	sp, #8
 800179a:	bd70      	pop	{r4, r5, r6, pc}
 800179c:	4630      	mov	r0, r6
 800179e:	f7ff ffde 	bl	800175e <WaitForConversionFinished>
 80017a2:	e7f6      	b.n	8001792 <DS18B20_ConvertT+0x18>
 80017a4:	7c33      	ldrb	r3, [r6, #16]
 80017a6:	2b5f      	cmp	r3, #95	@ 0x5f
 80017a8:	d00b      	beq.n	80017c2 <DS18B20_ConvertT+0x48>
 80017aa:	d805      	bhi.n	80017b8 <DS18B20_ConvertT+0x3e>
 80017ac:	2b1f      	cmp	r3, #31
 80017ae:	d00d      	beq.n	80017cc <DS18B20_ConvertT+0x52>
 80017b0:	2b3f      	cmp	r3, #63	@ 0x3f
 80017b2:	d10d      	bne.n	80017d0 <DS18B20_ConvertT+0x56>
 80017b4:	20bc      	movs	r0, #188	@ 0xbc
 80017b6:	e006      	b.n	80017c6 <DS18B20_ConvertT+0x4c>
 80017b8:	2b7f      	cmp	r3, #127	@ 0x7f
 80017ba:	d10b      	bne.n	80017d4 <DS18B20_ConvertT+0x5a>
 80017bc:	f240 20ee 	movw	r0, #750	@ 0x2ee
 80017c0:	e001      	b.n	80017c6 <DS18B20_ConvertT+0x4c>
 80017c2:	f240 1077 	movw	r0, #375	@ 0x177
 80017c6:	f001 fa13 	bl	8002bf0 <HAL_Delay>
 80017ca:	e7e4      	b.n	8001796 <DS18B20_ConvertT+0x1c>
 80017cc:	205e      	movs	r0, #94	@ 0x5e
 80017ce:	e7fa      	b.n	80017c6 <DS18B20_ConvertT+0x4c>
 80017d0:	2000      	movs	r0, #0
 80017d2:	e7f8      	b.n	80017c6 <DS18B20_ConvertT+0x4c>
 80017d4:	2000      	movs	r0, #0
 80017d6:	e7f6      	b.n	80017c6 <DS18B20_ConvertT+0x4c>

080017d8 <DS18B20_ReadScratchpad>:
 80017d8:	b510      	push	{r4, lr}
 80017da:	b084      	sub	sp, #16
 80017dc:	4604      	mov	r4, r0
 80017de:	aa01      	add	r2, sp, #4
 80017e0:	2100      	movs	r1, #0
 80017e2:	f06f 0341 	mvn.w	r3, #65	@ 0x41
 80017e6:	f363 0107 	bfi	r1, r3, #0, #8
 80017ea:	2309      	movs	r3, #9
 80017ec:	f363 210f 	bfi	r1, r3, #8, #8
 80017f0:	f7ff ff7c 	bl	80016ec <ExecuteCommand>
 80017f4:	bbd0      	cbnz	r0, 800186c <DS18B20_ReadScratchpad+0x94>
 80017f6:	f89d 3006 	ldrb.w	r3, [sp, #6]
 80017fa:	73e3      	strb	r3, [r4, #15]
 80017fc:	f89d 3007 	ldrb.w	r3, [sp, #7]
 8001800:	73a3      	strb	r3, [r4, #14]
 8001802:	f89d 1008 	ldrb.w	r1, [sp, #8]
 8001806:	7421      	strb	r1, [r4, #16]
 8001808:	f89d 3005 	ldrb.w	r3, [sp, #5]
 800180c:	f89d 2004 	ldrb.w	r2, [sp, #4]
 8001810:	ea42 2203 	orr.w	r2, r2, r3, lsl #8
 8001814:	4613      	mov	r3, r2
 8001816:	f412 4278 	ands.w	r2, r2, #63488	@ 0xf800
 800181a:	d001      	beq.n	8001820 <DS18B20_ReadScratchpad+0x48>
 800181c:	425b      	negs	r3, r3
 800181e:	b29b      	uxth	r3, r3
 8001820:	295f      	cmp	r1, #95	@ 0x5f
 8001822:	d025      	beq.n	8001870 <DS18B20_ReadScratchpad+0x98>
 8001824:	d80a      	bhi.n	800183c <DS18B20_ReadScratchpad+0x64>
 8001826:	291f      	cmp	r1, #31
 8001828:	d00f      	beq.n	800184a <DS18B20_ReadScratchpad+0x72>
 800182a:	293f      	cmp	r1, #63	@ 0x3f
 800182c:	d127      	bne.n	800187e <DS18B20_ReadScratchpad+0xa6>
 800182e:	f023 0303 	bic.w	r3, r3, #3
 8001832:	055b      	lsls	r3, r3, #21
 8001834:	0d5b      	lsrs	r3, r3, #21
 8001836:	ee07 3a90 	vmov	s15, r3
 800183a:	e00a      	b.n	8001852 <DS18B20_ReadScratchpad+0x7a>
 800183c:	297f      	cmp	r1, #127	@ 0x7f
 800183e:	d11e      	bne.n	800187e <DS18B20_ReadScratchpad+0xa6>
 8001840:	f3c3 030a 	ubfx	r3, r3, #0, #11
 8001844:	ee07 3a90 	vmov	s15, r3
 8001848:	e003      	b.n	8001852 <DS18B20_ReadScratchpad+0x7a>
 800184a:	f403 63ff 	and.w	r3, r3, #2040	@ 0x7f8
 800184e:	ee07 3a90 	vmov	s15, r3
 8001852:	eef8 7a67 	vcvt.f32.u32	s15, s15
 8001856:	ed9f 7a0c 	vldr	s14, [pc, #48]	@ 8001888 <DS18B20_ReadScratchpad+0xb0>
 800185a:	ee67 7a87 	vmul.f32	s15, s15, s14
 800185e:	edc4 7a05 	vstr	s15, [r4, #20]
 8001862:	b11a      	cbz	r2, 800186c <DS18B20_ReadScratchpad+0x94>
 8001864:	eef1 7a67 	vneg.f32	s15, s15
 8001868:	edc4 7a05 	vstr	s15, [r4, #20]
 800186c:	b004      	add	sp, #16
 800186e:	bd10      	pop	{r4, pc}
 8001870:	f023 0301 	bic.w	r3, r3, #1
 8001874:	055b      	lsls	r3, r3, #21
 8001876:	0d5b      	lsrs	r3, r3, #21
 8001878:	ee07 3a90 	vmov	s15, r3
 800187c:	e7e9      	b.n	8001852 <DS18B20_ReadScratchpad+0x7a>
 800187e:	f3c3 030a 	ubfx	r3, r3, #0, #11
 8001882:	ee07 3a90 	vmov	s15, r3
 8001886:	e7e4      	b.n	8001852 <DS18B20_ReadScratchpad+0x7a>
 8001888:	3d800000 	.word	0x3d800000

0800188c <DS18B20_WriteScratchpad>:
 800188c:	b538      	push	{r3, r4, r5, lr}
 800188e:	4605      	mov	r5, r0
 8001890:	460c      	mov	r4, r1
 8001892:	460a      	mov	r2, r1
 8001894:	2100      	movs	r1, #0
 8001896:	234e      	movs	r3, #78	@ 0x4e
 8001898:	f363 0107 	bfi	r1, r3, #0, #8
 800189c:	2303      	movs	r3, #3
 800189e:	f363 4117 	bfi	r1, r3, #16, #8
 80018a2:	f7ff ff23 	bl	80016ec <ExecuteCommand>
 80018a6:	b928      	cbnz	r0, 80018b4 <DS18B20_WriteScratchpad+0x28>
 80018a8:	7823      	ldrb	r3, [r4, #0]
 80018aa:	73eb      	strb	r3, [r5, #15]
 80018ac:	7863      	ldrb	r3, [r4, #1]
 80018ae:	73ab      	strb	r3, [r5, #14]
 80018b0:	78a3      	ldrb	r3, [r4, #2]
 80018b2:	742b      	strb	r3, [r5, #16]
 80018b4:	bd38      	pop	{r3, r4, r5, pc}

080018b6 <DS18B20_InitializationCommand>:
 80018b6:	7803      	ldrb	r3, [r0, #0]
 80018b8:	b90b      	cbnz	r3, 80018be <DS18B20_InitializationCommand+0x8>
 80018ba:	2001      	movs	r0, #1
 80018bc:	4770      	bx	lr
 80018be:	b510      	push	{r4, lr}
 80018c0:	4604      	mov	r4, r0
 80018c2:	6840      	ldr	r0, [r0, #4]
 80018c4:	f000 fffb 	bl	80028be <OneWire_Reset>
 80018c8:	b910      	cbnz	r0, 80018d0 <DS18B20_InitializationCommand+0x1a>
 80018ca:	2301      	movs	r3, #1
 80018cc:	7063      	strb	r3, [r4, #1]
 80018ce:	bd10      	pop	{r4, pc}
 80018d0:	2300      	movs	r3, #0
 80018d2:	7063      	strb	r3, [r4, #1]
 80018d4:	2001      	movs	r0, #1
 80018d6:	e7fa      	b.n	80018ce <DS18B20_InitializationCommand+0x18>

080018d8 <DS18B20_ReadRom>:
 80018d8:	b510      	push	{r4, lr}
 80018da:	b082      	sub	sp, #8
 80018dc:	4604      	mov	r4, r0
 80018de:	466a      	mov	r2, sp
 80018e0:	2100      	movs	r1, #0
 80018e2:	2333      	movs	r3, #51	@ 0x33
 80018e4:	f363 0107 	bfi	r1, r3, #0, #8
 80018e8:	2308      	movs	r3, #8
 80018ea:	f363 210f 	bfi	r1, r3, #8, #8
 80018ee:	f7ff fefd 	bl	80016ec <ExecuteCommand>
 80018f2:	b960      	cbnz	r0, 800190e <DS18B20_ReadRom+0x36>
 80018f4:	4603      	mov	r3, r0
 80018f6:	e008      	b.n	800190a <DS18B20_ReadRom+0x32>
 80018f8:	1c5a      	adds	r2, r3, #1
 80018fa:	f103 0109 	add.w	r1, r3, #9
 80018fe:	4469      	add	r1, sp
 8001900:	f811 1c08 	ldrb.w	r1, [r1, #-8]
 8001904:	4423      	add	r3, r4
 8001906:	7219      	strb	r1, [r3, #8]
 8001908:	b2d3      	uxtb	r3, r2
 800190a:	2b05      	cmp	r3, #5
 800190c:	d9f4      	bls.n	80018f8 <DS18B20_ReadRom+0x20>
 800190e:	b002      	add	sp, #8
 8001910:	bd10      	pop	{r4, pc}

08001912 <DS18B20_SkipRom>:
 8001912:	b500      	push	{lr}
 8001914:	b083      	sub	sp, #12
 8001916:	f10d 0207 	add.w	r2, sp, #7
 800191a:	21cc      	movs	r1, #204	@ 0xcc
 800191c:	f7ff fee6 	bl	80016ec <ExecuteCommand>
 8001920:	b003      	add	sp, #12
 8001922:	f85d fb04 	ldr.w	pc, [sp], #4

08001926 <DS18B20_Init>:
 8001926:	2300      	movs	r3, #0
 8001928:	7043      	strb	r3, [r0, #1]
 800192a:	6041      	str	r1, [r0, #4]
 800192c:	2301      	movs	r3, #1
 800192e:	7003      	strb	r3, [r0, #0]
 8001930:	4770      	bx	lr
	...

08001934 <MX_GPIO_Init>:
 8001934:	e92d 43f0 	stmdb	sp!, {r4, r5, r6, r7, r8, r9, lr}
 8001938:	b08b      	sub	sp, #44	@ 0x2c
 800193a:	ad05      	add	r5, sp, #20
 800193c:	2400      	movs	r4, #0
 800193e:	9405      	str	r4, [sp, #20]
 8001940:	9406      	str	r4, [sp, #24]
 8001942:	9407      	str	r4, [sp, #28]
 8001944:	9408      	str	r4, [sp, #32]
 8001946:	9409      	str	r4, [sp, #36]	@ 0x24
 8001948:	4b45      	ldr	r3, [pc, #276]	@ (8001a60 <MX_GPIO_Init+0x12c>)
 800194a:	6cda      	ldr	r2, [r3, #76]	@ 0x4c
 800194c:	f042 0204 	orr.w	r2, r2, #4
 8001950:	64da      	str	r2, [r3, #76]	@ 0x4c
 8001952:	6cda      	ldr	r2, [r3, #76]	@ 0x4c
 8001954:	f002 0204 	and.w	r2, r2, #4
 8001958:	9201      	str	r2, [sp, #4]
 800195a:	9a01      	ldr	r2, [sp, #4]
 800195c:	6cda      	ldr	r2, [r3, #76]	@ 0x4c
 800195e:	f042 0201 	orr.w	r2, r2, #1
 8001962:	64da      	str	r2, [r3, #76]	@ 0x4c
 8001964:	6cda      	ldr	r2, [r3, #76]	@ 0x4c
 8001966:	f002 0201 	and.w	r2, r2, #1
 800196a:	9202      	str	r2, [sp, #8]
 800196c:	9a02      	ldr	r2, [sp, #8]
 800196e:	6cda      	ldr	r2, [r3, #76]	@ 0x4c
 8001970:	f042 0202 	orr.w	r2, r2, #2
 8001974:	64da      	str	r2, [r3, #76]	@ 0x4c
 8001976:	6cda      	ldr	r2, [r3, #76]	@ 0x4c
 8001978:	f002 0202 	and.w	r2, r2, #2
 800197c:	9203      	str	r2, [sp, #12]
 800197e:	9a03      	ldr	r2, [sp, #12]
 8001980:	6cda      	ldr	r2, [r3, #76]	@ 0x4c
 8001982:	f042 0280 	orr.w	r2, r2, #128	@ 0x80
 8001986:	64da      	str	r2, [r3, #76]	@ 0x4c
 8001988:	6cdb      	ldr	r3, [r3, #76]	@ 0x4c
 800198a:	f003 0380 	and.w	r3, r3, #128	@ 0x80
 800198e:	9304      	str	r3, [sp, #16]
 8001990:	9b04      	ldr	r3, [sp, #16]
 8001992:	4622      	mov	r2, r4
 8001994:	2158      	movs	r1, #88	@ 0x58
 8001996:	f04f 4090 	mov.w	r0, #1207959552	@ 0x48000000
 800199a:	f002 fae2 	bl	8003f62 <HAL_GPIO_WritePin>
 800199e:	f8df 80c8 	ldr.w	r8, [pc, #200]	@ 8001a68 <MX_GPIO_Init+0x134>
 80019a2:	4622      	mov	r2, r4
 80019a4:	2102      	movs	r1, #2
 80019a6:	4640      	mov	r0, r8
 80019a8:	f002 fadb 	bl	8003f62 <HAL_GPIO_WritePin>
 80019ac:	2601      	movs	r6, #1
 80019ae:	9605      	str	r6, [sp, #20]
 80019b0:	f44f 1388 	mov.w	r3, #1114112	@ 0x110000
 80019b4:	9306      	str	r3, [sp, #24]
 80019b6:	9407      	str	r4, [sp, #28]
 80019b8:	4629      	mov	r1, r5
 80019ba:	f04f 4090 	mov.w	r0, #1207959552	@ 0x48000000
 80019be:	f002 f96b 	bl	8003c98 <HAL_GPIO_Init>
 80019c2:	f04f 0908 	mov.w	r9, #8
 80019c6:	f8cd 9014 	str.w	r9, [sp, #20]
 80019ca:	9606      	str	r6, [sp, #24]
 80019cc:	9607      	str	r6, [sp, #28]
 80019ce:	9408      	str	r4, [sp, #32]
 80019d0:	4629      	mov	r1, r5
 80019d2:	f04f 4090 	mov.w	r0, #1207959552	@ 0x48000000
 80019d6:	f002 f95f 	bl	8003c98 <HAL_GPIO_Init>
 80019da:	2350      	movs	r3, #80	@ 0x50
 80019dc:	9305      	str	r3, [sp, #20]
 80019de:	9606      	str	r6, [sp, #24]
 80019e0:	9407      	str	r4, [sp, #28]
 80019e2:	9408      	str	r4, [sp, #32]
 80019e4:	4629      	mov	r1, r5
 80019e6:	f04f 4090 	mov.w	r0, #1207959552	@ 0x48000000
 80019ea:	f002 f955 	bl	8003c98 <HAL_GPIO_Init>
 80019ee:	f44f 7348 	mov.w	r3, #800	@ 0x320
 80019f2:	9305      	str	r3, [sp, #20]
 80019f4:	9406      	str	r4, [sp, #24]
 80019f6:	9407      	str	r4, [sp, #28]
 80019f8:	4629      	mov	r1, r5
 80019fa:	f04f 4090 	mov.w	r0, #1207959552	@ 0x48000000
 80019fe:	f002 f94b 	bl	8003c98 <HAL_GPIO_Init>
 8001a02:	23f1      	movs	r3, #241	@ 0xf1
 8001a04:	9305      	str	r3, [sp, #20]
 8001a06:	2703      	movs	r7, #3
 8001a08:	9706      	str	r7, [sp, #24]
 8001a0a:	9407      	str	r4, [sp, #28]
 8001a0c:	4629      	mov	r1, r5
 8001a0e:	4640      	mov	r0, r8
 8001a10:	f002 f942 	bl	8003c98 <HAL_GPIO_Init>
 8001a14:	2302      	movs	r3, #2
 8001a16:	9305      	str	r3, [sp, #20]
 8001a18:	9606      	str	r6, [sp, #24]
 8001a1a:	9407      	str	r4, [sp, #28]
 8001a1c:	9408      	str	r4, [sp, #32]
 8001a1e:	4629      	mov	r1, r5
 8001a20:	4640      	mov	r0, r8
 8001a22:	f002 f939 	bl	8003c98 <HAL_GPIO_Init>
 8001a26:	f44f 4304 	mov.w	r3, #33792	@ 0x8400
 8001a2a:	9305      	str	r3, [sp, #20]
 8001a2c:	9706      	str	r7, [sp, #24]
 8001a2e:	9407      	str	r4, [sp, #28]
 8001a30:	4629      	mov	r1, r5
 8001a32:	f04f 4090 	mov.w	r0, #1207959552	@ 0x48000000
 8001a36:	f002 f92f 	bl	8003c98 <HAL_GPIO_Init>
 8001a3a:	f8cd 9014 	str.w	r9, [sp, #20]
 8001a3e:	9706      	str	r7, [sp, #24]
 8001a40:	9407      	str	r4, [sp, #28]
 8001a42:	4629      	mov	r1, r5
 8001a44:	4807      	ldr	r0, [pc, #28]	@ (8001a64 <MX_GPIO_Init+0x130>)
 8001a46:	f002 f927 	bl	8003c98 <HAL_GPIO_Init>
 8001a4a:	4622      	mov	r2, r4
 8001a4c:	4621      	mov	r1, r4
 8001a4e:	2006      	movs	r0, #6
 8001a50:	f001 ffbe 	bl	80039d0 <HAL_NVIC_SetPriority>
 8001a54:	2006      	movs	r0, #6
 8001a56:	f001 ffcb 	bl	80039f0 <HAL_NVIC_EnableIRQ>
 8001a5a:	b00b      	add	sp, #44	@ 0x2c
 8001a5c:	e8bd 83f0 	ldmia.w	sp!, {r4, r5, r6, r7, r8, r9, pc}
 8001a60:	40021000 	.word	0x40021000
 8001a64:	48001c00 	.word	0x48001c00
 8001a68:	48000400 	.word	0x48000400

08001a6c <MX_DMA_Init>:
 8001a6c:	b500      	push	{lr}
 8001a6e:	b083      	sub	sp, #12
 8001a70:	4b0a      	ldr	r3, [pc, #40]	@ (8001a9c <MX_DMA_Init+0x30>)
 8001a72:	6c9a      	ldr	r2, [r3, #72]	@ 0x48
 8001a74:	f042 0201 	orr.w	r2, r2, #1
 8001a78:	649a      	str	r2, [r3, #72]	@ 0x48
 8001a7a:	6c9b      	ldr	r3, [r3, #72]	@ 0x48
 8001a7c:	f003 0301 	and.w	r3, r3, #1
 8001a80:	9301      	str	r3, [sp, #4]
 8001a82:	9b01      	ldr	r3, [sp, #4]
 8001a84:	2200      	movs	r2, #0
 8001a86:	4611      	mov	r1, r2
 8001a88:	200b      	movs	r0, #11
 8001a8a:	f001 ffa1 	bl	80039d0 <HAL_NVIC_SetPriority>
 8001a8e:	200b      	movs	r0, #11
 8001a90:	f001 ffae 	bl	80039f0 <HAL_NVIC_EnableIRQ>
 8001a94:	b003      	add	sp, #12
 8001a96:	f85d fb04 	ldr.w	pc, [sp], #4
 8001a9a:	bf00      	nop
 8001a9c:	40021000 	.word	0x40021000

08001aa0 <map>:
 8001aa0:	b410      	push	{r4}
 8001aa2:	4291      	cmp	r1, r2
 8001aa4:	d00c      	beq.n	8001ac0 <map+0x20>
 8001aa6:	1a40      	subs	r0, r0, r1
 8001aa8:	9c01      	ldr	r4, [sp, #4]
 8001aaa:	eba4 0c03 	sub.w	ip, r4, r3
 8001aae:	fb0c f000 	mul.w	r0, ip, r0
 8001ab2:	1a52      	subs	r2, r2, r1
 8001ab4:	fb90 f0f2 	sdiv	r0, r0, r2
 8001ab8:	4418      	add	r0, r3
 8001aba:	f85d 4b04 	ldr.w	r4, [sp], #4
 8001abe:	4770      	bx	lr
 8001ac0:	9a01      	ldr	r2, [sp, #4]
 8001ac2:	4413      	add	r3, r2
 8001ac4:	eb03 73d3 	add.w	r3, r3, r3, lsr #31
 8001ac8:	1058      	asrs	r0, r3, #1
 8001aca:	e7f6      	b.n	8001aba <map+0x1a>
 8001acc:	0000      	movs	r0, r0
	...

08001ad0 <plot>:
 8001ad0:	e92d 4ff0 	stmdb	sp!, {r4, r5, r6, r7, r8, r9, sl, fp, lr}
 8001ad4:	b099      	sub	sp, #100	@ 0x64
 8001ad6:	4db5      	ldr	r5, [pc, #724]	@ (8001dac <plot+0x2dc>)
 8001ad8:	24ff      	movs	r4, #255	@ 0xff
 8001ada:	9400      	str	r4, [sp, #0]
 8001adc:	235a      	movs	r3, #90	@ 0x5a
 8001ade:	22fa      	movs	r2, #250	@ 0xfa
 8001ae0:	217a      	movs	r1, #122	@ 0x7a
 8001ae2:	4628      	mov	r0, r5
 8001ae4:	f7ff f9c6 	bl	8000e74 <EPD_NewImage>
 8001ae8:	4628      	mov	r0, r5
 8001aea:	f7ff f9eb 	bl	8000ec4 <EPD_SelectImage>
 8001aee:	4620      	mov	r0, r4
 8001af0:	f7ff fab0 	bl	8001054 <EPD_Clear>
 8001af4:	2000      	movs	r0, #0
 8001af6:	f000 ff8d 	bl	8002a14 <q_get>
 8001afa:	b205      	sxth	r5, r0
 8001afc:	2000      	movs	r0, #0
 8001afe:	f000 ff89 	bl	8002a14 <q_get>
 8001b02:	b207      	sxth	r7, r0
 8001b04:	2400      	movs	r4, #0
 8001b06:	e006      	b.n	8001b16 <plot+0x46>
 8001b08:	4620      	mov	r0, r4
 8001b0a:	f000 ff83 	bl	8002a14 <q_get>
 8001b0e:	b205      	sxth	r5, r0
 8001b10:	e00a      	b.n	8001b28 <plot+0x58>
 8001b12:	3401      	adds	r4, #1
 8001b14:	b2e4      	uxtb	r4, r4
 8001b16:	f001 f815 	bl	8002b44 <q_len>
 8001b1a:	4284      	cmp	r4, r0
 8001b1c:	d20e      	bcs.n	8001b3c <plot+0x6c>
 8001b1e:	4620      	mov	r0, r4
 8001b20:	f000 ff78 	bl	8002a14 <q_get>
 8001b24:	42a8      	cmp	r0, r5
 8001b26:	ddef      	ble.n	8001b08 <plot+0x38>
 8001b28:	4620      	mov	r0, r4
 8001b2a:	f000 ff73 	bl	8002a14 <q_get>
 8001b2e:	42b8      	cmp	r0, r7
 8001b30:	dbef      	blt.n	8001b12 <plot+0x42>
 8001b32:	4620      	mov	r0, r4
 8001b34:	f000 ff6e 	bl	8002a14 <q_get>
 8001b38:	b207      	sxth	r7, r0
 8001b3a:	e7ea      	b.n	8001b12 <plot+0x42>
 8001b3c:	42bd      	cmp	r5, r7
 8001b3e:	d01a      	beq.n	8001b76 <plot+0xa6>
 8001b40:	2d00      	cmp	r5, #0
 8001b42:	db1d      	blt.n	8001b80 <plot+0xb0>
 8001b44:	463e      	mov	r6, r7
 8001b46:	46a8      	mov	r8, r5
 8001b48:	eba7 0c05 	sub.w	ip, r7, r5
 8001b4c:	f5bc 7fc8 	cmp.w	ip, #400	@ 0x190
 8001b50:	da40      	bge.n	8001bd4 <plot+0x104>
 8001b52:	f1bc 0ffa 	cmp.w	ip, #250	@ 0xfa
 8001b56:	da59      	bge.n	8001c0c <plot+0x13c>
 8001b58:	f1bc 0f63 	cmp.w	ip, #99	@ 0x63
 8001b5c:	dc30      	bgt.n	8001bc0 <plot+0xf0>
 8001b5e:	f1bc 0f32 	cmp.w	ip, #50	@ 0x32
 8001b62:	da63      	bge.n	8001c2c <plot+0x15c>
 8001b64:	f1bc 0f18 	cmp.w	ip, #24
 8001b68:	dc20      	bgt.n	8001bac <plot+0xdc>
 8001b6a:	f1bc 0f00 	cmp.w	ip, #0
 8001b6e:	db60      	blt.n	8001c32 <plot+0x162>
 8001b70:	f04f 0905 	mov.w	r9, #5
 8001b74:	e04c      	b.n	8001c10 <plot+0x140>
 8001b76:	3d0a      	subs	r5, #10
 8001b78:	b22d      	sxth	r5, r5
 8001b7a:	370a      	adds	r7, #10
 8001b7c:	b23f      	sxth	r7, r7
 8001b7e:	e7df      	b.n	8001b40 <plot+0x70>
 8001b80:	2f00      	cmp	r7, #0
 8001b82:	dddf      	ble.n	8001b44 <plot+0x74>
 8001b84:	2316      	movs	r3, #22
 8001b86:	9300      	str	r3, [sp, #0]
 8001b88:	236e      	movs	r3, #110	@ 0x6e
 8001b8a:	463a      	mov	r2, r7
 8001b8c:	4629      	mov	r1, r5
 8001b8e:	2000      	movs	r0, #0
 8001b90:	f7ff ff86 	bl	8001aa0 <map>
 8001b94:	b281      	uxth	r1, r0
 8001b96:	2300      	movs	r3, #0
 8001b98:	9302      	str	r3, [sp, #8]
 8001b9a:	2201      	movs	r2, #1
 8001b9c:	9201      	str	r2, [sp, #4]
 8001b9e:	9300      	str	r3, [sp, #0]
 8001ba0:	460b      	mov	r3, r1
 8001ba2:	22fa      	movs	r2, #250	@ 0xfa
 8001ba4:	200a      	movs	r0, #10
 8001ba6:	f7ff fb17 	bl	80011d8 <EPD_DrawLine>
 8001baa:	e7cb      	b.n	8001b44 <plot+0x74>
 8001bac:	f1ac 0319 	sub.w	r3, ip, #25
 8001bb0:	2b18      	cmp	r3, #24
 8001bb2:	d802      	bhi.n	8001bba <plot+0xea>
 8001bb4:	f04f 090a 	mov.w	r9, #10
 8001bb8:	e02a      	b.n	8001c10 <plot+0x140>
 8001bba:	f44f 69fa 	mov.w	r9, #2000	@ 0x7d0
 8001bbe:	e027      	b.n	8001c10 <plot+0x140>
 8001bc0:	f1ac 0364 	sub.w	r3, ip, #100	@ 0x64
 8001bc4:	2b95      	cmp	r3, #149	@ 0x95
 8001bc6:	d802      	bhi.n	8001bce <plot+0xfe>
 8001bc8:	f04f 0932 	mov.w	r9, #50	@ 0x32
 8001bcc:	e020      	b.n	8001c10 <plot+0x140>
 8001bce:	f44f 69fa 	mov.w	r9, #2000	@ 0x7d0
 8001bd2:	e01d      	b.n	8001c10 <plot+0x140>
 8001bd4:	f5bc 6ffa 	cmp.w	ip, #2000	@ 0x7d0
 8001bd8:	da0d      	bge.n	8001bf6 <plot+0x126>
 8001bda:	f5bc 7f48 	cmp.w	ip, #800	@ 0x320
 8001bde:	da2b      	bge.n	8001c38 <plot+0x168>
 8001be0:	f5ac 73c8 	sub.w	r3, ip, #400	@ 0x190
 8001be4:	f5b3 7fc8 	cmp.w	r3, #400	@ 0x190
 8001be8:	d202      	bcs.n	8001bf0 <plot+0x120>
 8001bea:	f04f 09c8 	mov.w	r9, #200	@ 0xc8
 8001bee:	e00f      	b.n	8001c10 <plot+0x140>
 8001bf0:	f44f 69fa 	mov.w	r9, #2000	@ 0x7d0
 8001bf4:	e00c      	b.n	8001c10 <plot+0x140>
 8001bf6:	f5ac 63fa 	sub.w	r3, ip, #2000	@ 0x7d0
 8001bfa:	f5b3 6ffa 	cmp.w	r3, #2000	@ 0x7d0
 8001bfe:	d802      	bhi.n	8001c06 <plot+0x136>
 8001c00:	f44f 797a 	mov.w	r9, #1000	@ 0x3e8
 8001c04:	e004      	b.n	8001c10 <plot+0x140>
 8001c06:	f44f 69fa 	mov.w	r9, #2000	@ 0x7d0
 8001c0a:	e001      	b.n	8001c10 <plot+0x140>
 8001c0c:	f04f 0964 	mov.w	r9, #100	@ 0x64
 8001c10:	2d00      	cmp	r5, #0
 8001c12:	db14      	blt.n	8001c3e <plot+0x16e>
 8001c14:	f109 34ff 	add.w	r4, r9, #4294967295
 8001c18:	4444      	add	r4, r8
 8001c1a:	46ca      	mov	sl, r9
 8001c1c:	fb94 f4f9 	sdiv	r4, r4, r9
 8001c20:	fb14 f409 	smulbb	r4, r4, r9
 8001c24:	b224      	sxth	r4, r4
 8001c26:	f8cd c010 	str.w	ip, [sp, #16]
 8001c2a:	e038      	b.n	8001c9e <plot+0x1ce>
 8001c2c:	f04f 0914 	mov.w	r9, #20
 8001c30:	e7ee      	b.n	8001c10 <plot+0x140>
 8001c32:	f44f 69fa 	mov.w	r9, #2000	@ 0x7d0
 8001c36:	e7eb      	b.n	8001c10 <plot+0x140>
 8001c38:	f44f 79fa 	mov.w	r9, #500	@ 0x1f4
 8001c3c:	e7e8      	b.n	8001c10 <plot+0x140>
 8001c3e:	f1c9 0401 	rsb	r4, r9, #1
 8001c42:	e7e9      	b.n	8001c18 <plot+0x148>
 8001c44:	f04f 0b00 	mov.w	fp, #0
 8001c48:	e032      	b.n	8001cb0 <plot+0x1e0>
 8001c4a:	4b59      	ldr	r3, [pc, #356]	@ (8001db0 <plot+0x2e0>)
 8001c4c:	fb83 2304 	smull	r2, r3, r3, r4
 8001c50:	17e2      	asrs	r2, r4, #31
 8001c52:	ebc2 1263 	rsb	r2, r2, r3, asr #5
 8001c56:	b212      	sxth	r2, r2
 8001c58:	4956      	ldr	r1, [pc, #344]	@ (8001db4 <plot+0x2e4>)
 8001c5a:	a806      	add	r0, sp, #24
 8001c5c:	f007 fd18 	bl	8009690 <siprintf>
 8001c60:	fa5f fb80 	uxtb.w	fp, r0
 8001c64:	2000      	movs	r0, #0
 8001c66:	f7ff f933 	bl	8000ed0 <EPD_SetRotate>
 8001c6a:	2358      	movs	r3, #88	@ 0x58
 8001c6c:	9300      	str	r3, [sp, #0]
 8001c6e:	2302      	movs	r3, #2
 8001c70:	4632      	mov	r2, r6
 8001c72:	4641      	mov	r1, r8
 8001c74:	4628      	mov	r0, r5
 8001c76:	f7ff ff13 	bl	8001aa0 <map>
 8001c7a:	eba0 004b 	sub.w	r0, r0, fp, lsl #1
 8001c7e:	b280      	uxth	r0, r0
 8001c80:	3008      	adds	r0, #8
 8001c82:	2100      	movs	r1, #0
 8001c84:	9101      	str	r1, [sp, #4]
 8001c86:	23ff      	movs	r3, #255	@ 0xff
 8001c88:	9300      	str	r3, [sp, #0]
 8001c8a:	4b4b      	ldr	r3, [pc, #300]	@ (8001db8 <plot+0x2e8>)
 8001c8c:	aa06      	add	r2, sp, #24
 8001c8e:	b280      	uxth	r0, r0
 8001c90:	f7ff fb8e 	bl	80013b0 <EPD_DrawString_EN>
 8001c94:	205a      	movs	r0, #90	@ 0x5a
 8001c96:	f7ff f91b 	bl	8000ed0 <EPD_SetRotate>
 8001c9a:	444c      	add	r4, r9
 8001c9c:	b224      	sxth	r4, r4
 8001c9e:	4625      	mov	r5, r4
 8001ca0:	eb06 030a 	add.w	r3, r6, sl
 8001ca4:	429c      	cmp	r4, r3
 8001ca6:	da76      	bge.n	8001d96 <plot+0x2c6>
 8001ca8:	2c00      	cmp	r4, #0
 8001caa:	d0cb      	beq.n	8001c44 <plot+0x174>
 8001cac:	f04f 0b01 	mov.w	fp, #1
 8001cb0:	42a7      	cmp	r7, r4
 8001cb2:	da09      	bge.n	8001cc8 <plot+0x1f8>
 8001cb4:	2316      	movs	r3, #22
 8001cb6:	9300      	str	r3, [sp, #0]
 8001cb8:	236e      	movs	r3, #110	@ 0x6e
 8001cba:	4632      	mov	r2, r6
 8001cbc:	4641      	mov	r1, r8
 8001cbe:	4628      	mov	r0, r5
 8001cc0:	f7ff feee 	bl	8001aa0 <map>
 8001cc4:	2815      	cmp	r0, #21
 8001cc6:	dd66      	ble.n	8001d96 <plot+0x2c6>
 8001cc8:	2316      	movs	r3, #22
 8001cca:	9300      	str	r3, [sp, #0]
 8001ccc:	236e      	movs	r3, #110	@ 0x6e
 8001cce:	4632      	mov	r2, r6
 8001cd0:	4641      	mov	r1, r8
 8001cd2:	4628      	mov	r0, r5
 8001cd4:	f7ff fee4 	bl	8001aa0 <map>
 8001cd8:	b281      	uxth	r1, r0
 8001cda:	f8cd b008 	str.w	fp, [sp, #8]
 8001cde:	2301      	movs	r3, #1
 8001ce0:	9301      	str	r3, [sp, #4]
 8001ce2:	2300      	movs	r3, #0
 8001ce4:	9300      	str	r3, [sp, #0]
 8001ce6:	460b      	mov	r3, r1
 8001ce8:	22fa      	movs	r2, #250	@ 0xfa
 8001cea:	200a      	movs	r0, #10
 8001cec:	f7ff fa74 	bl	80011d8 <EPD_DrawLine>
 8001cf0:	4a2f      	ldr	r2, [pc, #188]	@ (8001db0 <plot+0x2e0>)
 8001cf2:	fb82 3204 	smull	r3, r2, r2, r4
 8001cf6:	17e3      	asrs	r3, r4, #31
 8001cf8:	ebc3 1362 	rsb	r3, r3, r2, asr #5
 8001cfc:	2264      	movs	r2, #100	@ 0x64
 8001cfe:	fb02 4313 	mls	r3, r2, r3, r4
 8001d02:	b21b      	sxth	r3, r3
 8001d04:	2b00      	cmp	r3, #0
 8001d06:	d0a0      	beq.n	8001c4a <plot+0x17a>
 8001d08:	492c      	ldr	r1, [pc, #176]	@ (8001dbc <plot+0x2ec>)
 8001d0a:	fb81 2104 	smull	r2, r1, r1, r4
 8001d0e:	17e2      	asrs	r2, r4, #31
 8001d10:	ebc2 02a1 	rsb	r2, r2, r1, asr #2
 8001d14:	eb02 0282 	add.w	r2, r2, r2, lsl #2
 8001d18:	eba4 0242 	sub.w	r2, r4, r2, lsl #1
 8001d1c:	b212      	sxth	r2, r2
 8001d1e:	b912      	cbnz	r2, 8001d26 <plot+0x256>
 8001d20:	9a04      	ldr	r2, [sp, #16]
 8001d22:	2a63      	cmp	r2, #99	@ 0x63
 8001d24:	dd1d      	ble.n	8001d62 <plot+0x292>
 8001d26:	4925      	ldr	r1, [pc, #148]	@ (8001dbc <plot+0x2ec>)
 8001d28:	fb81 2104 	smull	r2, r1, r1, r4
 8001d2c:	17e2      	asrs	r2, r4, #31
 8001d2e:	ebc2 0261 	rsb	r2, r2, r1, asr #1
 8001d32:	eb02 0282 	add.w	r2, r2, r2, lsl #2
 8001d36:	1aa2      	subs	r2, r4, r2
 8001d38:	b212      	sxth	r2, r2
 8001d3a:	2a00      	cmp	r2, #0
 8001d3c:	d1ad      	bne.n	8001c9a <plot+0x1ca>
 8001d3e:	9a04      	ldr	r2, [sp, #16]
 8001d40:	2a09      	cmp	r2, #9
 8001d42:	dcaa      	bgt.n	8001c9a <plot+0x1ca>
 8001d44:	491a      	ldr	r1, [pc, #104]	@ (8001db0 <plot+0x2e0>)
 8001d46:	fb81 2104 	smull	r2, r1, r1, r4
 8001d4a:	17e2      	asrs	r2, r4, #31
 8001d4c:	ebc2 1261 	rsb	r2, r2, r1, asr #5
 8001d50:	b2db      	uxtb	r3, r3
 8001d52:	b2d2      	uxtb	r2, r2
 8001d54:	491a      	ldr	r1, [pc, #104]	@ (8001dc0 <plot+0x2f0>)
 8001d56:	a806      	add	r0, sp, #24
 8001d58:	f007 fc9a 	bl	8009690 <siprintf>
 8001d5c:	fa5f fb80 	uxtb.w	fp, r0
 8001d60:	e780      	b.n	8001c64 <plot+0x194>
 8001d62:	1d6b      	adds	r3, r5, #5
 8001d64:	4a15      	ldr	r2, [pc, #84]	@ (8001dbc <plot+0x2ec>)
 8001d66:	fb82 1203 	smull	r1, r2, r2, r3
 8001d6a:	17db      	asrs	r3, r3, #31
 8001d6c:	ebc3 03a2 	rsb	r3, r3, r2, asr #2
 8001d70:	b29b      	uxth	r3, r3
 8001d72:	4a14      	ldr	r2, [pc, #80]	@ (8001dc4 <plot+0x2f4>)
 8001d74:	fba2 1203 	umull	r1, r2, r2, r3
 8001d78:	08d1      	lsrs	r1, r2, #3
 8001d7a:	eb01 0181 	add.w	r1, r1, r1, lsl #2
 8001d7e:	eba3 0341 	sub.w	r3, r3, r1, lsl #1
 8001d82:	b2db      	uxtb	r3, r3
 8001d84:	f3c2 02c7 	ubfx	r2, r2, #3, #8
 8001d88:	490d      	ldr	r1, [pc, #52]	@ (8001dc0 <plot+0x2f0>)
 8001d8a:	a806      	add	r0, sp, #24
 8001d8c:	f007 fc80 	bl	8009690 <siprintf>
 8001d90:	fa5f fb80 	uxtb.w	fp, r0
 8001d94:	e766      	b.n	8001c64 <plot+0x194>
 8001d96:	2105      	movs	r1, #5
 8001d98:	480b      	ldr	r0, [pc, #44]	@ (8001dc8 <plot+0x2f8>)
 8001d9a:	f004 fb6e 	bl	800647a <HAL_RTCEx_BKUPRead>
 8001d9e:	4683      	mov	fp, r0
 8001da0:	2700      	movs	r7, #0
 8001da2:	f8cd a014 	str.w	sl, [sp, #20]
 8001da6:	46b2      	mov	sl, r6
 8001da8:	e039      	b.n	8001e1e <plot+0x34e>
 8001daa:	bf00      	nop
 8001dac:	10000000 	.word	0x10000000
 8001db0:	51eb851f 	.word	0x51eb851f
 8001db4:	0800b868 	.word	0x0800b868
 8001db8:	200000b0 	.word	0x200000b0
 8001dbc:	66666667 	.word	0x66666667
 8001dc0:	0800b870 	.word	0x0800b870
 8001dc4:	cccccccd 	.word	0xcccccccd
 8001dc8:	200003bc 	.word	0x200003bc
 8001dcc:	4638      	mov	r0, r7
 8001dce:	f000 fe21 	bl	8002a14 <q_get>
 8001dd2:	2616      	movs	r6, #22
 8001dd4:	9600      	str	r6, [sp, #0]
 8001dd6:	236e      	movs	r3, #110	@ 0x6e
 8001dd8:	4652      	mov	r2, sl
 8001dda:	4641      	mov	r1, r8
 8001ddc:	f7ff fe60 	bl	8001aa0 <map>
 8001de0:	9004      	str	r0, [sp, #16]
 8001de2:	1c7c      	adds	r4, r7, #1
 8001de4:	b2e7      	uxtb	r7, r4
 8001de6:	4638      	mov	r0, r7
 8001de8:	f000 fe14 	bl	8002a14 <q_get>
 8001dec:	9600      	str	r6, [sp, #0]
 8001dee:	236e      	movs	r3, #110	@ 0x6e
 8001df0:	4652      	mov	r2, sl
 8001df2:	4641      	mov	r1, r8
 8001df4:	f7ff fe54 	bl	8001aa0 <map>
 8001df8:	eb04 0484 	add.w	r4, r4, r4, lsl #2
 8001dfc:	f104 020a 	add.w	r2, r4, #10
 8001e00:	eb05 0585 	add.w	r5, r5, r5, lsl #2
 8001e04:	350a      	adds	r5, #10
 8001e06:	2100      	movs	r1, #0
 8001e08:	9102      	str	r1, [sp, #8]
 8001e0a:	2301      	movs	r3, #1
 8001e0c:	9301      	str	r3, [sp, #4]
 8001e0e:	9100      	str	r1, [sp, #0]
 8001e10:	b283      	uxth	r3, r0
 8001e12:	b292      	uxth	r2, r2
 8001e14:	f8bd 1010 	ldrh.w	r1, [sp, #16]
 8001e18:	b2a8      	uxth	r0, r5
 8001e1a:	f7ff f9dd 	bl	80011d8 <EPD_DrawLine>
 8001e1e:	463d      	mov	r5, r7
 8001e20:	f000 fe90 	bl	8002b44 <q_len>
 8001e24:	4287      	cmp	r7, r0
 8001e26:	d3d1      	bcc.n	8001dcc <plot+0x2fc>
 8001e28:	f8dd a014 	ldr.w	sl, [sp, #20]
 8001e2c:	f000 fe8a 	bl	8002b44 <q_len>
 8001e30:	b244      	sxtb	r4, r0
 8001e32:	e001      	b.n	8001e38 <plot+0x368>
 8001e34:	3c08      	subs	r4, #8
 8001e36:	b264      	sxtb	r4, r4
 8001e38:	2c00      	cmp	r4, #0
 8001e3a:	dd2c      	ble.n	8001e96 <plot+0x3c6>
 8001e3c:	f000 fe82 	bl	8002b44 <q_len>
 8001e40:	4284      	cmp	r4, r0
 8001e42:	d0f7      	beq.n	8001e34 <plot+0x364>
 8001e44:	eb04 0584 	add.w	r5, r4, r4, lsl #2
 8001e48:	b2ad      	uxth	r5, r5
 8001e4a:	350a      	adds	r5, #10
 8001e4c:	b2ad      	uxth	r5, r5
 8001e4e:	2301      	movs	r3, #1
 8001e50:	9302      	str	r3, [sp, #8]
 8001e52:	9301      	str	r3, [sp, #4]
 8001e54:	2600      	movs	r6, #0
 8001e56:	9600      	str	r6, [sp, #0]
 8001e58:	2370      	movs	r3, #112	@ 0x70
 8001e5a:	462a      	mov	r2, r5
 8001e5c:	2114      	movs	r1, #20
 8001e5e:	4628      	mov	r0, r5
 8001e60:	f7ff f9ba 	bl	80011d8 <EPD_DrawLine>
 8001e64:	f000 fe6e 	bl	8002b44 <q_len>
 8001e68:	1b00      	subs	r0, r0, r4
 8001e6a:	3801      	subs	r0, #1
 8001e6c:	f44f 63e1 	mov.w	r3, #1800	@ 0x708
 8001e70:	fb03 b010 	mls	r0, r3, r0, fp
 8001e74:	af06      	add	r7, sp, #24
 8001e76:	4a6c      	ldr	r2, [pc, #432]	@ (8002028 <plot+0x558>)
 8001e78:	4402      	add	r2, r0
 8001e7a:	496c      	ldr	r1, [pc, #432]	@ (800202c <plot+0x55c>)
 8001e7c:	4638      	mov	r0, r7
 8001e7e:	f007 fc07 	bl	8009690 <siprintf>
 8001e82:	9601      	str	r6, [sp, #4]
 8001e84:	23ff      	movs	r3, #255	@ 0xff
 8001e86:	9300      	str	r3, [sp, #0]
 8001e88:	4b69      	ldr	r3, [pc, #420]	@ (8002030 <plot+0x560>)
 8001e8a:	463a      	mov	r2, r7
 8001e8c:	2172      	movs	r1, #114	@ 0x72
 8001e8e:	4628      	mov	r0, r5
 8001e90:	f7ff fa8e 	bl	80013b0 <EPD_DrawString_EN>
 8001e94:	e7ce      	b.n	8001e34 <plot+0x364>
 8001e96:	f1a9 030a 	sub.w	r3, r9, #10
 8001e9a:	b29b      	uxth	r3, r3
 8001e9c:	2b59      	cmp	r3, #89	@ 0x59
 8001e9e:	f240 809a 	bls.w	8001fd6 <plot+0x506>
 8001ea2:	f1b9 0f09 	cmp.w	r9, #9
 8001ea6:	f200 80a1 	bhi.w	8001fec <plot+0x51c>
 8001eaa:	4a62      	ldr	r2, [pc, #392]	@ (8002034 <plot+0x564>)
 8001eac:	fba2 9209 	umull	r9, r2, r2, r9
 8001eb0:	ebaa 1352 	sub.w	r3, sl, r2, lsr #5
 8001eb4:	0952      	lsrs	r2, r2, #5
 8001eb6:	4960      	ldr	r1, [pc, #384]	@ (8002038 <plot+0x568>)
 8001eb8:	a815      	add	r0, sp, #84	@ 0x54
 8001eba:	f007 fbe9 	bl	8009690 <siprintf>
 8001ebe:	2000      	movs	r0, #0
 8001ec0:	9001      	str	r0, [sp, #4]
 8001ec2:	23ff      	movs	r3, #255	@ 0xff
 8001ec4:	9300      	str	r3, [sp, #0]
 8001ec6:	4b5d      	ldr	r3, [pc, #372]	@ (800203c <plot+0x56c>)
 8001ec8:	aa15      	add	r2, sp, #84	@ 0x54
 8001eca:	4601      	mov	r1, r0
 8001ecc:	f7ff fa70 	bl	80013b0 <EPD_DrawString_EN>
 8001ed0:	4b5b      	ldr	r3, [pc, #364]	@ (8002040 <plot+0x570>)
 8001ed2:	8818      	ldrh	r0, [r3, #0]
 8001ed4:	f7fe fb16 	bl	8000504 <__aeabi_i2d>
 8001ed8:	4602      	mov	r2, r0
 8001eda:	460b      	mov	r3, r1
 8001edc:	a150      	add	r1, pc, #320	@ (adr r1, 8002020 <plot+0x550>)
 8001ede:	e9d1 0100 	ldrd	r0, r1, [r1]
 8001ee2:	f7fe fca3 	bl	800082c <__aeabi_ddiv>
 8001ee6:	f7fe fd89 	bl	80009fc <__aeabi_d2f>
 8001eea:	ee07 0a90 	vmov	s15, r0
 8001eee:	4b55      	ldr	r3, [pc, #340]	@ (8002044 <plot+0x574>)
 8001ef0:	6018      	str	r0, [r3, #0]
 8001ef2:	eeb0 7a02 	vmov.f32	s14, #2	@ 0x40100000  2.250
 8001ef6:	eef4 7ac7 	vcmpe.f32	s15, s14
 8001efa:	eef1 fa10 	vmrs	APSR_nzcv, fpscr
 8001efe:	d47e      	bmi.n	8001ffe <plot+0x52e>
 8001f00:	2400      	movs	r4, #0
 8001f02:	9402      	str	r4, [sp, #8]
 8001f04:	2501      	movs	r5, #1
 8001f06:	9501      	str	r5, [sp, #4]
 8001f08:	9400      	str	r4, [sp, #0]
 8001f0a:	2370      	movs	r3, #112	@ 0x70
 8001f0c:	22fa      	movs	r2, #250	@ 0xfa
 8001f0e:	4619      	mov	r1, r3
 8001f10:	200a      	movs	r0, #10
 8001f12:	f7ff f961 	bl	80011d8 <EPD_DrawLine>
 8001f16:	9402      	str	r4, [sp, #8]
 8001f18:	9501      	str	r5, [sp, #4]
 8001f1a:	9400      	str	r4, [sp, #0]
 8001f1c:	2370      	movs	r3, #112	@ 0x70
 8001f1e:	220a      	movs	r2, #10
 8001f20:	2114      	movs	r1, #20
 8001f22:	4610      	mov	r0, r2
 8001f24:	f7ff f958 	bl	80011d8 <EPD_DrawLine>
 8001f28:	a910      	add	r1, sp, #64	@ 0x40
 8001f2a:	9410      	str	r4, [sp, #64]	@ 0x40
 8001f2c:	604c      	str	r4, [r1, #4]
 8001f2e:	608c      	str	r4, [r1, #8]
 8001f30:	60cc      	str	r4, [r1, #12]
 8001f32:	610c      	str	r4, [r1, #16]
 8001f34:	940f      	str	r4, [sp, #60]	@ 0x3c
 8001f36:	4d44      	ldr	r5, [pc, #272]	@ (8002048 <plot+0x578>)
 8001f38:	4622      	mov	r2, r4
 8001f3a:	4628      	mov	r0, r5
 8001f3c:	f004 f97e 	bl	800623c <HAL_RTC_GetTime>
 8001f40:	4622      	mov	r2, r4
 8001f42:	a90f      	add	r1, sp, #60	@ 0x3c
 8001f44:	4628      	mov	r0, r5
 8001f46:	f004 f99f 	bl	8006288 <HAL_RTC_GetDate>
 8001f4a:	f89d 303e 	ldrb.w	r3, [sp, #62]	@ 0x3e
 8001f4e:	f88d 3037 	strb.w	r3, [sp, #55]	@ 0x37
 8001f52:	f89d 303d 	ldrb.w	r3, [sp, #61]	@ 0x3d
 8001f56:	f88d 3036 	strb.w	r3, [sp, #54]	@ 0x36
 8001f5a:	f89d 303f 	ldrb.w	r3, [sp, #63]	@ 0x3f
 8001f5e:	f8ad 3034 	strh.w	r3, [sp, #52]	@ 0x34
 8001f62:	4e3a      	ldr	r6, [pc, #232]	@ (800204c <plot+0x57c>)
 8001f64:	9401      	str	r4, [sp, #4]
 8001f66:	27ff      	movs	r7, #255	@ 0xff
 8001f68:	9700      	str	r7, [sp, #0]
 8001f6a:	4633      	mov	r3, r6
 8001f6c:	aa0d      	add	r2, sp, #52	@ 0x34
 8001f6e:	4621      	mov	r1, r4
 8001f70:	20af      	movs	r0, #175	@ 0xaf
 8001f72:	f7ff fa5b 	bl	800142c <EPD_DrawDate>
 8001f76:	f000 fde5 	bl	8002b44 <q_len>
 8001f7a:	3801      	subs	r0, #1
 8001f7c:	b2c0      	uxtb	r0, r0
 8001f7e:	f000 fd49 	bl	8002a14 <q_get>
 8001f82:	4605      	mov	r5, r0
 8001f84:	f000 fdde 	bl	8002b44 <q_len>
 8001f88:	3801      	subs	r0, #1
 8001f8a:	b2c0      	uxtb	r0, r0
 8001f8c:	f000 fd42 	bl	8002a14 <q_get>
 8001f90:	4a28      	ldr	r2, [pc, #160]	@ (8002034 <plot+0x564>)
 8001f92:	fba2 1300 	umull	r1, r3, r2, r0
 8001f96:	095b      	lsrs	r3, r3, #5
 8001f98:	f04f 0864 	mov.w	r8, #100	@ 0x64
 8001f9c:	fb08 0313 	mls	r3, r8, r3, r0
 8001fa0:	fba2 1205 	umull	r1, r2, r2, r5
 8001fa4:	ad0a      	add	r5, sp, #40	@ 0x28
 8001fa6:	b29b      	uxth	r3, r3
 8001fa8:	f3c2 124f 	ubfx	r2, r2, #5, #16
 8001fac:	4928      	ldr	r1, [pc, #160]	@ (8002050 <plot+0x580>)
 8001fae:	4628      	mov	r0, r5
 8001fb0:	f007 fb6e 	bl	8009690 <siprintf>
 8001fb4:	9401      	str	r4, [sp, #4]
 8001fb6:	9700      	str	r7, [sp, #0]
 8001fb8:	4633      	mov	r3, r6
 8001fba:	462a      	mov	r2, r5
 8001fbc:	4621      	mov	r1, r4
 8001fbe:	2055      	movs	r0, #85	@ 0x55
 8001fc0:	f7ff f9f6 	bl	80013b0 <EPD_DrawString_EN>
 8001fc4:	4823      	ldr	r0, [pc, #140]	@ (8002054 <plot+0x584>)
 8001fc6:	f7fe feef 	bl	8000da8 <EPD_Display_Base>
 8001fca:	4640      	mov	r0, r8
 8001fcc:	f000 fe10 	bl	8002bf0 <HAL_Delay>
 8001fd0:	b019      	add	sp, #100	@ 0x64
 8001fd2:	e8bd 8ff0 	ldmia.w	sp!, {r4, r5, r6, r7, r8, r9, sl, fp, pc}
 8001fd6:	4a17      	ldr	r2, [pc, #92]	@ (8002034 <plot+0x564>)
 8001fd8:	fba2 9209 	umull	r9, r2, r2, r9
 8001fdc:	ebaa 1352 	sub.w	r3, sl, r2, lsr #5
 8001fe0:	0952      	lsrs	r2, r2, #5
 8001fe2:	491d      	ldr	r1, [pc, #116]	@ (8002058 <plot+0x588>)
 8001fe4:	a815      	add	r0, sp, #84	@ 0x54
 8001fe6:	f007 fb53 	bl	8009690 <siprintf>
 8001fea:	e768      	b.n	8001ebe <plot+0x3ee>
 8001fec:	4b11      	ldr	r3, [pc, #68]	@ (8002034 <plot+0x564>)
 8001fee:	fba3 3209 	umull	r3, r2, r3, r9
 8001ff2:	0952      	lsrs	r2, r2, #5
 8001ff4:	4919      	ldr	r1, [pc, #100]	@ (800205c <plot+0x58c>)
 8001ff6:	a815      	add	r0, sp, #84	@ 0x54
 8001ff8:	f007 fb4a 	bl	8009690 <siprintf>
 8001ffc:	e75f      	b.n	8001ebe <plot+0x3ee>
 8001ffe:	2000      	movs	r0, #0
 8002000:	f7fe ff66 	bl	8000ed0 <EPD_SetRotate>
 8002004:	4b16      	ldr	r3, [pc, #88]	@ (8002060 <plot+0x590>)
 8002006:	9300      	str	r3, [sp, #0]
 8002008:	231a      	movs	r3, #26
 800200a:	2210      	movs	r2, #16
 800200c:	215f      	movs	r1, #95	@ 0x5f
 800200e:	206b      	movs	r0, #107	@ 0x6b
 8002010:	f7ff fad8 	bl	80015c4 <EPD_DrawBMP>
 8002014:	205a      	movs	r0, #90	@ 0x5a
 8002016:	f7fe ff5b 	bl	8000ed0 <EPD_SetRotate>
 800201a:	e771      	b.n	8001f00 <plot+0x430>
 800201c:	f3af 8000 	nop.w
 8002020:	99999999 	.word	0x99999999
 8002024:	40b2e019 	.word	0x40b2e019
 8002028:	9849b500 	.word	0x9849b500
 800202c:	0800b868 	.word	0x0800b868
 8002030:	200000b0 	.word	0x200000b0
 8002034:	51eb851f 	.word	0x51eb851f
 8002038:	0800b884 	.word	0x0800b884
 800203c:	200000a0 	.word	0x200000a0
 8002040:	200002c8 	.word	0x200002c8
 8002044:	200002cc 	.word	0x200002cc
 8002048:	200003bc 	.word	0x200003bc
 800204c:	200000a8 	.word	0x200000a8
 8002050:	0800b8a0 	.word	0x0800b8a0
 8002054:	10000000 	.word	0x10000000
 8002058:	0800b878 	.word	0x0800b878
 800205c:	0800b894 	.word	0x0800b894
 8002060:	0800cc2c 	.word	0x0800cc2c

08002064 <shutdown>:
 8002064:	b510      	push	{r4, lr}
 8002066:	b086      	sub	sp, #24
 8002068:	4604      	mov	r4, r0
 800206a:	f7fe feca 	bl	8000e02 <EPD_Sleep>
 800206e:	f7fe fed3 	bl	8000e18 <EPD_Exit>
 8002072:	4a1b      	ldr	r2, [pc, #108]	@ (80020e0 <shutdown+0x7c>)
 8002074:	6e13      	ldr	r3, [r2, #96]	@ 0x60
 8002076:	f423 5380 	bic.w	r3, r3, #4096	@ 0x1000
 800207a:	6613      	str	r3, [r2, #96]	@ 0x60
 800207c:	4819      	ldr	r0, [pc, #100]	@ (80020e4 <shutdown+0x80>)
 800207e:	f004 fb81 	bl	8006784 <HAL_SPI_DeInit>
 8002082:	a901      	add	r1, sp, #4
 8002084:	2300      	movs	r3, #0
 8002086:	9301      	str	r3, [sp, #4]
 8002088:	604b      	str	r3, [r1, #4]
 800208a:	608b      	str	r3, [r1, #8]
 800208c:	60cb      	str	r3, [r1, #12]
 800208e:	610b      	str	r3, [r1, #16]
 8002090:	23fa      	movs	r3, #250	@ 0xfa
 8002092:	9301      	str	r3, [sp, #4]
 8002094:	2303      	movs	r3, #3
 8002096:	9302      	str	r3, [sp, #8]
 8002098:	f04f 4090 	mov.w	r0, #1207959552	@ 0x48000000
 800209c:	f001 fdfc 	bl	8003c98 <HAL_GPIO_Init>
 80020a0:	f000 fdba 	bl	8002c18 <HAL_SuspendTick>
 80020a4:	f04f 30ff 	mov.w	r0, #4294967295
 80020a8:	f001 fca6 	bl	80039f8 <HAL_NVIC_DisableIRQ>
 80020ac:	b15c      	cbz	r4, 80020c6 <shutdown+0x62>
 80020ae:	4b0e      	ldr	r3, [pc, #56]	@ (80020e8 <shutdown+0x84>)
 80020b0:	699b      	ldr	r3, [r3, #24]
 80020b2:	f413 6f80 	tst.w	r3, #1024	@ 0x400
 80020b6:	d101      	bne.n	80020bc <shutdown+0x58>
 80020b8:	210a      	movs	r1, #10
 80020ba:	e005      	b.n	80020c8 <shutdown+0x64>
 80020bc:	480b      	ldr	r0, [pc, #44]	@ (80020ec <shutdown+0x88>)
 80020be:	f004 f9b2 	bl	8006426 <HAL_RTCEx_GetWakeUpTimer>
 80020c2:	4601      	mov	r1, r0
 80020c4:	e000      	b.n	80020c8 <shutdown+0x64>
 80020c6:	210a      	movs	r1, #10
 80020c8:	2300      	movs	r3, #0
 80020ca:	2204      	movs	r2, #4
 80020cc:	4807      	ldr	r0, [pc, #28]	@ (80020ec <shutdown+0x88>)
 80020ce:	f004 f8f9 	bl	80062c4 <HAL_RTCEx_SetWakeUpTimer_IT>
 80020d2:	f003 f8e7 	bl	80052a4 <HAL_PWREx_EnableLowPowerRunMode>
 80020d6:	2001      	movs	r0, #1
 80020d8:	f003 f8ec 	bl	80052b4 <HAL_PWREx_EnterSTOP2Mode>
 80020dc:	b006      	add	sp, #24
 80020de:	bd10      	pop	{r4, pc}
 80020e0:	40021000 	.word	0x40021000
 80020e4:	20000358 	.word	0x20000358
 80020e8:	40002800 	.word	0x40002800
 80020ec:	200003bc 	.word	0x200003bc

080020f0 <DS18_INIT>:
 80020f0:	b510      	push	{r4, lr}
 80020f2:	b082      	sub	sp, #8
 80020f4:	4c11      	ldr	r4, [pc, #68]	@ (800213c <DS18_INIT+0x4c>)
 80020f6:	4912      	ldr	r1, [pc, #72]	@ (8002140 <DS18_INIT+0x50>)
 80020f8:	4620      	mov	r0, r4
 80020fa:	f7ff fc14 	bl	8001926 <DS18B20_Init>
 80020fe:	4620      	mov	r0, r4
 8002100:	f7ff fbd9 	bl	80018b6 <DS18B20_InitializationCommand>
 8002104:	4620      	mov	r0, r4
 8002106:	f7ff fbe7 	bl	80018d8 <DS18B20_ReadRom>
 800210a:	4620      	mov	r0, r4
 800210c:	f7ff fb64 	bl	80017d8 <DS18B20_ReadScratchpad>
 8002110:	7be3      	ldrb	r3, [r4, #15]
 8002112:	f88d 3004 	strb.w	r3, [sp, #4]
 8002116:	7ba3      	ldrb	r3, [r4, #14]
 8002118:	f88d 3005 	strb.w	r3, [sp, #5]
 800211c:	237f      	movs	r3, #127	@ 0x7f
 800211e:	f88d 3006 	strb.w	r3, [sp, #6]
 8002122:	4620      	mov	r0, r4
 8002124:	f7ff fbc7 	bl	80018b6 <DS18B20_InitializationCommand>
 8002128:	4620      	mov	r0, r4
 800212a:	f7ff fbf2 	bl	8001912 <DS18B20_SkipRom>
 800212e:	a901      	add	r1, sp, #4
 8002130:	4620      	mov	r0, r4
 8002132:	f7ff fbab 	bl	800188c <DS18B20_WriteScratchpad>
 8002136:	b002      	add	sp, #8
 8002138:	bd10      	pop	{r4, pc}
 800213a:	bf00      	nop
 800213c:	200002b0 	.word	0x200002b0
 8002140:	200002d0 	.word	0x200002d0

08002144 <DS18_GET>:
 8002144:	b510      	push	{r4, lr}
 8002146:	4c0b      	ldr	r4, [pc, #44]	@ (8002174 <DS18_GET+0x30>)
 8002148:	4620      	mov	r0, r4
 800214a:	f7ff fbb4 	bl	80018b6 <DS18B20_InitializationCommand>
 800214e:	4620      	mov	r0, r4
 8002150:	f7ff fbdf 	bl	8001912 <DS18B20_SkipRom>
 8002154:	2101      	movs	r1, #1
 8002156:	4620      	mov	r0, r4
 8002158:	f7ff fb0f 	bl	800177a <DS18B20_ConvertT>
 800215c:	4620      	mov	r0, r4
 800215e:	f7ff fbaa 	bl	80018b6 <DS18B20_InitializationCommand>
 8002162:	4620      	mov	r0, r4
 8002164:	f7ff fbd5 	bl	8001912 <DS18B20_SkipRom>
 8002168:	4620      	mov	r0, r4
 800216a:	f7ff fb35 	bl	80017d8 <DS18B20_ReadScratchpad>
 800216e:	ed94 0a05 	vldr	s0, [r4, #20]
 8002172:	bd10      	pop	{r4, pc}
 8002174:	200002b0 	.word	0x200002b0

08002178 <set_time>:
 8002178:	e92d 41f0 	stmdb	sp!, {r4, r5, r6, r7, r8, lr}
 800217c:	b09c      	sub	sp, #112	@ 0x70
 800217e:	af17      	add	r7, sp, #92	@ 0x5c
 8002180:	2400      	movs	r4, #0
 8002182:	9417      	str	r4, [sp, #92]	@ 0x5c
 8002184:	9418      	str	r4, [sp, #96]	@ 0x60
 8002186:	9419      	str	r4, [sp, #100]	@ 0x64
 8002188:	941a      	str	r4, [sp, #104]	@ 0x68
 800218a:	941b      	str	r4, [sp, #108]	@ 0x6c
 800218c:	f04f 4390 	mov.w	r3, #1207959552	@ 0x48000000
 8002190:	9317      	str	r3, [sp, #92]	@ 0x5c
 8002192:	f04f 0801 	mov.w	r8, #1
 8002196:	f8ad 8060 	strh.w	r8, [sp, #96]	@ 0x60
 800219a:	ae12      	add	r6, sp, #72	@ 0x48
 800219c:	9412      	str	r4, [sp, #72]	@ 0x48
 800219e:	9413      	str	r4, [sp, #76]	@ 0x4c
 80021a0:	9414      	str	r4, [sp, #80]	@ 0x50
 80021a2:	9415      	str	r4, [sp, #84]	@ 0x54
 80021a4:	9416      	str	r4, [sp, #88]	@ 0x58
 80021a6:	9312      	str	r3, [sp, #72]	@ 0x48
 80021a8:	f44f 7280 	mov.w	r2, #256	@ 0x100
 80021ac:	f8ad 204c 	strh.w	r2, [sp, #76]	@ 0x4c
 80021b0:	ad0d      	add	r5, sp, #52	@ 0x34
 80021b2:	940d      	str	r4, [sp, #52]	@ 0x34
 80021b4:	940e      	str	r4, [sp, #56]	@ 0x38
 80021b6:	940f      	str	r4, [sp, #60]	@ 0x3c
 80021b8:	9410      	str	r4, [sp, #64]	@ 0x40
 80021ba:	9411      	str	r4, [sp, #68]	@ 0x44
 80021bc:	930d      	str	r3, [sp, #52]	@ 0x34
 80021be:	f44f 7300 	mov.w	r3, #512	@ 0x200
 80021c2:	f8ad 3038 	strh.w	r3, [sp, #56]	@ 0x38
 80021c6:	4b24      	ldr	r3, [pc, #144]	@ (8002258 <set_time+0xe0>)
 80021c8:	930b      	str	r3, [sp, #44]	@ 0x2c
 80021ca:	f88d 4030 	strb.w	r4, [sp, #48]	@ 0x30
 80021ce:	4b23      	ldr	r3, [pc, #140]	@ (800225c <set_time+0xe4>)
 80021d0:	e893 0003 	ldmia.w	r3, {r0, r1}
 80021d4:	9009      	str	r0, [sp, #36]	@ 0x24
 80021d6:	f88d 1028 	strb.w	r1, [sp, #40]	@ 0x28
 80021da:	4b21      	ldr	r3, [pc, #132]	@ (8002260 <set_time+0xe8>)
 80021dc:	9307      	str	r3, [sp, #28]
 80021de:	f88d 4020 	strb.w	r4, [sp, #32]
 80021e2:	f000 fcff 	bl	8002be4 <HAL_GetTick>
 80021e6:	4638      	mov	r0, r7
 80021e8:	f7ff fa0f 	bl	800160a <tick>
 80021ec:	4628      	mov	r0, r5
 80021ee:	f7ff fa0c 	bl	800160a <tick>
 80021f2:	4630      	mov	r0, r6
 80021f4:	f7ff fa09 	bl	800160a <tick>
 80021f8:	4638      	mov	r0, r7
 80021fa:	f7ff fa52 	bl	80016a2 <isClicked>
 80021fe:	4630      	mov	r0, r6
 8002200:	f7ff fa4f 	bl	80016a2 <isClicked>
 8002204:	4628      	mov	r0, r5
 8002206:	f7ff fa4c 	bl	80016a2 <isClicked>
 800220a:	ad02      	add	r5, sp, #8
 800220c:	9402      	str	r4, [sp, #8]
 800220e:	9403      	str	r4, [sp, #12]
 8002210:	9404      	str	r4, [sp, #16]
 8002212:	9405      	str	r4, [sp, #20]
 8002214:	9406      	str	r4, [sp, #24]
 8002216:	9401      	str	r4, [sp, #4]
 8002218:	230c      	movs	r3, #12
 800221a:	f88d 3008 	strb.w	r3, [sp, #8]
 800221e:	2319      	movs	r3, #25
 8002220:	f88d 3007 	strb.w	r3, [sp, #7]
 8002224:	2303      	movs	r3, #3
 8002226:	f88d 3005 	strb.w	r3, [sp, #5]
 800222a:	2318      	movs	r3, #24
 800222c:	f88d 3006 	strb.w	r3, [sp, #6]
 8002230:	f88d 8004 	strb.w	r8, [sp, #4]
 8002234:	f44f 3380 	mov.w	r3, #65536	@ 0x10000
 8002238:	9305      	str	r3, [sp, #20]
 800223a:	4e0a      	ldr	r6, [pc, #40]	@ (8002264 <set_time+0xec>)
 800223c:	4622      	mov	r2, r4
 800223e:	a901      	add	r1, sp, #4
 8002240:	4630      	mov	r0, r6
 8002242:	f003 ffa0 	bl	8006186 <HAL_RTC_SetDate>
 8002246:	4622      	mov	r2, r4
 8002248:	4629      	mov	r1, r5
 800224a:	4630      	mov	r0, r6
 800224c:	f003 ff35 	bl	80060ba <HAL_RTC_SetTime>
 8002250:	b01c      	add	sp, #112	@ 0x70
 8002252:	e8bd 81f0 	ldmia.w	sp!, {r4, r5, r6, r7, r8, pc}
 8002256:	bf00      	nop
 8002258:	0c180319 	.word	0x0c180319
 800225c:	0800b8a8 	.word	0x0800b8a8
 8002260:	00010100 	.word	0x00010100
 8002264:	200003bc 	.word	0x200003bc

08002268 <USB_CDC_RxHandler>:
 8002268:	b508      	push	{r3, lr}
 800226a:	b289      	uxth	r1, r1
 800226c:	f006 f9c4 	bl	80085f8 <CDC_Transmit_FS>
 8002270:	bd08      	pop	{r3, pc}
	...

08002274 <HAL_RTCEx_WakeUpTimerEventCallback>:
 8002274:	b508      	push	{r3, lr}
 8002276:	4b04      	ldr	r3, [pc, #16]	@ (8002288 <HAL_RTCEx_WakeUpTimerEventCallback+0x14>)
 8002278:	2201      	movs	r2, #1
 800227a:	701a      	strb	r2, [r3, #0]
 800227c:	f005 fed8 	bl	8008030 <MX_USB_DEVICE_IsConnected>
 8002280:	4b02      	ldr	r3, [pc, #8]	@ (800228c <HAL_RTCEx_WakeUpTimerEventCallback+0x18>)
 8002282:	7018      	strb	r0, [r3, #0]
 8002284:	bd08      	pop	{r3, pc}
 8002286:	bf00      	nop
 8002288:	200002ad 	.word	0x200002ad
 800228c:	200002ae 	.word	0x200002ae

08002290 <HAL_GPIO_EXTI_Callback>:
 8002290:	2801      	cmp	r0, #1
 8002292:	d001      	beq.n	8002298 <HAL_GPIO_EXTI_Callback+0x8>
 8002294:	bf00      	nop
 8002296:	4770      	bx	lr
 8002298:	b508      	push	{r3, lr}
 800229a:	f005 fec9 	bl	8008030 <MX_USB_DEVICE_IsConnected>
 800229e:	b910      	cbnz	r0, 80022a6 <HAL_GPIO_EXTI_Callback+0x16>
 80022a0:	4b01      	ldr	r3, [pc, #4]	@ (80022a8 <HAL_GPIO_EXTI_Callback+0x18>)
 80022a2:	2201      	movs	r2, #1
 80022a4:	701a      	strb	r2, [r3, #0]
 80022a6:	bd08      	pop	{r3, pc}
 80022a8:	200002ac 	.word	0x200002ac

080022ac <Error_Handler>:
 80022ac:	b672      	cpsid	i
 80022ae:	e7fe      	b.n	80022ae <Error_Handler+0x2>

080022b0 <MX_SPI1_Init>:
 80022b0:	b508      	push	{r3, lr}
 80022b2:	4811      	ldr	r0, [pc, #68]	@ (80022f8 <MX_SPI1_Init+0x48>)
 80022b4:	4b11      	ldr	r3, [pc, #68]	@ (80022fc <MX_SPI1_Init+0x4c>)
 80022b6:	6003      	str	r3, [r0, #0]
 80022b8:	f44f 7382 	mov.w	r3, #260	@ 0x104
 80022bc:	6043      	str	r3, [r0, #4]
 80022be:	f44f 4300 	mov.w	r3, #32768	@ 0x8000
 80022c2:	6083      	str	r3, [r0, #8]
 80022c4:	f44f 63e0 	mov.w	r3, #1792	@ 0x700
 80022c8:	60c3      	str	r3, [r0, #12]
 80022ca:	2300      	movs	r3, #0
 80022cc:	6103      	str	r3, [r0, #16]
 80022ce:	6143      	str	r3, [r0, #20]
 80022d0:	f44f 7200 	mov.w	r2, #512	@ 0x200
 80022d4:	6182      	str	r2, [r0, #24]
 80022d6:	2218      	movs	r2, #24
 80022d8:	61c2      	str	r2, [r0, #28]
 80022da:	6203      	str	r3, [r0, #32]
 80022dc:	6243      	str	r3, [r0, #36]	@ 0x24
 80022de:	6283      	str	r3, [r0, #40]	@ 0x28
 80022e0:	2207      	movs	r2, #7
 80022e2:	62c2      	str	r2, [r0, #44]	@ 0x2c
 80022e4:	6303      	str	r3, [r0, #48]	@ 0x30
 80022e6:	2308      	movs	r3, #8
 80022e8:	6343      	str	r3, [r0, #52]	@ 0x34
 80022ea:	f004 f9dc 	bl	80066a6 <HAL_SPI_Init>
 80022ee:	b900      	cbnz	r0, 80022f2 <MX_SPI1_Init+0x42>
 80022f0:	bd08      	pop	{r3, pc}
 80022f2:	f7ff ffdb 	bl	80022ac <Error_Handler>
 80022f6:	bf00      	nop
 80022f8:	20000358 	.word	0x20000358
 80022fc:	40013000 	.word	0x40013000

08002300 <MX_RTC_Init>:
 8002300:	b530      	push	{r4, r5, lr}
 8002302:	b087      	sub	sp, #28
 8002304:	2500      	movs	r5, #0
 8002306:	9501      	str	r5, [sp, #4]
 8002308:	9502      	str	r5, [sp, #8]
 800230a:	9503      	str	r5, [sp, #12]
 800230c:	9504      	str	r5, [sp, #16]
 800230e:	9505      	str	r5, [sp, #20]
 8002310:	9500      	str	r5, [sp, #0]
 8002312:	4c24      	ldr	r4, [pc, #144]	@ (80023a4 <MX_RTC_Init+0xa4>)
 8002314:	2106      	movs	r1, #6
 8002316:	4620      	mov	r0, r4
 8002318:	f004 f8af 	bl	800647a <HAL_RTCEx_BKUPRead>
 800231c:	4b22      	ldr	r3, [pc, #136]	@ (80023a8 <MX_RTC_Init+0xa8>)
 800231e:	6023      	str	r3, [r4, #0]
 8002320:	60a5      	str	r5, [r4, #8]
 8002322:	237f      	movs	r3, #127	@ 0x7f
 8002324:	60e3      	str	r3, [r4, #12]
 8002326:	23ff      	movs	r3, #255	@ 0xff
 8002328:	6123      	str	r3, [r4, #16]
 800232a:	6165      	str	r5, [r4, #20]
 800232c:	61a5      	str	r5, [r4, #24]
 800232e:	61e5      	str	r5, [r4, #28]
 8002330:	f04f 4380 	mov.w	r3, #1073741824	@ 0x40000000
 8002334:	6223      	str	r3, [r4, #32]
 8002336:	6265      	str	r5, [r4, #36]	@ 0x24
 8002338:	4620      	mov	r0, r4
 800233a:	f003 fe57 	bl	8005fec <HAL_RTC_Init>
 800233e:	bb40      	cbnz	r0, 8002392 <MX_RTC_Init+0x92>
 8002340:	2300      	movs	r3, #0
 8002342:	f88d 3004 	strb.w	r3, [sp, #4]
 8002346:	f88d 3005 	strb.w	r3, [sp, #5]
 800234a:	f88d 3006 	strb.w	r3, [sp, #6]
 800234e:	f44f 3280 	mov.w	r2, #65536	@ 0x10000
 8002352:	9204      	str	r2, [sp, #16]
 8002354:	9305      	str	r3, [sp, #20]
 8002356:	2201      	movs	r2, #1
 8002358:	a901      	add	r1, sp, #4
 800235a:	4812      	ldr	r0, [pc, #72]	@ (80023a4 <MX_RTC_Init+0xa4>)
 800235c:	f003 fead 	bl	80060ba <HAL_RTC_SetTime>
 8002360:	b9c8      	cbnz	r0, 8002396 <MX_RTC_Init+0x96>
 8002362:	2201      	movs	r2, #1
 8002364:	f88d 2000 	strb.w	r2, [sp]
 8002368:	f88d 2001 	strb.w	r2, [sp, #1]
 800236c:	f88d 2002 	strb.w	r2, [sp, #2]
 8002370:	2325      	movs	r3, #37	@ 0x25
 8002372:	f88d 3003 	strb.w	r3, [sp, #3]
 8002376:	4669      	mov	r1, sp
 8002378:	480a      	ldr	r0, [pc, #40]	@ (80023a4 <MX_RTC_Init+0xa4>)
 800237a:	f003 ff04 	bl	8006186 <HAL_RTC_SetDate>
 800237e:	b960      	cbnz	r0, 800239a <MX_RTC_Init+0x9a>
 8002380:	2300      	movs	r3, #0
 8002382:	2204      	movs	r2, #4
 8002384:	211e      	movs	r1, #30
 8002386:	4807      	ldr	r0, [pc, #28]	@ (80023a4 <MX_RTC_Init+0xa4>)
 8002388:	f003 ff9c 	bl	80062c4 <HAL_RTCEx_SetWakeUpTimer_IT>
 800238c:	b938      	cbnz	r0, 800239e <MX_RTC_Init+0x9e>
 800238e:	b007      	add	sp, #28
 8002390:	bd30      	pop	{r4, r5, pc}
 8002392:	f7ff ff8b 	bl	80022ac <Error_Handler>
 8002396:	f7ff ff89 	bl	80022ac <Error_Handler>
 800239a:	f7ff ff87 	bl	80022ac <Error_Handler>
 800239e:	f7ff ff85 	bl	80022ac <Error_Handler>
 80023a2:	bf00      	nop
 80023a4:	200003bc 	.word	0x200003bc
 80023a8:	40002800 	.word	0x40002800

080023ac <MX_USART2_UART_Init>:
 80023ac:	b508      	push	{r3, lr}
 80023ae:	480b      	ldr	r0, [pc, #44]	@ (80023dc <MX_USART2_UART_Init+0x30>)
 80023b0:	4b0b      	ldr	r3, [pc, #44]	@ (80023e0 <MX_USART2_UART_Init+0x34>)
 80023b2:	6003      	str	r3, [r0, #0]
 80023b4:	f44f 33e1 	mov.w	r3, #115200	@ 0x1c200
 80023b8:	6043      	str	r3, [r0, #4]
 80023ba:	2300      	movs	r3, #0
 80023bc:	6083      	str	r3, [r0, #8]
 80023be:	60c3      	str	r3, [r0, #12]
 80023c0:	6103      	str	r3, [r0, #16]
 80023c2:	220c      	movs	r2, #12
 80023c4:	6142      	str	r2, [r0, #20]
 80023c6:	6183      	str	r3, [r0, #24]
 80023c8:	61c3      	str	r3, [r0, #28]
 80023ca:	6203      	str	r3, [r0, #32]
 80023cc:	6243      	str	r3, [r0, #36]	@ 0x24
 80023ce:	f004 fe72 	bl	80070b6 <HAL_HalfDuplex_Init>
 80023d2:	b900      	cbnz	r0, 80023d6 <MX_USART2_UART_Init+0x2a>
 80023d4:	bd08      	pop	{r3, pc}
 80023d6:	f7ff ff69 	bl	80022ac <Error_Handler>
 80023da:	bf00      	nop
 80023dc:	200002d0 	.word	0x200002d0
 80023e0:	40004400 	.word	0x40004400

080023e4 <MX_ADC1_Init>:
 80023e4:	b500      	push	{lr}
 80023e6:	b08b      	sub	sp, #44	@ 0x2c
 80023e8:	2300      	movs	r3, #0
 80023ea:	9307      	str	r3, [sp, #28]
 80023ec:	9308      	str	r3, [sp, #32]
 80023ee:	9309      	str	r3, [sp, #36]	@ 0x24
 80023f0:	9301      	str	r3, [sp, #4]
 80023f2:	9302      	str	r3, [sp, #8]
 80023f4:	9303      	str	r3, [sp, #12]
 80023f6:	9304      	str	r3, [sp, #16]
 80023f8:	9305      	str	r3, [sp, #20]
 80023fa:	9306      	str	r3, [sp, #24]
 80023fc:	481c      	ldr	r0, [pc, #112]	@ (8002470 <MX_ADC1_Init+0x8c>)
 80023fe:	4a1d      	ldr	r2, [pc, #116]	@ (8002474 <MX_ADC1_Init+0x90>)
 8002400:	6002      	str	r2, [r0, #0]
 8002402:	6043      	str	r3, [r0, #4]
 8002404:	6083      	str	r3, [r0, #8]
 8002406:	60c3      	str	r3, [r0, #12]
 8002408:	6103      	str	r3, [r0, #16]
 800240a:	2204      	movs	r2, #4
 800240c:	6142      	str	r2, [r0, #20]
 800240e:	7603      	strb	r3, [r0, #24]
 8002410:	2201      	movs	r2, #1
 8002412:	7642      	strb	r2, [r0, #25]
 8002414:	61c2      	str	r2, [r0, #28]
 8002416:	f880 3020 	strb.w	r3, [r0, #32]
 800241a:	6283      	str	r3, [r0, #40]	@ 0x28
 800241c:	62c3      	str	r3, [r0, #44]	@ 0x2c
 800241e:	f880 3030 	strb.w	r3, [r0, #48]	@ 0x30
 8002422:	6343      	str	r3, [r0, #52]	@ 0x34
 8002424:	f880 3038 	strb.w	r3, [r0, #56]	@ 0x38
 8002428:	f000 fc32 	bl	8002c90 <HAL_ADC_Init>
 800242c:	b9d0      	cbnz	r0, 8002464 <MX_ADC1_Init+0x80>
 800242e:	2300      	movs	r3, #0
 8002430:	9307      	str	r3, [sp, #28]
 8002432:	a907      	add	r1, sp, #28
 8002434:	480e      	ldr	r0, [pc, #56]	@ (8002470 <MX_ADC1_Init+0x8c>)
 8002436:	f001 f9d9 	bl	80037ec <HAL_ADCEx_MultiModeConfigChannel>
 800243a:	b9a8      	cbnz	r0, 8002468 <MX_ADC1_Init+0x84>
 800243c:	4b0e      	ldr	r3, [pc, #56]	@ (8002478 <MX_ADC1_Init+0x94>)
 800243e:	9301      	str	r3, [sp, #4]
 8002440:	2306      	movs	r3, #6
 8002442:	9302      	str	r3, [sp, #8]
 8002444:	2300      	movs	r3, #0
 8002446:	9303      	str	r3, [sp, #12]
 8002448:	227f      	movs	r2, #127	@ 0x7f
 800244a:	9204      	str	r2, [sp, #16]
 800244c:	2204      	movs	r2, #4
 800244e:	9205      	str	r2, [sp, #20]
 8002450:	9306      	str	r3, [sp, #24]
 8002452:	eb0d 0102 	add.w	r1, sp, r2
 8002456:	4806      	ldr	r0, [pc, #24]	@ (8002470 <MX_ADC1_Init+0x8c>)
 8002458:	f000 feb2 	bl	80031c0 <HAL_ADC_ConfigChannel>
 800245c:	b930      	cbnz	r0, 800246c <MX_ADC1_Init+0x88>
 800245e:	b00b      	add	sp, #44	@ 0x2c
 8002460:	f85d fb04 	ldr.w	pc, [sp], #4
 8002464:	f7ff ff22 	bl	80022ac <Error_Handler>
 8002468:	f7ff ff20 	bl	80022ac <Error_Handler>
 800246c:	f7ff ff1e 	bl	80022ac <Error_Handler>
 8002470:	20000430 	.word	0x20000430
 8002474:	50040000 	.word	0x50040000
 8002478:	80000001 	.word	0x80000001

0800247c <SystemClock_Config>:
 800247c:	b500      	push	{lr}
 800247e:	b097      	sub	sp, #92	@ 0x5c
 8002480:	2244      	movs	r2, #68	@ 0x44
 8002482:	2100      	movs	r1, #0
 8002484:	a805      	add	r0, sp, #20
 8002486:	f007 f927 	bl	80096d8 <memset>
 800248a:	2300      	movs	r3, #0
 800248c:	9300      	str	r3, [sp, #0]
 800248e:	9301      	str	r3, [sp, #4]
 8002490:	9302      	str	r3, [sp, #8]
 8002492:	9303      	str	r3, [sp, #12]
 8002494:	9304      	str	r3, [sp, #16]
 8002496:	f44f 7000 	mov.w	r0, #512	@ 0x200
 800249a:	f002 feb3 	bl	8005204 <HAL_PWREx_ControlVoltageScaling>
 800249e:	bb38      	cbnz	r0, 80024f0 <SystemClock_Config+0x74>
 80024a0:	f002 fea0 	bl	80051e4 <HAL_PWR_EnableBkUpAccess>
 80024a4:	4a15      	ldr	r2, [pc, #84]	@ (80024fc <SystemClock_Config+0x80>)
 80024a6:	f8d2 3090 	ldr.w	r3, [r2, #144]	@ 0x90
 80024aa:	f023 0318 	bic.w	r3, r3, #24
 80024ae:	f8c2 3090 	str.w	r3, [r2, #144]	@ 0x90
 80024b2:	2334      	movs	r3, #52	@ 0x34
 80024b4:	9305      	str	r3, [sp, #20]
 80024b6:	2301      	movs	r3, #1
 80024b8:	9307      	str	r3, [sp, #28]
 80024ba:	930f      	str	r3, [sp, #60]	@ 0x3c
 80024bc:	930c      	str	r3, [sp, #48]	@ 0x30
 80024be:	2300      	movs	r3, #0
 80024c0:	930d      	str	r3, [sp, #52]	@ 0x34
 80024c2:	2280      	movs	r2, #128	@ 0x80
 80024c4:	920e      	str	r2, [sp, #56]	@ 0x38
 80024c6:	9310      	str	r3, [sp, #64]	@ 0x40
 80024c8:	a805      	add	r0, sp, #20
 80024ca:	f002 ffad 	bl	8005428 <HAL_RCC_OscConfig>
 80024ce:	b988      	cbnz	r0, 80024f4 <SystemClock_Config+0x78>
 80024d0:	230f      	movs	r3, #15
 80024d2:	9300      	str	r3, [sp, #0]
 80024d4:	2100      	movs	r1, #0
 80024d6:	9101      	str	r1, [sp, #4]
 80024d8:	9102      	str	r1, [sp, #8]
 80024da:	9103      	str	r1, [sp, #12]
 80024dc:	9104      	str	r1, [sp, #16]
 80024de:	4668      	mov	r0, sp
 80024e0:	f003 fb10 	bl	8005b04 <HAL_RCC_ClockConfig>
 80024e4:	b940      	cbnz	r0, 80024f8 <SystemClock_Config+0x7c>
 80024e6:	f003 fd15 	bl	8005f14 <HAL_RCCEx_EnableMSIPLLMode>
 80024ea:	b017      	add	sp, #92	@ 0x5c
 80024ec:	f85d fb04 	ldr.w	pc, [sp], #4
 80024f0:	f7ff fedc 	bl	80022ac <Error_Handler>
 80024f4:	f7ff feda 	bl	80022ac <Error_Handler>
 80024f8:	f7ff fed8 	bl	80022ac <Error_Handler>
 80024fc:	40021000 	.word	0x40021000

08002500 <power_on>:
 8002500:	b508      	push	{r3, lr}
 8002502:	4807      	ldr	r0, [pc, #28]	@ (8002520 <power_on+0x20>)
 8002504:	f003 ff50 	bl	80063a8 <HAL_RTCEx_DeactivateWakeUpTimer>
 8002508:	f000 fb8d 	bl	8002c26 <HAL_ResumeTick>
 800250c:	f7ff ffb6 	bl	800247c <SystemClock_Config>
 8002510:	f7ff fa10 	bl	8001934 <MX_GPIO_Init>
 8002514:	f7ff fecc 	bl	80022b0 <MX_SPI1_Init>
 8002518:	f7fe fbf6 	bl	8000d08 <EPD_Init>
 800251c:	bd08      	pop	{r3, pc}
 800251e:	bf00      	nop
 8002520:	200003bc 	.word	0x200003bc

08002524 <get_data>:
 8002524:	b510      	push	{r4, lr}
 8002526:	ed2d 8b02 	vpush	{d8}
 800252a:	4604      	mov	r4, r0
 800252c:	2800      	cmp	r0, #0
 800252e:	d03c      	beq.n	80025aa <get_data+0x86>
 8002530:	f7ff ffe6 	bl	8002500 <power_on>
 8002534:	f000 fab8 	bl	8002aa8 <q_load>
 8002538:	f7ff fe04 	bl	8002144 <DS18_GET>
 800253c:	ed9f 8a21 	vldr	s16, [pc, #132]	@ 80025c4 <get_data+0xa0>
 8002540:	ee20 0a08 	vmul.f32	s0, s0, s16
 8002544:	eebc 0ac0 	vcvt.u32.f32	s0, s0
 8002548:	ee10 3a10 	vmov	r3, s0
 800254c:	b298      	uxth	r0, r3
 800254e:	f000 f9ef 	bl	8002930 <q_push>
 8002552:	f7ff fdf7 	bl	8002144 <DS18_GET>
 8002556:	ee20 0a08 	vmul.f32	s0, s0, s16
 800255a:	eebc 0ac0 	vcvt.u32.f32	s0, s0
 800255e:	ee10 3a10 	vmov	r3, s0
 8002562:	b298      	uxth	r0, r3
 8002564:	f000 f9e4 	bl	8002930 <q_push>
 8002568:	f7ff fdec 	bl	8002144 <DS18_GET>
 800256c:	ee20 0a08 	vmul.f32	s0, s0, s16
 8002570:	eebc 0ac0 	vcvt.u32.f32	s0, s0
 8002574:	ee10 3a10 	vmov	r3, s0
 8002578:	b298      	uxth	r0, r3
 800257a:	f000 f9d9 	bl	8002930 <q_push>
 800257e:	f7ff fde1 	bl	8002144 <DS18_GET>
 8002582:	ee20 0a08 	vmul.f32	s0, s0, s16
 8002586:	eebc 0ac0 	vcvt.u32.f32	s0, s0
 800258a:	ee10 3a10 	vmov	r3, s0
 800258e:	b298      	uxth	r0, r3
 8002590:	f000 f9ce 	bl	8002930 <q_push>
 8002594:	f7ff fa9c 	bl	8001ad0 <plot>
 8002598:	f000 fa4c 	bl	8002a34 <q_save>
 800259c:	b154      	cbz	r4, 80025b4 <get_data+0x90>
 800259e:	2000      	movs	r0, #0
 80025a0:	f7ff fd60 	bl	8002064 <shutdown>
 80025a4:	ecbd 8b02 	vpop	{d8}
 80025a8:	bd10      	pop	{r4, pc}
 80025aa:	2108      	movs	r1, #8
 80025ac:	4806      	ldr	r0, [pc, #24]	@ (80025c8 <get_data+0xa4>)
 80025ae:	f006 f823 	bl	80085f8 <CDC_Transmit_FS>
 80025b2:	e7bf      	b.n	8002534 <get_data+0x10>
 80025b4:	2300      	movs	r3, #0
 80025b6:	2204      	movs	r2, #4
 80025b8:	210a      	movs	r1, #10
 80025ba:	4804      	ldr	r0, [pc, #16]	@ (80025cc <get_data+0xa8>)
 80025bc:	f003 fe82 	bl	80062c4 <HAL_RTCEx_SetWakeUpTimer_IT>
 80025c0:	e7f0      	b.n	80025a4 <get_data+0x80>
 80025c2:	bf00      	nop
 80025c4:	42c80000 	.word	0x42c80000
 80025c8:	0800b8b0 	.word	0x0800b8b0
 80025cc:	200003bc 	.word	0x200003bc

080025d0 <main>:
 80025d0:	b5f8      	push	{r3, r4, r5, r6, r7, lr}
 80025d2:	ed2d 8b02 	vpush	{d8}
 80025d6:	f000 fae3 	bl	8002ba0 <HAL_Init>
 80025da:	f7ff ff4f 	bl	800247c <SystemClock_Config>
 80025de:	f7ff f9a9 	bl	8001934 <MX_GPIO_Init>
 80025e2:	f7ff fa43 	bl	8001a6c <MX_DMA_Init>
 80025e6:	f7ff fe63 	bl	80022b0 <MX_SPI1_Init>
 80025ea:	f7ff fe89 	bl	8002300 <MX_RTC_Init>
 80025ee:	f7ff fedd 	bl	80023ac <MX_USART2_UART_Init>
 80025f2:	f7ff fef7 	bl	80023e4 <MX_ADC1_Init>
 80025f6:	f005 fd25 	bl	8008044 <MX_USB_DEVICE_Init>
 80025fa:	2201      	movs	r2, #1
 80025fc:	4954      	ldr	r1, [pc, #336]	@ (8002750 <main+0x180>)
 80025fe:	4855      	ldr	r0, [pc, #340]	@ (8002754 <main+0x184>)
 8002600:	f001 f86a 	bl	80036d8 <HAL_ADC_Start_DMA>
 8002604:	f7ff fd74 	bl	80020f0 <DS18_INIT>
 8002608:	f7fe fb7e 	bl	8000d08 <EPD_Init>
 800260c:	f000 f982 	bl	8002914 <q_init>
 8002610:	f000 fa4a 	bl	8002aa8 <q_load>
 8002614:	2800      	cmp	r0, #0
 8002616:	d041      	beq.n	800269c <main+0xcc>
 8002618:	2001      	movs	r0, #1
 800261a:	f7ff fd23 	bl	8002064 <shutdown>
 800261e:	f7ff ff6f 	bl	8002500 <power_on>
 8002622:	f7ff fd8f 	bl	8002144 <DS18_GET>
 8002626:	ed9f 8a4c 	vldr	s16, [pc, #304]	@ 8002758 <main+0x188>
 800262a:	ee60 7a08 	vmul.f32	s15, s0, s16
 800262e:	eefc 7ae7 	vcvt.u32.f32	s15, s15
 8002632:	ee17 3a90 	vmov	r3, s15
 8002636:	b298      	uxth	r0, r3
 8002638:	f000 f97a 	bl	8002930 <q_push>
 800263c:	f7ff fd82 	bl	8002144 <DS18_GET>
 8002640:	ee60 7a08 	vmul.f32	s15, s0, s16
 8002644:	eefc 7ae7 	vcvt.u32.f32	s15, s15
 8002648:	ee17 3a90 	vmov	r3, s15
 800264c:	b298      	uxth	r0, r3
 800264e:	f000 f96f 	bl	8002930 <q_push>
 8002652:	f7ff fd77 	bl	8002144 <DS18_GET>
 8002656:	ee60 7a08 	vmul.f32	s15, s0, s16
 800265a:	eefc 7ae7 	vcvt.u32.f32	s15, s15
 800265e:	ee17 3a90 	vmov	r3, s15
 8002662:	b298      	uxth	r0, r3
 8002664:	f000 f964 	bl	8002930 <q_push>
 8002668:	f7ff fd6c 	bl	8002144 <DS18_GET>
 800266c:	ee60 7a08 	vmul.f32	s15, s0, s16
 8002670:	eefc 7ae7 	vcvt.u32.f32	s15, s15
 8002674:	ee17 3a90 	vmov	r3, s15
 8002678:	b298      	uxth	r0, r3
 800267a:	f000 f959 	bl	8002930 <q_push>
 800267e:	f000 f9d9 	bl	8002a34 <q_save>
 8002682:	f7ff fa25 	bl	8001ad0 <plot>
 8002686:	f005 fcd3 	bl	8008030 <MX_USB_DEVICE_IsConnected>
 800268a:	b150      	cbz	r0, 80026a2 <main+0xd2>
 800268c:	2300      	movs	r3, #0
 800268e:	2204      	movs	r2, #4
 8002690:	210a      	movs	r1, #10
 8002692:	4832      	ldr	r0, [pc, #200]	@ (800275c <main+0x18c>)
 8002694:	f003 fe16 	bl	80062c4 <HAL_RTCEx_SetWakeUpTimer_IT>
 8002698:	2400      	movs	r4, #0
 800269a:	e046      	b.n	800272a <main+0x15a>
 800269c:	f7ff fd6c 	bl	8002178 <set_time>
 80026a0:	e7bf      	b.n	8002622 <main+0x52>
 80026a2:	2000      	movs	r0, #0
 80026a4:	f7ff fcde 	bl	8002064 <shutdown>
 80026a8:	e7f6      	b.n	8002698 <main+0xc8>
 80026aa:	2600      	movs	r6, #0
 80026ac:	4b2c      	ldr	r3, [pc, #176]	@ (8002760 <main+0x190>)
 80026ae:	701e      	strb	r6, [r3, #0]
 80026b0:	4d2c      	ldr	r5, [pc, #176]	@ (8002764 <main+0x194>)
 80026b2:	7828      	ldrb	r0, [r5, #0]
 80026b4:	f080 0001 	eor.w	r0, r0, #1
 80026b8:	f7ff ff34 	bl	8002524 <get_data>
 80026bc:	702e      	strb	r6, [r5, #0]
 80026be:	e038      	b.n	8002732 <main+0x162>
 80026c0:	4b29      	ldr	r3, [pc, #164]	@ (8002768 <main+0x198>)
 80026c2:	2200      	movs	r2, #0
 80026c4:	701a      	strb	r2, [r3, #0]
 80026c6:	f7ff ff1b 	bl	8002500 <power_on>
 80026ca:	f000 fa8b 	bl	8002be4 <HAL_GetTick>
 80026ce:	4605      	mov	r5, r0
 80026d0:	e002      	b.n	80026d8 <main+0x108>
 80026d2:	f005 fcad 	bl	8008030 <MX_USB_DEVICE_IsConnected>
 80026d6:	b9a8      	cbnz	r0, 8002704 <main+0x134>
 80026d8:	f000 fa84 	bl	8002be4 <HAL_GetTick>
 80026dc:	1b43      	subs	r3, r0, r5
 80026de:	f241 3287 	movw	r2, #4999	@ 0x1387
 80026e2:	4293      	cmp	r3, r2
 80026e4:	d80e      	bhi.n	8002704 <main+0x134>
 80026e6:	4b1e      	ldr	r3, [pc, #120]	@ (8002760 <main+0x190>)
 80026e8:	781b      	ldrb	r3, [r3, #0]
 80026ea:	2b00      	cmp	r3, #0
 80026ec:	d0f1      	beq.n	80026d2 <main+0x102>
 80026ee:	2700      	movs	r7, #0
 80026f0:	4b1b      	ldr	r3, [pc, #108]	@ (8002760 <main+0x190>)
 80026f2:	701f      	strb	r7, [r3, #0]
 80026f4:	4e1b      	ldr	r6, [pc, #108]	@ (8002764 <main+0x194>)
 80026f6:	7830      	ldrb	r0, [r6, #0]
 80026f8:	f080 0001 	eor.w	r0, r0, #1
 80026fc:	f7ff ff12 	bl	8002524 <get_data>
 8002700:	7037      	strb	r7, [r6, #0]
 8002702:	e7e6      	b.n	80026d2 <main+0x102>
 8002704:	4b19      	ldr	r3, [pc, #100]	@ (800276c <main+0x19c>)
 8002706:	699b      	ldr	r3, [r3, #24]
 8002708:	f413 6f80 	tst.w	r3, #1024	@ 0x400
 800270c:	d015      	beq.n	800273a <main+0x16a>
 800270e:	4d13      	ldr	r5, [pc, #76]	@ (800275c <main+0x18c>)
 8002710:	4628      	mov	r0, r5
 8002712:	f003 fe88 	bl	8006426 <HAL_RTCEx_GetWakeUpTimer>
 8002716:	4601      	mov	r1, r0
 8002718:	2300      	movs	r3, #0
 800271a:	2204      	movs	r2, #4
 800271c:	4628      	mov	r0, r5
 800271e:	f003 fdd1 	bl	80062c4 <HAL_RTCEx_SetWakeUpTimer_IT>
 8002722:	e00a      	b.n	800273a <main+0x16a>
 8002724:	f005 fc84 	bl	8008030 <MX_USB_DEVICE_IsConnected>
 8002728:	4604      	mov	r4, r0
 800272a:	4b0d      	ldr	r3, [pc, #52]	@ (8002760 <main+0x190>)
 800272c:	781b      	ldrb	r3, [r3, #0]
 800272e:	2b00      	cmp	r3, #0
 8002730:	d1bb      	bne.n	80026aa <main+0xda>
 8002732:	4b0d      	ldr	r3, [pc, #52]	@ (8002768 <main+0x198>)
 8002734:	781b      	ldrb	r3, [r3, #0]
 8002736:	2b00      	cmp	r3, #0
 8002738:	d1c2      	bne.n	80026c0 <main+0xf0>
 800273a:	f005 fc79 	bl	8008030 <MX_USB_DEVICE_IsConnected>
 800273e:	2800      	cmp	r0, #0
 8002740:	d1f0      	bne.n	8002724 <main+0x154>
 8002742:	2c00      	cmp	r4, #0
 8002744:	d0ee      	beq.n	8002724 <main+0x154>
 8002746:	2001      	movs	r0, #1
 8002748:	f7ff fc8c 	bl	8002064 <shutdown>
 800274c:	e7ea      	b.n	8002724 <main+0x154>
 800274e:	bf00      	nop
 8002750:	200002c8 	.word	0x200002c8
 8002754:	20000430 	.word	0x20000430
 8002758:	42c80000 	.word	0x42c80000
 800275c:	200003bc 	.word	0x200003bc
 8002760:	200002ad 	.word	0x200002ad
 8002764:	200002ae 	.word	0x200002ae
 8002768:	200002ac 	.word	0x200002ac
 800276c:	40002800 	.word	0x40002800

08002770 <SetBaudrate>:
 8002770:	b510      	push	{r4, lr}
 8002772:	4604      	mov	r4, r0
 8002774:	6041      	str	r1, [r0, #4]
 8002776:	6802      	ldr	r2, [r0, #0]
 8002778:	4b30      	ldr	r3, [pc, #192]	@ (800283c <SetBaudrate+0xcc>)
 800277a:	429a      	cmp	r2, r3
 800277c:	d030      	beq.n	80027e0 <SetBaudrate+0x70>
 800277e:	f003 fa8b 	bl	8005c98 <HAL_RCC_GetPCLK1Freq>
 8002782:	4602      	mov	r2, r0
 8002784:	69e3      	ldr	r3, [r4, #28]
 8002786:	f5b3 4f00 	cmp.w	r3, #32768	@ 0x8000
 800278a:	d02d      	beq.n	80027e8 <SetBaudrate+0x78>
 800278c:	2100      	movs	r1, #0
 800278e:	1890      	adds	r0, r2, r2
 8002790:	4149      	adcs	r1, r1
 8002792:	1880      	adds	r0, r0, r2
 8002794:	f141 0100 	adc.w	r1, r1, #0
 8002798:	00c9      	lsls	r1, r1, #3
 800279a:	ea41 7150 	orr.w	r1, r1, r0, lsr #29
 800279e:	00c0      	lsls	r0, r0, #3
 80027a0:	1880      	adds	r0, r0, r2
 80027a2:	6863      	ldr	r3, [r4, #4]
 80027a4:	ea4f 0283 	mov.w	r2, r3, lsl #2
 80027a8:	ea4f 7393 	mov.w	r3, r3, lsr #30
 80027ac:	f141 0100 	adc.w	r1, r1, #0
 80027b0:	f7fe f974 	bl	8000a9c <__aeabi_uldivmod>
 80027b4:	4a22      	ldr	r2, [pc, #136]	@ (8002840 <SetBaudrate+0xd0>)
 80027b6:	fba2 3100 	umull	r3, r1, r2, r0
 80027ba:	0949      	lsrs	r1, r1, #5
 80027bc:	2364      	movs	r3, #100	@ 0x64
 80027be:	fb03 0311 	mls	r3, r3, r1, r0
 80027c2:	011b      	lsls	r3, r3, #4
 80027c4:	3332      	adds	r3, #50	@ 0x32
 80027c6:	fba2 2303 	umull	r2, r3, r2, r3
 80027ca:	095b      	lsrs	r3, r3, #5
 80027cc:	f003 02f0 	and.w	r2, r3, #240	@ 0xf0
 80027d0:	eb02 1201 	add.w	r2, r2, r1, lsl #4
 80027d4:	f003 030f 	and.w	r3, r3, #15
 80027d8:	6821      	ldr	r1, [r4, #0]
 80027da:	4413      	add	r3, r2
 80027dc:	60cb      	str	r3, [r1, #12]
 80027de:	bd10      	pop	{r4, pc}
 80027e0:	f003 fa5a 	bl	8005c98 <HAL_RCC_GetPCLK1Freq>
 80027e4:	4602      	mov	r2, r0
 80027e6:	e7cd      	b.n	8002784 <SetBaudrate+0x14>
 80027e8:	2300      	movs	r3, #0
 80027ea:	1890      	adds	r0, r2, r2
 80027ec:	eb43 0103 	adc.w	r1, r3, r3
 80027f0:	1880      	adds	r0, r0, r2
 80027f2:	f141 0100 	adc.w	r1, r1, #0
 80027f6:	00c9      	lsls	r1, r1, #3
 80027f8:	ea41 7150 	orr.w	r1, r1, r0, lsr #29
 80027fc:	00c0      	lsls	r0, r0, #3
 80027fe:	1880      	adds	r0, r0, r2
 8002800:	f141 0100 	adc.w	r1, r1, #0
 8002804:	6862      	ldr	r2, [r4, #4]
 8002806:	1892      	adds	r2, r2, r2
 8002808:	415b      	adcs	r3, r3
 800280a:	f7fe f947 	bl	8000a9c <__aeabi_uldivmod>
 800280e:	4a0c      	ldr	r2, [pc, #48]	@ (8002840 <SetBaudrate+0xd0>)
 8002810:	fba2 3100 	umull	r3, r1, r2, r0
 8002814:	0949      	lsrs	r1, r1, #5
 8002816:	2364      	movs	r3, #100	@ 0x64
 8002818:	fb03 0311 	mls	r3, r3, r1, r0
 800281c:	00db      	lsls	r3, r3, #3
 800281e:	3332      	adds	r3, #50	@ 0x32
 8002820:	fba2 2303 	umull	r2, r3, r2, r3
 8002824:	095b      	lsrs	r3, r3, #5
 8002826:	005a      	lsls	r2, r3, #1
 8002828:	f402 72f8 	and.w	r2, r2, #496	@ 0x1f0
 800282c:	eb02 1201 	add.w	r2, r2, r1, lsl #4
 8002830:	f003 0307 	and.w	r3, r3, #7
 8002834:	6821      	ldr	r1, [r4, #0]
 8002836:	4413      	add	r3, r2
 8002838:	60cb      	str	r3, [r1, #12]
 800283a:	e7d0      	b.n	80027de <SetBaudrate+0x6e>
 800283c:	40013800 	.word	0x40013800
 8002840:	51eb851f 	.word	0x51eb851f

08002844 <OneWire_ProcessBit>:
 8002844:	b510      	push	{r4, lr}
 8002846:	b082      	sub	sp, #8
 8002848:	4604      	mov	r4, r0
 800284a:	23ff      	movs	r3, #255	@ 0xff
 800284c:	f88d 3007 	strb.w	r3, [sp, #7]
 8002850:	2300      	movs	r3, #0
 8002852:	f88d 3006 	strb.w	r3, [sp, #6]
 8002856:	b909      	cbnz	r1, 800285c <OneWire_ProcessBit+0x18>
 8002858:	f88d 3007 	strb.w	r3, [sp, #7]
 800285c:	230a      	movs	r3, #10
 800285e:	2201      	movs	r2, #1
 8002860:	f10d 0107 	add.w	r1, sp, #7
 8002864:	4620      	mov	r0, r4
 8002866:	f004 fad3 	bl	8006e10 <HAL_UART_Transmit>
 800286a:	230a      	movs	r3, #10
 800286c:	2201      	movs	r2, #1
 800286e:	f10d 0106 	add.w	r1, sp, #6
 8002872:	4620      	mov	r0, r4
 8002874:	f004 fb30 	bl	8006ed8 <HAL_UART_Receive>
 8002878:	f89d 0006 	ldrb.w	r0, [sp, #6]
 800287c:	b002      	add	sp, #8
 800287e:	bd10      	pop	{r4, pc}

08002880 <OneWire_ProcessByte>:
 8002880:	e92d 41f0 	stmdb	sp!, {r4, r5, r6, r7, r8, lr}
 8002884:	4607      	mov	r7, r0
 8002886:	460e      	mov	r6, r1
 8002888:	2400      	movs	r4, #0
 800288a:	4625      	mov	r5, r4
 800288c:	e006      	b.n	800289c <OneWire_ProcessByte+0x1c>
 800288e:	2301      	movs	r3, #1
 8002890:	fa03 f308 	lsl.w	r3, r3, r8
 8002894:	432b      	orrs	r3, r5
 8002896:	b2dd      	uxtb	r5, r3
 8002898:	3401      	adds	r4, #1
 800289a:	b2e4      	uxtb	r4, r4
 800289c:	2c07      	cmp	r4, #7
 800289e:	d80b      	bhi.n	80028b8 <OneWire_ProcessByte+0x38>
 80028a0:	46a0      	mov	r8, r4
 80028a2:	fa46 f104 	asr.w	r1, r6, r4
 80028a6:	f001 0101 	and.w	r1, r1, #1
 80028aa:	4638      	mov	r0, r7
 80028ac:	f7ff ffca 	bl	8002844 <OneWire_ProcessBit>
 80028b0:	28ff      	cmp	r0, #255	@ 0xff
 80028b2:	d0ec      	beq.n	800288e <OneWire_ProcessByte+0xe>
 80028b4:	2300      	movs	r3, #0
 80028b6:	e7eb      	b.n	8002890 <OneWire_ProcessByte+0x10>
 80028b8:	4628      	mov	r0, r5
 80028ba:	e8bd 81f0 	ldmia.w	sp!, {r4, r5, r6, r7, r8, pc}

080028be <OneWire_Reset>:
 80028be:	b510      	push	{r4, lr}
 80028c0:	b082      	sub	sp, #8
 80028c2:	4604      	mov	r4, r0
 80028c4:	23f0      	movs	r3, #240	@ 0xf0
 80028c6:	f88d 3007 	strb.w	r3, [sp, #7]
 80028ca:	2300      	movs	r3, #0
 80028cc:	f88d 3006 	strb.w	r3, [sp, #6]
 80028d0:	f44f 5116 	mov.w	r1, #9600	@ 0x2580
 80028d4:	f7ff ff4c 	bl	8002770 <SetBaudrate>
 80028d8:	230a      	movs	r3, #10
 80028da:	2201      	movs	r2, #1
 80028dc:	f10d 0107 	add.w	r1, sp, #7
 80028e0:	4620      	mov	r0, r4
 80028e2:	f004 fa95 	bl	8006e10 <HAL_UART_Transmit>
 80028e6:	230a      	movs	r3, #10
 80028e8:	2201      	movs	r2, #1
 80028ea:	f10d 0106 	add.w	r1, sp, #6
 80028ee:	4620      	mov	r0, r4
 80028f0:	f004 faf2 	bl	8006ed8 <HAL_UART_Receive>
 80028f4:	f44f 31e1 	mov.w	r1, #115200	@ 0x1c200
 80028f8:	4620      	mov	r0, r4
 80028fa:	f7ff ff39 	bl	8002770 <SetBaudrate>
 80028fe:	f89d 2006 	ldrb.w	r2, [sp, #6]
 8002902:	f89d 3007 	ldrb.w	r3, [sp, #7]
 8002906:	429a      	cmp	r2, r3
 8002908:	d002      	beq.n	8002910 <OneWire_Reset+0x52>
 800290a:	2000      	movs	r0, #0
 800290c:	b002      	add	sp, #8
 800290e:	bd10      	pop	{r4, pc}
 8002910:	2001      	movs	r0, #1
 8002912:	e7fb      	b.n	800290c <OneWire_Reset+0x4e>

08002914 <q_init>:
 8002914:	4b05      	ldr	r3, [pc, #20]	@ (800292c <q_init+0x18>)
 8002916:	2200      	movs	r2, #0
 8002918:	f883 2060 	strb.w	r2, [r3, #96]	@ 0x60
 800291c:	f883 2063 	strb.w	r2, [r3, #99]	@ 0x63
 8002920:	2101      	movs	r1, #1
 8002922:	f883 1062 	strb.w	r1, [r3, #98]	@ 0x62
 8002926:	f883 2061 	strb.w	r2, [r3, #97]	@ 0x61
 800292a:	4770      	bx	lr
 800292c:	20000498 	.word	0x20000498

08002930 <q_push>:
 8002930:	b530      	push	{r4, r5, lr}
 8002932:	b091      	sub	sp, #68	@ 0x44
 8002934:	4a34      	ldr	r2, [pc, #208]	@ (8002a08 <q_push+0xd8>)
 8002936:	f892 3060 	ldrb.w	r3, [r2, #96]	@ 0x60
 800293a:	f822 0013 	strh.w	r0, [r2, r3, lsl #1]
 800293e:	3301      	adds	r3, #1
 8002940:	b2db      	uxtb	r3, r3
 8002942:	f882 3060 	strb.w	r3, [r2, #96]	@ 0x60
 8002946:	f892 1063 	ldrb.w	r1, [r2, #99]	@ 0x63
 800294a:	3101      	adds	r1, #1
 800294c:	f882 1063 	strb.w	r1, [r2, #99]	@ 0x63
 8002950:	2b2f      	cmp	r3, #47	@ 0x2f
 8002952:	d905      	bls.n	8002960 <q_push+0x30>
 8002954:	4613      	mov	r3, r2
 8002956:	2200      	movs	r2, #0
 8002958:	f883 2062 	strb.w	r2, [r3, #98]	@ 0x62
 800295c:	f883 2060 	strb.w	r2, [r3, #96]	@ 0x60
 8002960:	4b29      	ldr	r3, [pc, #164]	@ (8002a08 <q_push+0xd8>)
 8002962:	f893 3062 	ldrb.w	r3, [r3, #98]	@ 0x62
 8002966:	b93b      	cbnz	r3, 8002978 <q_push+0x48>
 8002968:	4b27      	ldr	r3, [pc, #156]	@ (8002a08 <q_push+0xd8>)
 800296a:	f893 2060 	ldrb.w	r2, [r3, #96]	@ 0x60
 800296e:	f883 2061 	strb.w	r2, [r3, #97]	@ 0x61
 8002972:	222f      	movs	r2, #47	@ 0x2f
 8002974:	f883 2063 	strb.w	r2, [r3, #99]	@ 0x63
 8002978:	a90b      	add	r1, sp, #44	@ 0x2c
 800297a:	2400      	movs	r4, #0
 800297c:	940b      	str	r4, [sp, #44]	@ 0x2c
 800297e:	604c      	str	r4, [r1, #4]
 8002980:	608c      	str	r4, [r1, #8]
 8002982:	60cc      	str	r4, [r1, #12]
 8002984:	610c      	str	r4, [r1, #16]
 8002986:	940a      	str	r4, [sp, #40]	@ 0x28
 8002988:	4d20      	ldr	r5, [pc, #128]	@ (8002a0c <q_push+0xdc>)
 800298a:	4622      	mov	r2, r4
 800298c:	4628      	mov	r0, r5
 800298e:	f003 fc55 	bl	800623c <HAL_RTC_GetTime>
 8002992:	4622      	mov	r2, r4
 8002994:	a90a      	add	r1, sp, #40	@ 0x28
 8002996:	4628      	mov	r0, r5
 8002998:	f003 fc76 	bl	8006288 <HAL_RTC_GetDate>
 800299c:	f89d 302b 	ldrb.w	r3, [sp, #43]	@ 0x2b
 80029a0:	3364      	adds	r3, #100	@ 0x64
 80029a2:	9306      	str	r3, [sp, #24]
 80029a4:	f89d 3029 	ldrb.w	r3, [sp, #41]	@ 0x29
 80029a8:	3b01      	subs	r3, #1
 80029aa:	9305      	str	r3, [sp, #20]
 80029ac:	f89d 302a 	ldrb.w	r3, [sp, #42]	@ 0x2a
 80029b0:	9304      	str	r3, [sp, #16]
 80029b2:	f89d 302c 	ldrb.w	r3, [sp, #44]	@ 0x2c
 80029b6:	9303      	str	r3, [sp, #12]
 80029b8:	f89d 302d 	ldrb.w	r3, [sp, #45]	@ 0x2d
 80029bc:	9302      	str	r3, [sp, #8]
 80029be:	f89d 302e 	ldrb.w	r3, [sp, #46]	@ 0x2e
 80029c2:	9301      	str	r3, [sp, #4]
 80029c4:	2301      	movs	r3, #1
 80029c6:	9309      	str	r3, [sp, #36]	@ 0x24
 80029c8:	a801      	add	r0, sp, #4
 80029ca:	f006 ff5f 	bl	800988c <mktime>
 80029ce:	4604      	mov	r4, r0
 80029d0:	f002 fc08 	bl	80051e4 <HAL_PWR_EnableBkUpAccess>
 80029d4:	4b0e      	ldr	r3, [pc, #56]	@ (8002a10 <q_push+0xe0>)
 80029d6:	781b      	ldrb	r3, [r3, #0]
 80029d8:	b163      	cbz	r3, 80029f4 <q_push+0xc4>
 80029da:	4c0c      	ldr	r4, [pc, #48]	@ (8002a0c <q_push+0xdc>)
 80029dc:	2105      	movs	r1, #5
 80029de:	4620      	mov	r0, r4
 80029e0:	f003 fd4b 	bl	800647a <HAL_RTCEx_BKUPRead>
 80029e4:	f500 62e1 	add.w	r2, r0, #1800	@ 0x708
 80029e8:	2105      	movs	r1, #5
 80029ea:	4620      	mov	r0, r4
 80029ec:	f003 fd36 	bl	800645c <HAL_RTCEx_BKUPWrite>
 80029f0:	b011      	add	sp, #68	@ 0x44
 80029f2:	bd30      	pop	{r4, r5, pc}
 80029f4:	4622      	mov	r2, r4
 80029f6:	2105      	movs	r1, #5
 80029f8:	4628      	mov	r0, r5
 80029fa:	f003 fd2f 	bl	800645c <HAL_RTCEx_BKUPWrite>
 80029fe:	4b04      	ldr	r3, [pc, #16]	@ (8002a10 <q_push+0xe0>)
 8002a00:	2201      	movs	r2, #1
 8002a02:	701a      	strb	r2, [r3, #0]
 8002a04:	e7e9      	b.n	80029da <q_push+0xaa>
 8002a06:	bf00      	nop
 8002a08:	20000498 	.word	0x20000498
 8002a0c:	200003bc 	.word	0x200003bc
 8002a10:	20000494 	.word	0x20000494

08002a14 <q_get>:
 8002a14:	4b06      	ldr	r3, [pc, #24]	@ (8002a30 <q_get+0x1c>)
 8002a16:	f893 3061 	ldrb.w	r3, [r3, #97]	@ 0x61
 8002a1a:	4418      	add	r0, r3
 8002a1c:	b2c0      	uxtb	r0, r0
 8002a1e:	282f      	cmp	r0, #47	@ 0x2f
 8002a20:	d901      	bls.n	8002a26 <q_get+0x12>
 8002a22:	3830      	subs	r0, #48	@ 0x30
 8002a24:	b2c0      	uxtb	r0, r0
 8002a26:	4b02      	ldr	r3, [pc, #8]	@ (8002a30 <q_get+0x1c>)
 8002a28:	f833 0010 	ldrh.w	r0, [r3, r0, lsl #1]
 8002a2c:	4770      	bx	lr
 8002a2e:	bf00      	nop
 8002a30:	20000498 	.word	0x20000498

08002a34 <q_save>:
 8002a34:	b510      	push	{r4, lr}
 8002a36:	f002 fbd5 	bl	80051e4 <HAL_PWR_EnableBkUpAccess>
 8002a3a:	4a18      	ldr	r2, [pc, #96]	@ (8002a9c <q_save+0x68>)
 8002a3c:	2106      	movs	r1, #6
 8002a3e:	4818      	ldr	r0, [pc, #96]	@ (8002aa0 <q_save+0x6c>)
 8002a40:	f003 fd0c 	bl	800645c <HAL_RTCEx_BKUPWrite>
 8002a44:	2400      	movs	r4, #0
 8002a46:	e00e      	b.n	8002a66 <q_save+0x32>
 8002a48:	0063      	lsls	r3, r4, #1
 8002a4a:	4916      	ldr	r1, [pc, #88]	@ (8002aa4 <q_save+0x70>)
 8002a4c:	f831 2024 	ldrh.w	r2, [r1, r4, lsl #2]
 8002a50:	3301      	adds	r3, #1
 8002a52:	f831 3013 	ldrh.w	r3, [r1, r3, lsl #1]
 8002a56:	ea43 4202 	orr.w	r2, r3, r2, lsl #16
 8002a5a:	f104 0108 	add.w	r1, r4, #8
 8002a5e:	4810      	ldr	r0, [pc, #64]	@ (8002aa0 <q_save+0x6c>)
 8002a60:	f003 fcfc 	bl	800645c <HAL_RTCEx_BKUPWrite>
 8002a64:	3401      	adds	r4, #1
 8002a66:	2c17      	cmp	r4, #23
 8002a68:	ddee      	ble.n	8002a48 <q_save+0x14>
 8002a6a:	4a0e      	ldr	r2, [pc, #56]	@ (8002aa4 <q_save+0x70>)
 8002a6c:	f892 1063 	ldrb.w	r1, [r2, #99]	@ 0x63
 8002a70:	f892 3061 	ldrb.w	r3, [r2, #97]	@ 0x61
 8002a74:	041b      	lsls	r3, r3, #16
 8002a76:	ea43 6301 	orr.w	r3, r3, r1, lsl #24
 8002a7a:	f892 1060 	ldrb.w	r1, [r2, #96]	@ 0x60
 8002a7e:	ea43 2301 	orr.w	r3, r3, r1, lsl #8
 8002a82:	f892 2062 	ldrb.w	r2, [r2, #98]	@ 0x62
 8002a86:	b132      	cbz	r2, 8002a96 <q_save+0x62>
 8002a88:	2201      	movs	r2, #1
 8002a8a:	431a      	orrs	r2, r3
 8002a8c:	2107      	movs	r1, #7
 8002a8e:	4804      	ldr	r0, [pc, #16]	@ (8002aa0 <q_save+0x6c>)
 8002a90:	f003 fce4 	bl	800645c <HAL_RTCEx_BKUPWrite>
 8002a94:	bd10      	pop	{r4, pc}
 8002a96:	2200      	movs	r2, #0
 8002a98:	e7f7      	b.n	8002a8a <q_save+0x56>
 8002a9a:	bf00      	nop
 8002a9c:	aaff55ff 	.word	0xaaff55ff
 8002aa0:	200003bc 	.word	0x200003bc
 8002aa4:	20000498 	.word	0x20000498

08002aa8 <q_load>:
 8002aa8:	e92d 41f0 	stmdb	sp!, {r4, r5, r6, r7, r8, lr}
 8002aac:	2106      	movs	r1, #6
 8002aae:	4822      	ldr	r0, [pc, #136]	@ (8002b38 <q_load+0x90>)
 8002ab0:	f003 fce3 	bl	800647a <HAL_RTCEx_BKUPRead>
 8002ab4:	4b21      	ldr	r3, [pc, #132]	@ (8002b3c <q_load+0x94>)
 8002ab6:	4298      	cmp	r0, r3
 8002ab8:	d13b      	bne.n	8002b32 <q_load+0x8a>
 8002aba:	2400      	movs	r4, #0
 8002abc:	e013      	b.n	8002ae6 <q_load+0x3e>
 8002abe:	f104 0808 	add.w	r8, r4, #8
 8002ac2:	4f1d      	ldr	r7, [pc, #116]	@ (8002b38 <q_load+0x90>)
 8002ac4:	4641      	mov	r1, r8
 8002ac6:	4638      	mov	r0, r7
 8002ac8:	f003 fcd7 	bl	800647a <HAL_RTCEx_BKUPRead>
 8002acc:	0065      	lsls	r5, r4, #1
 8002ace:	0c00      	lsrs	r0, r0, #16
 8002ad0:	4e1b      	ldr	r6, [pc, #108]	@ (8002b40 <q_load+0x98>)
 8002ad2:	f826 0015 	strh.w	r0, [r6, r5, lsl #1]
 8002ad6:	4641      	mov	r1, r8
 8002ad8:	4638      	mov	r0, r7
 8002ada:	f003 fcce 	bl	800647a <HAL_RTCEx_BKUPRead>
 8002ade:	3501      	adds	r5, #1
 8002ae0:	f826 0015 	strh.w	r0, [r6, r5, lsl #1]
 8002ae4:	3401      	adds	r4, #1
 8002ae6:	2c17      	cmp	r4, #23
 8002ae8:	dde9      	ble.n	8002abe <q_load+0x16>
 8002aea:	4d13      	ldr	r5, [pc, #76]	@ (8002b38 <q_load+0x90>)
 8002aec:	2107      	movs	r1, #7
 8002aee:	4628      	mov	r0, r5
 8002af0:	f003 fcc3 	bl	800647a <HAL_RTCEx_BKUPRead>
 8002af4:	0e00      	lsrs	r0, r0, #24
 8002af6:	4c12      	ldr	r4, [pc, #72]	@ (8002b40 <q_load+0x98>)
 8002af8:	f884 0063 	strb.w	r0, [r4, #99]	@ 0x63
 8002afc:	2107      	movs	r1, #7
 8002afe:	4628      	mov	r0, r5
 8002b00:	f003 fcbb 	bl	800647a <HAL_RTCEx_BKUPRead>
 8002b04:	f3c0 4007 	ubfx	r0, r0, #16, #8
 8002b08:	f884 0061 	strb.w	r0, [r4, #97]	@ 0x61
 8002b0c:	2107      	movs	r1, #7
 8002b0e:	4628      	mov	r0, r5
 8002b10:	f003 fcb3 	bl	800647a <HAL_RTCEx_BKUPRead>
 8002b14:	f3c0 2007 	ubfx	r0, r0, #8, #8
 8002b18:	f884 0060 	strb.w	r0, [r4, #96]	@ 0x60
 8002b1c:	2107      	movs	r1, #7
 8002b1e:	4628      	mov	r0, r5
 8002b20:	f003 fcab 	bl	800647a <HAL_RTCEx_BKUPRead>
 8002b24:	f000 0001 	and.w	r0, r0, #1
 8002b28:	f884 0062 	strb.w	r0, [r4, #98]	@ 0x62
 8002b2c:	2001      	movs	r0, #1
 8002b2e:	e8bd 81f0 	ldmia.w	sp!, {r4, r5, r6, r7, r8, pc}
 8002b32:	2000      	movs	r0, #0
 8002b34:	e7fb      	b.n	8002b2e <q_load+0x86>
 8002b36:	bf00      	nop
 8002b38:	200003bc 	.word	0x200003bc
 8002b3c:	aaff55ff 	.word	0xaaff55ff
 8002b40:	20000498 	.word	0x20000498

08002b44 <q_len>:
 8002b44:	4b01      	ldr	r3, [pc, #4]	@ (8002b4c <q_len+0x8>)
 8002b46:	f893 0063 	ldrb.w	r0, [r3, #99]	@ 0x63
 8002b4a:	4770      	bx	lr
 8002b4c:	20000498 	.word	0x20000498

08002b50 <HAL_InitTick>:
 8002b50:	4b10      	ldr	r3, [pc, #64]	@ (8002b94 <HAL_InitTick+0x44>)
 8002b52:	781b      	ldrb	r3, [r3, #0]
 8002b54:	b90b      	cbnz	r3, 8002b5a <HAL_InitTick+0xa>
 8002b56:	2001      	movs	r0, #1
 8002b58:	4770      	bx	lr
 8002b5a:	b510      	push	{r4, lr}
 8002b5c:	4604      	mov	r4, r0
 8002b5e:	f44f 707a 	mov.w	r0, #1000	@ 0x3e8
 8002b62:	fbb0 f3f3 	udiv	r3, r0, r3
 8002b66:	4a0c      	ldr	r2, [pc, #48]	@ (8002b98 <HAL_InitTick+0x48>)
 8002b68:	6810      	ldr	r0, [r2, #0]
 8002b6a:	fbb0 f0f3 	udiv	r0, r0, r3
 8002b6e:	f000 ff47 	bl	8003a00 <HAL_SYSTICK_Config>
 8002b72:	b968      	cbnz	r0, 8002b90 <HAL_InitTick+0x40>
 8002b74:	2c0f      	cmp	r4, #15
 8002b76:	d901      	bls.n	8002b7c <HAL_InitTick+0x2c>
 8002b78:	2001      	movs	r0, #1
 8002b7a:	e00a      	b.n	8002b92 <HAL_InitTick+0x42>
 8002b7c:	2200      	movs	r2, #0
 8002b7e:	4621      	mov	r1, r4
 8002b80:	f04f 30ff 	mov.w	r0, #4294967295
 8002b84:	f000 ff24 	bl	80039d0 <HAL_NVIC_SetPriority>
 8002b88:	4b04      	ldr	r3, [pc, #16]	@ (8002b9c <HAL_InitTick+0x4c>)
 8002b8a:	601c      	str	r4, [r3, #0]
 8002b8c:	2000      	movs	r0, #0
 8002b8e:	e000      	b.n	8002b92 <HAL_InitTick+0x42>
 8002b90:	2001      	movs	r0, #1
 8002b92:	bd10      	pop	{r4, pc}
 8002b94:	200000b8 	.word	0x200000b8
 8002b98:	200000c4 	.word	0x200000c4
 8002b9c:	200000bc 	.word	0x200000bc

08002ba0 <HAL_Init>:
 8002ba0:	b510      	push	{r4, lr}
 8002ba2:	4a09      	ldr	r2, [pc, #36]	@ (8002bc8 <HAL_Init+0x28>)
 8002ba4:	6813      	ldr	r3, [r2, #0]
 8002ba6:	f443 7380 	orr.w	r3, r3, #256	@ 0x100
 8002baa:	6013      	str	r3, [r2, #0]
 8002bac:	2003      	movs	r0, #3
 8002bae:	f000 fefd 	bl	80039ac <HAL_NVIC_SetPriorityGrouping>
 8002bb2:	200f      	movs	r0, #15
 8002bb4:	f7ff ffcc 	bl	8002b50 <HAL_InitTick>
 8002bb8:	b110      	cbz	r0, 8002bc0 <HAL_Init+0x20>
 8002bba:	2401      	movs	r4, #1
 8002bbc:	4620      	mov	r0, r4
 8002bbe:	bd10      	pop	{r4, pc}
 8002bc0:	4604      	mov	r4, r0
 8002bc2:	f001 f9e1 	bl	8003f88 <HAL_MspInit>
 8002bc6:	e7f9      	b.n	8002bbc <HAL_Init+0x1c>
 8002bc8:	40022000 	.word	0x40022000

08002bcc <HAL_IncTick>:
 8002bcc:	4b03      	ldr	r3, [pc, #12]	@ (8002bdc <HAL_IncTick+0x10>)
 8002bce:	781b      	ldrb	r3, [r3, #0]
 8002bd0:	4a03      	ldr	r2, [pc, #12]	@ (8002be0 <HAL_IncTick+0x14>)
 8002bd2:	6811      	ldr	r1, [r2, #0]
 8002bd4:	440b      	add	r3, r1
 8002bd6:	6013      	str	r3, [r2, #0]
 8002bd8:	4770      	bx	lr
 8002bda:	bf00      	nop
 8002bdc:	200000b8 	.word	0x200000b8
 8002be0:	200004fc 	.word	0x200004fc

08002be4 <HAL_GetTick>:
 8002be4:	4b01      	ldr	r3, [pc, #4]	@ (8002bec <HAL_GetTick+0x8>)
 8002be6:	6818      	ldr	r0, [r3, #0]
 8002be8:	4770      	bx	lr
 8002bea:	bf00      	nop
 8002bec:	200004fc 	.word	0x200004fc

08002bf0 <HAL_Delay>:
 8002bf0:	b538      	push	{r3, r4, r5, lr}
 8002bf2:	4604      	mov	r4, r0
 8002bf4:	f7ff fff6 	bl	8002be4 <HAL_GetTick>
 8002bf8:	4605      	mov	r5, r0
 8002bfa:	f1b4 3fff 	cmp.w	r4, #4294967295
 8002bfe:	d002      	beq.n	8002c06 <HAL_Delay+0x16>
 8002c00:	4b04      	ldr	r3, [pc, #16]	@ (8002c14 <HAL_Delay+0x24>)
 8002c02:	781b      	ldrb	r3, [r3, #0]
 8002c04:	441c      	add	r4, r3
 8002c06:	f7ff ffed 	bl	8002be4 <HAL_GetTick>
 8002c0a:	1b40      	subs	r0, r0, r5
 8002c0c:	42a0      	cmp	r0, r4
 8002c0e:	d3fa      	bcc.n	8002c06 <HAL_Delay+0x16>
 8002c10:	bd38      	pop	{r3, r4, r5, pc}
 8002c12:	bf00      	nop
 8002c14:	200000b8 	.word	0x200000b8

08002c18 <HAL_SuspendTick>:
 8002c18:	f04f 22e0 	mov.w	r2, #3758153728	@ 0xe000e000
 8002c1c:	6913      	ldr	r3, [r2, #16]
 8002c1e:	f023 0302 	bic.w	r3, r3, #2
 8002c22:	6113      	str	r3, [r2, #16]
 8002c24:	4770      	bx	lr

08002c26 <HAL_ResumeTick>:
 8002c26:	f04f 22e0 	mov.w	r2, #3758153728	@ 0xe000e000
 8002c2a:	6913      	ldr	r3, [r2, #16]
 8002c2c:	f043 0302 	orr.w	r3, r3, #2
 8002c30:	6113      	str	r3, [r2, #16]
 8002c32:	4770      	bx	lr

08002c34 <LL_ADC_REG_SetSequencerRanks>:
 8002c34:	b410      	push	{r4}
 8002c36:	3030      	adds	r0, #48	@ 0x30
 8002c38:	0a0b      	lsrs	r3, r1, #8
 8002c3a:	009b      	lsls	r3, r3, #2
 8002c3c:	f003 030c 	and.w	r3, r3, #12
 8002c40:	58c4      	ldr	r4, [r0, r3]
 8002c42:	f001 011f 	and.w	r1, r1, #31
 8002c46:	f04f 0c1f 	mov.w	ip, #31
 8002c4a:	fa0c fc01 	lsl.w	ip, ip, r1
 8002c4e:	ea24 0c0c 	bic.w	ip, r4, ip
 8002c52:	f3c2 6284 	ubfx	r2, r2, #26, #5
 8002c56:	408a      	lsls	r2, r1
 8002c58:	ea4c 0202 	orr.w	r2, ip, r2
 8002c5c:	50c2      	str	r2, [r0, r3]
 8002c5e:	f85d 4b04 	ldr.w	r4, [sp], #4
 8002c62:	4770      	bx	lr

08002c64 <LL_ADC_SetChannelSamplingTime>:
 8002c64:	b410      	push	{r4}
 8002c66:	3014      	adds	r0, #20
 8002c68:	0e4b      	lsrs	r3, r1, #25
 8002c6a:	009b      	lsls	r3, r3, #2
 8002c6c:	f003 0304 	and.w	r3, r3, #4
 8002c70:	58c4      	ldr	r4, [r0, r3]
 8002c72:	f3c1 5104 	ubfx	r1, r1, #20, #5
 8002c76:	f04f 0c07 	mov.w	ip, #7
 8002c7a:	fa0c fc01 	lsl.w	ip, ip, r1
 8002c7e:	ea24 0c0c 	bic.w	ip, r4, ip
 8002c82:	408a      	lsls	r2, r1
 8002c84:	ea4c 0202 	orr.w	r2, ip, r2
 8002c88:	50c2      	str	r2, [r0, r3]
 8002c8a:	f85d 4b04 	ldr.w	r4, [sp], #4
 8002c8e:	4770      	bx	lr

08002c90 <HAL_ADC_Init>:
 8002c90:	b530      	push	{r4, r5, lr}
 8002c92:	b083      	sub	sp, #12
 8002c94:	2300      	movs	r3, #0
 8002c96:	9301      	str	r3, [sp, #4]
 8002c98:	2800      	cmp	r0, #0
 8002c9a:	f000 80d9 	beq.w	8002e50 <HAL_ADC_Init+0x1c0>
 8002c9e:	4604      	mov	r4, r0
 8002ca0:	6d43      	ldr	r3, [r0, #84]	@ 0x54
 8002ca2:	b313      	cbz	r3, 8002cea <HAL_ADC_Init+0x5a>
 8002ca4:	6823      	ldr	r3, [r4, #0]
 8002ca6:	689a      	ldr	r2, [r3, #8]
 8002ca8:	f012 5f00 	tst.w	r2, #536870912	@ 0x20000000
 8002cac:	d005      	beq.n	8002cba <HAL_ADC_Init+0x2a>
 8002cae:	689a      	ldr	r2, [r3, #8]
 8002cb0:	f022 4220 	bic.w	r2, r2, #2684354560	@ 0xa0000000
 8002cb4:	f022 023f 	bic.w	r2, r2, #63	@ 0x3f
 8002cb8:	609a      	str	r2, [r3, #8]
 8002cba:	6822      	ldr	r2, [r4, #0]
 8002cbc:	6893      	ldr	r3, [r2, #8]
 8002cbe:	f013 5f80 	tst.w	r3, #268435456	@ 0x10000000
 8002cc2:	d11f      	bne.n	8002d04 <HAL_ADC_Init+0x74>
 8002cc4:	6893      	ldr	r3, [r2, #8]
 8002cc6:	f023 4310 	bic.w	r3, r3, #2415919104	@ 0x90000000
 8002cca:	f023 033f 	bic.w	r3, r3, #63	@ 0x3f
 8002cce:	f043 5380 	orr.w	r3, r3, #268435456	@ 0x10000000
 8002cd2:	6093      	str	r3, [r2, #8]
 8002cd4:	4b5f      	ldr	r3, [pc, #380]	@ (8002e54 <HAL_ADC_Init+0x1c4>)
 8002cd6:	681b      	ldr	r3, [r3, #0]
 8002cd8:	099b      	lsrs	r3, r3, #6
 8002cda:	4a5f      	ldr	r2, [pc, #380]	@ (8002e58 <HAL_ADC_Init+0x1c8>)
 8002cdc:	fba2 2303 	umull	r2, r3, r2, r3
 8002ce0:	099b      	lsrs	r3, r3, #6
 8002ce2:	3301      	adds	r3, #1
 8002ce4:	005b      	lsls	r3, r3, #1
 8002ce6:	9301      	str	r3, [sp, #4]
 8002ce8:	e009      	b.n	8002cfe <HAL_ADC_Init+0x6e>
 8002cea:	f001 f965 	bl	8003fb8 <HAL_ADC_MspInit>
 8002cee:	2300      	movs	r3, #0
 8002cf0:	65a3      	str	r3, [r4, #88]	@ 0x58
 8002cf2:	f884 3050 	strb.w	r3, [r4, #80]	@ 0x50
 8002cf6:	e7d5      	b.n	8002ca4 <HAL_ADC_Init+0x14>
 8002cf8:	9b01      	ldr	r3, [sp, #4]
 8002cfa:	3b01      	subs	r3, #1
 8002cfc:	9301      	str	r3, [sp, #4]
 8002cfe:	9b01      	ldr	r3, [sp, #4]
 8002d00:	2b00      	cmp	r3, #0
 8002d02:	d1f9      	bne.n	8002cf8 <HAL_ADC_Init+0x68>
 8002d04:	6822      	ldr	r2, [r4, #0]
 8002d06:	6893      	ldr	r3, [r2, #8]
 8002d08:	f013 5f80 	tst.w	r3, #268435456	@ 0x10000000
 8002d0c:	d179      	bne.n	8002e02 <HAL_ADC_Init+0x172>
 8002d0e:	6d63      	ldr	r3, [r4, #84]	@ 0x54
 8002d10:	f043 0310 	orr.w	r3, r3, #16
 8002d14:	6563      	str	r3, [r4, #84]	@ 0x54
 8002d16:	6da3      	ldr	r3, [r4, #88]	@ 0x58
 8002d18:	f043 0301 	orr.w	r3, r3, #1
 8002d1c:	65a3      	str	r3, [r4, #88]	@ 0x58
 8002d1e:	2001      	movs	r0, #1
 8002d20:	6893      	ldr	r3, [r2, #8]
 8002d22:	f013 0304 	ands.w	r3, r3, #4
 8002d26:	d000      	beq.n	8002d2a <HAL_ADC_Init+0x9a>
 8002d28:	2301      	movs	r3, #1
 8002d2a:	6d61      	ldr	r1, [r4, #84]	@ 0x54
 8002d2c:	f011 0f10 	tst.w	r1, #16
 8002d30:	f040 8087 	bne.w	8002e42 <HAL_ADC_Init+0x1b2>
 8002d34:	2b00      	cmp	r3, #0
 8002d36:	f040 8084 	bne.w	8002e42 <HAL_ADC_Init+0x1b2>
 8002d3a:	6d63      	ldr	r3, [r4, #84]	@ 0x54
 8002d3c:	f423 7381 	bic.w	r3, r3, #258	@ 0x102
 8002d40:	f043 0302 	orr.w	r3, r3, #2
 8002d44:	6563      	str	r3, [r4, #84]	@ 0x54
 8002d46:	6893      	ldr	r3, [r2, #8]
 8002d48:	f013 0f01 	tst.w	r3, #1
 8002d4c:	d112      	bne.n	8002d74 <HAL_ADC_Init+0xe4>
 8002d4e:	4b43      	ldr	r3, [pc, #268]	@ (8002e5c <HAL_ADC_Init+0x1cc>)
 8002d50:	689b      	ldr	r3, [r3, #8]
 8002d52:	f013 0301 	ands.w	r3, r3, #1
 8002d56:	d000      	beq.n	8002d5a <HAL_ADC_Init+0xca>
 8002d58:	2301      	movs	r3, #1
 8002d5a:	4a41      	ldr	r2, [pc, #260]	@ (8002e60 <HAL_ADC_Init+0x1d0>)
 8002d5c:	6892      	ldr	r2, [r2, #8]
 8002d5e:	f012 0f01 	tst.w	r2, #1
 8002d62:	d107      	bne.n	8002d74 <HAL_ADC_Init+0xe4>
 8002d64:	b933      	cbnz	r3, 8002d74 <HAL_ADC_Init+0xe4>
 8002d66:	6863      	ldr	r3, [r4, #4]
 8002d68:	493e      	ldr	r1, [pc, #248]	@ (8002e64 <HAL_ADC_Init+0x1d4>)
 8002d6a:	688a      	ldr	r2, [r1, #8]
 8002d6c:	f422 127c 	bic.w	r2, r2, #4128768	@ 0x3f0000
 8002d70:	4313      	orrs	r3, r2
 8002d72:	608b      	str	r3, [r1, #8]
 8002d74:	7e62      	ldrb	r2, [r4, #25]
 8002d76:	6b63      	ldr	r3, [r4, #52]	@ 0x34
 8002d78:	ea43 3342 	orr.w	r3, r3, r2, lsl #13
 8002d7c:	68e2      	ldr	r2, [r4, #12]
 8002d7e:	4313      	orrs	r3, r2
 8002d80:	68a2      	ldr	r2, [r4, #8]
 8002d82:	4313      	orrs	r3, r2
 8002d84:	f894 2020 	ldrb.w	r2, [r4, #32]
 8002d88:	ea43 4302 	orr.w	r3, r3, r2, lsl #16
 8002d8c:	2a01      	cmp	r2, #1
 8002d8e:	d03a      	beq.n	8002e06 <HAL_ADC_Init+0x176>
 8002d90:	6aa2      	ldr	r2, [r4, #40]	@ 0x28
 8002d92:	b122      	cbz	r2, 8002d9e <HAL_ADC_Init+0x10e>
 8002d94:	f402 7270 	and.w	r2, r2, #960	@ 0x3c0
 8002d98:	6ae1      	ldr	r1, [r4, #44]	@ 0x2c
 8002d9a:	430a      	orrs	r2, r1
 8002d9c:	4313      	orrs	r3, r2
 8002d9e:	6821      	ldr	r1, [r4, #0]
 8002da0:	68cd      	ldr	r5, [r1, #12]
 8002da2:	4a31      	ldr	r2, [pc, #196]	@ (8002e68 <HAL_ADC_Init+0x1d8>)
 8002da4:	402a      	ands	r2, r5
 8002da6:	431a      	orrs	r2, r3
 8002da8:	60ca      	str	r2, [r1, #12]
 8002daa:	6822      	ldr	r2, [r4, #0]
 8002dac:	6893      	ldr	r3, [r2, #8]
 8002dae:	f013 0308 	ands.w	r3, r3, #8
 8002db2:	d000      	beq.n	8002db6 <HAL_ADC_Init+0x126>
 8002db4:	2301      	movs	r3, #1
 8002db6:	b9ab      	cbnz	r3, 8002de4 <HAL_ADC_Init+0x154>
 8002db8:	7e23      	ldrb	r3, [r4, #24]
 8002dba:	f894 1030 	ldrb.w	r1, [r4, #48]	@ 0x30
 8002dbe:	0049      	lsls	r1, r1, #1
 8002dc0:	ea41 3183 	orr.w	r1, r1, r3, lsl #14
 8002dc4:	68d3      	ldr	r3, [r2, #12]
 8002dc6:	f423 4380 	bic.w	r3, r3, #16384	@ 0x4000
 8002dca:	f023 0302 	bic.w	r3, r3, #2
 8002dce:	430b      	orrs	r3, r1
 8002dd0:	60d3      	str	r3, [r2, #12]
 8002dd2:	f894 3038 	ldrb.w	r3, [r4, #56]	@ 0x38
 8002dd6:	2b01      	cmp	r3, #1
 8002dd8:	d01a      	beq.n	8002e10 <HAL_ADC_Init+0x180>
 8002dda:	6822      	ldr	r2, [r4, #0]
 8002ddc:	6913      	ldr	r3, [r2, #16]
 8002dde:	f023 0301 	bic.w	r3, r3, #1
 8002de2:	6113      	str	r3, [r2, #16]
 8002de4:	6923      	ldr	r3, [r4, #16]
 8002de6:	2b01      	cmp	r3, #1
 8002de8:	d022      	beq.n	8002e30 <HAL_ADC_Init+0x1a0>
 8002dea:	6822      	ldr	r2, [r4, #0]
 8002dec:	6b13      	ldr	r3, [r2, #48]	@ 0x30
 8002dee:	f023 030f 	bic.w	r3, r3, #15
 8002df2:	6313      	str	r3, [r2, #48]	@ 0x30
 8002df4:	6d63      	ldr	r3, [r4, #84]	@ 0x54
 8002df6:	f023 0303 	bic.w	r3, r3, #3
 8002dfa:	f043 0301 	orr.w	r3, r3, #1
 8002dfe:	6563      	str	r3, [r4, #84]	@ 0x54
 8002e00:	e024      	b.n	8002e4c <HAL_ADC_Init+0x1bc>
 8002e02:	2000      	movs	r0, #0
 8002e04:	e78c      	b.n	8002d20 <HAL_ADC_Init+0x90>
 8002e06:	6a62      	ldr	r2, [r4, #36]	@ 0x24
 8002e08:	3a01      	subs	r2, #1
 8002e0a:	ea43 4342 	orr.w	r3, r3, r2, lsl #17
 8002e0e:	e7bf      	b.n	8002d90 <HAL_ADC_Init+0x100>
 8002e10:	6821      	ldr	r1, [r4, #0]
 8002e12:	690b      	ldr	r3, [r1, #16]
 8002e14:	f36f 038a 	bfc	r3, #2, #9
 8002e18:	6be2      	ldr	r2, [r4, #60]	@ 0x3c
 8002e1a:	6c25      	ldr	r5, [r4, #64]	@ 0x40
 8002e1c:	432a      	orrs	r2, r5
 8002e1e:	6c65      	ldr	r5, [r4, #68]	@ 0x44
 8002e20:	432a      	orrs	r2, r5
 8002e22:	6ca5      	ldr	r5, [r4, #72]	@ 0x48
 8002e24:	432a      	orrs	r2, r5
 8002e26:	4313      	orrs	r3, r2
 8002e28:	f043 0301 	orr.w	r3, r3, #1
 8002e2c:	610b      	str	r3, [r1, #16]
 8002e2e:	e7d9      	b.n	8002de4 <HAL_ADC_Init+0x154>
 8002e30:	6821      	ldr	r1, [r4, #0]
 8002e32:	6b0b      	ldr	r3, [r1, #48]	@ 0x30
 8002e34:	f023 030f 	bic.w	r3, r3, #15
 8002e38:	69e2      	ldr	r2, [r4, #28]
 8002e3a:	3a01      	subs	r2, #1
 8002e3c:	4313      	orrs	r3, r2
 8002e3e:	630b      	str	r3, [r1, #48]	@ 0x30
 8002e40:	e7d8      	b.n	8002df4 <HAL_ADC_Init+0x164>
 8002e42:	6d63      	ldr	r3, [r4, #84]	@ 0x54
 8002e44:	f043 0310 	orr.w	r3, r3, #16
 8002e48:	6563      	str	r3, [r4, #84]	@ 0x54
 8002e4a:	2001      	movs	r0, #1
 8002e4c:	b003      	add	sp, #12
 8002e4e:	bd30      	pop	{r4, r5, pc}
 8002e50:	2001      	movs	r0, #1
 8002e52:	e7fb      	b.n	8002e4c <HAL_ADC_Init+0x1bc>
 8002e54:	200000c4 	.word	0x200000c4
 8002e58:	053e2d63 	.word	0x053e2d63
 8002e5c:	50040000 	.word	0x50040000
 8002e60:	50040100 	.word	0x50040100
 8002e64:	50040300 	.word	0x50040300
 8002e68:	fff0c007 	.word	0xfff0c007

08002e6c <HAL_ADC_ConvCpltCallback>:
 8002e6c:	4770      	bx	lr

08002e6e <HAL_ADC_ConvHalfCpltCallback>:
 8002e6e:	4770      	bx	lr

08002e70 <ADC_DMAHalfConvCplt>:
 8002e70:	b508      	push	{r3, lr}
 8002e72:	6a80      	ldr	r0, [r0, #40]	@ 0x28
 8002e74:	f7ff fffb 	bl	8002e6e <HAL_ADC_ConvHalfCpltCallback>
 8002e78:	bd08      	pop	{r3, pc}

08002e7a <HAL_ADC_LevelOutOfWindowCallback>:
 8002e7a:	4770      	bx	lr

08002e7c <HAL_ADC_ErrorCallback>:
 8002e7c:	4770      	bx	lr
	...

08002e80 <HAL_ADC_IRQHandler>:
 8002e80:	b5f8      	push	{r3, r4, r5, r6, r7, lr}
 8002e82:	4604      	mov	r4, r0
 8002e84:	6803      	ldr	r3, [r0, #0]
 8002e86:	681f      	ldr	r7, [r3, #0]
 8002e88:	685d      	ldr	r5, [r3, #4]
 8002e8a:	4b9a      	ldr	r3, [pc, #616]	@ (80030f4 <HAL_ADC_IRQHandler+0x274>)
 8002e8c:	689e      	ldr	r6, [r3, #8]
 8002e8e:	f006 061f 	and.w	r6, r6, #31
 8002e92:	f017 0f02 	tst.w	r7, #2
 8002e96:	d010      	beq.n	8002eba <HAL_ADC_IRQHandler+0x3a>
 8002e98:	f015 0f02 	tst.w	r5, #2
 8002e9c:	d00d      	beq.n	8002eba <HAL_ADC_IRQHandler+0x3a>
 8002e9e:	6d43      	ldr	r3, [r0, #84]	@ 0x54
 8002ea0:	f013 0f10 	tst.w	r3, #16
 8002ea4:	d103      	bne.n	8002eae <HAL_ADC_IRQHandler+0x2e>
 8002ea6:	6d43      	ldr	r3, [r0, #84]	@ 0x54
 8002ea8:	f443 6300 	orr.w	r3, r3, #2048	@ 0x800
 8002eac:	6543      	str	r3, [r0, #84]	@ 0x54
 8002eae:	4620      	mov	r0, r4
 8002eb0:	f000 fc9a 	bl	80037e8 <HAL_ADCEx_EndOfSamplingCallback>
 8002eb4:	6823      	ldr	r3, [r4, #0]
 8002eb6:	2202      	movs	r2, #2
 8002eb8:	601a      	str	r2, [r3, #0]
 8002eba:	f017 0f04 	tst.w	r7, #4
 8002ebe:	d002      	beq.n	8002ec6 <HAL_ADC_IRQHandler+0x46>
 8002ec0:	f015 0f04 	tst.w	r5, #4
 8002ec4:	d105      	bne.n	8002ed2 <HAL_ADC_IRQHandler+0x52>
 8002ec6:	f017 0f08 	tst.w	r7, #8
 8002eca:	d04d      	beq.n	8002f68 <HAL_ADC_IRQHandler+0xe8>
 8002ecc:	f015 0f08 	tst.w	r5, #8
 8002ed0:	d04a      	beq.n	8002f68 <HAL_ADC_IRQHandler+0xe8>
 8002ed2:	6d63      	ldr	r3, [r4, #84]	@ 0x54
 8002ed4:	f013 0f10 	tst.w	r3, #16
 8002ed8:	d103      	bne.n	8002ee2 <HAL_ADC_IRQHandler+0x62>
 8002eda:	6d63      	ldr	r3, [r4, #84]	@ 0x54
 8002edc:	f443 7300 	orr.w	r3, r3, #512	@ 0x200
 8002ee0:	6563      	str	r3, [r4, #84]	@ 0x54
 8002ee2:	6823      	ldr	r3, [r4, #0]
 8002ee4:	68da      	ldr	r2, [r3, #12]
 8002ee6:	f412 6f40 	tst.w	r2, #3072	@ 0xc00
 8002eea:	d137      	bne.n	8002f5c <HAL_ADC_IRQHandler+0xdc>
 8002eec:	4a82      	ldr	r2, [pc, #520]	@ (80030f8 <HAL_ADC_IRQHandler+0x278>)
 8002eee:	4293      	cmp	r3, r2
 8002ef0:	d027      	beq.n	8002f42 <HAL_ADC_IRQHandler+0xc2>
 8002ef2:	461a      	mov	r2, r3
 8002ef4:	4293      	cmp	r3, r2
 8002ef6:	d007      	beq.n	8002f08 <HAL_ADC_IRQHandler+0x88>
 8002ef8:	2e09      	cmp	r6, #9
 8002efa:	d825      	bhi.n	8002f48 <HAL_ADC_IRQHandler+0xc8>
 8002efc:	f240 2121 	movw	r1, #545	@ 0x221
 8002f00:	40f1      	lsrs	r1, r6
 8002f02:	f011 0f01 	tst.w	r1, #1
 8002f06:	d01f      	beq.n	8002f48 <HAL_ADC_IRQHandler+0xc8>
 8002f08:	68da      	ldr	r2, [r3, #12]
 8002f0a:	f412 5f00 	tst.w	r2, #8192	@ 0x2000
 8002f0e:	d125      	bne.n	8002f5c <HAL_ADC_IRQHandler+0xdc>
 8002f10:	681a      	ldr	r2, [r3, #0]
 8002f12:	f012 0f08 	tst.w	r2, #8
 8002f16:	d021      	beq.n	8002f5c <HAL_ADC_IRQHandler+0xdc>
 8002f18:	689a      	ldr	r2, [r3, #8]
 8002f1a:	f012 0f04 	tst.w	r2, #4
 8002f1e:	d115      	bne.n	8002f4c <HAL_ADC_IRQHandler+0xcc>
 8002f20:	685a      	ldr	r2, [r3, #4]
 8002f22:	f022 020c 	bic.w	r2, r2, #12
 8002f26:	605a      	str	r2, [r3, #4]
 8002f28:	6d63      	ldr	r3, [r4, #84]	@ 0x54
 8002f2a:	f423 7380 	bic.w	r3, r3, #256	@ 0x100
 8002f2e:	6563      	str	r3, [r4, #84]	@ 0x54
 8002f30:	6d63      	ldr	r3, [r4, #84]	@ 0x54
 8002f32:	f413 5f80 	tst.w	r3, #4096	@ 0x1000
 8002f36:	d111      	bne.n	8002f5c <HAL_ADC_IRQHandler+0xdc>
 8002f38:	6d63      	ldr	r3, [r4, #84]	@ 0x54
 8002f3a:	f043 0301 	orr.w	r3, r3, #1
 8002f3e:	6563      	str	r3, [r4, #84]	@ 0x54
 8002f40:	e00c      	b.n	8002f5c <HAL_ADC_IRQHandler+0xdc>
 8002f42:	f5a2 7280 	sub.w	r2, r2, #256	@ 0x100
 8002f46:	e7d5      	b.n	8002ef4 <HAL_ADC_IRQHandler+0x74>
 8002f48:	68d2      	ldr	r2, [r2, #12]
 8002f4a:	e7de      	b.n	8002f0a <HAL_ADC_IRQHandler+0x8a>
 8002f4c:	6d63      	ldr	r3, [r4, #84]	@ 0x54
 8002f4e:	f043 0310 	orr.w	r3, r3, #16
 8002f52:	6563      	str	r3, [r4, #84]	@ 0x54
 8002f54:	6da3      	ldr	r3, [r4, #88]	@ 0x58
 8002f56:	f043 0301 	orr.w	r3, r3, #1
 8002f5a:	65a3      	str	r3, [r4, #88]	@ 0x58
 8002f5c:	4620      	mov	r0, r4
 8002f5e:	f7ff ff85 	bl	8002e6c <HAL_ADC_ConvCpltCallback>
 8002f62:	6823      	ldr	r3, [r4, #0]
 8002f64:	220c      	movs	r2, #12
 8002f66:	601a      	str	r2, [r3, #0]
 8002f68:	f017 0f20 	tst.w	r7, #32
 8002f6c:	d002      	beq.n	8002f74 <HAL_ADC_IRQHandler+0xf4>
 8002f6e:	f015 0f20 	tst.w	r5, #32
 8002f72:	d105      	bne.n	8002f80 <HAL_ADC_IRQHandler+0x100>
 8002f74:	f017 0f40 	tst.w	r7, #64	@ 0x40
 8002f78:	d05c      	beq.n	8003034 <HAL_ADC_IRQHandler+0x1b4>
 8002f7a:	f015 0f40 	tst.w	r5, #64	@ 0x40
 8002f7e:	d059      	beq.n	8003034 <HAL_ADC_IRQHandler+0x1b4>
 8002f80:	6d63      	ldr	r3, [r4, #84]	@ 0x54
 8002f82:	f013 0f10 	tst.w	r3, #16
 8002f86:	d103      	bne.n	8002f90 <HAL_ADC_IRQHandler+0x110>
 8002f88:	6d63      	ldr	r3, [r4, #84]	@ 0x54
 8002f8a:	f443 5300 	orr.w	r3, r3, #8192	@ 0x2000
 8002f8e:	6563      	str	r3, [r4, #84]	@ 0x54
 8002f90:	6823      	ldr	r3, [r4, #0]
 8002f92:	6cda      	ldr	r2, [r3, #76]	@ 0x4c
 8002f94:	f012 0fc0 	tst.w	r2, #192	@ 0xc0
 8002f98:	d112      	bne.n	8002fc0 <HAL_ADC_IRQHandler+0x140>
 8002f9a:	2101      	movs	r1, #1
 8002f9c:	68da      	ldr	r2, [r3, #12]
 8002f9e:	f412 6f40 	tst.w	r2, #3072	@ 0xc00
 8002fa2:	d10f      	bne.n	8002fc4 <HAL_ADC_IRQHandler+0x144>
 8002fa4:	2001      	movs	r0, #1
 8002fa6:	4a54      	ldr	r2, [pc, #336]	@ (80030f8 <HAL_ADC_IRQHandler+0x278>)
 8002fa8:	4293      	cmp	r3, r2
 8002faa:	d00d      	beq.n	8002fc8 <HAL_ADC_IRQHandler+0x148>
 8002fac:	461a      	mov	r2, r3
 8002fae:	4293      	cmp	r3, r2
 8002fb0:	d00d      	beq.n	8002fce <HAL_ADC_IRQHandler+0x14e>
 8002fb2:	b166      	cbz	r6, 8002fce <HAL_ADC_IRQHandler+0x14e>
 8002fb4:	2e06      	cmp	r6, #6
 8002fb6:	d00a      	beq.n	8002fce <HAL_ADC_IRQHandler+0x14e>
 8002fb8:	2e07      	cmp	r6, #7
 8002fba:	d008      	beq.n	8002fce <HAL_ADC_IRQHandler+0x14e>
 8002fbc:	68d2      	ldr	r2, [r2, #12]
 8002fbe:	e007      	b.n	8002fd0 <HAL_ADC_IRQHandler+0x150>
 8002fc0:	2100      	movs	r1, #0
 8002fc2:	e7eb      	b.n	8002f9c <HAL_ADC_IRQHandler+0x11c>
 8002fc4:	2000      	movs	r0, #0
 8002fc6:	e7ee      	b.n	8002fa6 <HAL_ADC_IRQHandler+0x126>
 8002fc8:	f5a2 7280 	sub.w	r2, r2, #256	@ 0x100
 8002fcc:	e7ef      	b.n	8002fae <HAL_ADC_IRQHandler+0x12e>
 8002fce:	68da      	ldr	r2, [r3, #12]
 8002fd0:	b351      	cbz	r1, 8003028 <HAL_ADC_IRQHandler+0x1a8>
 8002fd2:	f012 7f00 	tst.w	r2, #33554432	@ 0x2000000
 8002fd6:	d003      	beq.n	8002fe0 <HAL_ADC_IRQHandler+0x160>
 8002fd8:	b330      	cbz	r0, 8003028 <HAL_ADC_IRQHandler+0x1a8>
 8002fda:	f412 5f00 	tst.w	r2, #8192	@ 0x2000
 8002fde:	d123      	bne.n	8003028 <HAL_ADC_IRQHandler+0x1a8>
 8002fe0:	6819      	ldr	r1, [r3, #0]
 8002fe2:	f011 0f40 	tst.w	r1, #64	@ 0x40
 8002fe6:	d01f      	beq.n	8003028 <HAL_ADC_IRQHandler+0x1a8>
 8002fe8:	f412 1f00 	tst.w	r2, #2097152	@ 0x200000
 8002fec:	d11c      	bne.n	8003028 <HAL_ADC_IRQHandler+0x1a8>
 8002fee:	689a      	ldr	r2, [r3, #8]
 8002ff0:	f012 0f08 	tst.w	r2, #8
 8002ff4:	d110      	bne.n	8003018 <HAL_ADC_IRQHandler+0x198>
 8002ff6:	685a      	ldr	r2, [r3, #4]
 8002ff8:	f022 0260 	bic.w	r2, r2, #96	@ 0x60
 8002ffc:	605a      	str	r2, [r3, #4]
 8002ffe:	6d63      	ldr	r3, [r4, #84]	@ 0x54
 8003000:	f423 5380 	bic.w	r3, r3, #4096	@ 0x1000
 8003004:	6563      	str	r3, [r4, #84]	@ 0x54
 8003006:	6d63      	ldr	r3, [r4, #84]	@ 0x54
 8003008:	f413 7f80 	tst.w	r3, #256	@ 0x100
 800300c:	d10c      	bne.n	8003028 <HAL_ADC_IRQHandler+0x1a8>
 800300e:	6d63      	ldr	r3, [r4, #84]	@ 0x54
 8003010:	f043 0301 	orr.w	r3, r3, #1
 8003014:	6563      	str	r3, [r4, #84]	@ 0x54
 8003016:	e007      	b.n	8003028 <HAL_ADC_IRQHandler+0x1a8>
 8003018:	6d63      	ldr	r3, [r4, #84]	@ 0x54
 800301a:	f043 0310 	orr.w	r3, r3, #16
 800301e:	6563      	str	r3, [r4, #84]	@ 0x54
 8003020:	6da3      	ldr	r3, [r4, #88]	@ 0x58
 8003022:	f043 0301 	orr.w	r3, r3, #1
 8003026:	65a3      	str	r3, [r4, #88]	@ 0x58
 8003028:	4620      	mov	r0, r4
 800302a:	f000 fbd9 	bl	80037e0 <HAL_ADCEx_InjectedConvCpltCallback>
 800302e:	6823      	ldr	r3, [r4, #0]
 8003030:	2260      	movs	r2, #96	@ 0x60
 8003032:	601a      	str	r2, [r3, #0]
 8003034:	f017 0f80 	tst.w	r7, #128	@ 0x80
 8003038:	d002      	beq.n	8003040 <HAL_ADC_IRQHandler+0x1c0>
 800303a:	f015 0f80 	tst.w	r5, #128	@ 0x80
 800303e:	d12f      	bne.n	80030a0 <HAL_ADC_IRQHandler+0x220>
 8003040:	f417 7f80 	tst.w	r7, #256	@ 0x100
 8003044:	d002      	beq.n	800304c <HAL_ADC_IRQHandler+0x1cc>
 8003046:	f415 7f80 	tst.w	r5, #256	@ 0x100
 800304a:	d134      	bne.n	80030b6 <HAL_ADC_IRQHandler+0x236>
 800304c:	f417 7f00 	tst.w	r7, #512	@ 0x200
 8003050:	d002      	beq.n	8003058 <HAL_ADC_IRQHandler+0x1d8>
 8003052:	f415 7f00 	tst.w	r5, #512	@ 0x200
 8003056:	d13a      	bne.n	80030ce <HAL_ADC_IRQHandler+0x24e>
 8003058:	f017 0f10 	tst.w	r7, #16
 800305c:	d019      	beq.n	8003092 <HAL_ADC_IRQHandler+0x212>
 800305e:	f015 0f10 	tst.w	r5, #16
 8003062:	d016      	beq.n	8003092 <HAL_ADC_IRQHandler+0x212>
 8003064:	6b63      	ldr	r3, [r4, #52]	@ 0x34
 8003066:	b133      	cbz	r3, 8003076 <HAL_ADC_IRQHandler+0x1f6>
 8003068:	2e00      	cmp	r6, #0
 800306a:	d03c      	beq.n	80030e6 <HAL_ADC_IRQHandler+0x266>
 800306c:	4b21      	ldr	r3, [pc, #132]	@ (80030f4 <HAL_ADC_IRQHandler+0x274>)
 800306e:	689b      	ldr	r3, [r3, #8]
 8003070:	f413 4f60 	tst.w	r3, #57344	@ 0xe000
 8003074:	d00a      	beq.n	800308c <HAL_ADC_IRQHandler+0x20c>
 8003076:	6d63      	ldr	r3, [r4, #84]	@ 0x54
 8003078:	f443 6380 	orr.w	r3, r3, #1024	@ 0x400
 800307c:	6563      	str	r3, [r4, #84]	@ 0x54
 800307e:	6da3      	ldr	r3, [r4, #88]	@ 0x58
 8003080:	f043 0302 	orr.w	r3, r3, #2
 8003084:	65a3      	str	r3, [r4, #88]	@ 0x58
 8003086:	4620      	mov	r0, r4
 8003088:	f7ff fef8 	bl	8002e7c <HAL_ADC_ErrorCallback>
 800308c:	6823      	ldr	r3, [r4, #0]
 800308e:	2210      	movs	r2, #16
 8003090:	601a      	str	r2, [r3, #0]
 8003092:	f417 6f80 	tst.w	r7, #1024	@ 0x400
 8003096:	d002      	beq.n	800309e <HAL_ADC_IRQHandler+0x21e>
 8003098:	f415 6f80 	tst.w	r5, #1024	@ 0x400
 800309c:	d12e      	bne.n	80030fc <HAL_ADC_IRQHandler+0x27c>
 800309e:	bdf8      	pop	{r3, r4, r5, r6, r7, pc}
 80030a0:	6d63      	ldr	r3, [r4, #84]	@ 0x54
 80030a2:	f443 3380 	orr.w	r3, r3, #65536	@ 0x10000
 80030a6:	6563      	str	r3, [r4, #84]	@ 0x54
 80030a8:	4620      	mov	r0, r4
 80030aa:	f7ff fee6 	bl	8002e7a <HAL_ADC_LevelOutOfWindowCallback>
 80030ae:	6823      	ldr	r3, [r4, #0]
 80030b0:	2280      	movs	r2, #128	@ 0x80
 80030b2:	601a      	str	r2, [r3, #0]
 80030b4:	e7c4      	b.n	8003040 <HAL_ADC_IRQHandler+0x1c0>
 80030b6:	6d63      	ldr	r3, [r4, #84]	@ 0x54
 80030b8:	f443 3300 	orr.w	r3, r3, #131072	@ 0x20000
 80030bc:	6563      	str	r3, [r4, #84]	@ 0x54
 80030be:	4620      	mov	r0, r4
 80030c0:	f000 fb90 	bl	80037e4 <HAL_ADCEx_LevelOutOfWindow2Callback>
 80030c4:	6823      	ldr	r3, [r4, #0]
 80030c6:	f44f 7280 	mov.w	r2, #256	@ 0x100
 80030ca:	601a      	str	r2, [r3, #0]
 80030cc:	e7be      	b.n	800304c <HAL_ADC_IRQHandler+0x1cc>
 80030ce:	6d63      	ldr	r3, [r4, #84]	@ 0x54
 80030d0:	f443 2380 	orr.w	r3, r3, #262144	@ 0x40000
 80030d4:	6563      	str	r3, [r4, #84]	@ 0x54
 80030d6:	4620      	mov	r0, r4
 80030d8:	f000 fb85 	bl	80037e6 <HAL_ADCEx_LevelOutOfWindow3Callback>
 80030dc:	6823      	ldr	r3, [r4, #0]
 80030de:	f44f 7200 	mov.w	r2, #512	@ 0x200
 80030e2:	601a      	str	r2, [r3, #0]
 80030e4:	e7b8      	b.n	8003058 <HAL_ADC_IRQHandler+0x1d8>
 80030e6:	6823      	ldr	r3, [r4, #0]
 80030e8:	68db      	ldr	r3, [r3, #12]
 80030ea:	f013 0f01 	tst.w	r3, #1
 80030ee:	d0cd      	beq.n	800308c <HAL_ADC_IRQHandler+0x20c>
 80030f0:	e7c1      	b.n	8003076 <HAL_ADC_IRQHandler+0x1f6>
 80030f2:	bf00      	nop
 80030f4:	50040300 	.word	0x50040300
 80030f8:	50040100 	.word	0x50040100
 80030fc:	6d63      	ldr	r3, [r4, #84]	@ 0x54
 80030fe:	f443 4380 	orr.w	r3, r3, #16384	@ 0x4000
 8003102:	6563      	str	r3, [r4, #84]	@ 0x54
 8003104:	6da3      	ldr	r3, [r4, #88]	@ 0x58
 8003106:	f043 0308 	orr.w	r3, r3, #8
 800310a:	65a3      	str	r3, [r4, #88]	@ 0x58
 800310c:	6823      	ldr	r3, [r4, #0]
 800310e:	f44f 6280 	mov.w	r2, #1024	@ 0x400
 8003112:	601a      	str	r2, [r3, #0]
 8003114:	4620      	mov	r0, r4
 8003116:	f000 fb64 	bl	80037e2 <HAL_ADCEx_InjectedQueueOverflowCallback>
 800311a:	e7c0      	b.n	800309e <HAL_ADC_IRQHandler+0x21e>

0800311c <ADC_DMAConvCplt>:
 800311c:	b508      	push	{r3, lr}
 800311e:	4603      	mov	r3, r0
 8003120:	6a80      	ldr	r0, [r0, #40]	@ 0x28
 8003122:	6d42      	ldr	r2, [r0, #84]	@ 0x54
 8003124:	f012 0f50 	tst.w	r2, #80	@ 0x50
 8003128:	d130      	bne.n	800318c <ADC_DMAConvCplt+0x70>
 800312a:	6d43      	ldr	r3, [r0, #84]	@ 0x54
 800312c:	f443 7300 	orr.w	r3, r3, #512	@ 0x200
 8003130:	6543      	str	r3, [r0, #84]	@ 0x54
 8003132:	6803      	ldr	r3, [r0, #0]
 8003134:	681a      	ldr	r2, [r3, #0]
 8003136:	f012 0f08 	tst.w	r2, #8
 800313a:	d014      	beq.n	8003166 <ADC_DMAConvCplt+0x4a>
 800313c:	68da      	ldr	r2, [r3, #12]
 800313e:	f412 6f40 	tst.w	r2, #3072	@ 0xc00
 8003142:	d120      	bne.n	8003186 <ADC_DMAConvCplt+0x6a>
 8003144:	68db      	ldr	r3, [r3, #12]
 8003146:	f413 5f00 	tst.w	r3, #8192	@ 0x2000
 800314a:	d11c      	bne.n	8003186 <ADC_DMAConvCplt+0x6a>
 800314c:	6d43      	ldr	r3, [r0, #84]	@ 0x54
 800314e:	f423 7380 	bic.w	r3, r3, #256	@ 0x100
 8003152:	6543      	str	r3, [r0, #84]	@ 0x54
 8003154:	6d43      	ldr	r3, [r0, #84]	@ 0x54
 8003156:	f413 5f80 	tst.w	r3, #4096	@ 0x1000
 800315a:	d114      	bne.n	8003186 <ADC_DMAConvCplt+0x6a>
 800315c:	6d43      	ldr	r3, [r0, #84]	@ 0x54
 800315e:	f043 0301 	orr.w	r3, r3, #1
 8003162:	6543      	str	r3, [r0, #84]	@ 0x54
 8003164:	e00f      	b.n	8003186 <ADC_DMAConvCplt+0x6a>
 8003166:	68db      	ldr	r3, [r3, #12]
 8003168:	f013 0f02 	tst.w	r3, #2
 800316c:	d10b      	bne.n	8003186 <ADC_DMAConvCplt+0x6a>
 800316e:	6d43      	ldr	r3, [r0, #84]	@ 0x54
 8003170:	f423 7380 	bic.w	r3, r3, #256	@ 0x100
 8003174:	6543      	str	r3, [r0, #84]	@ 0x54
 8003176:	6d43      	ldr	r3, [r0, #84]	@ 0x54
 8003178:	f413 5f80 	tst.w	r3, #4096	@ 0x1000
 800317c:	d103      	bne.n	8003186 <ADC_DMAConvCplt+0x6a>
 800317e:	6d43      	ldr	r3, [r0, #84]	@ 0x54
 8003180:	f043 0301 	orr.w	r3, r3, #1
 8003184:	6543      	str	r3, [r0, #84]	@ 0x54
 8003186:	f7ff fe71 	bl	8002e6c <HAL_ADC_ConvCpltCallback>
 800318a:	bd08      	pop	{r3, pc}
 800318c:	6d42      	ldr	r2, [r0, #84]	@ 0x54
 800318e:	f012 0f10 	tst.w	r2, #16
 8003192:	d104      	bne.n	800319e <ADC_DMAConvCplt+0x82>
 8003194:	6cc2      	ldr	r2, [r0, #76]	@ 0x4c
 8003196:	6b52      	ldr	r2, [r2, #52]	@ 0x34
 8003198:	4618      	mov	r0, r3
 800319a:	4790      	blx	r2
 800319c:	e7f5      	b.n	800318a <ADC_DMAConvCplt+0x6e>
 800319e:	f7ff fe6d 	bl	8002e7c <HAL_ADC_ErrorCallback>
 80031a2:	e7f2      	b.n	800318a <ADC_DMAConvCplt+0x6e>

080031a4 <ADC_DMAError>:
 80031a4:	b508      	push	{r3, lr}
 80031a6:	6a80      	ldr	r0, [r0, #40]	@ 0x28
 80031a8:	6d43      	ldr	r3, [r0, #84]	@ 0x54
 80031aa:	f043 0340 	orr.w	r3, r3, #64	@ 0x40
 80031ae:	6543      	str	r3, [r0, #84]	@ 0x54
 80031b0:	6d83      	ldr	r3, [r0, #88]	@ 0x58
 80031b2:	f043 0304 	orr.w	r3, r3, #4
 80031b6:	6583      	str	r3, [r0, #88]	@ 0x58
 80031b8:	f7ff fe60 	bl	8002e7c <HAL_ADC_ErrorCallback>
 80031bc:	bd08      	pop	{r3, pc}
	...

080031c0 <HAL_ADC_ConfigChannel>:
 80031c0:	b5f0      	push	{r4, r5, r6, r7, lr}
 80031c2:	b083      	sub	sp, #12
 80031c4:	2300      	movs	r3, #0
 80031c6:	9301      	str	r3, [sp, #4]
 80031c8:	f890 3050 	ldrb.w	r3, [r0, #80]	@ 0x50
 80031cc:	2b01      	cmp	r3, #1
 80031ce:	f000 820b 	beq.w	80035e8 <HAL_ADC_ConfigChannel+0x428>
 80031d2:	4604      	mov	r4, r0
 80031d4:	460d      	mov	r5, r1
 80031d6:	2301      	movs	r3, #1
 80031d8:	f880 3050 	strb.w	r3, [r0, #80]	@ 0x50
 80031dc:	6800      	ldr	r0, [r0, #0]
 80031de:	6883      	ldr	r3, [r0, #8]
 80031e0:	f013 0f04 	tst.w	r3, #4
 80031e4:	d009      	beq.n	80031fa <HAL_ADC_ConfigChannel+0x3a>
 80031e6:	6d63      	ldr	r3, [r4, #84]	@ 0x54
 80031e8:	f043 0320 	orr.w	r3, r3, #32
 80031ec:	6563      	str	r3, [r4, #84]	@ 0x54
 80031ee:	2001      	movs	r0, #1
 80031f0:	2300      	movs	r3, #0
 80031f2:	f884 3050 	strb.w	r3, [r4, #80]	@ 0x50
 80031f6:	b003      	add	sp, #12
 80031f8:	bdf0      	pop	{r4, r5, r6, r7, pc}
 80031fa:	6849      	ldr	r1, [r1, #4]
 80031fc:	2905      	cmp	r1, #5
 80031fe:	d807      	bhi.n	8003210 <HAL_ADC_ConfigChannel+0x50>
 8003200:	3902      	subs	r1, #2
 8003202:	2903      	cmp	r1, #3
 8003204:	d871      	bhi.n	80032ea <HAL_ADC_ConfigChannel+0x12a>
 8003206:	e8df f001 	tbb	[pc, r1]
 800320a:	7202      	.short	0x7202
 800320c:	6d6b      	.short	0x6d6b
 800320e:	210c      	movs	r1, #12
 8003210:	682a      	ldr	r2, [r5, #0]
 8003212:	f7ff fd0f 	bl	8002c34 <LL_ADC_REG_SetSequencerRanks>
 8003216:	6820      	ldr	r0, [r4, #0]
 8003218:	6883      	ldr	r3, [r0, #8]
 800321a:	f013 0304 	ands.w	r3, r3, #4
 800321e:	d000      	beq.n	8003222 <HAL_ADC_ConfigChannel+0x62>
 8003220:	2301      	movs	r3, #1
 8003222:	6882      	ldr	r2, [r0, #8]
 8003224:	f012 0208 	ands.w	r2, r2, #8
 8003228:	d000      	beq.n	800322c <HAL_ADC_ConfigChannel+0x6c>
 800322a:	2201      	movs	r2, #1
 800322c:	bb23      	cbnz	r3, 8003278 <HAL_ADC_ConfigChannel+0xb8>
 800322e:	bb1a      	cbnz	r2, 8003278 <HAL_ADC_ConfigChannel+0xb8>
 8003230:	68aa      	ldr	r2, [r5, #8]
 8003232:	f1b2 4f00 	cmp.w	r2, #2147483648	@ 0x80000000
 8003236:	d05c      	beq.n	80032f2 <HAL_ADC_ConfigChannel+0x132>
 8003238:	6829      	ldr	r1, [r5, #0]
 800323a:	f7ff fd13 	bl	8002c64 <LL_ADC_SetChannelSamplingTime>
 800323e:	6822      	ldr	r2, [r4, #0]
 8003240:	6953      	ldr	r3, [r2, #20]
 8003242:	f023 4300 	bic.w	r3, r3, #2147483648	@ 0x80000000
 8003246:	6153      	str	r3, [r2, #20]
 8003248:	6969      	ldr	r1, [r5, #20]
 800324a:	6822      	ldr	r2, [r4, #0]
 800324c:	68d3      	ldr	r3, [r2, #12]
 800324e:	f3c3 03c1 	ubfx	r3, r3, #3, #2
 8003252:	005b      	lsls	r3, r3, #1
 8003254:	4099      	lsls	r1, r3
 8003256:	6928      	ldr	r0, [r5, #16]
 8003258:	2804      	cmp	r0, #4
 800325a:	d054      	beq.n	8003306 <HAL_ADC_ConfigChannel+0x146>
 800325c:	682e      	ldr	r6, [r5, #0]
 800325e:	3260      	adds	r2, #96	@ 0x60
 8003260:	f852 7020 	ldr.w	r7, [r2, r0, lsl #2]
 8003264:	4ba7      	ldr	r3, [pc, #668]	@ (8003504 <HAL_ADC_ConfigChannel+0x344>)
 8003266:	403b      	ands	r3, r7
 8003268:	f006 46f8 	and.w	r6, r6, #2080374784	@ 0x7c000000
 800326c:	4331      	orrs	r1, r6
 800326e:	430b      	orrs	r3, r1
 8003270:	f043 4300 	orr.w	r3, r3, #2147483648	@ 0x80000000
 8003274:	f842 3020 	str.w	r3, [r2, r0, lsl #2]
 8003278:	6822      	ldr	r2, [r4, #0]
 800327a:	6893      	ldr	r3, [r2, #8]
 800327c:	f013 0f01 	tst.w	r3, #1
 8003280:	d117      	bne.n	80032b2 <HAL_ADC_ConfigChannel+0xf2>
 8003282:	682b      	ldr	r3, [r5, #0]
 8003284:	68e8      	ldr	r0, [r5, #12]
 8003286:	f8d2 10b0 	ldr.w	r1, [r2, #176]	@ 0xb0
 800328a:	f3c3 0612 	ubfx	r6, r3, #0, #19
 800328e:	ea21 0106 	bic.w	r1, r1, r6
 8003292:	f000 0c18 	and.w	ip, r0, #24
 8003296:	489c      	ldr	r0, [pc, #624]	@ (8003508 <HAL_ADC_ConfigChannel+0x348>)
 8003298:	fa20 f00c 	lsr.w	r0, r0, ip
 800329c:	4003      	ands	r3, r0
 800329e:	f3c3 0312 	ubfx	r3, r3, #0, #19
 80032a2:	430b      	orrs	r3, r1
 80032a4:	f8c2 30b0 	str.w	r3, [r2, #176]	@ 0xb0
 80032a8:	68ea      	ldr	r2, [r5, #12]
 80032aa:	4b98      	ldr	r3, [pc, #608]	@ (800350c <HAL_ADC_ConfigChannel+0x34c>)
 80032ac:	429a      	cmp	r2, r3
 80032ae:	f000 8091 	beq.w	80033d4 <HAL_ADC_ConfigChannel+0x214>
 80032b2:	682b      	ldr	r3, [r5, #0]
 80032b4:	4a96      	ldr	r2, [pc, #600]	@ (8003510 <HAL_ADC_ConfigChannel+0x350>)
 80032b6:	4213      	tst	r3, r2
 80032b8:	f000 8192 	beq.w	80035e0 <HAL_ADC_ConfigChannel+0x420>
 80032bc:	4a95      	ldr	r2, [pc, #596]	@ (8003514 <HAL_ADC_ConfigChannel+0x354>)
 80032be:	6892      	ldr	r2, [r2, #8]
 80032c0:	f002 70e0 	and.w	r0, r2, #29360128	@ 0x1c00000
 80032c4:	4994      	ldr	r1, [pc, #592]	@ (8003518 <HAL_ADC_ConfigChannel+0x358>)
 80032c6:	428b      	cmp	r3, r1
 80032c8:	f000 813d 	beq.w	8003546 <HAL_ADC_ConfigChannel+0x386>
 80032cc:	4993      	ldr	r1, [pc, #588]	@ (800351c <HAL_ADC_ConfigChannel+0x35c>)
 80032ce:	428b      	cmp	r3, r1
 80032d0:	f000 815f 	beq.w	8003592 <HAL_ADC_ConfigChannel+0x3d2>
 80032d4:	4992      	ldr	r1, [pc, #584]	@ (8003520 <HAL_ADC_ConfigChannel+0x360>)
 80032d6:	428b      	cmp	r3, r1
 80032d8:	f000 816f 	beq.w	80035ba <HAL_ADC_ConfigChannel+0x3fa>
 80032dc:	2000      	movs	r0, #0
 80032de:	e787      	b.n	80031f0 <HAL_ADC_ConfigChannel+0x30>
 80032e0:	2118      	movs	r1, #24
 80032e2:	e795      	b.n	8003210 <HAL_ADC_ConfigChannel+0x50>
 80032e4:	f44f 7180 	mov.w	r1, #256	@ 0x100
 80032e8:	e792      	b.n	8003210 <HAL_ADC_ConfigChannel+0x50>
 80032ea:	2106      	movs	r1, #6
 80032ec:	e790      	b.n	8003210 <HAL_ADC_ConfigChannel+0x50>
 80032ee:	2112      	movs	r1, #18
 80032f0:	e78e      	b.n	8003210 <HAL_ADC_ConfigChannel+0x50>
 80032f2:	2200      	movs	r2, #0
 80032f4:	6829      	ldr	r1, [r5, #0]
 80032f6:	f7ff fcb5 	bl	8002c64 <LL_ADC_SetChannelSamplingTime>
 80032fa:	6822      	ldr	r2, [r4, #0]
 80032fc:	6953      	ldr	r3, [r2, #20]
 80032fe:	f043 4300 	orr.w	r3, r3, #2147483648	@ 0x80000000
 8003302:	6153      	str	r3, [r2, #20]
 8003304:	e7a0      	b.n	8003248 <HAL_ADC_ConfigChannel+0x88>
 8003306:	6e13      	ldr	r3, [r2, #96]	@ 0x60
 8003308:	6e11      	ldr	r1, [r2, #96]	@ 0x60
 800330a:	f3c1 6184 	ubfx	r1, r1, #26, #5
 800330e:	682b      	ldr	r3, [r5, #0]
 8003310:	f3c3 0012 	ubfx	r0, r3, #0, #19
 8003314:	bb78      	cbnz	r0, 8003376 <HAL_ADC_ConfigChannel+0x1b6>
 8003316:	f3c3 6384 	ubfx	r3, r3, #26, #5
 800331a:	4299      	cmp	r1, r3
 800331c:	d033      	beq.n	8003386 <HAL_ADC_ConfigChannel+0x1c6>
 800331e:	6821      	ldr	r1, [r4, #0]
 8003320:	6e4b      	ldr	r3, [r1, #100]	@ 0x64
 8003322:	6e4a      	ldr	r2, [r1, #100]	@ 0x64
 8003324:	f3c2 6284 	ubfx	r2, r2, #26, #5
 8003328:	682b      	ldr	r3, [r5, #0]
 800332a:	f3c3 0012 	ubfx	r0, r3, #0, #19
 800332e:	bb78      	cbnz	r0, 8003390 <HAL_ADC_ConfigChannel+0x1d0>
 8003330:	f3c3 6384 	ubfx	r3, r3, #26, #5
 8003334:	429a      	cmp	r2, r3
 8003336:	d033      	beq.n	80033a0 <HAL_ADC_ConfigChannel+0x1e0>
 8003338:	6821      	ldr	r1, [r4, #0]
 800333a:	6e8b      	ldr	r3, [r1, #104]	@ 0x68
 800333c:	6e8a      	ldr	r2, [r1, #104]	@ 0x68
 800333e:	f3c2 6284 	ubfx	r2, r2, #26, #5
 8003342:	682b      	ldr	r3, [r5, #0]
 8003344:	f3c3 0012 	ubfx	r0, r3, #0, #19
 8003348:	bb78      	cbnz	r0, 80033aa <HAL_ADC_ConfigChannel+0x1ea>
 800334a:	f3c3 6384 	ubfx	r3, r3, #26, #5
 800334e:	429a      	cmp	r2, r3
 8003350:	d033      	beq.n	80033ba <HAL_ADC_ConfigChannel+0x1fa>
 8003352:	6821      	ldr	r1, [r4, #0]
 8003354:	6ecb      	ldr	r3, [r1, #108]	@ 0x6c
 8003356:	6eca      	ldr	r2, [r1, #108]	@ 0x6c
 8003358:	f3c2 6284 	ubfx	r2, r2, #26, #5
 800335c:	682b      	ldr	r3, [r5, #0]
 800335e:	f3c3 0012 	ubfx	r0, r3, #0, #19
 8003362:	bb78      	cbnz	r0, 80033c4 <HAL_ADC_ConfigChannel+0x204>
 8003364:	f3c3 6384 	ubfx	r3, r3, #26, #5
 8003368:	429a      	cmp	r2, r3
 800336a:	d185      	bne.n	8003278 <HAL_ADC_ConfigChannel+0xb8>
 800336c:	6ecb      	ldr	r3, [r1, #108]	@ 0x6c
 800336e:	f023 4300 	bic.w	r3, r3, #2147483648	@ 0x80000000
 8003372:	66cb      	str	r3, [r1, #108]	@ 0x6c
 8003374:	e780      	b.n	8003278 <HAL_ADC_ConfigChannel+0xb8>
 8003376:	fa93 f3a3 	rbit	r3, r3
 800337a:	b113      	cbz	r3, 8003382 <HAL_ADC_ConfigChannel+0x1c2>
 800337c:	fab3 f383 	clz	r3, r3
 8003380:	e7cb      	b.n	800331a <HAL_ADC_ConfigChannel+0x15a>
 8003382:	2320      	movs	r3, #32
 8003384:	e7c9      	b.n	800331a <HAL_ADC_ConfigChannel+0x15a>
 8003386:	6e13      	ldr	r3, [r2, #96]	@ 0x60
 8003388:	f023 4300 	bic.w	r3, r3, #2147483648	@ 0x80000000
 800338c:	6613      	str	r3, [r2, #96]	@ 0x60
 800338e:	e7c6      	b.n	800331e <HAL_ADC_ConfigChannel+0x15e>
 8003390:	fa93 f3a3 	rbit	r3, r3
 8003394:	b113      	cbz	r3, 800339c <HAL_ADC_ConfigChannel+0x1dc>
 8003396:	fab3 f383 	clz	r3, r3
 800339a:	e7cb      	b.n	8003334 <HAL_ADC_ConfigChannel+0x174>
 800339c:	2320      	movs	r3, #32
 800339e:	e7c9      	b.n	8003334 <HAL_ADC_ConfigChannel+0x174>
 80033a0:	6e4b      	ldr	r3, [r1, #100]	@ 0x64
 80033a2:	f023 4300 	bic.w	r3, r3, #2147483648	@ 0x80000000
 80033a6:	664b      	str	r3, [r1, #100]	@ 0x64
 80033a8:	e7c6      	b.n	8003338 <HAL_ADC_ConfigChannel+0x178>
 80033aa:	fa93 f3a3 	rbit	r3, r3
 80033ae:	b113      	cbz	r3, 80033b6 <HAL_ADC_ConfigChannel+0x1f6>
 80033b0:	fab3 f383 	clz	r3, r3
 80033b4:	e7cb      	b.n	800334e <HAL_ADC_ConfigChannel+0x18e>
 80033b6:	2320      	movs	r3, #32
 80033b8:	e7c9      	b.n	800334e <HAL_ADC_ConfigChannel+0x18e>
 80033ba:	6e8b      	ldr	r3, [r1, #104]	@ 0x68
 80033bc:	f023 4300 	bic.w	r3, r3, #2147483648	@ 0x80000000
 80033c0:	668b      	str	r3, [r1, #104]	@ 0x68
 80033c2:	e7c6      	b.n	8003352 <HAL_ADC_ConfigChannel+0x192>
 80033c4:	fa93 f3a3 	rbit	r3, r3
 80033c8:	b113      	cbz	r3, 80033d0 <HAL_ADC_ConfigChannel+0x210>
 80033ca:	fab3 f383 	clz	r3, r3
 80033ce:	e7cb      	b.n	8003368 <HAL_ADC_ConfigChannel+0x1a8>
 80033d0:	2320      	movs	r3, #32
 80033d2:	e7c9      	b.n	8003368 <HAL_ADC_ConfigChannel+0x1a8>
 80033d4:	6820      	ldr	r0, [r4, #0]
 80033d6:	682b      	ldr	r3, [r5, #0]
 80033d8:	f3c3 0612 	ubfx	r6, r3, #0, #19
 80033dc:	bb26      	cbnz	r6, 8003428 <HAL_ADC_ConfigChannel+0x268>
 80033de:	0e9a      	lsrs	r2, r3, #26
 80033e0:	3201      	adds	r2, #1
 80033e2:	f002 021f 	and.w	r2, r2, #31
 80033e6:	2a09      	cmp	r2, #9
 80033e8:	bf8c      	ite	hi
 80033ea:	2200      	movhi	r2, #0
 80033ec:	2201      	movls	r2, #1
 80033ee:	2a00      	cmp	r2, #0
 80033f0:	d052      	beq.n	8003498 <HAL_ADC_ConfigChannel+0x2d8>
 80033f2:	bb46      	cbnz	r6, 8003446 <HAL_ADC_ConfigChannel+0x286>
 80033f4:	0e99      	lsrs	r1, r3, #26
 80033f6:	3101      	adds	r1, #1
 80033f8:	0689      	lsls	r1, r1, #26
 80033fa:	f001 41f8 	and.w	r1, r1, #2080374784	@ 0x7c000000
 80033fe:	bb76      	cbnz	r6, 800345e <HAL_ADC_ConfigChannel+0x29e>
 8003400:	0e9f      	lsrs	r7, r3, #26
 8003402:	3701      	adds	r7, #1
 8003404:	f007 071f 	and.w	r7, r7, #31
 8003408:	2201      	movs	r2, #1
 800340a:	40ba      	lsls	r2, r7
 800340c:	4311      	orrs	r1, r2
 800340e:	bbae      	cbnz	r6, 800347c <HAL_ADC_ConfigChannel+0x2bc>
 8003410:	0e9b      	lsrs	r3, r3, #26
 8003412:	3301      	adds	r3, #1
 8003414:	f003 031f 	and.w	r3, r3, #31
 8003418:	eb03 0343 	add.w	r3, r3, r3, lsl #1
 800341c:	051b      	lsls	r3, r3, #20
 800341e:	4319      	orrs	r1, r3
 8003420:	68aa      	ldr	r2, [r5, #8]
 8003422:	f7ff fc1f 	bl	8002c64 <LL_ADC_SetChannelSamplingTime>
 8003426:	e744      	b.n	80032b2 <HAL_ADC_ConfigChannel+0xf2>
 8003428:	fa93 f2a3 	rbit	r2, r3
 800342c:	b14a      	cbz	r2, 8003442 <HAL_ADC_ConfigChannel+0x282>
 800342e:	fab2 f282 	clz	r2, r2
 8003432:	3201      	adds	r2, #1
 8003434:	f002 021f 	and.w	r2, r2, #31
 8003438:	2a09      	cmp	r2, #9
 800343a:	bf8c      	ite	hi
 800343c:	2200      	movhi	r2, #0
 800343e:	2201      	movls	r2, #1
 8003440:	e7d5      	b.n	80033ee <HAL_ADC_ConfigChannel+0x22e>
 8003442:	2220      	movs	r2, #32
 8003444:	e7f5      	b.n	8003432 <HAL_ADC_ConfigChannel+0x272>
 8003446:	fa93 f1a3 	rbit	r1, r3
 800344a:	b131      	cbz	r1, 800345a <HAL_ADC_ConfigChannel+0x29a>
 800344c:	fab1 f181 	clz	r1, r1
 8003450:	3101      	adds	r1, #1
 8003452:	0689      	lsls	r1, r1, #26
 8003454:	f001 41f8 	and.w	r1, r1, #2080374784	@ 0x7c000000
 8003458:	e7d1      	b.n	80033fe <HAL_ADC_ConfigChannel+0x23e>
 800345a:	2120      	movs	r1, #32
 800345c:	e7f8      	b.n	8003450 <HAL_ADC_ConfigChannel+0x290>
 800345e:	fa93 f2a3 	rbit	r2, r3
 8003462:	b14a      	cbz	r2, 8003478 <HAL_ADC_ConfigChannel+0x2b8>
 8003464:	fab2 f282 	clz	r2, r2
 8003468:	3201      	adds	r2, #1
 800346a:	f002 021f 	and.w	r2, r2, #31
 800346e:	f04f 0c01 	mov.w	ip, #1
 8003472:	fa0c f202 	lsl.w	r2, ip, r2
 8003476:	e7c9      	b.n	800340c <HAL_ADC_ConfigChannel+0x24c>
 8003478:	2220      	movs	r2, #32
 800347a:	e7f5      	b.n	8003468 <HAL_ADC_ConfigChannel+0x2a8>
 800347c:	fa93 f3a3 	rbit	r3, r3
 8003480:	b143      	cbz	r3, 8003494 <HAL_ADC_ConfigChannel+0x2d4>
 8003482:	fab3 f383 	clz	r3, r3
 8003486:	3301      	adds	r3, #1
 8003488:	f003 031f 	and.w	r3, r3, #31
 800348c:	eb03 0343 	add.w	r3, r3, r3, lsl #1
 8003490:	051b      	lsls	r3, r3, #20
 8003492:	e7c4      	b.n	800341e <HAL_ADC_ConfigChannel+0x25e>
 8003494:	2320      	movs	r3, #32
 8003496:	e7f6      	b.n	8003486 <HAL_ADC_ConfigChannel+0x2c6>
 8003498:	b9ce      	cbnz	r6, 80034ce <HAL_ADC_ConfigChannel+0x30e>
 800349a:	0e99      	lsrs	r1, r3, #26
 800349c:	3101      	adds	r1, #1
 800349e:	0689      	lsls	r1, r1, #26
 80034a0:	f001 41f8 	and.w	r1, r1, #2080374784	@ 0x7c000000
 80034a4:	b9fe      	cbnz	r6, 80034e6 <HAL_ADC_ConfigChannel+0x326>
 80034a6:	0e9f      	lsrs	r7, r3, #26
 80034a8:	3701      	adds	r7, #1
 80034aa:	f007 071f 	and.w	r7, r7, #31
 80034ae:	2201      	movs	r2, #1
 80034b0:	40ba      	lsls	r2, r7
 80034b2:	4311      	orrs	r1, r2
 80034b4:	bbb6      	cbnz	r6, 8003524 <HAL_ADC_ConfigChannel+0x364>
 80034b6:	0e9b      	lsrs	r3, r3, #26
 80034b8:	3301      	adds	r3, #1
 80034ba:	f003 031f 	and.w	r3, r3, #31
 80034be:	eb03 0343 	add.w	r3, r3, r3, lsl #1
 80034c2:	3b1e      	subs	r3, #30
 80034c4:	051b      	lsls	r3, r3, #20
 80034c6:	f043 7300 	orr.w	r3, r3, #33554432	@ 0x2000000
 80034ca:	4319      	orrs	r1, r3
 80034cc:	e7a8      	b.n	8003420 <HAL_ADC_ConfigChannel+0x260>
 80034ce:	fa93 f1a3 	rbit	r1, r3
 80034d2:	b131      	cbz	r1, 80034e2 <HAL_ADC_ConfigChannel+0x322>
 80034d4:	fab1 f181 	clz	r1, r1
 80034d8:	3101      	adds	r1, #1
 80034da:	0689      	lsls	r1, r1, #26
 80034dc:	f001 41f8 	and.w	r1, r1, #2080374784	@ 0x7c000000
 80034e0:	e7e0      	b.n	80034a4 <HAL_ADC_ConfigChannel+0x2e4>
 80034e2:	2120      	movs	r1, #32
 80034e4:	e7f8      	b.n	80034d8 <HAL_ADC_ConfigChannel+0x318>
 80034e6:	fa93 f2a3 	rbit	r2, r3
 80034ea:	b14a      	cbz	r2, 8003500 <HAL_ADC_ConfigChannel+0x340>
 80034ec:	fab2 f282 	clz	r2, r2
 80034f0:	3201      	adds	r2, #1
 80034f2:	f002 021f 	and.w	r2, r2, #31
 80034f6:	f04f 0c01 	mov.w	ip, #1
 80034fa:	fa0c f202 	lsl.w	r2, ip, r2
 80034fe:	e7d8      	b.n	80034b2 <HAL_ADC_ConfigChannel+0x2f2>
 8003500:	2220      	movs	r2, #32
 8003502:	e7f5      	b.n	80034f0 <HAL_ADC_ConfigChannel+0x330>
 8003504:	03fff000 	.word	0x03fff000
 8003508:	0007ffff 	.word	0x0007ffff
 800350c:	407f0000 	.word	0x407f0000
 8003510:	80080000 	.word	0x80080000
 8003514:	50040300 	.word	0x50040300
 8003518:	c7520000 	.word	0xc7520000
 800351c:	cb840000 	.word	0xcb840000
 8003520:	80000001 	.word	0x80000001
 8003524:	fa93 f3a3 	rbit	r3, r3
 8003528:	b15b      	cbz	r3, 8003542 <HAL_ADC_ConfigChannel+0x382>
 800352a:	fab3 f383 	clz	r3, r3
 800352e:	3301      	adds	r3, #1
 8003530:	f003 031f 	and.w	r3, r3, #31
 8003534:	eb03 0343 	add.w	r3, r3, r3, lsl #1
 8003538:	3b1e      	subs	r3, #30
 800353a:	051b      	lsls	r3, r3, #20
 800353c:	f043 7300 	orr.w	r3, r3, #33554432	@ 0x2000000
 8003540:	e7c3      	b.n	80034ca <HAL_ADC_ConfigChannel+0x30a>
 8003542:	2320      	movs	r3, #32
 8003544:	e7f3      	b.n	800352e <HAL_ADC_ConfigChannel+0x36e>
 8003546:	f412 0f00 	tst.w	r2, #8388608	@ 0x800000
 800354a:	f47f aebf 	bne.w	80032cc <HAL_ADC_ConfigChannel+0x10c>
 800354e:	6822      	ldr	r2, [r4, #0]
 8003550:	4b26      	ldr	r3, [pc, #152]	@ (80035ec <HAL_ADC_ConfigChannel+0x42c>)
 8003552:	429a      	cmp	r2, r3
 8003554:	d001      	beq.n	800355a <HAL_ADC_ConfigChannel+0x39a>
 8003556:	2000      	movs	r0, #0
 8003558:	e64a      	b.n	80031f0 <HAL_ADC_ConfigChannel+0x30>
 800355a:	f440 0300 	orr.w	r3, r0, #8388608	@ 0x800000
 800355e:	4924      	ldr	r1, [pc, #144]	@ (80035f0 <HAL_ADC_ConfigChannel+0x430>)
 8003560:	688a      	ldr	r2, [r1, #8]
 8003562:	f022 72e0 	bic.w	r2, r2, #29360128	@ 0x1c00000
 8003566:	4313      	orrs	r3, r2
 8003568:	608b      	str	r3, [r1, #8]
 800356a:	4b22      	ldr	r3, [pc, #136]	@ (80035f4 <HAL_ADC_ConfigChannel+0x434>)
 800356c:	681b      	ldr	r3, [r3, #0]
 800356e:	099b      	lsrs	r3, r3, #6
 8003570:	4a21      	ldr	r2, [pc, #132]	@ (80035f8 <HAL_ADC_ConfigChannel+0x438>)
 8003572:	fba2 2303 	umull	r2, r3, r2, r3
 8003576:	099b      	lsrs	r3, r3, #6
 8003578:	3301      	adds	r3, #1
 800357a:	eb03 0343 	add.w	r3, r3, r3, lsl #1
 800357e:	009b      	lsls	r3, r3, #2
 8003580:	9301      	str	r3, [sp, #4]
 8003582:	9b01      	ldr	r3, [sp, #4]
 8003584:	b11b      	cbz	r3, 800358e <HAL_ADC_ConfigChannel+0x3ce>
 8003586:	9b01      	ldr	r3, [sp, #4]
 8003588:	3b01      	subs	r3, #1
 800358a:	9301      	str	r3, [sp, #4]
 800358c:	e7f9      	b.n	8003582 <HAL_ADC_ConfigChannel+0x3c2>
 800358e:	2000      	movs	r0, #0
 8003590:	e62e      	b.n	80031f0 <HAL_ADC_ConfigChannel+0x30>
 8003592:	f012 7f80 	tst.w	r2, #16777216	@ 0x1000000
 8003596:	f47f ae9d 	bne.w	80032d4 <HAL_ADC_ConfigChannel+0x114>
 800359a:	6822      	ldr	r2, [r4, #0]
 800359c:	4b13      	ldr	r3, [pc, #76]	@ (80035ec <HAL_ADC_ConfigChannel+0x42c>)
 800359e:	429a      	cmp	r2, r3
 80035a0:	d001      	beq.n	80035a6 <HAL_ADC_ConfigChannel+0x3e6>
 80035a2:	2000      	movs	r0, #0
 80035a4:	e624      	b.n	80031f0 <HAL_ADC_ConfigChannel+0x30>
 80035a6:	f040 7380 	orr.w	r3, r0, #16777216	@ 0x1000000
 80035aa:	4911      	ldr	r1, [pc, #68]	@ (80035f0 <HAL_ADC_ConfigChannel+0x430>)
 80035ac:	688a      	ldr	r2, [r1, #8]
 80035ae:	f022 72e0 	bic.w	r2, r2, #29360128	@ 0x1c00000
 80035b2:	4313      	orrs	r3, r2
 80035b4:	608b      	str	r3, [r1, #8]
 80035b6:	2000      	movs	r0, #0
 80035b8:	e61a      	b.n	80031f0 <HAL_ADC_ConfigChannel+0x30>
 80035ba:	f412 0f80 	tst.w	r2, #4194304	@ 0x400000
 80035be:	d111      	bne.n	80035e4 <HAL_ADC_ConfigChannel+0x424>
 80035c0:	6822      	ldr	r2, [r4, #0]
 80035c2:	4b0a      	ldr	r3, [pc, #40]	@ (80035ec <HAL_ADC_ConfigChannel+0x42c>)
 80035c4:	429a      	cmp	r2, r3
 80035c6:	d001      	beq.n	80035cc <HAL_ADC_ConfigChannel+0x40c>
 80035c8:	2000      	movs	r0, #0
 80035ca:	e611      	b.n	80031f0 <HAL_ADC_ConfigChannel+0x30>
 80035cc:	f440 0380 	orr.w	r3, r0, #4194304	@ 0x400000
 80035d0:	4907      	ldr	r1, [pc, #28]	@ (80035f0 <HAL_ADC_ConfigChannel+0x430>)
 80035d2:	688a      	ldr	r2, [r1, #8]
 80035d4:	f022 72e0 	bic.w	r2, r2, #29360128	@ 0x1c00000
 80035d8:	4313      	orrs	r3, r2
 80035da:	608b      	str	r3, [r1, #8]
 80035dc:	2000      	movs	r0, #0
 80035de:	e607      	b.n	80031f0 <HAL_ADC_ConfigChannel+0x30>
 80035e0:	2000      	movs	r0, #0
 80035e2:	e605      	b.n	80031f0 <HAL_ADC_ConfigChannel+0x30>
 80035e4:	2000      	movs	r0, #0
 80035e6:	e603      	b.n	80031f0 <HAL_ADC_ConfigChannel+0x30>
 80035e8:	2002      	movs	r0, #2
 80035ea:	e604      	b.n	80031f6 <HAL_ADC_ConfigChannel+0x36>
 80035ec:	50040000 	.word	0x50040000
 80035f0:	50040300 	.word	0x50040300
 80035f4:	200000c4 	.word	0x200000c4
 80035f8:	053e2d63 	.word	0x053e2d63

080035fc <ADC_Enable>:
 80035fc:	b530      	push	{r4, r5, lr}
 80035fe:	b083      	sub	sp, #12
 8003600:	2300      	movs	r3, #0
 8003602:	9301      	str	r3, [sp, #4]
 8003604:	6803      	ldr	r3, [r0, #0]
 8003606:	689a      	ldr	r2, [r3, #8]
 8003608:	f012 0f01 	tst.w	r2, #1
 800360c:	d158      	bne.n	80036c0 <ADC_Enable+0xc4>
 800360e:	4604      	mov	r4, r0
 8003610:	6899      	ldr	r1, [r3, #8]
 8003612:	4a2d      	ldr	r2, [pc, #180]	@ (80036c8 <ADC_Enable+0xcc>)
 8003614:	4211      	tst	r1, r2
 8003616:	d119      	bne.n	800364c <ADC_Enable+0x50>
 8003618:	689a      	ldr	r2, [r3, #8]
 800361a:	f022 4200 	bic.w	r2, r2, #2147483648	@ 0x80000000
 800361e:	f022 023f 	bic.w	r2, r2, #63	@ 0x3f
 8003622:	f042 0201 	orr.w	r2, r2, #1
 8003626:	609a      	str	r2, [r3, #8]
 8003628:	4b28      	ldr	r3, [pc, #160]	@ (80036cc <ADC_Enable+0xd0>)
 800362a:	689b      	ldr	r3, [r3, #8]
 800362c:	f413 0f00 	tst.w	r3, #8388608	@ 0x800000
 8003630:	d01c      	beq.n	800366c <ADC_Enable+0x70>
 8003632:	4b27      	ldr	r3, [pc, #156]	@ (80036d0 <ADC_Enable+0xd4>)
 8003634:	681b      	ldr	r3, [r3, #0]
 8003636:	099b      	lsrs	r3, r3, #6
 8003638:	4a26      	ldr	r2, [pc, #152]	@ (80036d4 <ADC_Enable+0xd8>)
 800363a:	fba2 2303 	umull	r2, r3, r2, r3
 800363e:	099b      	lsrs	r3, r3, #6
 8003640:	3301      	adds	r3, #1
 8003642:	eb03 0343 	add.w	r3, r3, r3, lsl #1
 8003646:	009b      	lsls	r3, r3, #2
 8003648:	9301      	str	r3, [sp, #4]
 800364a:	e00c      	b.n	8003666 <ADC_Enable+0x6a>
 800364c:	6d43      	ldr	r3, [r0, #84]	@ 0x54
 800364e:	f043 0310 	orr.w	r3, r3, #16
 8003652:	6543      	str	r3, [r0, #84]	@ 0x54
 8003654:	6d83      	ldr	r3, [r0, #88]	@ 0x58
 8003656:	f043 0301 	orr.w	r3, r3, #1
 800365a:	6583      	str	r3, [r0, #88]	@ 0x58
 800365c:	2001      	movs	r0, #1
 800365e:	e030      	b.n	80036c2 <ADC_Enable+0xc6>
 8003660:	9b01      	ldr	r3, [sp, #4]
 8003662:	3b01      	subs	r3, #1
 8003664:	9301      	str	r3, [sp, #4]
 8003666:	9b01      	ldr	r3, [sp, #4]
 8003668:	2b00      	cmp	r3, #0
 800366a:	d1f9      	bne.n	8003660 <ADC_Enable+0x64>
 800366c:	f7ff faba 	bl	8002be4 <HAL_GetTick>
 8003670:	4605      	mov	r5, r0
 8003672:	6823      	ldr	r3, [r4, #0]
 8003674:	681a      	ldr	r2, [r3, #0]
 8003676:	f012 0f01 	tst.w	r2, #1
 800367a:	d11f      	bne.n	80036bc <ADC_Enable+0xc0>
 800367c:	689a      	ldr	r2, [r3, #8]
 800367e:	f012 0f01 	tst.w	r2, #1
 8003682:	d107      	bne.n	8003694 <ADC_Enable+0x98>
 8003684:	689a      	ldr	r2, [r3, #8]
 8003686:	f022 4200 	bic.w	r2, r2, #2147483648	@ 0x80000000
 800368a:	f022 023f 	bic.w	r2, r2, #63	@ 0x3f
 800368e:	f042 0201 	orr.w	r2, r2, #1
 8003692:	609a      	str	r2, [r3, #8]
 8003694:	f7ff faa6 	bl	8002be4 <HAL_GetTick>
 8003698:	1b43      	subs	r3, r0, r5
 800369a:	2b02      	cmp	r3, #2
 800369c:	d9e9      	bls.n	8003672 <ADC_Enable+0x76>
 800369e:	6823      	ldr	r3, [r4, #0]
 80036a0:	681b      	ldr	r3, [r3, #0]
 80036a2:	f013 0f01 	tst.w	r3, #1
 80036a6:	d1e4      	bne.n	8003672 <ADC_Enable+0x76>
 80036a8:	6d63      	ldr	r3, [r4, #84]	@ 0x54
 80036aa:	f043 0310 	orr.w	r3, r3, #16
 80036ae:	6563      	str	r3, [r4, #84]	@ 0x54
 80036b0:	6da3      	ldr	r3, [r4, #88]	@ 0x58
 80036b2:	f043 0301 	orr.w	r3, r3, #1
 80036b6:	65a3      	str	r3, [r4, #88]	@ 0x58
 80036b8:	2001      	movs	r0, #1
 80036ba:	e002      	b.n	80036c2 <ADC_Enable+0xc6>
 80036bc:	2000      	movs	r0, #0
 80036be:	e000      	b.n	80036c2 <ADC_Enable+0xc6>
 80036c0:	2000      	movs	r0, #0
 80036c2:	b003      	add	sp, #12
 80036c4:	bd30      	pop	{r4, r5, pc}
 80036c6:	bf00      	nop
 80036c8:	8000003f 	.word	0x8000003f
 80036cc:	50040300 	.word	0x50040300
 80036d0:	200000c4 	.word	0x200000c4
 80036d4:	053e2d63 	.word	0x053e2d63

080036d8 <HAL_ADC_Start_DMA>:
 80036d8:	b5f8      	push	{r3, r4, r5, r6, r7, lr}
 80036da:	4604      	mov	r4, r0
 80036dc:	4b3b      	ldr	r3, [pc, #236]	@ (80037cc <HAL_ADC_Start_DMA+0xf4>)
 80036de:	689d      	ldr	r5, [r3, #8]
 80036e0:	6800      	ldr	r0, [r0, #0]
 80036e2:	6880      	ldr	r0, [r0, #8]
 80036e4:	f010 0f04 	tst.w	r0, #4
 80036e8:	d16c      	bne.n	80037c4 <HAL_ADC_Start_DMA+0xec>
 80036ea:	460e      	mov	r6, r1
 80036ec:	4617      	mov	r7, r2
 80036ee:	f005 051f 	and.w	r5, r5, #31
 80036f2:	f894 3050 	ldrb.w	r3, [r4, #80]	@ 0x50
 80036f6:	2b01      	cmp	r3, #1
 80036f8:	d066      	beq.n	80037c8 <HAL_ADC_Start_DMA+0xf0>
 80036fa:	2301      	movs	r3, #1
 80036fc:	f884 3050 	strb.w	r3, [r4, #80]	@ 0x50
 8003700:	2d09      	cmp	r5, #9
 8003702:	d805      	bhi.n	8003710 <HAL_ADC_Start_DMA+0x38>
 8003704:	f240 2321 	movw	r3, #545	@ 0x221
 8003708:	40eb      	lsrs	r3, r5
 800370a:	f013 0f01 	tst.w	r3, #1
 800370e:	d104      	bne.n	800371a <HAL_ADC_Start_DMA+0x42>
 8003710:	2300      	movs	r3, #0
 8003712:	f884 3050 	strb.w	r3, [r4, #80]	@ 0x50
 8003716:	2001      	movs	r0, #1
 8003718:	e055      	b.n	80037c6 <HAL_ADC_Start_DMA+0xee>
 800371a:	4620      	mov	r0, r4
 800371c:	f7ff ff6e 	bl	80035fc <ADC_Enable>
 8003720:	2800      	cmp	r0, #0
 8003722:	d14b      	bne.n	80037bc <HAL_ADC_Start_DMA+0xe4>
 8003724:	6d63      	ldr	r3, [r4, #84]	@ 0x54
 8003726:	f423 6370 	bic.w	r3, r3, #3840	@ 0xf00
 800372a:	f023 0301 	bic.w	r3, r3, #1
 800372e:	f443 7380 	orr.w	r3, r3, #256	@ 0x100
 8003732:	6563      	str	r3, [r4, #84]	@ 0x54
 8003734:	6823      	ldr	r3, [r4, #0]
 8003736:	4a26      	ldr	r2, [pc, #152]	@ (80037d0 <HAL_ADC_Start_DMA+0xf8>)
 8003738:	4293      	cmp	r3, r2
 800373a:	d039      	beq.n	80037b0 <HAL_ADC_Start_DMA+0xd8>
 800373c:	461a      	mov	r2, r3
 800373e:	4293      	cmp	r3, r2
 8003740:	d000      	beq.n	8003744 <HAL_ADC_Start_DMA+0x6c>
 8003742:	b91d      	cbnz	r5, 800374c <HAL_ADC_Start_DMA+0x74>
 8003744:	6d63      	ldr	r3, [r4, #84]	@ 0x54
 8003746:	f423 1380 	bic.w	r3, r3, #1048576	@ 0x100000
 800374a:	6563      	str	r3, [r4, #84]	@ 0x54
 800374c:	6d63      	ldr	r3, [r4, #84]	@ 0x54
 800374e:	f413 5f80 	tst.w	r3, #4096	@ 0x1000
 8003752:	d030      	beq.n	80037b6 <HAL_ADC_Start_DMA+0xde>
 8003754:	6da3      	ldr	r3, [r4, #88]	@ 0x58
 8003756:	f023 0306 	bic.w	r3, r3, #6
 800375a:	65a3      	str	r3, [r4, #88]	@ 0x58
 800375c:	6ce3      	ldr	r3, [r4, #76]	@ 0x4c
 800375e:	4a1d      	ldr	r2, [pc, #116]	@ (80037d4 <HAL_ADC_Start_DMA+0xfc>)
 8003760:	62da      	str	r2, [r3, #44]	@ 0x2c
 8003762:	6ce3      	ldr	r3, [r4, #76]	@ 0x4c
 8003764:	4a1c      	ldr	r2, [pc, #112]	@ (80037d8 <HAL_ADC_Start_DMA+0x100>)
 8003766:	631a      	str	r2, [r3, #48]	@ 0x30
 8003768:	6ce3      	ldr	r3, [r4, #76]	@ 0x4c
 800376a:	4a1c      	ldr	r2, [pc, #112]	@ (80037dc <HAL_ADC_Start_DMA+0x104>)
 800376c:	635a      	str	r2, [r3, #52]	@ 0x34
 800376e:	6823      	ldr	r3, [r4, #0]
 8003770:	221c      	movs	r2, #28
 8003772:	601a      	str	r2, [r3, #0]
 8003774:	2300      	movs	r3, #0
 8003776:	f884 3050 	strb.w	r3, [r4, #80]	@ 0x50
 800377a:	6822      	ldr	r2, [r4, #0]
 800377c:	6853      	ldr	r3, [r2, #4]
 800377e:	f043 0310 	orr.w	r3, r3, #16
 8003782:	6053      	str	r3, [r2, #4]
 8003784:	6822      	ldr	r2, [r4, #0]
 8003786:	68d3      	ldr	r3, [r2, #12]
 8003788:	f043 0301 	orr.w	r3, r3, #1
 800378c:	60d3      	str	r3, [r2, #12]
 800378e:	6821      	ldr	r1, [r4, #0]
 8003790:	463b      	mov	r3, r7
 8003792:	4632      	mov	r2, r6
 8003794:	3140      	adds	r1, #64	@ 0x40
 8003796:	6ce0      	ldr	r0, [r4, #76]	@ 0x4c
 8003798:	f000 f9e2 	bl	8003b60 <HAL_DMA_Start_IT>
 800379c:	6822      	ldr	r2, [r4, #0]
 800379e:	6893      	ldr	r3, [r2, #8]
 80037a0:	f023 4300 	bic.w	r3, r3, #2147483648	@ 0x80000000
 80037a4:	f023 033f 	bic.w	r3, r3, #63	@ 0x3f
 80037a8:	f043 0304 	orr.w	r3, r3, #4
 80037ac:	6093      	str	r3, [r2, #8]
 80037ae:	e00a      	b.n	80037c6 <HAL_ADC_Start_DMA+0xee>
 80037b0:	f5a2 7280 	sub.w	r2, r2, #256	@ 0x100
 80037b4:	e7c3      	b.n	800373e <HAL_ADC_Start_DMA+0x66>
 80037b6:	2300      	movs	r3, #0
 80037b8:	65a3      	str	r3, [r4, #88]	@ 0x58
 80037ba:	e7cf      	b.n	800375c <HAL_ADC_Start_DMA+0x84>
 80037bc:	2300      	movs	r3, #0
 80037be:	f884 3050 	strb.w	r3, [r4, #80]	@ 0x50
 80037c2:	e000      	b.n	80037c6 <HAL_ADC_Start_DMA+0xee>
 80037c4:	2002      	movs	r0, #2
 80037c6:	bdf8      	pop	{r3, r4, r5, r6, r7, pc}
 80037c8:	2002      	movs	r0, #2
 80037ca:	e7fc      	b.n	80037c6 <HAL_ADC_Start_DMA+0xee>
 80037cc:	50040300 	.word	0x50040300
 80037d0:	50040100 	.word	0x50040100
 80037d4:	0800311d 	.word	0x0800311d
 80037d8:	08002e71 	.word	0x08002e71
 80037dc:	080031a5 	.word	0x080031a5

080037e0 <HAL_ADCEx_InjectedConvCpltCallback>:
 80037e0:	4770      	bx	lr

080037e2 <HAL_ADCEx_InjectedQueueOverflowCallback>:
 80037e2:	4770      	bx	lr

080037e4 <HAL_ADCEx_LevelOutOfWindow2Callback>:
 80037e4:	4770      	bx	lr

080037e6 <HAL_ADCEx_LevelOutOfWindow3Callback>:
 80037e6:	4770      	bx	lr

080037e8 <HAL_ADCEx_EndOfSamplingCallback>:
 80037e8:	4770      	bx	lr
	...

080037ec <HAL_ADCEx_MultiModeConfigChannel>:
 80037ec:	f890 2050 	ldrb.w	r2, [r0, #80]	@ 0x50
 80037f0:	2a01      	cmp	r2, #1
 80037f2:	d07f      	beq.n	80038f4 <HAL_ADCEx_MultiModeConfigChannel+0x108>
 80037f4:	b410      	push	{r4}
 80037f6:	b09b      	sub	sp, #108	@ 0x6c
 80037f8:	4603      	mov	r3, r0
 80037fa:	2201      	movs	r2, #1
 80037fc:	f880 2050 	strb.w	r2, [r0, #80]	@ 0x50
 8003800:	2200      	movs	r2, #0
 8003802:	9216      	str	r2, [sp, #88]	@ 0x58
 8003804:	9217      	str	r2, [sp, #92]	@ 0x5c
 8003806:	6800      	ldr	r0, [r0, #0]
 8003808:	4a3b      	ldr	r2, [pc, #236]	@ (80038f8 <HAL_ADCEx_MultiModeConfigChannel+0x10c>)
 800380a:	4290      	cmp	r0, r2
 800380c:	d037      	beq.n	800387e <HAL_ADCEx_MultiModeConfigChannel+0x92>
 800380e:	2200      	movs	r2, #0
 8003810:	9201      	str	r2, [sp, #4]
 8003812:	9a01      	ldr	r2, [sp, #4]
 8003814:	2a00      	cmp	r2, #0
 8003816:	d036      	beq.n	8003886 <HAL_ADCEx_MultiModeConfigChannel+0x9a>
 8003818:	6892      	ldr	r2, [r2, #8]
 800381a:	f012 0204 	ands.w	r2, r2, #4
 800381e:	d000      	beq.n	8003822 <HAL_ADCEx_MultiModeConfigChannel+0x36>
 8003820:	2201      	movs	r2, #1
 8003822:	6880      	ldr	r0, [r0, #8]
 8003824:	f010 0f04 	tst.w	r0, #4
 8003828:	d150      	bne.n	80038cc <HAL_ADCEx_MultiModeConfigChannel+0xe0>
 800382a:	2a00      	cmp	r2, #0
 800382c:	d14e      	bne.n	80038cc <HAL_ADCEx_MultiModeConfigChannel+0xe0>
 800382e:	680a      	ldr	r2, [r1, #0]
 8003830:	2a00      	cmp	r2, #0
 8003832:	d031      	beq.n	8003898 <HAL_ADCEx_MultiModeConfigChannel+0xac>
 8003834:	4c31      	ldr	r4, [pc, #196]	@ (80038fc <HAL_ADCEx_MultiModeConfigChannel+0x110>)
 8003836:	68a2      	ldr	r2, [r4, #8]
 8003838:	f422 4260 	bic.w	r2, r2, #57344	@ 0xe000
 800383c:	6848      	ldr	r0, [r1, #4]
 800383e:	f893 c030 	ldrb.w	ip, [r3, #48]	@ 0x30
 8003842:	ea40 304c 	orr.w	r0, r0, ip, lsl #13
 8003846:	4302      	orrs	r2, r0
 8003848:	60a2      	str	r2, [r4, #8]
 800384a:	4a2b      	ldr	r2, [pc, #172]	@ (80038f8 <HAL_ADCEx_MultiModeConfigChannel+0x10c>)
 800384c:	6892      	ldr	r2, [r2, #8]
 800384e:	f012 0201 	ands.w	r2, r2, #1
 8003852:	d000      	beq.n	8003856 <HAL_ADCEx_MultiModeConfigChannel+0x6a>
 8003854:	2201      	movs	r2, #1
 8003856:	482a      	ldr	r0, [pc, #168]	@ (8003900 <HAL_ADCEx_MultiModeConfigChannel+0x114>)
 8003858:	6880      	ldr	r0, [r0, #8]
 800385a:	f010 0f01 	tst.w	r0, #1
 800385e:	d141      	bne.n	80038e4 <HAL_ADCEx_MultiModeConfigChannel+0xf8>
 8003860:	2a00      	cmp	r2, #0
 8003862:	d141      	bne.n	80038e8 <HAL_ADCEx_MultiModeConfigChannel+0xfc>
 8003864:	4c25      	ldr	r4, [pc, #148]	@ (80038fc <HAL_ADCEx_MultiModeConfigChannel+0x110>)
 8003866:	68a2      	ldr	r2, [r4, #8]
 8003868:	f422 6271 	bic.w	r2, r2, #3856	@ 0xf10
 800386c:	f022 020f 	bic.w	r2, r2, #15
 8003870:	6808      	ldr	r0, [r1, #0]
 8003872:	6889      	ldr	r1, [r1, #8]
 8003874:	4301      	orrs	r1, r0
 8003876:	430a      	orrs	r2, r1
 8003878:	60a2      	str	r2, [r4, #8]
 800387a:	2000      	movs	r0, #0
 800387c:	e02b      	b.n	80038d6 <HAL_ADCEx_MultiModeConfigChannel+0xea>
 800387e:	f502 7280 	add.w	r2, r2, #256	@ 0x100
 8003882:	9201      	str	r2, [sp, #4]
 8003884:	e7c5      	b.n	8003812 <HAL_ADCEx_MultiModeConfigChannel+0x26>
 8003886:	6d5a      	ldr	r2, [r3, #84]	@ 0x54
 8003888:	f042 0220 	orr.w	r2, r2, #32
 800388c:	655a      	str	r2, [r3, #84]	@ 0x54
 800388e:	2200      	movs	r2, #0
 8003890:	f883 2050 	strb.w	r2, [r3, #80]	@ 0x50
 8003894:	2001      	movs	r0, #1
 8003896:	e021      	b.n	80038dc <HAL_ADCEx_MultiModeConfigChannel+0xf0>
 8003898:	4918      	ldr	r1, [pc, #96]	@ (80038fc <HAL_ADCEx_MultiModeConfigChannel+0x110>)
 800389a:	688a      	ldr	r2, [r1, #8]
 800389c:	f422 4260 	bic.w	r2, r2, #57344	@ 0xe000
 80038a0:	608a      	str	r2, [r1, #8]
 80038a2:	4a15      	ldr	r2, [pc, #84]	@ (80038f8 <HAL_ADCEx_MultiModeConfigChannel+0x10c>)
 80038a4:	6892      	ldr	r2, [r2, #8]
 80038a6:	f012 0201 	ands.w	r2, r2, #1
 80038aa:	d000      	beq.n	80038ae <HAL_ADCEx_MultiModeConfigChannel+0xc2>
 80038ac:	2201      	movs	r2, #1
 80038ae:	4914      	ldr	r1, [pc, #80]	@ (8003900 <HAL_ADCEx_MultiModeConfigChannel+0x114>)
 80038b0:	6889      	ldr	r1, [r1, #8]
 80038b2:	f011 0f01 	tst.w	r1, #1
 80038b6:	d119      	bne.n	80038ec <HAL_ADCEx_MultiModeConfigChannel+0x100>
 80038b8:	b9d2      	cbnz	r2, 80038f0 <HAL_ADCEx_MultiModeConfigChannel+0x104>
 80038ba:	4910      	ldr	r1, [pc, #64]	@ (80038fc <HAL_ADCEx_MultiModeConfigChannel+0x110>)
 80038bc:	688a      	ldr	r2, [r1, #8]
 80038be:	f422 6271 	bic.w	r2, r2, #3856	@ 0xf10
 80038c2:	f022 020f 	bic.w	r2, r2, #15
 80038c6:	608a      	str	r2, [r1, #8]
 80038c8:	2000      	movs	r0, #0
 80038ca:	e004      	b.n	80038d6 <HAL_ADCEx_MultiModeConfigChannel+0xea>
 80038cc:	6d5a      	ldr	r2, [r3, #84]	@ 0x54
 80038ce:	f042 0220 	orr.w	r2, r2, #32
 80038d2:	655a      	str	r2, [r3, #84]	@ 0x54
 80038d4:	2001      	movs	r0, #1
 80038d6:	2200      	movs	r2, #0
 80038d8:	f883 2050 	strb.w	r2, [r3, #80]	@ 0x50
 80038dc:	b01b      	add	sp, #108	@ 0x6c
 80038de:	f85d 4b04 	ldr.w	r4, [sp], #4
 80038e2:	4770      	bx	lr
 80038e4:	2000      	movs	r0, #0
 80038e6:	e7f6      	b.n	80038d6 <HAL_ADCEx_MultiModeConfigChannel+0xea>
 80038e8:	2000      	movs	r0, #0
 80038ea:	e7f4      	b.n	80038d6 <HAL_ADCEx_MultiModeConfigChannel+0xea>
 80038ec:	2000      	movs	r0, #0
 80038ee:	e7f2      	b.n	80038d6 <HAL_ADCEx_MultiModeConfigChannel+0xea>
 80038f0:	2000      	movs	r0, #0
 80038f2:	e7f0      	b.n	80038d6 <HAL_ADCEx_MultiModeConfigChannel+0xea>
 80038f4:	2002      	movs	r0, #2
 80038f6:	4770      	bx	lr
 80038f8:	50040000 	.word	0x50040000
 80038fc:	50040300 	.word	0x50040300
 8003900:	50040100 	.word	0x50040100

08003904 <__NVIC_EnableIRQ>:
 8003904:	2800      	cmp	r0, #0
 8003906:	db07      	blt.n	8003918 <__NVIC_EnableIRQ+0x14>
 8003908:	f000 021f 	and.w	r2, r0, #31
 800390c:	0940      	lsrs	r0, r0, #5
 800390e:	2301      	movs	r3, #1
 8003910:	4093      	lsls	r3, r2
 8003912:	4a02      	ldr	r2, [pc, #8]	@ (800391c <__NVIC_EnableIRQ+0x18>)
 8003914:	f842 3020 	str.w	r3, [r2, r0, lsl #2]
 8003918:	4770      	bx	lr
 800391a:	bf00      	nop
 800391c:	e000e100 	.word	0xe000e100

08003920 <__NVIC_DisableIRQ>:
 8003920:	2800      	cmp	r0, #0
 8003922:	db0c      	blt.n	800393e <__NVIC_DisableIRQ+0x1e>
 8003924:	f000 021f 	and.w	r2, r0, #31
 8003928:	0940      	lsrs	r0, r0, #5
 800392a:	2301      	movs	r3, #1
 800392c:	4093      	lsls	r3, r2
 800392e:	3020      	adds	r0, #32
 8003930:	4a03      	ldr	r2, [pc, #12]	@ (8003940 <__NVIC_DisableIRQ+0x20>)
 8003932:	f842 3020 	str.w	r3, [r2, r0, lsl #2]
 8003936:	f3bf 8f4f 	dsb	sy
 800393a:	f3bf 8f6f 	isb	sy
 800393e:	4770      	bx	lr
 8003940:	e000e100 	.word	0xe000e100

08003944 <__NVIC_SetPriority>:
 8003944:	2800      	cmp	r0, #0
 8003946:	db08      	blt.n	800395a <__NVIC_SetPriority+0x16>
 8003948:	0109      	lsls	r1, r1, #4
 800394a:	b2c9      	uxtb	r1, r1
 800394c:	f100 4060 	add.w	r0, r0, #3758096384	@ 0xe0000000
 8003950:	f500 4061 	add.w	r0, r0, #57600	@ 0xe100
 8003954:	f880 1300 	strb.w	r1, [r0, #768]	@ 0x300
 8003958:	4770      	bx	lr
 800395a:	f000 000f 	and.w	r0, r0, #15
 800395e:	0109      	lsls	r1, r1, #4
 8003960:	b2c9      	uxtb	r1, r1
 8003962:	4b01      	ldr	r3, [pc, #4]	@ (8003968 <__NVIC_SetPriority+0x24>)
 8003964:	5419      	strb	r1, [r3, r0]
 8003966:	4770      	bx	lr
 8003968:	e000ed14 	.word	0xe000ed14

0800396c <NVIC_EncodePriority>:
 800396c:	b500      	push	{lr}
 800396e:	f000 0007 	and.w	r0, r0, #7
 8003972:	f1c0 0c07 	rsb	ip, r0, #7
 8003976:	f1bc 0f04 	cmp.w	ip, #4
 800397a:	bf28      	it	cs
 800397c:	f04f 0c04 	movcs.w	ip, #4
 8003980:	1d03      	adds	r3, r0, #4
 8003982:	2b06      	cmp	r3, #6
 8003984:	d90f      	bls.n	80039a6 <NVIC_EncodePriority+0x3a>
 8003986:	1ec3      	subs	r3, r0, #3
 8003988:	f04f 3eff 	mov.w	lr, #4294967295
 800398c:	fa0e f00c 	lsl.w	r0, lr, ip
 8003990:	ea21 0100 	bic.w	r1, r1, r0
 8003994:	4099      	lsls	r1, r3
 8003996:	fa0e fe03 	lsl.w	lr, lr, r3
 800399a:	ea22 020e 	bic.w	r2, r2, lr
 800399e:	ea41 0002 	orr.w	r0, r1, r2
 80039a2:	f85d fb04 	ldr.w	pc, [sp], #4
 80039a6:	2300      	movs	r3, #0
 80039a8:	e7ee      	b.n	8003988 <NVIC_EncodePriority+0x1c>
	...

080039ac <HAL_NVIC_SetPriorityGrouping>:
 80039ac:	4a07      	ldr	r2, [pc, #28]	@ (80039cc <HAL_NVIC_SetPriorityGrouping+0x20>)
 80039ae:	68d3      	ldr	r3, [r2, #12]
 80039b0:	f423 63e0 	bic.w	r3, r3, #1792	@ 0x700
 80039b4:	041b      	lsls	r3, r3, #16
 80039b6:	0c1b      	lsrs	r3, r3, #16
 80039b8:	0200      	lsls	r0, r0, #8
 80039ba:	f400 60e0 	and.w	r0, r0, #1792	@ 0x700
 80039be:	4303      	orrs	r3, r0
 80039c0:	f043 63bf 	orr.w	r3, r3, #100139008	@ 0x5f80000
 80039c4:	f443 3300 	orr.w	r3, r3, #131072	@ 0x20000
 80039c8:	60d3      	str	r3, [r2, #12]
 80039ca:	4770      	bx	lr
 80039cc:	e000ed00 	.word	0xe000ed00

080039d0 <HAL_NVIC_SetPriority>:
 80039d0:	b510      	push	{r4, lr}
 80039d2:	4604      	mov	r4, r0
 80039d4:	4b05      	ldr	r3, [pc, #20]	@ (80039ec <HAL_NVIC_SetPriority+0x1c>)
 80039d6:	68d8      	ldr	r0, [r3, #12]
 80039d8:	f3c0 2002 	ubfx	r0, r0, #8, #3
 80039dc:	f7ff ffc6 	bl	800396c <NVIC_EncodePriority>
 80039e0:	4601      	mov	r1, r0
 80039e2:	4620      	mov	r0, r4
 80039e4:	f7ff ffae 	bl	8003944 <__NVIC_SetPriority>
 80039e8:	bd10      	pop	{r4, pc}
 80039ea:	bf00      	nop
 80039ec:	e000ed00 	.word	0xe000ed00

080039f0 <HAL_NVIC_EnableIRQ>:
 80039f0:	b508      	push	{r3, lr}
 80039f2:	f7ff ff87 	bl	8003904 <__NVIC_EnableIRQ>
 80039f6:	bd08      	pop	{r3, pc}

080039f8 <HAL_NVIC_DisableIRQ>:
 80039f8:	b508      	push	{r3, lr}
 80039fa:	f7ff ff91 	bl	8003920 <__NVIC_DisableIRQ>
 80039fe:	bd08      	pop	{r3, pc}

08003a00 <HAL_SYSTICK_Config>:
 8003a00:	3801      	subs	r0, #1
 8003a02:	f1b0 7f80 	cmp.w	r0, #16777216	@ 0x1000000
 8003a06:	d20b      	bcs.n	8003a20 <HAL_SYSTICK_Config+0x20>
 8003a08:	f04f 23e0 	mov.w	r3, #3758153728	@ 0xe000e000
 8003a0c:	6158      	str	r0, [r3, #20]
 8003a0e:	4a05      	ldr	r2, [pc, #20]	@ (8003a24 <HAL_SYSTICK_Config+0x24>)
 8003a10:	21f0      	movs	r1, #240	@ 0xf0
 8003a12:	f882 1023 	strb.w	r1, [r2, #35]	@ 0x23
 8003a16:	2000      	movs	r0, #0
 8003a18:	6198      	str	r0, [r3, #24]
 8003a1a:	2207      	movs	r2, #7
 8003a1c:	611a      	str	r2, [r3, #16]
 8003a1e:	4770      	bx	lr
 8003a20:	2001      	movs	r0, #1
 8003a22:	4770      	bx	lr
 8003a24:	e000ed00 	.word	0xe000ed00

08003a28 <DMA_SetConfig>:
 8003a28:	b430      	push	{r4, r5}
 8003a2a:	6c44      	ldr	r4, [r0, #68]	@ 0x44
 8003a2c:	f004 0c1c 	and.w	ip, r4, #28
 8003a30:	2401      	movs	r4, #1
 8003a32:	fa04 f40c 	lsl.w	r4, r4, ip
 8003a36:	6c05      	ldr	r5, [r0, #64]	@ 0x40
 8003a38:	606c      	str	r4, [r5, #4]
 8003a3a:	6804      	ldr	r4, [r0, #0]
 8003a3c:	6063      	str	r3, [r4, #4]
 8003a3e:	6883      	ldr	r3, [r0, #8]
 8003a40:	2b10      	cmp	r3, #16
 8003a42:	d005      	beq.n	8003a50 <DMA_SetConfig+0x28>
 8003a44:	6803      	ldr	r3, [r0, #0]
 8003a46:	6099      	str	r1, [r3, #8]
 8003a48:	6803      	ldr	r3, [r0, #0]
 8003a4a:	60da      	str	r2, [r3, #12]
 8003a4c:	bc30      	pop	{r4, r5}
 8003a4e:	4770      	bx	lr
 8003a50:	6803      	ldr	r3, [r0, #0]
 8003a52:	609a      	str	r2, [r3, #8]
 8003a54:	6803      	ldr	r3, [r0, #0]
 8003a56:	60d9      	str	r1, [r3, #12]
 8003a58:	e7f8      	b.n	8003a4c <DMA_SetConfig+0x24>
	...

08003a5c <HAL_DMA_Init>:
 8003a5c:	2800      	cmp	r0, #0
 8003a5e:	d071      	beq.n	8003b44 <HAL_DMA_Init+0xe8>
 8003a60:	b410      	push	{r4}
 8003a62:	4603      	mov	r3, r0
 8003a64:	6801      	ldr	r1, [r0, #0]
 8003a66:	4a38      	ldr	r2, [pc, #224]	@ (8003b48 <HAL_DMA_Init+0xec>)
 8003a68:	4291      	cmp	r1, r2
 8003a6a:	d848      	bhi.n	8003afe <HAL_DMA_Init+0xa2>
 8003a6c:	4a37      	ldr	r2, [pc, #220]	@ (8003b4c <HAL_DMA_Init+0xf0>)
 8003a6e:	440a      	add	r2, r1
 8003a70:	4837      	ldr	r0, [pc, #220]	@ (8003b50 <HAL_DMA_Init+0xf4>)
 8003a72:	fba0 0202 	umull	r0, r2, r0, r2
 8003a76:	0912      	lsrs	r2, r2, #4
 8003a78:	0092      	lsls	r2, r2, #2
 8003a7a:	645a      	str	r2, [r3, #68]	@ 0x44
 8003a7c:	4a35      	ldr	r2, [pc, #212]	@ (8003b54 <HAL_DMA_Init+0xf8>)
 8003a7e:	641a      	str	r2, [r3, #64]	@ 0x40
 8003a80:	2202      	movs	r2, #2
 8003a82:	f883 2025 	strb.w	r2, [r3, #37]	@ 0x25
 8003a86:	6808      	ldr	r0, [r1, #0]
 8003a88:	f36f 100e 	bfc	r0, #4, #11
 8003a8c:	689a      	ldr	r2, [r3, #8]
 8003a8e:	68dc      	ldr	r4, [r3, #12]
 8003a90:	4322      	orrs	r2, r4
 8003a92:	691c      	ldr	r4, [r3, #16]
 8003a94:	4322      	orrs	r2, r4
 8003a96:	695c      	ldr	r4, [r3, #20]
 8003a98:	4322      	orrs	r2, r4
 8003a9a:	699c      	ldr	r4, [r3, #24]
 8003a9c:	4322      	orrs	r2, r4
 8003a9e:	69dc      	ldr	r4, [r3, #28]
 8003aa0:	4322      	orrs	r2, r4
 8003aa2:	6a1c      	ldr	r4, [r3, #32]
 8003aa4:	4322      	orrs	r2, r4
 8003aa6:	4302      	orrs	r2, r0
 8003aa8:	600a      	str	r2, [r1, #0]
 8003aaa:	689a      	ldr	r2, [r3, #8]
 8003aac:	f5b2 4f80 	cmp.w	r2, #16384	@ 0x4000
 8003ab0:	d01b      	beq.n	8003aea <HAL_DMA_Init+0x8e>
 8003ab2:	6c19      	ldr	r1, [r3, #64]	@ 0x40
 8003ab4:	4a27      	ldr	r2, [pc, #156]	@ (8003b54 <HAL_DMA_Init+0xf8>)
 8003ab6:	4291      	cmp	r1, r2
 8003ab8:	d02c      	beq.n	8003b14 <HAL_DMA_Init+0xb8>
 8003aba:	4a26      	ldr	r2, [pc, #152]	@ (8003b54 <HAL_DMA_Init+0xf8>)
 8003abc:	f8d2 14a8 	ldr.w	r1, [r2, #1192]	@ 0x4a8
 8003ac0:	6c58      	ldr	r0, [r3, #68]	@ 0x44
 8003ac2:	f000 0c1c 	and.w	ip, r0, #28
 8003ac6:	200f      	movs	r0, #15
 8003ac8:	fa00 f00c 	lsl.w	r0, r0, ip
 8003acc:	ea21 0100 	bic.w	r1, r1, r0
 8003ad0:	f8c2 14a8 	str.w	r1, [r2, #1192]	@ 0x4a8
 8003ad4:	f8d2 14a8 	ldr.w	r1, [r2, #1192]	@ 0x4a8
 8003ad8:	6858      	ldr	r0, [r3, #4]
 8003ada:	6c5c      	ldr	r4, [r3, #68]	@ 0x44
 8003adc:	f004 0c1c 	and.w	ip, r4, #28
 8003ae0:	fa00 f00c 	lsl.w	r0, r0, ip
 8003ae4:	4301      	orrs	r1, r0
 8003ae6:	f8c2 14a8 	str.w	r1, [r2, #1192]	@ 0x4a8
 8003aea:	2000      	movs	r0, #0
 8003aec:	63d8      	str	r0, [r3, #60]	@ 0x3c
 8003aee:	2201      	movs	r2, #1
 8003af0:	f883 2025 	strb.w	r2, [r3, #37]	@ 0x25
 8003af4:	f883 0024 	strb.w	r0, [r3, #36]	@ 0x24
 8003af8:	f85d 4b04 	ldr.w	r4, [sp], #4
 8003afc:	4770      	bx	lr
 8003afe:	4a16      	ldr	r2, [pc, #88]	@ (8003b58 <HAL_DMA_Init+0xfc>)
 8003b00:	440a      	add	r2, r1
 8003b02:	4813      	ldr	r0, [pc, #76]	@ (8003b50 <HAL_DMA_Init+0xf4>)
 8003b04:	fba0 0202 	umull	r0, r2, r0, r2
 8003b08:	0912      	lsrs	r2, r2, #4
 8003b0a:	0092      	lsls	r2, r2, #2
 8003b0c:	645a      	str	r2, [r3, #68]	@ 0x44
 8003b0e:	4a13      	ldr	r2, [pc, #76]	@ (8003b5c <HAL_DMA_Init+0x100>)
 8003b10:	641a      	str	r2, [r3, #64]	@ 0x40
 8003b12:	e7b5      	b.n	8003a80 <HAL_DMA_Init+0x24>
 8003b14:	f8d2 10a8 	ldr.w	r1, [r2, #168]	@ 0xa8
 8003b18:	6c58      	ldr	r0, [r3, #68]	@ 0x44
 8003b1a:	f000 0c1c 	and.w	ip, r0, #28
 8003b1e:	200f      	movs	r0, #15
 8003b20:	fa00 f00c 	lsl.w	r0, r0, ip
 8003b24:	ea21 0100 	bic.w	r1, r1, r0
 8003b28:	f8c2 10a8 	str.w	r1, [r2, #168]	@ 0xa8
 8003b2c:	f8d2 10a8 	ldr.w	r1, [r2, #168]	@ 0xa8
 8003b30:	6858      	ldr	r0, [r3, #4]
 8003b32:	6c5c      	ldr	r4, [r3, #68]	@ 0x44
 8003b34:	f004 0c1c 	and.w	ip, r4, #28
 8003b38:	fa00 f00c 	lsl.w	r0, r0, ip
 8003b3c:	4301      	orrs	r1, r0
 8003b3e:	f8c2 10a8 	str.w	r1, [r2, #168]	@ 0xa8
 8003b42:	e7d2      	b.n	8003aea <HAL_DMA_Init+0x8e>
 8003b44:	2001      	movs	r0, #1
 8003b46:	4770      	bx	lr
 8003b48:	40020407 	.word	0x40020407
 8003b4c:	bffdfff8 	.word	0xbffdfff8
 8003b50:	cccccccd 	.word	0xcccccccd
 8003b54:	40020000 	.word	0x40020000
 8003b58:	bffdfbf8 	.word	0xbffdfbf8
 8003b5c:	40020400 	.word	0x40020400

08003b60 <HAL_DMA_Start_IT>:
 8003b60:	b538      	push	{r3, r4, r5, lr}
 8003b62:	4604      	mov	r4, r0
 8003b64:	f890 0024 	ldrb.w	r0, [r0, #36]	@ 0x24
 8003b68:	2801      	cmp	r0, #1
 8003b6a:	d031      	beq.n	8003bd0 <HAL_DMA_Start_IT+0x70>
 8003b6c:	2001      	movs	r0, #1
 8003b6e:	f884 0024 	strb.w	r0, [r4, #36]	@ 0x24
 8003b72:	f894 0025 	ldrb.w	r0, [r4, #37]	@ 0x25
 8003b76:	2801      	cmp	r0, #1
 8003b78:	d004      	beq.n	8003b84 <HAL_DMA_Start_IT+0x24>
 8003b7a:	2300      	movs	r3, #0
 8003b7c:	f884 3024 	strb.w	r3, [r4, #36]	@ 0x24
 8003b80:	2002      	movs	r0, #2
 8003b82:	bd38      	pop	{r3, r4, r5, pc}
 8003b84:	2002      	movs	r0, #2
 8003b86:	f884 0025 	strb.w	r0, [r4, #37]	@ 0x25
 8003b8a:	2000      	movs	r0, #0
 8003b8c:	63e0      	str	r0, [r4, #60]	@ 0x3c
 8003b8e:	6825      	ldr	r5, [r4, #0]
 8003b90:	6828      	ldr	r0, [r5, #0]
 8003b92:	f020 0001 	bic.w	r0, r0, #1
 8003b96:	6028      	str	r0, [r5, #0]
 8003b98:	4620      	mov	r0, r4
 8003b9a:	f7ff ff45 	bl	8003a28 <DMA_SetConfig>
 8003b9e:	6b23      	ldr	r3, [r4, #48]	@ 0x30
 8003ba0:	b15b      	cbz	r3, 8003bba <HAL_DMA_Start_IT+0x5a>
 8003ba2:	6822      	ldr	r2, [r4, #0]
 8003ba4:	6813      	ldr	r3, [r2, #0]
 8003ba6:	f043 030e 	orr.w	r3, r3, #14
 8003baa:	6013      	str	r3, [r2, #0]
 8003bac:	6822      	ldr	r2, [r4, #0]
 8003bae:	6813      	ldr	r3, [r2, #0]
 8003bb0:	f043 0301 	orr.w	r3, r3, #1
 8003bb4:	6013      	str	r3, [r2, #0]
 8003bb6:	2000      	movs	r0, #0
 8003bb8:	e7e3      	b.n	8003b82 <HAL_DMA_Start_IT+0x22>
 8003bba:	6822      	ldr	r2, [r4, #0]
 8003bbc:	6813      	ldr	r3, [r2, #0]
 8003bbe:	f023 0304 	bic.w	r3, r3, #4
 8003bc2:	6013      	str	r3, [r2, #0]
 8003bc4:	6822      	ldr	r2, [r4, #0]
 8003bc6:	6813      	ldr	r3, [r2, #0]
 8003bc8:	f043 030a 	orr.w	r3, r3, #10
 8003bcc:	6013      	str	r3, [r2, #0]
 8003bce:	e7ed      	b.n	8003bac <HAL_DMA_Start_IT+0x4c>
 8003bd0:	2002      	movs	r0, #2
 8003bd2:	e7d6      	b.n	8003b82 <HAL_DMA_Start_IT+0x22>

08003bd4 <HAL_DMA_IRQHandler>:
 8003bd4:	b538      	push	{r3, r4, r5, lr}
 8003bd6:	6c03      	ldr	r3, [r0, #64]	@ 0x40
 8003bd8:	6819      	ldr	r1, [r3, #0]
 8003bda:	6804      	ldr	r4, [r0, #0]
 8003bdc:	6825      	ldr	r5, [r4, #0]
 8003bde:	6c43      	ldr	r3, [r0, #68]	@ 0x44
 8003be0:	f003 031c 	and.w	r3, r3, #28
 8003be4:	2204      	movs	r2, #4
 8003be6:	409a      	lsls	r2, r3
 8003be8:	420a      	tst	r2, r1
 8003bea:	d015      	beq.n	8003c18 <HAL_DMA_IRQHandler+0x44>
 8003bec:	f015 0f04 	tst.w	r5, #4
 8003bf0:	d012      	beq.n	8003c18 <HAL_DMA_IRQHandler+0x44>
 8003bf2:	6823      	ldr	r3, [r4, #0]
 8003bf4:	f013 0f20 	tst.w	r3, #32
 8003bf8:	d103      	bne.n	8003c02 <HAL_DMA_IRQHandler+0x2e>
 8003bfa:	6823      	ldr	r3, [r4, #0]
 8003bfc:	f023 0304 	bic.w	r3, r3, #4
 8003c00:	6023      	str	r3, [r4, #0]
 8003c02:	6c43      	ldr	r3, [r0, #68]	@ 0x44
 8003c04:	f003 021c 	and.w	r2, r3, #28
 8003c08:	6c01      	ldr	r1, [r0, #64]	@ 0x40
 8003c0a:	2304      	movs	r3, #4
 8003c0c:	4093      	lsls	r3, r2
 8003c0e:	604b      	str	r3, [r1, #4]
 8003c10:	6b03      	ldr	r3, [r0, #48]	@ 0x30
 8003c12:	b103      	cbz	r3, 8003c16 <HAL_DMA_IRQHandler+0x42>
 8003c14:	4798      	blx	r3
 8003c16:	bd38      	pop	{r3, r4, r5, pc}
 8003c18:	2202      	movs	r2, #2
 8003c1a:	409a      	lsls	r2, r3
 8003c1c:	420a      	tst	r2, r1
 8003c1e:	d01c      	beq.n	8003c5a <HAL_DMA_IRQHandler+0x86>
 8003c20:	f015 0f02 	tst.w	r5, #2
 8003c24:	d019      	beq.n	8003c5a <HAL_DMA_IRQHandler+0x86>
 8003c26:	6823      	ldr	r3, [r4, #0]
 8003c28:	f013 0f20 	tst.w	r3, #32
 8003c2c:	d106      	bne.n	8003c3c <HAL_DMA_IRQHandler+0x68>
 8003c2e:	6823      	ldr	r3, [r4, #0]
 8003c30:	f023 030a 	bic.w	r3, r3, #10
 8003c34:	6023      	str	r3, [r4, #0]
 8003c36:	2301      	movs	r3, #1
 8003c38:	f880 3025 	strb.w	r3, [r0, #37]	@ 0x25
 8003c3c:	6c43      	ldr	r3, [r0, #68]	@ 0x44
 8003c3e:	f003 021c 	and.w	r2, r3, #28
 8003c42:	6c01      	ldr	r1, [r0, #64]	@ 0x40
 8003c44:	2302      	movs	r3, #2
 8003c46:	4093      	lsls	r3, r2
 8003c48:	604b      	str	r3, [r1, #4]
 8003c4a:	2300      	movs	r3, #0
 8003c4c:	f880 3024 	strb.w	r3, [r0, #36]	@ 0x24
 8003c50:	6ac3      	ldr	r3, [r0, #44]	@ 0x2c
 8003c52:	2b00      	cmp	r3, #0
 8003c54:	d0df      	beq.n	8003c16 <HAL_DMA_IRQHandler+0x42>
 8003c56:	4798      	blx	r3
 8003c58:	e7dd      	b.n	8003c16 <HAL_DMA_IRQHandler+0x42>
 8003c5a:	2208      	movs	r2, #8
 8003c5c:	fa02 f303 	lsl.w	r3, r2, r3
 8003c60:	420b      	tst	r3, r1
 8003c62:	d0d8      	beq.n	8003c16 <HAL_DMA_IRQHandler+0x42>
 8003c64:	f015 0f08 	tst.w	r5, #8
 8003c68:	d0d5      	beq.n	8003c16 <HAL_DMA_IRQHandler+0x42>
 8003c6a:	6823      	ldr	r3, [r4, #0]
 8003c6c:	f023 030e 	bic.w	r3, r3, #14
 8003c70:	6023      	str	r3, [r4, #0]
 8003c72:	6c43      	ldr	r3, [r0, #68]	@ 0x44
 8003c74:	f003 031c 	and.w	r3, r3, #28
 8003c78:	6c01      	ldr	r1, [r0, #64]	@ 0x40
 8003c7a:	2201      	movs	r2, #1
 8003c7c:	fa02 f303 	lsl.w	r3, r2, r3
 8003c80:	604b      	str	r3, [r1, #4]
 8003c82:	63c2      	str	r2, [r0, #60]	@ 0x3c
 8003c84:	f880 2025 	strb.w	r2, [r0, #37]	@ 0x25
 8003c88:	2300      	movs	r3, #0
 8003c8a:	f880 3024 	strb.w	r3, [r0, #36]	@ 0x24
 8003c8e:	6b43      	ldr	r3, [r0, #52]	@ 0x34
 8003c90:	2b00      	cmp	r3, #0
 8003c92:	d0c0      	beq.n	8003c16 <HAL_DMA_IRQHandler+0x42>
 8003c94:	4798      	blx	r3
 8003c96:	e7be      	b.n	8003c16 <HAL_DMA_IRQHandler+0x42>

08003c98 <HAL_GPIO_Init>:
 8003c98:	b5f0      	push	{r4, r5, r6, r7, lr}
 8003c9a:	b083      	sub	sp, #12
 8003c9c:	2300      	movs	r3, #0
 8003c9e:	e062      	b.n	8003d66 <HAL_GPIO_Init+0xce>
 8003ca0:	6885      	ldr	r5, [r0, #8]
 8003ca2:	005e      	lsls	r6, r3, #1
 8003ca4:	2403      	movs	r4, #3
 8003ca6:	40b4      	lsls	r4, r6
 8003ca8:	ea25 0504 	bic.w	r5, r5, r4
 8003cac:	68cc      	ldr	r4, [r1, #12]
 8003cae:	40b4      	lsls	r4, r6
 8003cb0:	432c      	orrs	r4, r5
 8003cb2:	6084      	str	r4, [r0, #8]
 8003cb4:	6845      	ldr	r5, [r0, #4]
 8003cb6:	ea25 050c 	bic.w	r5, r5, ip
 8003cba:	684c      	ldr	r4, [r1, #4]
 8003cbc:	f3c4 1400 	ubfx	r4, r4, #4, #1
 8003cc0:	409c      	lsls	r4, r3
 8003cc2:	432c      	orrs	r4, r5
 8003cc4:	6044      	str	r4, [r0, #4]
 8003cc6:	e05f      	b.n	8003d88 <HAL_GPIO_Init+0xf0>
 8003cc8:	08dd      	lsrs	r5, r3, #3
 8003cca:	3508      	adds	r5, #8
 8003ccc:	f850 4025 	ldr.w	r4, [r0, r5, lsl #2]
 8003cd0:	f003 0c07 	and.w	ip, r3, #7
 8003cd4:	ea4f 0c8c 	mov.w	ip, ip, lsl #2
 8003cd8:	f04f 0e0f 	mov.w	lr, #15
 8003cdc:	fa0e fe0c 	lsl.w	lr, lr, ip
 8003ce0:	ea24 0e0e 	bic.w	lr, r4, lr
 8003ce4:	690c      	ldr	r4, [r1, #16]
 8003ce6:	fa04 f40c 	lsl.w	r4, r4, ip
 8003cea:	ea44 040e 	orr.w	r4, r4, lr
 8003cee:	f840 4025 	str.w	r4, [r0, r5, lsl #2]
 8003cf2:	e060      	b.n	8003db6 <HAL_GPIO_Init+0x11e>
 8003cf4:	2403      	movs	r4, #3
 8003cf6:	e000      	b.n	8003cfa <HAL_GPIO_Init+0x62>
 8003cf8:	2400      	movs	r4, #0
 8003cfa:	fa04 f40e 	lsl.w	r4, r4, lr
 8003cfe:	432c      	orrs	r4, r5
 8003d00:	f10c 0c02 	add.w	ip, ip, #2
 8003d04:	4d4f      	ldr	r5, [pc, #316]	@ (8003e44 <HAL_GPIO_Init+0x1ac>)
 8003d06:	f845 402c 	str.w	r4, [r5, ip, lsl #2]
 8003d0a:	4c4f      	ldr	r4, [pc, #316]	@ (8003e48 <HAL_GPIO_Init+0x1b0>)
 8003d0c:	68a5      	ldr	r5, [r4, #8]
 8003d0e:	43d4      	mvns	r4, r2
 8003d10:	ea25 0602 	bic.w	r6, r5, r2
 8003d14:	684f      	ldr	r7, [r1, #4]
 8003d16:	f417 1f80 	tst.w	r7, #1048576	@ 0x100000
 8003d1a:	d001      	beq.n	8003d20 <HAL_GPIO_Init+0x88>
 8003d1c:	ea42 0605 	orr.w	r6, r2, r5
 8003d20:	4d49      	ldr	r5, [pc, #292]	@ (8003e48 <HAL_GPIO_Init+0x1b0>)
 8003d22:	60ae      	str	r6, [r5, #8]
 8003d24:	68ed      	ldr	r5, [r5, #12]
 8003d26:	ea04 0605 	and.w	r6, r4, r5
 8003d2a:	684f      	ldr	r7, [r1, #4]
 8003d2c:	f417 1f00 	tst.w	r7, #2097152	@ 0x200000
 8003d30:	d001      	beq.n	8003d36 <HAL_GPIO_Init+0x9e>
 8003d32:	ea42 0605 	orr.w	r6, r2, r5
 8003d36:	4d44      	ldr	r5, [pc, #272]	@ (8003e48 <HAL_GPIO_Init+0x1b0>)
 8003d38:	60ee      	str	r6, [r5, #12]
 8003d3a:	686d      	ldr	r5, [r5, #4]
 8003d3c:	ea04 0605 	and.w	r6, r4, r5
 8003d40:	684f      	ldr	r7, [r1, #4]
 8003d42:	f417 3f00 	tst.w	r7, #131072	@ 0x20000
 8003d46:	d001      	beq.n	8003d4c <HAL_GPIO_Init+0xb4>
 8003d48:	ea42 0605 	orr.w	r6, r2, r5
 8003d4c:	4d3e      	ldr	r5, [pc, #248]	@ (8003e48 <HAL_GPIO_Init+0x1b0>)
 8003d4e:	606e      	str	r6, [r5, #4]
 8003d50:	682d      	ldr	r5, [r5, #0]
 8003d52:	402c      	ands	r4, r5
 8003d54:	684e      	ldr	r6, [r1, #4]
 8003d56:	f416 3f80 	tst.w	r6, #65536	@ 0x10000
 8003d5a:	d001      	beq.n	8003d60 <HAL_GPIO_Init+0xc8>
 8003d5c:	ea42 0405 	orr.w	r4, r2, r5
 8003d60:	4a39      	ldr	r2, [pc, #228]	@ (8003e48 <HAL_GPIO_Init+0x1b0>)
 8003d62:	6014      	str	r4, [r2, #0]
 8003d64:	3301      	adds	r3, #1
 8003d66:	680a      	ldr	r2, [r1, #0]
 8003d68:	fa32 f403 	lsrs.w	r4, r2, r3
 8003d6c:	d068      	beq.n	8003e40 <HAL_GPIO_Init+0x1a8>
 8003d6e:	f04f 0c01 	mov.w	ip, #1
 8003d72:	fa0c fc03 	lsl.w	ip, ip, r3
 8003d76:	ea1c 0202 	ands.w	r2, ip, r2
 8003d7a:	d0f3      	beq.n	8003d64 <HAL_GPIO_Init+0xcc>
 8003d7c:	684c      	ldr	r4, [r1, #4]
 8003d7e:	f004 0403 	and.w	r4, r4, #3
 8003d82:	3c01      	subs	r4, #1
 8003d84:	2c01      	cmp	r4, #1
 8003d86:	d98b      	bls.n	8003ca0 <HAL_GPIO_Init+0x8>
 8003d88:	684c      	ldr	r4, [r1, #4]
 8003d8a:	f004 0403 	and.w	r4, r4, #3
 8003d8e:	2c03      	cmp	r4, #3
 8003d90:	d00c      	beq.n	8003dac <HAL_GPIO_Init+0x114>
 8003d92:	68c4      	ldr	r4, [r0, #12]
 8003d94:	005d      	lsls	r5, r3, #1
 8003d96:	f04f 0c03 	mov.w	ip, #3
 8003d9a:	fa0c fc05 	lsl.w	ip, ip, r5
 8003d9e:	ea24 0c0c 	bic.w	ip, r4, ip
 8003da2:	688c      	ldr	r4, [r1, #8]
 8003da4:	40ac      	lsls	r4, r5
 8003da6:	ea44 040c 	orr.w	r4, r4, ip
 8003daa:	60c4      	str	r4, [r0, #12]
 8003dac:	684c      	ldr	r4, [r1, #4]
 8003dae:	f004 0403 	and.w	r4, r4, #3
 8003db2:	2c02      	cmp	r4, #2
 8003db4:	d088      	beq.n	8003cc8 <HAL_GPIO_Init+0x30>
 8003db6:	6804      	ldr	r4, [r0, #0]
 8003db8:	ea4f 0e43 	mov.w	lr, r3, lsl #1
 8003dbc:	f04f 0c03 	mov.w	ip, #3
 8003dc0:	fa0c fc0e 	lsl.w	ip, ip, lr
 8003dc4:	ea24 0c0c 	bic.w	ip, r4, ip
 8003dc8:	684c      	ldr	r4, [r1, #4]
 8003dca:	f004 0403 	and.w	r4, r4, #3
 8003dce:	fa04 f40e 	lsl.w	r4, r4, lr
 8003dd2:	ea44 040c 	orr.w	r4, r4, ip
 8003dd6:	6004      	str	r4, [r0, #0]
 8003dd8:	684c      	ldr	r4, [r1, #4]
 8003dda:	f414 3f40 	tst.w	r4, #196608	@ 0x30000
 8003dde:	d0c1      	beq.n	8003d64 <HAL_GPIO_Init+0xcc>
 8003de0:	4c1a      	ldr	r4, [pc, #104]	@ (8003e4c <HAL_GPIO_Init+0x1b4>)
 8003de2:	6e25      	ldr	r5, [r4, #96]	@ 0x60
 8003de4:	f045 0501 	orr.w	r5, r5, #1
 8003de8:	6625      	str	r5, [r4, #96]	@ 0x60
 8003dea:	6e24      	ldr	r4, [r4, #96]	@ 0x60
 8003dec:	f004 0401 	and.w	r4, r4, #1
 8003df0:	9401      	str	r4, [sp, #4]
 8003df2:	9c01      	ldr	r4, [sp, #4]
 8003df4:	ea4f 0c93 	mov.w	ip, r3, lsr #2
 8003df8:	f10c 0502 	add.w	r5, ip, #2
 8003dfc:	4c11      	ldr	r4, [pc, #68]	@ (8003e44 <HAL_GPIO_Init+0x1ac>)
 8003dfe:	f854 5025 	ldr.w	r5, [r4, r5, lsl #2]
 8003e02:	f003 0e03 	and.w	lr, r3, #3
 8003e06:	ea4f 0e8e 	mov.w	lr, lr, lsl #2
 8003e0a:	240f      	movs	r4, #15
 8003e0c:	fa04 f40e 	lsl.w	r4, r4, lr
 8003e10:	ea25 0504 	bic.w	r5, r5, r4
 8003e14:	f1b0 4f90 	cmp.w	r0, #1207959552	@ 0x48000000
 8003e18:	f43f af6e 	beq.w	8003cf8 <HAL_GPIO_Init+0x60>
 8003e1c:	4c0c      	ldr	r4, [pc, #48]	@ (8003e50 <HAL_GPIO_Init+0x1b8>)
 8003e1e:	42a0      	cmp	r0, r4
 8003e20:	d00a      	beq.n	8003e38 <HAL_GPIO_Init+0x1a0>
 8003e22:	f504 6480 	add.w	r4, r4, #1024	@ 0x400
 8003e26:	42a0      	cmp	r0, r4
 8003e28:	d008      	beq.n	8003e3c <HAL_GPIO_Init+0x1a4>
 8003e2a:	f504 6480 	add.w	r4, r4, #1024	@ 0x400
 8003e2e:	42a0      	cmp	r0, r4
 8003e30:	f43f af60 	beq.w	8003cf4 <HAL_GPIO_Init+0x5c>
 8003e34:	2407      	movs	r4, #7
 8003e36:	e760      	b.n	8003cfa <HAL_GPIO_Init+0x62>
 8003e38:	2401      	movs	r4, #1
 8003e3a:	e75e      	b.n	8003cfa <HAL_GPIO_Init+0x62>
 8003e3c:	2402      	movs	r4, #2
 8003e3e:	e75c      	b.n	8003cfa <HAL_GPIO_Init+0x62>
 8003e40:	b003      	add	sp, #12
 8003e42:	bdf0      	pop	{r4, r5, r6, r7, pc}
 8003e44:	40010000 	.word	0x40010000
 8003e48:	40010400 	.word	0x40010400
 8003e4c:	40021000 	.word	0x40021000
 8003e50:	48000400 	.word	0x48000400

08003e54 <HAL_GPIO_DeInit>:
 8003e54:	2300      	movs	r3, #0
 8003e56:	fa31 f203 	lsrs.w	r2, r1, r3
 8003e5a:	d074      	beq.n	8003f46 <HAL_GPIO_DeInit+0xf2>
 8003e5c:	b5f0      	push	{r4, r5, r6, r7, lr}
 8003e5e:	e02e      	b.n	8003ebe <HAL_GPIO_DeInit+0x6a>
 8003e60:	2503      	movs	r5, #3
 8003e62:	e000      	b.n	8003e66 <HAL_GPIO_DeInit+0x12>
 8003e64:	2500      	movs	r5, #0
 8003e66:	fa05 f50c 	lsl.w	r5, r5, ip
 8003e6a:	42a5      	cmp	r5, r4
 8003e6c:	d04f      	beq.n	8003f0e <HAL_GPIO_DeInit+0xba>
 8003e6e:	6804      	ldr	r4, [r0, #0]
 8003e70:	005d      	lsls	r5, r3, #1
 8003e72:	f04f 0c03 	mov.w	ip, #3
 8003e76:	fa0c fc05 	lsl.w	ip, ip, r5
 8003e7a:	ea44 040c 	orr.w	r4, r4, ip
 8003e7e:	6004      	str	r4, [r0, #0]
 8003e80:	ea4f 0ed3 	mov.w	lr, r3, lsr #3
 8003e84:	f10e 0e08 	add.w	lr, lr, #8
 8003e88:	f850 402e 	ldr.w	r4, [r0, lr, lsl #2]
 8003e8c:	f003 0607 	and.w	r6, r3, #7
 8003e90:	00b6      	lsls	r6, r6, #2
 8003e92:	250f      	movs	r5, #15
 8003e94:	40b5      	lsls	r5, r6
 8003e96:	ea24 0405 	bic.w	r4, r4, r5
 8003e9a:	f840 402e 	str.w	r4, [r0, lr, lsl #2]
 8003e9e:	6884      	ldr	r4, [r0, #8]
 8003ea0:	ea24 040c 	bic.w	r4, r4, ip
 8003ea4:	6084      	str	r4, [r0, #8]
 8003ea6:	6844      	ldr	r4, [r0, #4]
 8003ea8:	ea24 0202 	bic.w	r2, r4, r2
 8003eac:	6042      	str	r2, [r0, #4]
 8003eae:	68c2      	ldr	r2, [r0, #12]
 8003eb0:	ea22 020c 	bic.w	r2, r2, ip
 8003eb4:	60c2      	str	r2, [r0, #12]
 8003eb6:	3301      	adds	r3, #1
 8003eb8:	fa31 f203 	lsrs.w	r2, r1, r3
 8003ebc:	d042      	beq.n	8003f44 <HAL_GPIO_DeInit+0xf0>
 8003ebe:	2201      	movs	r2, #1
 8003ec0:	409a      	lsls	r2, r3
 8003ec2:	ea12 0701 	ands.w	r7, r2, r1
 8003ec6:	d0f6      	beq.n	8003eb6 <HAL_GPIO_DeInit+0x62>
 8003ec8:	ea4f 0e93 	mov.w	lr, r3, lsr #2
 8003ecc:	f10e 0502 	add.w	r5, lr, #2
 8003ed0:	4c1d      	ldr	r4, [pc, #116]	@ (8003f48 <HAL_GPIO_DeInit+0xf4>)
 8003ed2:	f854 4025 	ldr.w	r4, [r4, r5, lsl #2]
 8003ed6:	f003 0c03 	and.w	ip, r3, #3
 8003eda:	ea4f 0c8c 	mov.w	ip, ip, lsl #2
 8003ede:	250f      	movs	r5, #15
 8003ee0:	fa05 f60c 	lsl.w	r6, r5, ip
 8003ee4:	4034      	ands	r4, r6
 8003ee6:	f1b0 4f90 	cmp.w	r0, #1207959552	@ 0x48000000
 8003eea:	d0bb      	beq.n	8003e64 <HAL_GPIO_DeInit+0x10>
 8003eec:	4d17      	ldr	r5, [pc, #92]	@ (8003f4c <HAL_GPIO_DeInit+0xf8>)
 8003eee:	42a8      	cmp	r0, r5
 8003ef0:	d009      	beq.n	8003f06 <HAL_GPIO_DeInit+0xb2>
 8003ef2:	f505 6580 	add.w	r5, r5, #1024	@ 0x400
 8003ef6:	42a8      	cmp	r0, r5
 8003ef8:	d007      	beq.n	8003f0a <HAL_GPIO_DeInit+0xb6>
 8003efa:	f505 6580 	add.w	r5, r5, #1024	@ 0x400
 8003efe:	42a8      	cmp	r0, r5
 8003f00:	d0ae      	beq.n	8003e60 <HAL_GPIO_DeInit+0xc>
 8003f02:	2507      	movs	r5, #7
 8003f04:	e7af      	b.n	8003e66 <HAL_GPIO_DeInit+0x12>
 8003f06:	2501      	movs	r5, #1
 8003f08:	e7ad      	b.n	8003e66 <HAL_GPIO_DeInit+0x12>
 8003f0a:	2502      	movs	r5, #2
 8003f0c:	e7ab      	b.n	8003e66 <HAL_GPIO_DeInit+0x12>
 8003f0e:	4c10      	ldr	r4, [pc, #64]	@ (8003f50 <HAL_GPIO_DeInit+0xfc>)
 8003f10:	6825      	ldr	r5, [r4, #0]
 8003f12:	ea25 0507 	bic.w	r5, r5, r7
 8003f16:	6025      	str	r5, [r4, #0]
 8003f18:	6865      	ldr	r5, [r4, #4]
 8003f1a:	ea25 0507 	bic.w	r5, r5, r7
 8003f1e:	6065      	str	r5, [r4, #4]
 8003f20:	68e5      	ldr	r5, [r4, #12]
 8003f22:	ea25 0507 	bic.w	r5, r5, r7
 8003f26:	60e5      	str	r5, [r4, #12]
 8003f28:	68a5      	ldr	r5, [r4, #8]
 8003f2a:	ea25 0507 	bic.w	r5, r5, r7
 8003f2e:	60a5      	str	r5, [r4, #8]
 8003f30:	4f05      	ldr	r7, [pc, #20]	@ (8003f48 <HAL_GPIO_DeInit+0xf4>)
 8003f32:	f10e 0402 	add.w	r4, lr, #2
 8003f36:	f857 5024 	ldr.w	r5, [r7, r4, lsl #2]
 8003f3a:	ea25 0506 	bic.w	r5, r5, r6
 8003f3e:	f847 5024 	str.w	r5, [r7, r4, lsl #2]
 8003f42:	e794      	b.n	8003e6e <HAL_GPIO_DeInit+0x1a>
 8003f44:	bdf0      	pop	{r4, r5, r6, r7, pc}
 8003f46:	4770      	bx	lr
 8003f48:	40010000 	.word	0x40010000
 8003f4c:	48000400 	.word	0x48000400
 8003f50:	40010400 	.word	0x40010400

08003f54 <HAL_GPIO_ReadPin>:
 8003f54:	6903      	ldr	r3, [r0, #16]
 8003f56:	4219      	tst	r1, r3
 8003f58:	d001      	beq.n	8003f5e <HAL_GPIO_ReadPin+0xa>
 8003f5a:	2001      	movs	r0, #1
 8003f5c:	4770      	bx	lr
 8003f5e:	2000      	movs	r0, #0
 8003f60:	4770      	bx	lr

08003f62 <HAL_GPIO_WritePin>:
 8003f62:	b10a      	cbz	r2, 8003f68 <HAL_GPIO_WritePin+0x6>
 8003f64:	6181      	str	r1, [r0, #24]
 8003f66:	4770      	bx	lr
 8003f68:	6281      	str	r1, [r0, #40]	@ 0x28
 8003f6a:	4770      	bx	lr

08003f6c <HAL_GPIO_EXTI_IRQHandler>:
 8003f6c:	b508      	push	{r3, lr}
 8003f6e:	4b05      	ldr	r3, [pc, #20]	@ (8003f84 <HAL_GPIO_EXTI_IRQHandler+0x18>)
 8003f70:	695b      	ldr	r3, [r3, #20]
 8003f72:	4203      	tst	r3, r0
 8003f74:	d100      	bne.n	8003f78 <HAL_GPIO_EXTI_IRQHandler+0xc>
 8003f76:	bd08      	pop	{r3, pc}
 8003f78:	4b02      	ldr	r3, [pc, #8]	@ (8003f84 <HAL_GPIO_EXTI_IRQHandler+0x18>)
 8003f7a:	6158      	str	r0, [r3, #20]
 8003f7c:	f7fe f988 	bl	8002290 <HAL_GPIO_EXTI_Callback>
 8003f80:	e7f9      	b.n	8003f76 <HAL_GPIO_EXTI_IRQHandler+0xa>
 8003f82:	bf00      	nop
 8003f84:	40010400 	.word	0x40010400

08003f88 <HAL_MspInit>:
 8003f88:	b082      	sub	sp, #8
 8003f8a:	4b0a      	ldr	r3, [pc, #40]	@ (8003fb4 <HAL_MspInit+0x2c>)
 8003f8c:	6e1a      	ldr	r2, [r3, #96]	@ 0x60
 8003f8e:	f042 0201 	orr.w	r2, r2, #1
 8003f92:	661a      	str	r2, [r3, #96]	@ 0x60
 8003f94:	6e1a      	ldr	r2, [r3, #96]	@ 0x60
 8003f96:	f002 0201 	and.w	r2, r2, #1
 8003f9a:	9200      	str	r2, [sp, #0]
 8003f9c:	9a00      	ldr	r2, [sp, #0]
 8003f9e:	6d9a      	ldr	r2, [r3, #88]	@ 0x58
 8003fa0:	f042 5280 	orr.w	r2, r2, #268435456	@ 0x10000000
 8003fa4:	659a      	str	r2, [r3, #88]	@ 0x58
 8003fa6:	6d9b      	ldr	r3, [r3, #88]	@ 0x58
 8003fa8:	f003 5380 	and.w	r3, r3, #268435456	@ 0x10000000
 8003fac:	9301      	str	r3, [sp, #4]
 8003fae:	9b01      	ldr	r3, [sp, #4]
 8003fb0:	b002      	add	sp, #8
 8003fb2:	4770      	bx	lr
 8003fb4:	40021000 	.word	0x40021000

08003fb8 <HAL_ADC_MspInit>:
 8003fb8:	6802      	ldr	r2, [r0, #0]
 8003fba:	4b1c      	ldr	r3, [pc, #112]	@ (800402c <HAL_ADC_MspInit+0x74>)
 8003fbc:	429a      	cmp	r2, r3
 8003fbe:	d000      	beq.n	8003fc2 <HAL_ADC_MspInit+0xa>
 8003fc0:	4770      	bx	lr
 8003fc2:	b510      	push	{r4, lr}
 8003fc4:	b082      	sub	sp, #8
 8003fc6:	4604      	mov	r4, r0
 8003fc8:	f103 4370 	add.w	r3, r3, #4026531840	@ 0xf0000000
 8003fcc:	f5a3 33f8 	sub.w	r3, r3, #126976	@ 0x1f000
 8003fd0:	6cda      	ldr	r2, [r3, #76]	@ 0x4c
 8003fd2:	f442 5200 	orr.w	r2, r2, #8192	@ 0x2000
 8003fd6:	64da      	str	r2, [r3, #76]	@ 0x4c
 8003fd8:	6cdb      	ldr	r3, [r3, #76]	@ 0x4c
 8003fda:	f403 5300 	and.w	r3, r3, #8192	@ 0x2000
 8003fde:	9301      	str	r3, [sp, #4]
 8003fe0:	9b01      	ldr	r3, [sp, #4]
 8003fe2:	4813      	ldr	r0, [pc, #76]	@ (8004030 <HAL_ADC_MspInit+0x78>)
 8003fe4:	4b13      	ldr	r3, [pc, #76]	@ (8004034 <HAL_ADC_MspInit+0x7c>)
 8003fe6:	6003      	str	r3, [r0, #0]
 8003fe8:	2300      	movs	r3, #0
 8003fea:	6043      	str	r3, [r0, #4]
 8003fec:	6083      	str	r3, [r0, #8]
 8003fee:	60c3      	str	r3, [r0, #12]
 8003ff0:	2280      	movs	r2, #128	@ 0x80
 8003ff2:	6102      	str	r2, [r0, #16]
 8003ff4:	f44f 7280 	mov.w	r2, #256	@ 0x100
 8003ff8:	6142      	str	r2, [r0, #20]
 8003ffa:	f44f 6280 	mov.w	r2, #1024	@ 0x400
 8003ffe:	6182      	str	r2, [r0, #24]
 8004000:	2220      	movs	r2, #32
 8004002:	61c2      	str	r2, [r0, #28]
 8004004:	6203      	str	r3, [r0, #32]
 8004006:	f7ff fd29 	bl	8003a5c <HAL_DMA_Init>
 800400a:	b960      	cbnz	r0, 8004026 <HAL_ADC_MspInit+0x6e>
 800400c:	4b08      	ldr	r3, [pc, #32]	@ (8004030 <HAL_ADC_MspInit+0x78>)
 800400e:	64e3      	str	r3, [r4, #76]	@ 0x4c
 8004010:	629c      	str	r4, [r3, #40]	@ 0x28
 8004012:	2200      	movs	r2, #0
 8004014:	4611      	mov	r1, r2
 8004016:	2012      	movs	r0, #18
 8004018:	f7ff fcda 	bl	80039d0 <HAL_NVIC_SetPriority>
 800401c:	2012      	movs	r0, #18
 800401e:	f7ff fce7 	bl	80039f0 <HAL_NVIC_EnableIRQ>
 8004022:	b002      	add	sp, #8
 8004024:	bd10      	pop	{r4, pc}
 8004026:	f7fe f941 	bl	80022ac <Error_Handler>
 800402a:	e7ef      	b.n	800400c <HAL_ADC_MspInit+0x54>
 800402c:	50040000 	.word	0x50040000
 8004030:	200003e8 	.word	0x200003e8
 8004034:	40020008 	.word	0x40020008

08004038 <HAL_RTC_MspInit>:
 8004038:	b510      	push	{r4, lr}
 800403a:	b08e      	sub	sp, #56	@ 0x38
 800403c:	4604      	mov	r4, r0
 800403e:	2234      	movs	r2, #52	@ 0x34
 8004040:	2100      	movs	r1, #0
 8004042:	a801      	add	r0, sp, #4
 8004044:	f005 fb48 	bl	80096d8 <memset>
 8004048:	6822      	ldr	r2, [r4, #0]
 800404a:	4b11      	ldr	r3, [pc, #68]	@ (8004090 <HAL_RTC_MspInit+0x58>)
 800404c:	429a      	cmp	r2, r3
 800404e:	d001      	beq.n	8004054 <HAL_RTC_MspInit+0x1c>
 8004050:	b00e      	add	sp, #56	@ 0x38
 8004052:	bd10      	pop	{r4, pc}
 8004054:	f44f 3300 	mov.w	r3, #131072	@ 0x20000
 8004058:	9301      	str	r3, [sp, #4]
 800405a:	f44f 7380 	mov.w	r3, #256	@ 0x100
 800405e:	930d      	str	r3, [sp, #52]	@ 0x34
 8004060:	a801      	add	r0, sp, #4
 8004062:	f001 fe3d 	bl	8005ce0 <HAL_RCCEx_PeriphCLKConfig>
 8004066:	b978      	cbnz	r0, 8004088 <HAL_RTC_MspInit+0x50>
 8004068:	4a0a      	ldr	r2, [pc, #40]	@ (8004094 <HAL_RTC_MspInit+0x5c>)
 800406a:	f8d2 3090 	ldr.w	r3, [r2, #144]	@ 0x90
 800406e:	f443 4300 	orr.w	r3, r3, #32768	@ 0x8000
 8004072:	f8c2 3090 	str.w	r3, [r2, #144]	@ 0x90
 8004076:	2200      	movs	r2, #0
 8004078:	4611      	mov	r1, r2
 800407a:	2003      	movs	r0, #3
 800407c:	f7ff fca8 	bl	80039d0 <HAL_NVIC_SetPriority>
 8004080:	2003      	movs	r0, #3
 8004082:	f7ff fcb5 	bl	80039f0 <HAL_NVIC_EnableIRQ>
 8004086:	e7e3      	b.n	8004050 <HAL_RTC_MspInit+0x18>
 8004088:	f7fe f910 	bl	80022ac <Error_Handler>
 800408c:	e7ec      	b.n	8004068 <HAL_RTC_MspInit+0x30>
 800408e:	bf00      	nop
 8004090:	40002800 	.word	0x40002800
 8004094:	40021000 	.word	0x40021000

08004098 <HAL_SPI_MspInit>:
 8004098:	b500      	push	{lr}
 800409a:	b089      	sub	sp, #36	@ 0x24
 800409c:	2300      	movs	r3, #0
 800409e:	9303      	str	r3, [sp, #12]
 80040a0:	9304      	str	r3, [sp, #16]
 80040a2:	9305      	str	r3, [sp, #20]
 80040a4:	9306      	str	r3, [sp, #24]
 80040a6:	9307      	str	r3, [sp, #28]
 80040a8:	6802      	ldr	r2, [r0, #0]
 80040aa:	4b13      	ldr	r3, [pc, #76]	@ (80040f8 <HAL_SPI_MspInit+0x60>)
 80040ac:	429a      	cmp	r2, r3
 80040ae:	d002      	beq.n	80040b6 <HAL_SPI_MspInit+0x1e>
 80040b0:	b009      	add	sp, #36	@ 0x24
 80040b2:	f85d fb04 	ldr.w	pc, [sp], #4
 80040b6:	f503 4360 	add.w	r3, r3, #57344	@ 0xe000
 80040ba:	6e1a      	ldr	r2, [r3, #96]	@ 0x60
 80040bc:	f442 5280 	orr.w	r2, r2, #4096	@ 0x1000
 80040c0:	661a      	str	r2, [r3, #96]	@ 0x60
 80040c2:	6e1a      	ldr	r2, [r3, #96]	@ 0x60
 80040c4:	f402 5280 	and.w	r2, r2, #4096	@ 0x1000
 80040c8:	9201      	str	r2, [sp, #4]
 80040ca:	9a01      	ldr	r2, [sp, #4]
 80040cc:	6cda      	ldr	r2, [r3, #76]	@ 0x4c
 80040ce:	f042 0201 	orr.w	r2, r2, #1
 80040d2:	64da      	str	r2, [r3, #76]	@ 0x4c
 80040d4:	6cdb      	ldr	r3, [r3, #76]	@ 0x4c
 80040d6:	f003 0301 	and.w	r3, r3, #1
 80040da:	9302      	str	r3, [sp, #8]
 80040dc:	9b02      	ldr	r3, [sp, #8]
 80040de:	2382      	movs	r3, #130	@ 0x82
 80040e0:	9303      	str	r3, [sp, #12]
 80040e2:	2302      	movs	r3, #2
 80040e4:	9304      	str	r3, [sp, #16]
 80040e6:	9306      	str	r3, [sp, #24]
 80040e8:	2305      	movs	r3, #5
 80040ea:	9307      	str	r3, [sp, #28]
 80040ec:	a903      	add	r1, sp, #12
 80040ee:	f04f 4090 	mov.w	r0, #1207959552	@ 0x48000000
 80040f2:	f7ff fdd1 	bl	8003c98 <HAL_GPIO_Init>
 80040f6:	e7db      	b.n	80040b0 <HAL_SPI_MspInit+0x18>
 80040f8:	40013000 	.word	0x40013000

080040fc <HAL_SPI_MspDeInit>:
 80040fc:	b508      	push	{r3, lr}
 80040fe:	6802      	ldr	r2, [r0, #0]
 8004100:	4b07      	ldr	r3, [pc, #28]	@ (8004120 <HAL_SPI_MspDeInit+0x24>)
 8004102:	429a      	cmp	r2, r3
 8004104:	d000      	beq.n	8004108 <HAL_SPI_MspDeInit+0xc>
 8004106:	bd08      	pop	{r3, pc}
 8004108:	4a06      	ldr	r2, [pc, #24]	@ (8004124 <HAL_SPI_MspDeInit+0x28>)
 800410a:	6e13      	ldr	r3, [r2, #96]	@ 0x60
 800410c:	f423 5380 	bic.w	r3, r3, #4096	@ 0x1000
 8004110:	6613      	str	r3, [r2, #96]	@ 0x60
 8004112:	2182      	movs	r1, #130	@ 0x82
 8004114:	f04f 4090 	mov.w	r0, #1207959552	@ 0x48000000
 8004118:	f7ff fe9c 	bl	8003e54 <HAL_GPIO_DeInit>
 800411c:	e7f3      	b.n	8004106 <HAL_SPI_MspDeInit+0xa>
 800411e:	bf00      	nop
 8004120:	40013000 	.word	0x40013000
 8004124:	40021000 	.word	0x40021000

08004128 <HAL_UART_MspInit>:
 8004128:	b510      	push	{r4, lr}
 800412a:	b094      	sub	sp, #80	@ 0x50
 800412c:	4604      	mov	r4, r0
 800412e:	2100      	movs	r1, #0
 8004130:	910f      	str	r1, [sp, #60]	@ 0x3c
 8004132:	9110      	str	r1, [sp, #64]	@ 0x40
 8004134:	9111      	str	r1, [sp, #68]	@ 0x44
 8004136:	9112      	str	r1, [sp, #72]	@ 0x48
 8004138:	9113      	str	r1, [sp, #76]	@ 0x4c
 800413a:	2234      	movs	r2, #52	@ 0x34
 800413c:	a802      	add	r0, sp, #8
 800413e:	f005 facb 	bl	80096d8 <memset>
 8004142:	6822      	ldr	r2, [r4, #0]
 8004144:	4b18      	ldr	r3, [pc, #96]	@ (80041a8 <HAL_UART_MspInit+0x80>)
 8004146:	429a      	cmp	r2, r3
 8004148:	d001      	beq.n	800414e <HAL_UART_MspInit+0x26>
 800414a:	b014      	add	sp, #80	@ 0x50
 800414c:	bd10      	pop	{r4, pc}
 800414e:	2302      	movs	r3, #2
 8004150:	9302      	str	r3, [sp, #8]
 8004152:	a802      	add	r0, sp, #8
 8004154:	f001 fdc4 	bl	8005ce0 <HAL_RCCEx_PeriphCLKConfig>
 8004158:	bb10      	cbnz	r0, 80041a0 <HAL_UART_MspInit+0x78>
 800415a:	4b14      	ldr	r3, [pc, #80]	@ (80041ac <HAL_UART_MspInit+0x84>)
 800415c:	6d9a      	ldr	r2, [r3, #88]	@ 0x58
 800415e:	f442 3200 	orr.w	r2, r2, #131072	@ 0x20000
 8004162:	659a      	str	r2, [r3, #88]	@ 0x58
 8004164:	6d9a      	ldr	r2, [r3, #88]	@ 0x58
 8004166:	f402 3200 	and.w	r2, r2, #131072	@ 0x20000
 800416a:	9200      	str	r2, [sp, #0]
 800416c:	9a00      	ldr	r2, [sp, #0]
 800416e:	6cda      	ldr	r2, [r3, #76]	@ 0x4c
 8004170:	f042 0201 	orr.w	r2, r2, #1
 8004174:	64da      	str	r2, [r3, #76]	@ 0x4c
 8004176:	6cdb      	ldr	r3, [r3, #76]	@ 0x4c
 8004178:	f003 0301 	and.w	r3, r3, #1
 800417c:	9301      	str	r3, [sp, #4]
 800417e:	9b01      	ldr	r3, [sp, #4]
 8004180:	2304      	movs	r3, #4
 8004182:	930f      	str	r3, [sp, #60]	@ 0x3c
 8004184:	2312      	movs	r3, #18
 8004186:	9310      	str	r3, [sp, #64]	@ 0x40
 8004188:	2301      	movs	r3, #1
 800418a:	9311      	str	r3, [sp, #68]	@ 0x44
 800418c:	2303      	movs	r3, #3
 800418e:	9312      	str	r3, [sp, #72]	@ 0x48
 8004190:	2307      	movs	r3, #7
 8004192:	9313      	str	r3, [sp, #76]	@ 0x4c
 8004194:	a90f      	add	r1, sp, #60	@ 0x3c
 8004196:	f04f 4090 	mov.w	r0, #1207959552	@ 0x48000000
 800419a:	f7ff fd7d 	bl	8003c98 <HAL_GPIO_Init>
 800419e:	e7d4      	b.n	800414a <HAL_UART_MspInit+0x22>
 80041a0:	f7fe f884 	bl	80022ac <Error_Handler>
 80041a4:	e7d9      	b.n	800415a <HAL_UART_MspInit+0x32>
 80041a6:	bf00      	nop
 80041a8:	40004400 	.word	0x40004400
 80041ac:	40021000 	.word	0x40021000

080041b0 <HAL_PCD_EP_DB_Receive>:
 80041b0:	b538      	push	{r3, r4, r5, lr}
 80041b2:	f412 4f80 	tst.w	r2, #16384	@ 0x4000
 80041b6:	d043      	beq.n	8004240 <HAL_PCD_EP_DB_Receive+0x90>
 80041b8:	6804      	ldr	r4, [r0, #0]
 80041ba:	f8b4 3050 	ldrh.w	r3, [r4, #80]	@ 0x50
 80041be:	f891 c000 	ldrb.w	ip, [r1]
 80041c2:	ea4f 0ecc 	mov.w	lr, ip, lsl #3
 80041c6:	fa1e f383 	uxtah	r3, lr, r3
 80041ca:	4423      	add	r3, r4
 80041cc:	f8b3 4402 	ldrh.w	r4, [r3, #1026]	@ 0x402
 80041d0:	f3c4 0409 	ubfx	r4, r4, #0, #10
 80041d4:	698b      	ldr	r3, [r1, #24]
 80041d6:	42a3      	cmp	r3, r4
 80041d8:	d328      	bcc.n	800422c <HAL_PCD_EP_DB_Receive+0x7c>
 80041da:	1b1b      	subs	r3, r3, r4
 80041dc:	618b      	str	r3, [r1, #24]
 80041de:	698b      	ldr	r3, [r1, #24]
 80041e0:	b97b      	cbnz	r3, 8004202 <HAL_PCD_EP_DB_Receive+0x52>
 80041e2:	6805      	ldr	r5, [r0, #0]
 80041e4:	f835 302c 	ldrh.w	r3, [r5, ip, lsl #2]
 80041e8:	b29b      	uxth	r3, r3
 80041ea:	f423 4380 	bic.w	r3, r3, #16384	@ 0x4000
 80041ee:	f023 0370 	bic.w	r3, r3, #112	@ 0x70
 80041f2:	f483 5300 	eor.w	r3, r3, #8192	@ 0x2000
 80041f6:	f443 4300 	orr.w	r3, r3, #32768	@ 0x8000
 80041fa:	f043 0380 	orr.w	r3, r3, #128	@ 0x80
 80041fe:	f825 302c 	strh.w	r3, [r5, ip, lsl #2]
 8004202:	f012 0f40 	tst.w	r2, #64	@ 0x40
 8004206:	d00e      	beq.n	8004226 <HAL_PCD_EP_DB_Receive+0x76>
 8004208:	6802      	ldr	r2, [r0, #0]
 800420a:	780d      	ldrb	r5, [r1, #0]
 800420c:	f832 3025 	ldrh.w	r3, [r2, r5, lsl #2]
 8004210:	b29b      	uxth	r3, r3
 8004212:	f423 43e0 	bic.w	r3, r3, #28672	@ 0x7000
 8004216:	f023 0370 	bic.w	r3, r3, #112	@ 0x70
 800421a:	f443 4300 	orr.w	r3, r3, #32768	@ 0x8000
 800421e:	f043 03c0 	orr.w	r3, r3, #192	@ 0xc0
 8004222:	f822 3025 	strh.w	r3, [r2, r5, lsl #2]
 8004226:	b924      	cbnz	r4, 8004232 <HAL_PCD_EP_DB_Receive+0x82>
 8004228:	4620      	mov	r0, r4
 800422a:	bd38      	pop	{r3, r4, r5, pc}
 800422c:	2300      	movs	r3, #0
 800422e:	618b      	str	r3, [r1, #24]
 8004230:	e7d5      	b.n	80041de <HAL_PCD_EP_DB_Receive+0x2e>
 8004232:	4623      	mov	r3, r4
 8004234:	890a      	ldrh	r2, [r1, #8]
 8004236:	6949      	ldr	r1, [r1, #20]
 8004238:	6800      	ldr	r0, [r0, #0]
 800423a:	f003 feb3 	bl	8007fa4 <USB_ReadPMA>
 800423e:	e7f3      	b.n	8004228 <HAL_PCD_EP_DB_Receive+0x78>
 8004240:	6804      	ldr	r4, [r0, #0]
 8004242:	f8b4 3050 	ldrh.w	r3, [r4, #80]	@ 0x50
 8004246:	f891 c000 	ldrb.w	ip, [r1]
 800424a:	ea4f 0ecc 	mov.w	lr, ip, lsl #3
 800424e:	fa1e f383 	uxtah	r3, lr, r3
 8004252:	4423      	add	r3, r4
 8004254:	f8b3 4406 	ldrh.w	r4, [r3, #1030]	@ 0x406
 8004258:	f3c4 0409 	ubfx	r4, r4, #0, #10
 800425c:	698b      	ldr	r3, [r1, #24]
 800425e:	42a3      	cmp	r3, r4
 8004260:	d32f      	bcc.n	80042c2 <HAL_PCD_EP_DB_Receive+0x112>
 8004262:	1b1b      	subs	r3, r3, r4
 8004264:	618b      	str	r3, [r1, #24]
 8004266:	698b      	ldr	r3, [r1, #24]
 8004268:	b97b      	cbnz	r3, 800428a <HAL_PCD_EP_DB_Receive+0xda>
 800426a:	6805      	ldr	r5, [r0, #0]
 800426c:	f835 302c 	ldrh.w	r3, [r5, ip, lsl #2]
 8004270:	b29b      	uxth	r3, r3
 8004272:	f423 4380 	bic.w	r3, r3, #16384	@ 0x4000
 8004276:	f023 0370 	bic.w	r3, r3, #112	@ 0x70
 800427a:	f483 5300 	eor.w	r3, r3, #8192	@ 0x2000
 800427e:	f443 4300 	orr.w	r3, r3, #32768	@ 0x8000
 8004282:	f043 0380 	orr.w	r3, r3, #128	@ 0x80
 8004286:	f825 302c 	strh.w	r3, [r5, ip, lsl #2]
 800428a:	f012 0f40 	tst.w	r2, #64	@ 0x40
 800428e:	d10f      	bne.n	80042b0 <HAL_PCD_EP_DB_Receive+0x100>
 8004290:	6802      	ldr	r2, [r0, #0]
 8004292:	f891 c000 	ldrb.w	ip, [r1]
 8004296:	f832 302c 	ldrh.w	r3, [r2, ip, lsl #2]
 800429a:	b29b      	uxth	r3, r3
 800429c:	f423 43e0 	bic.w	r3, r3, #28672	@ 0x7000
 80042a0:	f023 0370 	bic.w	r3, r3, #112	@ 0x70
 80042a4:	f443 4300 	orr.w	r3, r3, #32768	@ 0x8000
 80042a8:	f043 03c0 	orr.w	r3, r3, #192	@ 0xc0
 80042ac:	f822 302c 	strh.w	r3, [r2, ip, lsl #2]
 80042b0:	2c00      	cmp	r4, #0
 80042b2:	d0b9      	beq.n	8004228 <HAL_PCD_EP_DB_Receive+0x78>
 80042b4:	4623      	mov	r3, r4
 80042b6:	894a      	ldrh	r2, [r1, #10]
 80042b8:	6949      	ldr	r1, [r1, #20]
 80042ba:	6800      	ldr	r0, [r0, #0]
 80042bc:	f003 fe72 	bl	8007fa4 <USB_ReadPMA>
 80042c0:	e7b2      	b.n	8004228 <HAL_PCD_EP_DB_Receive+0x78>
 80042c2:	2300      	movs	r3, #0
 80042c4:	618b      	str	r3, [r1, #24]
 80042c6:	e7ce      	b.n	8004266 <HAL_PCD_EP_DB_Receive+0xb6>

080042c8 <HAL_PCD_Init>:
 80042c8:	b538      	push	{r3, r4, r5, lr}
 80042ca:	2800      	cmp	r0, #0
 80042cc:	d075      	beq.n	80043ba <HAL_PCD_Init+0xf2>
 80042ce:	4604      	mov	r4, r0
 80042d0:	f890 3291 	ldrb.w	r3, [r0, #657]	@ 0x291
 80042d4:	b1a3      	cbz	r3, 8004300 <HAL_PCD_Init+0x38>
 80042d6:	2303      	movs	r3, #3
 80042d8:	f884 3291 	strb.w	r3, [r4, #657]	@ 0x291
 80042dc:	2300      	movs	r3, #0
 80042de:	7163      	strb	r3, [r4, #5]
 80042e0:	6820      	ldr	r0, [r4, #0]
 80042e2:	f002 ff61 	bl	80071a8 <USB_DisableGlobalInt>
 80042e6:	4623      	mov	r3, r4
 80042e8:	f853 0b04 	ldr.w	r0, [r3], #4
 80042ec:	cb0e      	ldmia	r3, {r1, r2, r3}
 80042ee:	f002 ff4b 	bl	8007188 <USB_CoreInit>
 80042f2:	b150      	cbz	r0, 800430a <HAL_PCD_Init+0x42>
 80042f4:	2302      	movs	r3, #2
 80042f6:	f884 3291 	strb.w	r3, [r4, #657]	@ 0x291
 80042fa:	2501      	movs	r5, #1
 80042fc:	4628      	mov	r0, r5
 80042fe:	bd38      	pop	{r3, r4, r5, pc}
 8004300:	f880 3290 	strb.w	r3, [r0, #656]	@ 0x290
 8004304:	f004 f992 	bl	800862c <HAL_PCD_MspInit>
 8004308:	e7e5      	b.n	80042d6 <HAL_PCD_Init+0xe>
 800430a:	2100      	movs	r1, #0
 800430c:	6820      	ldr	r0, [r4, #0]
 800430e:	f002 ff55 	bl	80071bc <USB_SetCurrentMode>
 8004312:	4603      	mov	r3, r0
 8004314:	b9a8      	cbnz	r0, 8004342 <HAL_PCD_Init+0x7a>
 8004316:	4602      	mov	r2, r0
 8004318:	7920      	ldrb	r0, [r4, #4]
 800431a:	4290      	cmp	r0, r2
 800431c:	d916      	bls.n	800434c <HAL_PCD_Init+0x84>
 800431e:	eb02 0182 	add.w	r1, r2, r2, lsl #2
 8004322:	eb04 01c1 	add.w	r1, r4, r1, lsl #3
 8004326:	2001      	movs	r0, #1
 8004328:	7448      	strb	r0, [r1, #17]
 800432a:	740a      	strb	r2, [r1, #16]
 800432c:	2000      	movs	r0, #0
 800432e:	74c8      	strb	r0, [r1, #19]
 8004330:	6208      	str	r0, [r1, #32]
 8004332:	6248      	str	r0, [r1, #36]	@ 0x24
 8004334:	3201      	adds	r2, #1
 8004336:	eb02 0182 	add.w	r1, r2, r2, lsl #2
 800433a:	00c9      	lsls	r1, r1, #3
 800433c:	5060      	str	r0, [r4, r1]
 800433e:	b2d2      	uxtb	r2, r2
 8004340:	e7ea      	b.n	8004318 <HAL_PCD_Init+0x50>
 8004342:	2302      	movs	r3, #2
 8004344:	f884 3291 	strb.w	r3, [r4, #657]	@ 0x291
 8004348:	2501      	movs	r5, #1
 800434a:	e7d7      	b.n	80042fc <HAL_PCD_Init+0x34>
 800434c:	4298      	cmp	r0, r3
 800434e:	d917      	bls.n	8004380 <HAL_PCD_Init+0xb8>
 8004350:	eb03 0283 	add.w	r2, r3, r3, lsl #2
 8004354:	eb04 02c2 	add.w	r2, r4, r2, lsl #3
 8004358:	2100      	movs	r1, #0
 800435a:	f882 1151 	strb.w	r1, [r2, #337]	@ 0x151
 800435e:	f882 3150 	strb.w	r3, [r2, #336]	@ 0x150
 8004362:	f882 1153 	strb.w	r1, [r2, #339]	@ 0x153
 8004366:	f8c2 1160 	str.w	r1, [r2, #352]	@ 0x160
 800436a:	f8c2 1164 	str.w	r1, [r2, #356]	@ 0x164
 800436e:	eb03 0283 	add.w	r2, r3, r3, lsl #2
 8004372:	eb04 02c2 	add.w	r2, r4, r2, lsl #3
 8004376:	f8c2 1168 	str.w	r1, [r2, #360]	@ 0x168
 800437a:	3301      	adds	r3, #1
 800437c:	b2db      	uxtb	r3, r3
 800437e:	e7e5      	b.n	800434c <HAL_PCD_Init+0x84>
 8004380:	4623      	mov	r3, r4
 8004382:	f853 0b04 	ldr.w	r0, [r3], #4
 8004386:	cb0e      	ldmia	r3, {r1, r2, r3}
 8004388:	f002 ff1a 	bl	80071c0 <USB_DevInit>
 800438c:	4605      	mov	r5, r0
 800438e:	b958      	cbnz	r0, 80043a8 <HAL_PCD_Init+0xe0>
 8004390:	2300      	movs	r3, #0
 8004392:	7363      	strb	r3, [r4, #13]
 8004394:	2301      	movs	r3, #1
 8004396:	f884 3291 	strb.w	r3, [r4, #657]	@ 0x291
 800439a:	7ae3      	ldrb	r3, [r4, #11]
 800439c:	2b01      	cmp	r3, #1
 800439e:	d008      	beq.n	80043b2 <HAL_PCD_Init+0xea>
 80043a0:	6820      	ldr	r0, [r4, #0]
 80043a2:	f003 fb1a 	bl	80079da <USB_DevDisconnect>
 80043a6:	e7a9      	b.n	80042fc <HAL_PCD_Init+0x34>
 80043a8:	2302      	movs	r3, #2
 80043aa:	f884 3291 	strb.w	r3, [r4, #657]	@ 0x291
 80043ae:	2501      	movs	r5, #1
 80043b0:	e7a4      	b.n	80042fc <HAL_PCD_Init+0x34>
 80043b2:	4620      	mov	r0, r4
 80043b4:	f000 feff 	bl	80051b6 <HAL_PCDEx_ActivateLPM>
 80043b8:	e7f2      	b.n	80043a0 <HAL_PCD_Init+0xd8>
 80043ba:	2501      	movs	r5, #1
 80043bc:	e79e      	b.n	80042fc <HAL_PCD_Init+0x34>

080043be <HAL_PCD_Start>:
 80043be:	f890 3290 	ldrb.w	r3, [r0, #656]	@ 0x290
 80043c2:	2b01      	cmp	r3, #1
 80043c4:	d00e      	beq.n	80043e4 <HAL_PCD_Start+0x26>
 80043c6:	b510      	push	{r4, lr}
 80043c8:	4604      	mov	r4, r0
 80043ca:	2301      	movs	r3, #1
 80043cc:	f880 3290 	strb.w	r3, [r0, #656]	@ 0x290
 80043d0:	6800      	ldr	r0, [r0, #0]
 80043d2:	f002 fee0 	bl	8007196 <USB_EnableGlobalInt>
 80043d6:	6820      	ldr	r0, [r4, #0]
 80043d8:	f003 faf4 	bl	80079c4 <USB_DevConnect>
 80043dc:	2000      	movs	r0, #0
 80043de:	f884 0290 	strb.w	r0, [r4, #656]	@ 0x290
 80043e2:	bd10      	pop	{r4, pc}
 80043e4:	2002      	movs	r0, #2
 80043e6:	4770      	bx	lr

080043e8 <HAL_PCD_EP_DB_Transmit>:
 80043e8:	b570      	push	{r4, r5, r6, lr}
 80043ea:	4605      	mov	r5, r0
 80043ec:	460c      	mov	r4, r1
 80043ee:	4616      	mov	r6, r2
 80043f0:	f012 0f40 	tst.w	r2, #64	@ 0x40
 80043f4:	f000 8120 	beq.w	8004638 <HAL_PCD_EP_DB_Transmit+0x250>
 80043f8:	6802      	ldr	r2, [r0, #0]
 80043fa:	f8b2 3050 	ldrh.w	r3, [r2, #80]	@ 0x50
 80043fe:	7809      	ldrb	r1, [r1, #0]
 8004400:	ea4f 0cc1 	mov.w	ip, r1, lsl #3
 8004404:	fa1c f383 	uxtah	r3, ip, r3
 8004408:	4413      	add	r3, r2
 800440a:	f8b3 2402 	ldrh.w	r2, [r3, #1026]	@ 0x402
 800440e:	f3c2 0209 	ubfx	r2, r2, #0, #10
 8004412:	69a3      	ldr	r3, [r4, #24]
 8004414:	4293      	cmp	r3, r2
 8004416:	d92c      	bls.n	8004472 <HAL_PCD_EP_DB_Transmit+0x8a>
 8004418:	1a9b      	subs	r3, r3, r2
 800441a:	61a3      	str	r3, [r4, #24]
 800441c:	69a0      	ldr	r0, [r4, #24]
 800441e:	b358      	cbz	r0, 8004478 <HAL_PCD_EP_DB_Transmit+0x90>
 8004420:	f416 4f80 	tst.w	r6, #16384	@ 0x4000
 8004424:	d00d      	beq.n	8004442 <HAL_PCD_EP_DB_Transmit+0x5a>
 8004426:	6828      	ldr	r0, [r5, #0]
 8004428:	f830 3021 	ldrh.w	r3, [r0, r1, lsl #2]
 800442c:	b29b      	uxth	r3, r3
 800442e:	f423 43e0 	bic.w	r3, r3, #28672	@ 0x7000
 8004432:	f023 0370 	bic.w	r3, r3, #112	@ 0x70
 8004436:	f443 4340 	orr.w	r3, r3, #49152	@ 0xc000
 800443a:	f043 0380 	orr.w	r3, r3, #128	@ 0x80
 800443e:	f820 3021 	strh.w	r3, [r0, r1, lsl #2]
 8004442:	f894 3024 	ldrb.w	r3, [r4, #36]	@ 0x24
 8004446:	2b01      	cmp	r3, #1
 8004448:	f000 808d 	beq.w	8004566 <HAL_PCD_EP_DB_Transmit+0x17e>
 800444c:	682a      	ldr	r2, [r5, #0]
 800444e:	7821      	ldrb	r1, [r4, #0]
 8004450:	f832 3021 	ldrh.w	r3, [r2, r1, lsl #2]
 8004454:	b29b      	uxth	r3, r3
 8004456:	f423 43e0 	bic.w	r3, r3, #28672	@ 0x7000
 800445a:	f023 0340 	bic.w	r3, r3, #64	@ 0x40
 800445e:	f083 0330 	eor.w	r3, r3, #48	@ 0x30
 8004462:	f443 4300 	orr.w	r3, r3, #32768	@ 0x8000
 8004466:	f043 0380 	orr.w	r3, r3, #128	@ 0x80
 800446a:	f822 3021 	strh.w	r3, [r2, r1, lsl #2]
 800446e:	2000      	movs	r0, #0
 8004470:	bd70      	pop	{r4, r5, r6, pc}
 8004472:	2300      	movs	r3, #0
 8004474:	61a3      	str	r3, [r4, #24]
 8004476:	e7d1      	b.n	800441c <HAL_PCD_EP_DB_Transmit+0x34>
 8004478:	7863      	ldrb	r3, [r4, #1]
 800447a:	2b00      	cmp	r3, #0
 800447c:	d148      	bne.n	8004510 <HAL_PCD_EP_DB_Transmit+0x128>
 800447e:	682a      	ldr	r2, [r5, #0]
 8004480:	f8b2 3050 	ldrh.w	r3, [r2, #80]	@ 0x50
 8004484:	fa12 f383 	uxtah	r3, r2, r3
 8004488:	4463      	add	r3, ip
 800448a:	f8b3 2402 	ldrh.w	r2, [r3, #1026]	@ 0x402
 800448e:	f3c2 0209 	ubfx	r2, r2, #0, #10
 8004492:	f8a3 2402 	strh.w	r2, [r3, #1026]	@ 0x402
 8004496:	f8b3 2402 	ldrh.w	r2, [r3, #1026]	@ 0x402
 800449a:	ea6f 4242 	mvn.w	r2, r2, lsl #17
 800449e:	ea6f 4252 	mvn.w	r2, r2, lsr #17
 80044a2:	b292      	uxth	r2, r2
 80044a4:	f8a3 2402 	strh.w	r2, [r3, #1026]	@ 0x402
 80044a8:	682a      	ldr	r2, [r5, #0]
 80044aa:	7863      	ldrb	r3, [r4, #1]
 80044ac:	2b00      	cmp	r3, #0
 80044ae:	d13b      	bne.n	8004528 <HAL_PCD_EP_DB_Transmit+0x140>
 80044b0:	f8b2 3050 	ldrh.w	r3, [r2, #80]	@ 0x50
 80044b4:	fa12 f383 	uxtah	r3, r2, r3
 80044b8:	7822      	ldrb	r2, [r4, #0]
 80044ba:	eb03 03c2 	add.w	r3, r3, r2, lsl #3
 80044be:	f8b3 2406 	ldrh.w	r2, [r3, #1030]	@ 0x406
 80044c2:	f3c2 0209 	ubfx	r2, r2, #0, #10
 80044c6:	f8a3 2406 	strh.w	r2, [r3, #1030]	@ 0x406
 80044ca:	f8b3 2406 	ldrh.w	r2, [r3, #1030]	@ 0x406
 80044ce:	ea6f 4242 	mvn.w	r2, r2, lsl #17
 80044d2:	ea6f 4252 	mvn.w	r2, r2, lsr #17
 80044d6:	b292      	uxth	r2, r2
 80044d8:	f8a3 2406 	strh.w	r2, [r3, #1030]	@ 0x406
 80044dc:	78e3      	ldrb	r3, [r4, #3]
 80044de:	2b02      	cmp	r3, #2
 80044e0:	d02f      	beq.n	8004542 <HAL_PCD_EP_DB_Transmit+0x15a>
 80044e2:	7821      	ldrb	r1, [r4, #0]
 80044e4:	4628      	mov	r0, r5
 80044e6:	f004 f903 	bl	80086f0 <HAL_PCD_DataInStageCallback>
 80044ea:	f416 4f80 	tst.w	r6, #16384	@ 0x4000
 80044ee:	d0be      	beq.n	800446e <HAL_PCD_EP_DB_Transmit+0x86>
 80044f0:	682a      	ldr	r2, [r5, #0]
 80044f2:	7821      	ldrb	r1, [r4, #0]
 80044f4:	f832 3021 	ldrh.w	r3, [r2, r1, lsl #2]
 80044f8:	b29b      	uxth	r3, r3
 80044fa:	f423 43e0 	bic.w	r3, r3, #28672	@ 0x7000
 80044fe:	f023 0370 	bic.w	r3, r3, #112	@ 0x70
 8004502:	f443 4340 	orr.w	r3, r3, #49152	@ 0xc000
 8004506:	f043 0380 	orr.w	r3, r3, #128	@ 0x80
 800450a:	f822 3021 	strh.w	r3, [r2, r1, lsl #2]
 800450e:	e7ae      	b.n	800446e <HAL_PCD_EP_DB_Transmit+0x86>
 8004510:	2b01      	cmp	r3, #1
 8004512:	d1c9      	bne.n	80044a8 <HAL_PCD_EP_DB_Transmit+0xc0>
 8004514:	682a      	ldr	r2, [r5, #0]
 8004516:	f8b2 3050 	ldrh.w	r3, [r2, #80]	@ 0x50
 800451a:	fa12 f383 	uxtah	r3, r2, r3
 800451e:	4463      	add	r3, ip
 8004520:	2200      	movs	r2, #0
 8004522:	f8a3 2402 	strh.w	r2, [r3, #1026]	@ 0x402
 8004526:	e7bf      	b.n	80044a8 <HAL_PCD_EP_DB_Transmit+0xc0>
 8004528:	2b01      	cmp	r3, #1
 800452a:	d1d7      	bne.n	80044dc <HAL_PCD_EP_DB_Transmit+0xf4>
 800452c:	f8b2 3050 	ldrh.w	r3, [r2, #80]	@ 0x50
 8004530:	fa12 f383 	uxtah	r3, r2, r3
 8004534:	7822      	ldrb	r2, [r4, #0]
 8004536:	eb03 03c2 	add.w	r3, r3, r2, lsl #3
 800453a:	2200      	movs	r2, #0
 800453c:	f8a3 2406 	strh.w	r2, [r3, #1030]	@ 0x406
 8004540:	e7cc      	b.n	80044dc <HAL_PCD_EP_DB_Transmit+0xf4>
 8004542:	682a      	ldr	r2, [r5, #0]
 8004544:	7821      	ldrb	r1, [r4, #0]
 8004546:	f832 3021 	ldrh.w	r3, [r2, r1, lsl #2]
 800454a:	b29b      	uxth	r3, r3
 800454c:	f423 43e0 	bic.w	r3, r3, #28672	@ 0x7000
 8004550:	f023 0340 	bic.w	r3, r3, #64	@ 0x40
 8004554:	f083 0320 	eor.w	r3, r3, #32
 8004558:	f443 4300 	orr.w	r3, r3, #32768	@ 0x8000
 800455c:	f043 0380 	orr.w	r3, r3, #128	@ 0x80
 8004560:	f822 3021 	strh.w	r3, [r2, r1, lsl #2]
 8004564:	e7bd      	b.n	80044e2 <HAL_PCD_EP_DB_Transmit+0xfa>
 8004566:	6963      	ldr	r3, [r4, #20]
 8004568:	4413      	add	r3, r2
 800456a:	6163      	str	r3, [r4, #20]
 800456c:	69e3      	ldr	r3, [r4, #28]
 800456e:	4413      	add	r3, r2
 8004570:	61e3      	str	r3, [r4, #28]
 8004572:	6a21      	ldr	r1, [r4, #32]
 8004574:	6923      	ldr	r3, [r4, #16]
 8004576:	4299      	cmp	r1, r3
 8004578:	d31d      	bcc.n	80045b6 <HAL_PCD_EP_DB_Transmit+0x1ce>
 800457a:	1ac9      	subs	r1, r1, r3
 800457c:	6221      	str	r1, [r4, #32]
 800457e:	7862      	ldrb	r2, [r4, #1]
 8004580:	2a00      	cmp	r2, #0
 8004582:	d144      	bne.n	800460e <HAL_PCD_EP_DB_Transmit+0x226>
 8004584:	6829      	ldr	r1, [r5, #0]
 8004586:	f8b1 2050 	ldrh.w	r2, [r1, #80]	@ 0x50
 800458a:	fa11 f282 	uxtah	r2, r1, r2
 800458e:	7821      	ldrb	r1, [r4, #0]
 8004590:	eb02 02c1 	add.w	r2, r2, r1, lsl #3
 8004594:	f8b2 1402 	ldrh.w	r1, [r2, #1026]	@ 0x402
 8004598:	f3c1 0109 	ubfx	r1, r1, #0, #10
 800459c:	f8a2 1402 	strh.w	r1, [r2, #1026]	@ 0x402
 80045a0:	b9ab      	cbnz	r3, 80045ce <HAL_PCD_EP_DB_Transmit+0x1e6>
 80045a2:	f8b2 1402 	ldrh.w	r1, [r2, #1026]	@ 0x402
 80045a6:	ea6f 4141 	mvn.w	r1, r1, lsl #17
 80045aa:	ea6f 4151 	mvn.w	r1, r1, lsr #17
 80045ae:	b289      	uxth	r1, r1
 80045b0:	f8a2 1402 	strh.w	r1, [r2, #1026]	@ 0x402
 80045b4:	e02d      	b.n	8004612 <HAL_PCD_EP_DB_Transmit+0x22a>
 80045b6:	b921      	cbnz	r1, 80045c2 <HAL_PCD_EP_DB_Transmit+0x1da>
 80045b8:	2300      	movs	r3, #0
 80045ba:	f884 3024 	strb.w	r3, [r4, #36]	@ 0x24
 80045be:	4613      	mov	r3, r2
 80045c0:	e7dd      	b.n	800457e <HAL_PCD_EP_DB_Transmit+0x196>
 80045c2:	2300      	movs	r3, #0
 80045c4:	f884 3024 	strb.w	r3, [r4, #36]	@ 0x24
 80045c8:	6223      	str	r3, [r4, #32]
 80045ca:	460b      	mov	r3, r1
 80045cc:	e7d7      	b.n	800457e <HAL_PCD_EP_DB_Transmit+0x196>
 80045ce:	2b3e      	cmp	r3, #62	@ 0x3e
 80045d0:	d80d      	bhi.n	80045ee <HAL_PCD_EP_DB_Transmit+0x206>
 80045d2:	0859      	lsrs	r1, r3, #1
 80045d4:	f013 0f01 	tst.w	r3, #1
 80045d8:	d000      	beq.n	80045dc <HAL_PCD_EP_DB_Transmit+0x1f4>
 80045da:	3101      	adds	r1, #1
 80045dc:	f8b2 0402 	ldrh.w	r0, [r2, #1026]	@ 0x402
 80045e0:	b280      	uxth	r0, r0
 80045e2:	0289      	lsls	r1, r1, #10
 80045e4:	b289      	uxth	r1, r1
 80045e6:	4301      	orrs	r1, r0
 80045e8:	f8a2 1402 	strh.w	r1, [r2, #1026]	@ 0x402
 80045ec:	e011      	b.n	8004612 <HAL_PCD_EP_DB_Transmit+0x22a>
 80045ee:	0958      	lsrs	r0, r3, #5
 80045f0:	f013 0f1f 	tst.w	r3, #31
 80045f4:	d100      	bne.n	80045f8 <HAL_PCD_EP_DB_Transmit+0x210>
 80045f6:	3801      	subs	r0, #1
 80045f8:	f8b2 1402 	ldrh.w	r1, [r2, #1026]	@ 0x402
 80045fc:	b289      	uxth	r1, r1
 80045fe:	0280      	lsls	r0, r0, #10
 8004600:	b280      	uxth	r0, r0
 8004602:	4301      	orrs	r1, r0
 8004604:	f441 4100 	orr.w	r1, r1, #32768	@ 0x8000
 8004608:	f8a2 1402 	strh.w	r1, [r2, #1026]	@ 0x402
 800460c:	e001      	b.n	8004612 <HAL_PCD_EP_DB_Transmit+0x22a>
 800460e:	2a01      	cmp	r2, #1
 8004610:	d006      	beq.n	8004620 <HAL_PCD_EP_DB_Transmit+0x238>
 8004612:	b29b      	uxth	r3, r3
 8004614:	8922      	ldrh	r2, [r4, #8]
 8004616:	6961      	ldr	r1, [r4, #20]
 8004618:	6828      	ldr	r0, [r5, #0]
 800461a:	f003 f9ec 	bl	80079f6 <USB_WritePMA>
 800461e:	e715      	b.n	800444c <HAL_PCD_EP_DB_Transmit+0x64>
 8004620:	6829      	ldr	r1, [r5, #0]
 8004622:	f8b1 2050 	ldrh.w	r2, [r1, #80]	@ 0x50
 8004626:	fa11 f282 	uxtah	r2, r1, r2
 800462a:	7821      	ldrb	r1, [r4, #0]
 800462c:	eb02 02c1 	add.w	r2, r2, r1, lsl #3
 8004630:	b299      	uxth	r1, r3
 8004632:	f8a2 1402 	strh.w	r1, [r2, #1026]	@ 0x402
 8004636:	e7ec      	b.n	8004612 <HAL_PCD_EP_DB_Transmit+0x22a>
 8004638:	6802      	ldr	r2, [r0, #0]
 800463a:	f8b2 3050 	ldrh.w	r3, [r2, #80]	@ 0x50
 800463e:	7809      	ldrb	r1, [r1, #0]
 8004640:	00c8      	lsls	r0, r1, #3
 8004642:	fa10 f383 	uxtah	r3, r0, r3
 8004646:	4413      	add	r3, r2
 8004648:	f8b3 2406 	ldrh.w	r2, [r3, #1030]	@ 0x406
 800464c:	f3c2 0209 	ubfx	r2, r2, #0, #10
 8004650:	69a3      	ldr	r3, [r4, #24]
 8004652:	4293      	cmp	r3, r2
 8004654:	d346      	bcc.n	80046e4 <HAL_PCD_EP_DB_Transmit+0x2fc>
 8004656:	1a9b      	subs	r3, r3, r2
 8004658:	61a3      	str	r3, [r4, #24]
 800465a:	69a3      	ldr	r3, [r4, #24]
 800465c:	2b00      	cmp	r3, #0
 800465e:	d044      	beq.n	80046ea <HAL_PCD_EP_DB_Transmit+0x302>
 8004660:	f416 4f80 	tst.w	r6, #16384	@ 0x4000
 8004664:	d10d      	bne.n	8004682 <HAL_PCD_EP_DB_Transmit+0x29a>
 8004666:	6828      	ldr	r0, [r5, #0]
 8004668:	f830 3021 	ldrh.w	r3, [r0, r1, lsl #2]
 800466c:	b29b      	uxth	r3, r3
 800466e:	f423 43e0 	bic.w	r3, r3, #28672	@ 0x7000
 8004672:	f023 0370 	bic.w	r3, r3, #112	@ 0x70
 8004676:	f443 4340 	orr.w	r3, r3, #49152	@ 0xc000
 800467a:	f043 0380 	orr.w	r3, r3, #128	@ 0x80
 800467e:	f820 3021 	strh.w	r3, [r0, r1, lsl #2]
 8004682:	f894 3024 	ldrb.w	r3, [r4, #36]	@ 0x24
 8004686:	2b01      	cmp	r3, #1
 8004688:	f47f aee0 	bne.w	800444c <HAL_PCD_EP_DB_Transmit+0x64>
 800468c:	6963      	ldr	r3, [r4, #20]
 800468e:	4413      	add	r3, r2
 8004690:	6163      	str	r3, [r4, #20]
 8004692:	69e3      	ldr	r3, [r4, #28]
 8004694:	4413      	add	r3, r2
 8004696:	61e3      	str	r3, [r4, #28]
 8004698:	6a21      	ldr	r1, [r4, #32]
 800469a:	6923      	ldr	r3, [r4, #16]
 800469c:	4299      	cmp	r1, r3
 800469e:	f0c0 809c 	bcc.w	80047da <HAL_PCD_EP_DB_Transmit+0x3f2>
 80046a2:	1ac9      	subs	r1, r1, r3
 80046a4:	6221      	str	r1, [r4, #32]
 80046a6:	6829      	ldr	r1, [r5, #0]
 80046a8:	7862      	ldrb	r2, [r4, #1]
 80046aa:	2a00      	cmp	r2, #0
 80046ac:	f040 80c1 	bne.w	8004832 <HAL_PCD_EP_DB_Transmit+0x44a>
 80046b0:	f8b1 2050 	ldrh.w	r2, [r1, #80]	@ 0x50
 80046b4:	fa11 f282 	uxtah	r2, r1, r2
 80046b8:	7821      	ldrb	r1, [r4, #0]
 80046ba:	eb02 02c1 	add.w	r2, r2, r1, lsl #3
 80046be:	f8b2 1406 	ldrh.w	r1, [r2, #1030]	@ 0x406
 80046c2:	f3c1 0109 	ubfx	r1, r1, #0, #10
 80046c6:	f8a2 1406 	strh.w	r1, [r2, #1030]	@ 0x406
 80046ca:	2b00      	cmp	r3, #0
 80046cc:	f040 8091 	bne.w	80047f2 <HAL_PCD_EP_DB_Transmit+0x40a>
 80046d0:	f8b2 1406 	ldrh.w	r1, [r2, #1030]	@ 0x406
 80046d4:	ea6f 4141 	mvn.w	r1, r1, lsl #17
 80046d8:	ea6f 4151 	mvn.w	r1, r1, lsr #17
 80046dc:	b289      	uxth	r1, r1
 80046de:	f8a2 1406 	strh.w	r1, [r2, #1030]	@ 0x406
 80046e2:	e0a8      	b.n	8004836 <HAL_PCD_EP_DB_Transmit+0x44e>
 80046e4:	2300      	movs	r3, #0
 80046e6:	61a3      	str	r3, [r4, #24]
 80046e8:	e7b7      	b.n	800465a <HAL_PCD_EP_DB_Transmit+0x272>
 80046ea:	7863      	ldrb	r3, [r4, #1]
 80046ec:	2b00      	cmp	r3, #0
 80046ee:	d149      	bne.n	8004784 <HAL_PCD_EP_DB_Transmit+0x39c>
 80046f0:	682a      	ldr	r2, [r5, #0]
 80046f2:	f8b2 3050 	ldrh.w	r3, [r2, #80]	@ 0x50
 80046f6:	fa12 f383 	uxtah	r3, r2, r3
 80046fa:	4403      	add	r3, r0
 80046fc:	f8b3 2402 	ldrh.w	r2, [r3, #1026]	@ 0x402
 8004700:	f3c2 0209 	ubfx	r2, r2, #0, #10
 8004704:	f8a3 2402 	strh.w	r2, [r3, #1026]	@ 0x402
 8004708:	f8b3 2402 	ldrh.w	r2, [r3, #1026]	@ 0x402
 800470c:	ea6f 4242 	mvn.w	r2, r2, lsl #17
 8004710:	ea6f 4252 	mvn.w	r2, r2, lsr #17
 8004714:	b292      	uxth	r2, r2
 8004716:	f8a3 2402 	strh.w	r2, [r3, #1026]	@ 0x402
 800471a:	682a      	ldr	r2, [r5, #0]
 800471c:	7863      	ldrb	r3, [r4, #1]
 800471e:	2b00      	cmp	r3, #0
 8004720:	d13c      	bne.n	800479c <HAL_PCD_EP_DB_Transmit+0x3b4>
 8004722:	f8b2 3050 	ldrh.w	r3, [r2, #80]	@ 0x50
 8004726:	fa12 f383 	uxtah	r3, r2, r3
 800472a:	7822      	ldrb	r2, [r4, #0]
 800472c:	eb03 03c2 	add.w	r3, r3, r2, lsl #3
 8004730:	f8b3 2406 	ldrh.w	r2, [r3, #1030]	@ 0x406
 8004734:	f3c2 0209 	ubfx	r2, r2, #0, #10
 8004738:	f8a3 2406 	strh.w	r2, [r3, #1030]	@ 0x406
 800473c:	f8b3 2406 	ldrh.w	r2, [r3, #1030]	@ 0x406
 8004740:	ea6f 4242 	mvn.w	r2, r2, lsl #17
 8004744:	ea6f 4252 	mvn.w	r2, r2, lsr #17
 8004748:	b292      	uxth	r2, r2
 800474a:	f8a3 2406 	strh.w	r2, [r3, #1030]	@ 0x406
 800474e:	78e3      	ldrb	r3, [r4, #3]
 8004750:	2b02      	cmp	r3, #2
 8004752:	d030      	beq.n	80047b6 <HAL_PCD_EP_DB_Transmit+0x3ce>
 8004754:	7821      	ldrb	r1, [r4, #0]
 8004756:	4628      	mov	r0, r5
 8004758:	f003 ffca 	bl	80086f0 <HAL_PCD_DataInStageCallback>
 800475c:	f416 4f80 	tst.w	r6, #16384	@ 0x4000
 8004760:	f47f ae85 	bne.w	800446e <HAL_PCD_EP_DB_Transmit+0x86>
 8004764:	682a      	ldr	r2, [r5, #0]
 8004766:	7821      	ldrb	r1, [r4, #0]
 8004768:	f832 3021 	ldrh.w	r3, [r2, r1, lsl #2]
 800476c:	b29b      	uxth	r3, r3
 800476e:	f423 43e0 	bic.w	r3, r3, #28672	@ 0x7000
 8004772:	f023 0370 	bic.w	r3, r3, #112	@ 0x70
 8004776:	f443 4340 	orr.w	r3, r3, #49152	@ 0xc000
 800477a:	f043 0380 	orr.w	r3, r3, #128	@ 0x80
 800477e:	f822 3021 	strh.w	r3, [r2, r1, lsl #2]
 8004782:	e674      	b.n	800446e <HAL_PCD_EP_DB_Transmit+0x86>
 8004784:	2b01      	cmp	r3, #1
 8004786:	d1c8      	bne.n	800471a <HAL_PCD_EP_DB_Transmit+0x332>
 8004788:	682a      	ldr	r2, [r5, #0]
 800478a:	f8b2 3050 	ldrh.w	r3, [r2, #80]	@ 0x50
 800478e:	fa12 f383 	uxtah	r3, r2, r3
 8004792:	4403      	add	r3, r0
 8004794:	2200      	movs	r2, #0
 8004796:	f8a3 2402 	strh.w	r2, [r3, #1026]	@ 0x402
 800479a:	e7be      	b.n	800471a <HAL_PCD_EP_DB_Transmit+0x332>
 800479c:	2b01      	cmp	r3, #1
 800479e:	d1d6      	bne.n	800474e <HAL_PCD_EP_DB_Transmit+0x366>
 80047a0:	f8b2 3050 	ldrh.w	r3, [r2, #80]	@ 0x50
 80047a4:	fa12 f383 	uxtah	r3, r2, r3
 80047a8:	7822      	ldrb	r2, [r4, #0]
 80047aa:	eb03 03c2 	add.w	r3, r3, r2, lsl #3
 80047ae:	2200      	movs	r2, #0
 80047b0:	f8a3 2406 	strh.w	r2, [r3, #1030]	@ 0x406
 80047b4:	e7cb      	b.n	800474e <HAL_PCD_EP_DB_Transmit+0x366>
 80047b6:	682a      	ldr	r2, [r5, #0]
 80047b8:	7821      	ldrb	r1, [r4, #0]
 80047ba:	f832 3021 	ldrh.w	r3, [r2, r1, lsl #2]
 80047be:	b29b      	uxth	r3, r3
 80047c0:	f423 43e0 	bic.w	r3, r3, #28672	@ 0x7000
 80047c4:	f023 0340 	bic.w	r3, r3, #64	@ 0x40
 80047c8:	f083 0320 	eor.w	r3, r3, #32
 80047cc:	f443 4300 	orr.w	r3, r3, #32768	@ 0x8000
 80047d0:	f043 0380 	orr.w	r3, r3, #128	@ 0x80
 80047d4:	f822 3021 	strh.w	r3, [r2, r1, lsl #2]
 80047d8:	e7bc      	b.n	8004754 <HAL_PCD_EP_DB_Transmit+0x36c>
 80047da:	b921      	cbnz	r1, 80047e6 <HAL_PCD_EP_DB_Transmit+0x3fe>
 80047dc:	2300      	movs	r3, #0
 80047de:	f884 3024 	strb.w	r3, [r4, #36]	@ 0x24
 80047e2:	4613      	mov	r3, r2
 80047e4:	e75f      	b.n	80046a6 <HAL_PCD_EP_DB_Transmit+0x2be>
 80047e6:	2300      	movs	r3, #0
 80047e8:	6223      	str	r3, [r4, #32]
 80047ea:	f884 3024 	strb.w	r3, [r4, #36]	@ 0x24
 80047ee:	460b      	mov	r3, r1
 80047f0:	e759      	b.n	80046a6 <HAL_PCD_EP_DB_Transmit+0x2be>
 80047f2:	2b3e      	cmp	r3, #62	@ 0x3e
 80047f4:	d80d      	bhi.n	8004812 <HAL_PCD_EP_DB_Transmit+0x42a>
 80047f6:	0859      	lsrs	r1, r3, #1
 80047f8:	f013 0f01 	tst.w	r3, #1
 80047fc:	d000      	beq.n	8004800 <HAL_PCD_EP_DB_Transmit+0x418>
 80047fe:	3101      	adds	r1, #1
 8004800:	f8b2 0406 	ldrh.w	r0, [r2, #1030]	@ 0x406
 8004804:	b280      	uxth	r0, r0
 8004806:	0289      	lsls	r1, r1, #10
 8004808:	b289      	uxth	r1, r1
 800480a:	4301      	orrs	r1, r0
 800480c:	f8a2 1406 	strh.w	r1, [r2, #1030]	@ 0x406
 8004810:	e011      	b.n	8004836 <HAL_PCD_EP_DB_Transmit+0x44e>
 8004812:	0958      	lsrs	r0, r3, #5
 8004814:	f013 0f1f 	tst.w	r3, #31
 8004818:	d100      	bne.n	800481c <HAL_PCD_EP_DB_Transmit+0x434>
 800481a:	3801      	subs	r0, #1
 800481c:	f8b2 1406 	ldrh.w	r1, [r2, #1030]	@ 0x406
 8004820:	b289      	uxth	r1, r1
 8004822:	0280      	lsls	r0, r0, #10
 8004824:	b280      	uxth	r0, r0
 8004826:	4301      	orrs	r1, r0
 8004828:	f441 4100 	orr.w	r1, r1, #32768	@ 0x8000
 800482c:	f8a2 1406 	strh.w	r1, [r2, #1030]	@ 0x406
 8004830:	e001      	b.n	8004836 <HAL_PCD_EP_DB_Transmit+0x44e>
 8004832:	2a01      	cmp	r2, #1
 8004834:	d006      	beq.n	8004844 <HAL_PCD_EP_DB_Transmit+0x45c>
 8004836:	b29b      	uxth	r3, r3
 8004838:	8962      	ldrh	r2, [r4, #10]
 800483a:	6961      	ldr	r1, [r4, #20]
 800483c:	6828      	ldr	r0, [r5, #0]
 800483e:	f003 f8da 	bl	80079f6 <USB_WritePMA>
 8004842:	e603      	b.n	800444c <HAL_PCD_EP_DB_Transmit+0x64>
 8004844:	f8b1 2050 	ldrh.w	r2, [r1, #80]	@ 0x50
 8004848:	fa11 f282 	uxtah	r2, r1, r2
 800484c:	7821      	ldrb	r1, [r4, #0]
 800484e:	eb02 02c1 	add.w	r2, r2, r1, lsl #3
 8004852:	b299      	uxth	r1, r3
 8004854:	f8a2 1406 	strh.w	r1, [r2, #1030]	@ 0x406
 8004858:	e7ed      	b.n	8004836 <HAL_PCD_EP_DB_Transmit+0x44e>

0800485a <PCD_EP_ISR_Handler>:
 800485a:	e92d 41f0 	stmdb	sp!, {r4, r5, r6, r7, r8, lr}
 800485e:	4605      	mov	r5, r0
 8004860:	6828      	ldr	r0, [r5, #0]
 8004862:	f8b0 3044 	ldrh.w	r3, [r0, #68]	@ 0x44
 8004866:	f413 4f00 	tst.w	r3, #32768	@ 0x8000
 800486a:	f000 8255 	beq.w	8004d18 <PCD_EP_ISR_Handler+0x4be>
 800486e:	f8b0 4044 	ldrh.w	r4, [r0, #68]	@ 0x44
 8004872:	b2a3      	uxth	r3, r4
 8004874:	f014 040f 	ands.w	r4, r4, #15
 8004878:	f040 809f 	bne.w	80049ba <PCD_EP_ISR_Handler+0x160>
 800487c:	f013 0f10 	tst.w	r3, #16
 8004880:	d04a      	beq.n	8004918 <PCD_EP_ISR_Handler+0xbe>
 8004882:	8803      	ldrh	r3, [r0, #0]
 8004884:	b29a      	uxth	r2, r3
 8004886:	f413 6f00 	tst.w	r3, #2048	@ 0x800
 800488a:	d175      	bne.n	8004978 <PCD_EP_ISR_Handler+0x11e>
 800488c:	f412 4f00 	tst.w	r2, #32768	@ 0x8000
 8004890:	d0e6      	beq.n	8004860 <PCD_EP_ISR_Handler+0x6>
 8004892:	8803      	ldrh	r3, [r0, #0]
 8004894:	f023 0370 	bic.w	r3, r3, #112	@ 0x70
 8004898:	051b      	lsls	r3, r3, #20
 800489a:	0d1b      	lsrs	r3, r3, #20
 800489c:	f043 0380 	orr.w	r3, r3, #128	@ 0x80
 80048a0:	8003      	strh	r3, [r0, #0]
 80048a2:	6828      	ldr	r0, [r5, #0]
 80048a4:	f8b0 3050 	ldrh.w	r3, [r0, #80]	@ 0x50
 80048a8:	f895 2150 	ldrb.w	r2, [r5, #336]	@ 0x150
 80048ac:	00d2      	lsls	r2, r2, #3
 80048ae:	fa12 f383 	uxtah	r3, r2, r3
 80048b2:	4403      	add	r3, r0
 80048b4:	f8b3 3406 	ldrh.w	r3, [r3, #1030]	@ 0x406
 80048b8:	f3c3 0309 	ubfx	r3, r3, #0, #10
 80048bc:	f8c5 316c 	str.w	r3, [r5, #364]	@ 0x16c
 80048c0:	b18b      	cbz	r3, 80048e6 <PCD_EP_ISR_Handler+0x8c>
 80048c2:	f8d5 1164 	ldr.w	r1, [r5, #356]	@ 0x164
 80048c6:	b171      	cbz	r1, 80048e6 <PCD_EP_ISR_Handler+0x8c>
 80048c8:	f8b5 2156 	ldrh.w	r2, [r5, #342]	@ 0x156
 80048cc:	f003 fb6a 	bl	8007fa4 <USB_ReadPMA>
 80048d0:	f8d5 3164 	ldr.w	r3, [r5, #356]	@ 0x164
 80048d4:	f8d5 216c 	ldr.w	r2, [r5, #364]	@ 0x16c
 80048d8:	4413      	add	r3, r2
 80048da:	f8c5 3164 	str.w	r3, [r5, #356]	@ 0x164
 80048de:	2100      	movs	r1, #0
 80048e0:	4628      	mov	r0, r5
 80048e2:	f003 fef9 	bl	80086d8 <HAL_PCD_DataOutStageCallback>
 80048e6:	682a      	ldr	r2, [r5, #0]
 80048e8:	8813      	ldrh	r3, [r2, #0]
 80048ea:	b299      	uxth	r1, r3
 80048ec:	f413 6f00 	tst.w	r3, #2048	@ 0x800
 80048f0:	d1b6      	bne.n	8004860 <PCD_EP_ISR_Handler+0x6>
 80048f2:	f401 5140 	and.w	r1, r1, #12288	@ 0x3000
 80048f6:	f5b1 5f40 	cmp.w	r1, #12288	@ 0x3000
 80048fa:	d0b1      	beq.n	8004860 <PCD_EP_ISR_Handler+0x6>
 80048fc:	8813      	ldrh	r3, [r2, #0]
 80048fe:	b29b      	uxth	r3, r3
 8004900:	f423 4380 	bic.w	r3, r3, #16384	@ 0x4000
 8004904:	f023 0370 	bic.w	r3, r3, #112	@ 0x70
 8004908:	f483 5340 	eor.w	r3, r3, #12288	@ 0x3000
 800490c:	f443 4300 	orr.w	r3, r3, #32768	@ 0x8000
 8004910:	f043 0380 	orr.w	r3, r3, #128	@ 0x80
 8004914:	8013      	strh	r3, [r2, #0]
 8004916:	e7a3      	b.n	8004860 <PCD_EP_ISR_Handler+0x6>
 8004918:	8803      	ldrh	r3, [r0, #0]
 800491a:	b29b      	uxth	r3, r3
 800491c:	f423 43e1 	bic.w	r3, r3, #28800	@ 0x7080
 8004920:	f023 0370 	bic.w	r3, r3, #112	@ 0x70
 8004924:	ea6f 4343 	mvn.w	r3, r3, lsl #17
 8004928:	ea6f 4353 	mvn.w	r3, r3, lsr #17
 800492c:	b29b      	uxth	r3, r3
 800492e:	8003      	strh	r3, [r0, #0]
 8004930:	6829      	ldr	r1, [r5, #0]
 8004932:	f8b1 3050 	ldrh.w	r3, [r1, #80]	@ 0x50
 8004936:	7c2a      	ldrb	r2, [r5, #16]
 8004938:	00d2      	lsls	r2, r2, #3
 800493a:	fa12 f383 	uxtah	r3, r2, r3
 800493e:	440b      	add	r3, r1
 8004940:	f8b3 3402 	ldrh.w	r3, [r3, #1026]	@ 0x402
 8004944:	f3c3 0309 	ubfx	r3, r3, #0, #10
 8004948:	62eb      	str	r3, [r5, #44]	@ 0x2c
 800494a:	6a6a      	ldr	r2, [r5, #36]	@ 0x24
 800494c:	441a      	add	r2, r3
 800494e:	626a      	str	r2, [r5, #36]	@ 0x24
 8004950:	2100      	movs	r1, #0
 8004952:	4628      	mov	r0, r5
 8004954:	f003 fecc 	bl	80086f0 <HAL_PCD_DataInStageCallback>
 8004958:	7b6b      	ldrb	r3, [r5, #13]
 800495a:	2b00      	cmp	r3, #0
 800495c:	d080      	beq.n	8004860 <PCD_EP_ISR_Handler+0x6>
 800495e:	6aab      	ldr	r3, [r5, #40]	@ 0x28
 8004960:	2b00      	cmp	r3, #0
 8004962:	f47f af7d 	bne.w	8004860 <PCD_EP_ISR_Handler+0x6>
 8004966:	7b6b      	ldrb	r3, [r5, #13]
 8004968:	682a      	ldr	r2, [r5, #0]
 800496a:	f043 0380 	orr.w	r3, r3, #128	@ 0x80
 800496e:	f8a2 304c 	strh.w	r3, [r2, #76]	@ 0x4c
 8004972:	2300      	movs	r3, #0
 8004974:	736b      	strb	r3, [r5, #13]
 8004976:	e773      	b.n	8004860 <PCD_EP_ISR_Handler+0x6>
 8004978:	f8b0 3050 	ldrh.w	r3, [r0, #80]	@ 0x50
 800497c:	f895 2150 	ldrb.w	r2, [r5, #336]	@ 0x150
 8004980:	00d2      	lsls	r2, r2, #3
 8004982:	fa12 f383 	uxtah	r3, r2, r3
 8004986:	4403      	add	r3, r0
 8004988:	f8b3 3406 	ldrh.w	r3, [r3, #1030]	@ 0x406
 800498c:	f3c3 0309 	ubfx	r3, r3, #0, #10
 8004990:	f8c5 316c 	str.w	r3, [r5, #364]	@ 0x16c
 8004994:	f8b5 2156 	ldrh.w	r2, [r5, #342]	@ 0x156
 8004998:	f505 7126 	add.w	r1, r5, #664	@ 0x298
 800499c:	f003 fb02 	bl	8007fa4 <USB_ReadPMA>
 80049a0:	682a      	ldr	r2, [r5, #0]
 80049a2:	8813      	ldrh	r3, [r2, #0]
 80049a4:	f023 0370 	bic.w	r3, r3, #112	@ 0x70
 80049a8:	051b      	lsls	r3, r3, #20
 80049aa:	0d1b      	lsrs	r3, r3, #20
 80049ac:	f043 0380 	orr.w	r3, r3, #128	@ 0x80
 80049b0:	8013      	strh	r3, [r2, #0]
 80049b2:	4628      	mov	r0, r5
 80049b4:	f003 fe88 	bl	80086c8 <HAL_PCD_SetupStageCallback>
 80049b8:	e752      	b.n	8004860 <PCD_EP_ISR_Handler+0x6>
 80049ba:	f830 3024 	ldrh.w	r3, [r0, r4, lsl #2]
 80049be:	b29e      	uxth	r6, r3
 80049c0:	f413 4f00 	tst.w	r3, #32768	@ 0x8000
 80049c4:	d14e      	bne.n	8004a64 <PCD_EP_ISR_Handler+0x20a>
 80049c6:	f016 0f80 	tst.w	r6, #128	@ 0x80
 80049ca:	f43f af49 	beq.w	8004860 <PCD_EP_ISR_Handler+0x6>
 80049ce:	eb04 0184 	add.w	r1, r4, r4, lsl #2
 80049d2:	00c9      	lsls	r1, r1, #3
 80049d4:	3110      	adds	r1, #16
 80049d6:	4429      	add	r1, r5
 80049d8:	682a      	ldr	r2, [r5, #0]
 80049da:	f832 3024 	ldrh.w	r3, [r2, r4, lsl #2]
 80049de:	b29b      	uxth	r3, r3
 80049e0:	f423 43e1 	bic.w	r3, r3, #28800	@ 0x7080
 80049e4:	f023 0370 	bic.w	r3, r3, #112	@ 0x70
 80049e8:	ea6f 4343 	mvn.w	r3, r3, lsl #17
 80049ec:	ea6f 4353 	mvn.w	r3, r3, lsr #17
 80049f0:	b29b      	uxth	r3, r3
 80049f2:	f822 3024 	strh.w	r3, [r2, r4, lsl #2]
 80049f6:	eb04 0384 	add.w	r3, r4, r4, lsl #2
 80049fa:	eb05 03c3 	add.w	r3, r5, r3, lsl #3
 80049fe:	7cdb      	ldrb	r3, [r3, #19]
 8004a00:	2b01      	cmp	r3, #1
 8004a02:	f000 80e9 	beq.w	8004bd8 <PCD_EP_ISR_Handler+0x37e>
 8004a06:	f416 7f80 	tst.w	r6, #256	@ 0x100
 8004a0a:	f040 8180 	bne.w	8004d0e <PCD_EP_ISR_Handler+0x4b4>
 8004a0e:	6828      	ldr	r0, [r5, #0]
 8004a10:	f8b0 3050 	ldrh.w	r3, [r0, #80]	@ 0x50
 8004a14:	eb04 0284 	add.w	r2, r4, r4, lsl #2
 8004a18:	eb05 02c2 	add.w	r2, r5, r2, lsl #3
 8004a1c:	7c16      	ldrb	r6, [r2, #16]
 8004a1e:	00f2      	lsls	r2, r6, #3
 8004a20:	fa12 f383 	uxtah	r3, r2, r3
 8004a24:	4403      	add	r3, r0
 8004a26:	f8b3 3402 	ldrh.w	r3, [r3, #1026]	@ 0x402
 8004a2a:	f3c3 0309 	ubfx	r3, r3, #0, #10
 8004a2e:	1c62      	adds	r2, r4, #1
 8004a30:	eb02 0282 	add.w	r2, r2, r2, lsl #2
 8004a34:	f855 2032 	ldr.w	r2, [r5, r2, lsl #3]
 8004a38:	429a      	cmp	r2, r3
 8004a3a:	f240 814b 	bls.w	8004cd4 <PCD_EP_ISR_Handler+0x47a>
 8004a3e:	1c67      	adds	r7, r4, #1
 8004a40:	eb07 0787 	add.w	r7, r7, r7, lsl #2
 8004a44:	1ad2      	subs	r2, r2, r3
 8004a46:	f845 2037 	str.w	r2, [r5, r7, lsl #3]
 8004a4a:	1c62      	adds	r2, r4, #1
 8004a4c:	eb02 0282 	add.w	r2, r2, r2, lsl #2
 8004a50:	f855 2032 	ldr.w	r2, [r5, r2, lsl #3]
 8004a54:	2a00      	cmp	r2, #0
 8004a56:	f040 8144 	bne.w	8004ce2 <PCD_EP_ISR_Handler+0x488>
 8004a5a:	4631      	mov	r1, r6
 8004a5c:	4628      	mov	r0, r5
 8004a5e:	f003 fe47 	bl	80086f0 <HAL_PCD_DataInStageCallback>
 8004a62:	e6fd      	b.n	8004860 <PCD_EP_ISR_Handler+0x6>
 8004a64:	f830 3024 	ldrh.w	r3, [r0, r4, lsl #2]
 8004a68:	f023 0370 	bic.w	r3, r3, #112	@ 0x70
 8004a6c:	051b      	lsls	r3, r3, #20
 8004a6e:	0d1b      	lsrs	r3, r3, #20
 8004a70:	f043 0380 	orr.w	r3, r3, #128	@ 0x80
 8004a74:	f820 3024 	strh.w	r3, [r0, r4, lsl #2]
 8004a78:	eb04 0184 	add.w	r1, r4, r4, lsl #2
 8004a7c:	00c9      	lsls	r1, r1, #3
 8004a7e:	f501 71a8 	add.w	r1, r1, #336	@ 0x150
 8004a82:	eb05 0801 	add.w	r8, r5, r1
 8004a86:	eb04 0384 	add.w	r3, r4, r4, lsl #2
 8004a8a:	eb05 03c3 	add.w	r3, r5, r3, lsl #3
 8004a8e:	f893 315c 	ldrb.w	r3, [r3, #348]	@ 0x15c
 8004a92:	2b00      	cmp	r3, #0
 8004a94:	d140      	bne.n	8004b18 <PCD_EP_ISR_Handler+0x2be>
 8004a96:	6828      	ldr	r0, [r5, #0]
 8004a98:	f8b0 3050 	ldrh.w	r3, [r0, #80]	@ 0x50
 8004a9c:	eb04 0284 	add.w	r2, r4, r4, lsl #2
 8004aa0:	eb05 02c2 	add.w	r2, r5, r2, lsl #3
 8004aa4:	f892 2150 	ldrb.w	r2, [r2, #336]	@ 0x150
 8004aa8:	00d2      	lsls	r2, r2, #3
 8004aaa:	fa12 f383 	uxtah	r3, r2, r3
 8004aae:	4403      	add	r3, r0
 8004ab0:	f8b3 7406 	ldrh.w	r7, [r3, #1030]	@ 0x406
 8004ab4:	f3c7 0709 	ubfx	r7, r7, #0, #10
 8004ab8:	bb17      	cbnz	r7, 8004b00 <PCD_EP_ISR_Handler+0x2a6>
 8004aba:	eb04 0384 	add.w	r3, r4, r4, lsl #2
 8004abe:	eb05 03c3 	add.w	r3, r5, r3, lsl #3
 8004ac2:	f8d3 216c 	ldr.w	r2, [r3, #364]	@ 0x16c
 8004ac6:	443a      	add	r2, r7
 8004ac8:	f8c3 216c 	str.w	r2, [r3, #364]	@ 0x16c
 8004acc:	f8d3 2164 	ldr.w	r2, [r3, #356]	@ 0x164
 8004ad0:	443a      	add	r2, r7
 8004ad2:	f8c3 2164 	str.w	r2, [r3, #356]	@ 0x164
 8004ad6:	f8d3 3168 	ldr.w	r3, [r3, #360]	@ 0x168
 8004ada:	b13b      	cbz	r3, 8004aec <PCD_EP_ISR_Handler+0x292>
 8004adc:	eb04 0384 	add.w	r3, r4, r4, lsl #2
 8004ae0:	eb05 03c3 	add.w	r3, r5, r3, lsl #3
 8004ae4:	f8d3 3160 	ldr.w	r3, [r3, #352]	@ 0x160
 8004ae8:	429f      	cmp	r7, r3
 8004aea:	d270      	bcs.n	8004bce <PCD_EP_ISR_Handler+0x374>
 8004aec:	eb04 0384 	add.w	r3, r4, r4, lsl #2
 8004af0:	eb05 03c3 	add.w	r3, r5, r3, lsl #3
 8004af4:	f893 1150 	ldrb.w	r1, [r3, #336]	@ 0x150
 8004af8:	4628      	mov	r0, r5
 8004afa:	f003 fded 	bl	80086d8 <HAL_PCD_DataOutStageCallback>
 8004afe:	e762      	b.n	80049c6 <PCD_EP_ISR_Handler+0x16c>
 8004b00:	eb04 0184 	add.w	r1, r4, r4, lsl #2
 8004b04:	eb05 01c1 	add.w	r1, r5, r1, lsl #3
 8004b08:	463b      	mov	r3, r7
 8004b0a:	f8b1 2156 	ldrh.w	r2, [r1, #342]	@ 0x156
 8004b0e:	f8d1 1164 	ldr.w	r1, [r1, #356]	@ 0x164
 8004b12:	f003 fa47 	bl	8007fa4 <USB_ReadPMA>
 8004b16:	e7d0      	b.n	8004aba <PCD_EP_ISR_Handler+0x260>
 8004b18:	eb04 0384 	add.w	r3, r4, r4, lsl #2
 8004b1c:	eb05 03c3 	add.w	r3, r5, r3, lsl #3
 8004b20:	f893 3153 	ldrb.w	r3, [r3, #339]	@ 0x153
 8004b24:	2b02      	cmp	r3, #2
 8004b26:	d033      	beq.n	8004b90 <PCD_EP_ISR_Handler+0x336>
 8004b28:	6829      	ldr	r1, [r5, #0]
 8004b2a:	eb04 0284 	add.w	r2, r4, r4, lsl #2
 8004b2e:	eb05 02c2 	add.w	r2, r5, r2, lsl #3
 8004b32:	f892 0150 	ldrb.w	r0, [r2, #336]	@ 0x150
 8004b36:	f831 3020 	ldrh.w	r3, [r1, r0, lsl #2]
 8004b3a:	b29b      	uxth	r3, r3
 8004b3c:	f423 43e0 	bic.w	r3, r3, #28672	@ 0x7000
 8004b40:	f023 0370 	bic.w	r3, r3, #112	@ 0x70
 8004b44:	f443 4300 	orr.w	r3, r3, #32768	@ 0x8000
 8004b48:	f043 03c0 	orr.w	r3, r3, #192	@ 0xc0
 8004b4c:	f821 3020 	strh.w	r3, [r1, r0, lsl #2]
 8004b50:	6828      	ldr	r0, [r5, #0]
 8004b52:	f892 3150 	ldrb.w	r3, [r2, #336]	@ 0x150
 8004b56:	f830 2023 	ldrh.w	r2, [r0, r3, lsl #2]
 8004b5a:	f412 4f80 	tst.w	r2, #16384	@ 0x4000
 8004b5e:	d01e      	beq.n	8004b9e <PCD_EP_ISR_Handler+0x344>
 8004b60:	f8b0 2050 	ldrh.w	r2, [r0, #80]	@ 0x50
 8004b64:	00db      	lsls	r3, r3, #3
 8004b66:	fa13 f382 	uxtah	r3, r3, r2
 8004b6a:	4403      	add	r3, r0
 8004b6c:	f8b3 7402 	ldrh.w	r7, [r3, #1026]	@ 0x402
 8004b70:	f3c7 0709 	ubfx	r7, r7, #0, #10
 8004b74:	2f00      	cmp	r7, #0
 8004b76:	d0a0      	beq.n	8004aba <PCD_EP_ISR_Handler+0x260>
 8004b78:	eb04 0184 	add.w	r1, r4, r4, lsl #2
 8004b7c:	eb05 01c1 	add.w	r1, r5, r1, lsl #3
 8004b80:	463b      	mov	r3, r7
 8004b82:	f8b1 2158 	ldrh.w	r2, [r1, #344]	@ 0x158
 8004b86:	f8d1 1164 	ldr.w	r1, [r1, #356]	@ 0x164
 8004b8a:	f003 fa0b 	bl	8007fa4 <USB_ReadPMA>
 8004b8e:	e794      	b.n	8004aba <PCD_EP_ISR_Handler+0x260>
 8004b90:	4632      	mov	r2, r6
 8004b92:	4641      	mov	r1, r8
 8004b94:	4628      	mov	r0, r5
 8004b96:	f7ff fb0b 	bl	80041b0 <HAL_PCD_EP_DB_Receive>
 8004b9a:	4607      	mov	r7, r0
 8004b9c:	e78d      	b.n	8004aba <PCD_EP_ISR_Handler+0x260>
 8004b9e:	f8b0 2050 	ldrh.w	r2, [r0, #80]	@ 0x50
 8004ba2:	00db      	lsls	r3, r3, #3
 8004ba4:	fa13 f382 	uxtah	r3, r3, r2
 8004ba8:	4403      	add	r3, r0
 8004baa:	f8b3 7406 	ldrh.w	r7, [r3, #1030]	@ 0x406
 8004bae:	f3c7 0709 	ubfx	r7, r7, #0, #10
 8004bb2:	2f00      	cmp	r7, #0
 8004bb4:	d081      	beq.n	8004aba <PCD_EP_ISR_Handler+0x260>
 8004bb6:	eb04 0184 	add.w	r1, r4, r4, lsl #2
 8004bba:	eb05 01c1 	add.w	r1, r5, r1, lsl #3
 8004bbe:	463b      	mov	r3, r7
 8004bc0:	f8b1 215a 	ldrh.w	r2, [r1, #346]	@ 0x15a
 8004bc4:	f8d1 1164 	ldr.w	r1, [r1, #356]	@ 0x164
 8004bc8:	f003 f9ec 	bl	8007fa4 <USB_ReadPMA>
 8004bcc:	e775      	b.n	8004aba <PCD_EP_ISR_Handler+0x260>
 8004bce:	4641      	mov	r1, r8
 8004bd0:	6828      	ldr	r0, [r5, #0]
 8004bd2:	f002 ff22 	bl	8007a1a <USB_EPStartXfer>
 8004bd6:	e6f6      	b.n	80049c6 <PCD_EP_ISR_Handler+0x16c>
 8004bd8:	1c63      	adds	r3, r4, #1
 8004bda:	eb03 0383 	add.w	r3, r3, r3, lsl #2
 8004bde:	00db      	lsls	r3, r3, #3
 8004be0:	2200      	movs	r2, #0
 8004be2:	50ea      	str	r2, [r5, r3]
 8004be4:	eb04 0384 	add.w	r3, r4, r4, lsl #2
 8004be8:	eb05 03c3 	add.w	r3, r5, r3, lsl #3
 8004bec:	7f1b      	ldrb	r3, [r3, #28]
 8004bee:	b31b      	cbz	r3, 8004c38 <PCD_EP_ISR_Handler+0x3de>
 8004bf0:	f016 0f40 	tst.w	r6, #64	@ 0x40
 8004bf4:	d03b      	beq.n	8004c6e <PCD_EP_ISR_Handler+0x414>
 8004bf6:	eb04 0384 	add.w	r3, r4, r4, lsl #2
 8004bfa:	eb05 03c3 	add.w	r3, r5, r3, lsl #3
 8004bfe:	7c5b      	ldrb	r3, [r3, #17]
 8004c00:	bb1b      	cbnz	r3, 8004c4a <PCD_EP_ISR_Handler+0x3f0>
 8004c02:	682a      	ldr	r2, [r5, #0]
 8004c04:	f8b2 3050 	ldrh.w	r3, [r2, #80]	@ 0x50
 8004c08:	fa12 f383 	uxtah	r3, r2, r3
 8004c0c:	eb04 0284 	add.w	r2, r4, r4, lsl #2
 8004c10:	eb05 02c2 	add.w	r2, r5, r2, lsl #3
 8004c14:	7c12      	ldrb	r2, [r2, #16]
 8004c16:	eb03 03c2 	add.w	r3, r3, r2, lsl #3
 8004c1a:	f8b3 2402 	ldrh.w	r2, [r3, #1026]	@ 0x402
 8004c1e:	f3c2 0209 	ubfx	r2, r2, #0, #10
 8004c22:	f8a3 2402 	strh.w	r2, [r3, #1026]	@ 0x402
 8004c26:	f8b3 2402 	ldrh.w	r2, [r3, #1026]	@ 0x402
 8004c2a:	ea6f 4242 	mvn.w	r2, r2, lsl #17
 8004c2e:	ea6f 4252 	mvn.w	r2, r2, lsr #17
 8004c32:	b292      	uxth	r2, r2
 8004c34:	f8a3 2402 	strh.w	r2, [r3, #1026]	@ 0x402
 8004c38:	eb04 0484 	add.w	r4, r4, r4, lsl #2
 8004c3c:	eb05 04c4 	add.w	r4, r5, r4, lsl #3
 8004c40:	7c21      	ldrb	r1, [r4, #16]
 8004c42:	4628      	mov	r0, r5
 8004c44:	f003 fd54 	bl	80086f0 <HAL_PCD_DataInStageCallback>
 8004c48:	e60a      	b.n	8004860 <PCD_EP_ISR_Handler+0x6>
 8004c4a:	2b01      	cmp	r3, #1
 8004c4c:	d1f4      	bne.n	8004c38 <PCD_EP_ISR_Handler+0x3de>
 8004c4e:	682a      	ldr	r2, [r5, #0]
 8004c50:	f8b2 3050 	ldrh.w	r3, [r2, #80]	@ 0x50
 8004c54:	fa12 f383 	uxtah	r3, r2, r3
 8004c58:	eb04 0284 	add.w	r2, r4, r4, lsl #2
 8004c5c:	eb05 02c2 	add.w	r2, r5, r2, lsl #3
 8004c60:	7c12      	ldrb	r2, [r2, #16]
 8004c62:	eb03 03c2 	add.w	r3, r3, r2, lsl #3
 8004c66:	2200      	movs	r2, #0
 8004c68:	f8a3 2402 	strh.w	r2, [r3, #1026]	@ 0x402
 8004c6c:	e7e4      	b.n	8004c38 <PCD_EP_ISR_Handler+0x3de>
 8004c6e:	682a      	ldr	r2, [r5, #0]
 8004c70:	eb04 0384 	add.w	r3, r4, r4, lsl #2
 8004c74:	eb05 03c3 	add.w	r3, r5, r3, lsl #3
 8004c78:	7c5b      	ldrb	r3, [r3, #17]
 8004c7a:	b9d3      	cbnz	r3, 8004cb2 <PCD_EP_ISR_Handler+0x458>
 8004c7c:	f8b2 3050 	ldrh.w	r3, [r2, #80]	@ 0x50
 8004c80:	fa12 f383 	uxtah	r3, r2, r3
 8004c84:	eb04 0284 	add.w	r2, r4, r4, lsl #2
 8004c88:	eb05 02c2 	add.w	r2, r5, r2, lsl #3
 8004c8c:	7c12      	ldrb	r2, [r2, #16]
 8004c8e:	eb03 03c2 	add.w	r3, r3, r2, lsl #3
 8004c92:	f8b3 2406 	ldrh.w	r2, [r3, #1030]	@ 0x406
 8004c96:	f3c2 0209 	ubfx	r2, r2, #0, #10
 8004c9a:	f8a3 2406 	strh.w	r2, [r3, #1030]	@ 0x406
 8004c9e:	f8b3 2406 	ldrh.w	r2, [r3, #1030]	@ 0x406
 8004ca2:	ea6f 4242 	mvn.w	r2, r2, lsl #17
 8004ca6:	ea6f 4252 	mvn.w	r2, r2, lsr #17
 8004caa:	b292      	uxth	r2, r2
 8004cac:	f8a3 2406 	strh.w	r2, [r3, #1030]	@ 0x406
 8004cb0:	e7c2      	b.n	8004c38 <PCD_EP_ISR_Handler+0x3de>
 8004cb2:	2b01      	cmp	r3, #1
 8004cb4:	d1c0      	bne.n	8004c38 <PCD_EP_ISR_Handler+0x3de>
 8004cb6:	f8b2 3050 	ldrh.w	r3, [r2, #80]	@ 0x50
 8004cba:	fa12 f383 	uxtah	r3, r2, r3
 8004cbe:	eb04 0284 	add.w	r2, r4, r4, lsl #2
 8004cc2:	eb05 02c2 	add.w	r2, r5, r2, lsl #3
 8004cc6:	7c12      	ldrb	r2, [r2, #16]
 8004cc8:	eb03 03c2 	add.w	r3, r3, r2, lsl #3
 8004ccc:	2200      	movs	r2, #0
 8004cce:	f8a3 2406 	strh.w	r2, [r3, #1030]	@ 0x406
 8004cd2:	e7b1      	b.n	8004c38 <PCD_EP_ISR_Handler+0x3de>
 8004cd4:	1c62      	adds	r2, r4, #1
 8004cd6:	eb02 0282 	add.w	r2, r2, r2, lsl #2
 8004cda:	00d2      	lsls	r2, r2, #3
 8004cdc:	2700      	movs	r7, #0
 8004cde:	50af      	str	r7, [r5, r2]
 8004ce0:	e6b3      	b.n	8004a4a <PCD_EP_ISR_Handler+0x1f0>
 8004ce2:	eb04 0284 	add.w	r2, r4, r4, lsl #2
 8004ce6:	eb05 02c2 	add.w	r2, r5, r2, lsl #3
 8004cea:	6a56      	ldr	r6, [r2, #36]	@ 0x24
 8004cec:	441e      	add	r6, r3
 8004cee:	6256      	str	r6, [r2, #36]	@ 0x24
 8004cf0:	3401      	adds	r4, #1
 8004cf2:	eb04 0284 	add.w	r2, r4, r4, lsl #2
 8004cf6:	eb05 02c2 	add.w	r2, r5, r2, lsl #3
 8004cfa:	6852      	ldr	r2, [r2, #4]
 8004cfc:	eb04 0484 	add.w	r4, r4, r4, lsl #2
 8004d00:	eb05 04c4 	add.w	r4, r5, r4, lsl #3
 8004d04:	4413      	add	r3, r2
 8004d06:	6063      	str	r3, [r4, #4]
 8004d08:	f002 fe87 	bl	8007a1a <USB_EPStartXfer>
 8004d0c:	e5a8      	b.n	8004860 <PCD_EP_ISR_Handler+0x6>
 8004d0e:	4632      	mov	r2, r6
 8004d10:	4628      	mov	r0, r5
 8004d12:	f7ff fb69 	bl	80043e8 <HAL_PCD_EP_DB_Transmit>
 8004d16:	e5a3      	b.n	8004860 <PCD_EP_ISR_Handler+0x6>
 8004d18:	2000      	movs	r0, #0
 8004d1a:	e8bd 81f0 	ldmia.w	sp!, {r4, r5, r6, r7, r8, pc}

08004d1e <HAL_PCD_SetAddress>:
 8004d1e:	f890 3290 	ldrb.w	r3, [r0, #656]	@ 0x290
 8004d22:	2b01      	cmp	r3, #1
 8004d24:	d00c      	beq.n	8004d40 <HAL_PCD_SetAddress+0x22>
 8004d26:	b510      	push	{r4, lr}
 8004d28:	4604      	mov	r4, r0
 8004d2a:	2301      	movs	r3, #1
 8004d2c:	f880 3290 	strb.w	r3, [r0, #656]	@ 0x290
 8004d30:	7341      	strb	r1, [r0, #13]
 8004d32:	6800      	ldr	r0, [r0, #0]
 8004d34:	f002 fe40 	bl	80079b8 <USB_SetDevAddress>
 8004d38:	2000      	movs	r0, #0
 8004d3a:	f884 0290 	strb.w	r0, [r4, #656]	@ 0x290
 8004d3e:	bd10      	pop	{r4, pc}
 8004d40:	2002      	movs	r0, #2
 8004d42:	4770      	bx	lr

08004d44 <HAL_PCD_IRQHandler>:
 8004d44:	b510      	push	{r4, lr}
 8004d46:	4604      	mov	r4, r0
 8004d48:	6800      	ldr	r0, [r0, #0]
 8004d4a:	f002 fe4e 	bl	80079ea <USB_ReadInterrupts>
 8004d4e:	f410 4f00 	tst.w	r0, #32768	@ 0x8000
 8004d52:	d123      	bne.n	8004d9c <HAL_PCD_IRQHandler+0x58>
 8004d54:	f410 6f80 	tst.w	r0, #1024	@ 0x400
 8004d58:	d124      	bne.n	8004da4 <HAL_PCD_IRQHandler+0x60>
 8004d5a:	f410 4f80 	tst.w	r0, #16384	@ 0x4000
 8004d5e:	d132      	bne.n	8004dc6 <HAL_PCD_IRQHandler+0x82>
 8004d60:	f410 5f00 	tst.w	r0, #8192	@ 0x2000
 8004d64:	d139      	bne.n	8004dda <HAL_PCD_IRQHandler+0x96>
 8004d66:	f410 5f80 	tst.w	r0, #4096	@ 0x1000
 8004d6a:	d140      	bne.n	8004dee <HAL_PCD_IRQHandler+0xaa>
 8004d6c:	f410 6f00 	tst.w	r0, #2048	@ 0x800
 8004d70:	d167      	bne.n	8004e42 <HAL_PCD_IRQHandler+0xfe>
 8004d72:	f010 0f80 	tst.w	r0, #128	@ 0x80
 8004d76:	f040 8081 	bne.w	8004e7c <HAL_PCD_IRQHandler+0x138>
 8004d7a:	f410 7f00 	tst.w	r0, #512	@ 0x200
 8004d7e:	f040 80ad 	bne.w	8004edc <HAL_PCD_IRQHandler+0x198>
 8004d82:	f410 7f80 	tst.w	r0, #256	@ 0x100
 8004d86:	d027      	beq.n	8004dd8 <HAL_PCD_IRQHandler+0x94>
 8004d88:	6822      	ldr	r2, [r4, #0]
 8004d8a:	f8b2 3044 	ldrh.w	r3, [r2, #68]	@ 0x44
 8004d8e:	b29b      	uxth	r3, r3
 8004d90:	f423 7380 	bic.w	r3, r3, #256	@ 0x100
 8004d94:	b29b      	uxth	r3, r3
 8004d96:	f8a2 3044 	strh.w	r3, [r2, #68]	@ 0x44
 8004d9a:	e01d      	b.n	8004dd8 <HAL_PCD_IRQHandler+0x94>
 8004d9c:	4620      	mov	r0, r4
 8004d9e:	f7ff fd5c 	bl	800485a <PCD_EP_ISR_Handler>
 8004da2:	e019      	b.n	8004dd8 <HAL_PCD_IRQHandler+0x94>
 8004da4:	6822      	ldr	r2, [r4, #0]
 8004da6:	f8b2 3044 	ldrh.w	r3, [r2, #68]	@ 0x44
 8004daa:	b29b      	uxth	r3, r3
 8004dac:	f423 6380 	bic.w	r3, r3, #1024	@ 0x400
 8004db0:	b29b      	uxth	r3, r3
 8004db2:	f8a2 3044 	strh.w	r3, [r2, #68]	@ 0x44
 8004db6:	4620      	mov	r0, r4
 8004db8:	f003 fcab 	bl	8008712 <HAL_PCD_ResetCallback>
 8004dbc:	2100      	movs	r1, #0
 8004dbe:	4620      	mov	r0, r4
 8004dc0:	f7ff ffad 	bl	8004d1e <HAL_PCD_SetAddress>
 8004dc4:	e008      	b.n	8004dd8 <HAL_PCD_IRQHandler+0x94>
 8004dc6:	6822      	ldr	r2, [r4, #0]
 8004dc8:	f8b2 3044 	ldrh.w	r3, [r2, #68]	@ 0x44
 8004dcc:	b29b      	uxth	r3, r3
 8004dce:	f423 4380 	bic.w	r3, r3, #16384	@ 0x4000
 8004dd2:	b29b      	uxth	r3, r3
 8004dd4:	f8a2 3044 	strh.w	r3, [r2, #68]	@ 0x44
 8004dd8:	bd10      	pop	{r4, pc}
 8004dda:	6822      	ldr	r2, [r4, #0]
 8004ddc:	f8b2 3044 	ldrh.w	r3, [r2, #68]	@ 0x44
 8004de0:	b29b      	uxth	r3, r3
 8004de2:	f423 5300 	bic.w	r3, r3, #8192	@ 0x2000
 8004de6:	b29b      	uxth	r3, r3
 8004de8:	f8a2 3044 	strh.w	r3, [r2, #68]	@ 0x44
 8004dec:	e7f4      	b.n	8004dd8 <HAL_PCD_IRQHandler+0x94>
 8004dee:	6822      	ldr	r2, [r4, #0]
 8004df0:	f8b2 3040 	ldrh.w	r3, [r2, #64]	@ 0x40
 8004df4:	b29b      	uxth	r3, r3
 8004df6:	f023 0304 	bic.w	r3, r3, #4
 8004dfa:	b29b      	uxth	r3, r3
 8004dfc:	f8a2 3040 	strh.w	r3, [r2, #64]	@ 0x40
 8004e00:	6822      	ldr	r2, [r4, #0]
 8004e02:	f8b2 3040 	ldrh.w	r3, [r2, #64]	@ 0x40
 8004e06:	b29b      	uxth	r3, r3
 8004e08:	f023 0308 	bic.w	r3, r3, #8
 8004e0c:	b29b      	uxth	r3, r3
 8004e0e:	f8a2 3040 	strh.w	r3, [r2, #64]	@ 0x40
 8004e12:	f894 32c8 	ldrb.w	r3, [r4, #712]	@ 0x2c8
 8004e16:	2b01      	cmp	r3, #1
 8004e18:	d00c      	beq.n	8004e34 <HAL_PCD_IRQHandler+0xf0>
 8004e1a:	4620      	mov	r0, r4
 8004e1c:	f003 fc9c 	bl	8008758 <HAL_PCD_ResumeCallback>
 8004e20:	6822      	ldr	r2, [r4, #0]
 8004e22:	f8b2 3044 	ldrh.w	r3, [r2, #68]	@ 0x44
 8004e26:	b29b      	uxth	r3, r3
 8004e28:	f423 5380 	bic.w	r3, r3, #4096	@ 0x1000
 8004e2c:	b29b      	uxth	r3, r3
 8004e2e:	f8a2 3044 	strh.w	r3, [r2, #68]	@ 0x44
 8004e32:	e7d1      	b.n	8004dd8 <HAL_PCD_IRQHandler+0x94>
 8004e34:	2100      	movs	r1, #0
 8004e36:	f884 12c8 	strb.w	r1, [r4, #712]	@ 0x2c8
 8004e3a:	4620      	mov	r0, r4
 8004e3c:	f003 fd7e 	bl	800893c <HAL_PCDEx_LPM_Callback>
 8004e40:	e7eb      	b.n	8004e1a <HAL_PCD_IRQHandler+0xd6>
 8004e42:	6822      	ldr	r2, [r4, #0]
 8004e44:	f8b2 3040 	ldrh.w	r3, [r2, #64]	@ 0x40
 8004e48:	b29b      	uxth	r3, r3
 8004e4a:	f043 0308 	orr.w	r3, r3, #8
 8004e4e:	f8a2 3040 	strh.w	r3, [r2, #64]	@ 0x40
 8004e52:	6822      	ldr	r2, [r4, #0]
 8004e54:	f8b2 3044 	ldrh.w	r3, [r2, #68]	@ 0x44
 8004e58:	b29b      	uxth	r3, r3
 8004e5a:	f423 6300 	bic.w	r3, r3, #2048	@ 0x800
 8004e5e:	b29b      	uxth	r3, r3
 8004e60:	f8a2 3044 	strh.w	r3, [r2, #68]	@ 0x44
 8004e64:	6822      	ldr	r2, [r4, #0]
 8004e66:	f8b2 3040 	ldrh.w	r3, [r2, #64]	@ 0x40
 8004e6a:	b29b      	uxth	r3, r3
 8004e6c:	f043 0304 	orr.w	r3, r3, #4
 8004e70:	f8a2 3040 	strh.w	r3, [r2, #64]	@ 0x40
 8004e74:	4620      	mov	r0, r4
 8004e76:	f003 fc5f 	bl	8008738 <HAL_PCD_SuspendCallback>
 8004e7a:	e7ad      	b.n	8004dd8 <HAL_PCD_IRQHandler+0x94>
 8004e7c:	6822      	ldr	r2, [r4, #0]
 8004e7e:	f8b2 3044 	ldrh.w	r3, [r2, #68]	@ 0x44
 8004e82:	b29b      	uxth	r3, r3
 8004e84:	f023 0380 	bic.w	r3, r3, #128	@ 0x80
 8004e88:	b29b      	uxth	r3, r3
 8004e8a:	f8a2 3044 	strh.w	r3, [r2, #68]	@ 0x44
 8004e8e:	f894 32c8 	ldrb.w	r3, [r4, #712]	@ 0x2c8
 8004e92:	b9fb      	cbnz	r3, 8004ed4 <HAL_PCD_IRQHandler+0x190>
 8004e94:	6822      	ldr	r2, [r4, #0]
 8004e96:	f8b2 3040 	ldrh.w	r3, [r2, #64]	@ 0x40
 8004e9a:	b29b      	uxth	r3, r3
 8004e9c:	f043 0304 	orr.w	r3, r3, #4
 8004ea0:	f8a2 3040 	strh.w	r3, [r2, #64]	@ 0x40
 8004ea4:	6822      	ldr	r2, [r4, #0]
 8004ea6:	f8b2 3040 	ldrh.w	r3, [r2, #64]	@ 0x40
 8004eaa:	b29b      	uxth	r3, r3
 8004eac:	f043 0308 	orr.w	r3, r3, #8
 8004eb0:	f8a2 3040 	strh.w	r3, [r2, #64]	@ 0x40
 8004eb4:	2101      	movs	r1, #1
 8004eb6:	f884 12c8 	strb.w	r1, [r4, #712]	@ 0x2c8
 8004eba:	6823      	ldr	r3, [r4, #0]
 8004ebc:	f8b3 3054 	ldrh.w	r3, [r3, #84]	@ 0x54
 8004ec0:	f3c3 038d 	ubfx	r3, r3, #2, #14
 8004ec4:	f003 033c 	and.w	r3, r3, #60	@ 0x3c
 8004ec8:	f8c4 32cc 	str.w	r3, [r4, #716]	@ 0x2cc
 8004ecc:	4620      	mov	r0, r4
 8004ece:	f003 fd35 	bl	800893c <HAL_PCDEx_LPM_Callback>
 8004ed2:	e781      	b.n	8004dd8 <HAL_PCD_IRQHandler+0x94>
 8004ed4:	4620      	mov	r0, r4
 8004ed6:	f003 fc2f 	bl	8008738 <HAL_PCD_SuspendCallback>
 8004eda:	e77d      	b.n	8004dd8 <HAL_PCD_IRQHandler+0x94>
 8004edc:	6822      	ldr	r2, [r4, #0]
 8004ede:	f8b2 3044 	ldrh.w	r3, [r2, #68]	@ 0x44
 8004ee2:	b29b      	uxth	r3, r3
 8004ee4:	f423 7300 	bic.w	r3, r3, #512	@ 0x200
 8004ee8:	b29b      	uxth	r3, r3
 8004eea:	f8a2 3044 	strh.w	r3, [r2, #68]	@ 0x44
 8004eee:	4620      	mov	r0, r4
 8004ef0:	f003 fc09 	bl	8008706 <HAL_PCD_SOFCallback>
 8004ef4:	e770      	b.n	8004dd8 <HAL_PCD_IRQHandler+0x94>

08004ef6 <HAL_PCD_EP_Open>:
 8004ef6:	b510      	push	{r4, lr}
 8004ef8:	4604      	mov	r4, r0
 8004efa:	4608      	mov	r0, r1
 8004efc:	f011 0f80 	tst.w	r1, #128	@ 0x80
 8004f00:	d127      	bne.n	8004f52 <HAL_PCD_EP_Open+0x5c>
 8004f02:	f001 0c07 	and.w	ip, r1, #7
 8004f06:	eb0c 018c 	add.w	r1, ip, ip, lsl #2
 8004f0a:	00c9      	lsls	r1, r1, #3
 8004f0c:	f501 7ea8 	add.w	lr, r1, #336	@ 0x150
 8004f10:	eb04 010e 	add.w	r1, r4, lr
 8004f14:	eb0c 0c8c 	add.w	ip, ip, ip, lsl #2
 8004f18:	eb04 0ccc 	add.w	ip, r4, ip, lsl #3
 8004f1c:	f04f 0e00 	mov.w	lr, #0
 8004f20:	f88c e151 	strb.w	lr, [ip, #337]	@ 0x151
 8004f24:	f000 0007 	and.w	r0, r0, #7
 8004f28:	7008      	strb	r0, [r1, #0]
 8004f2a:	f3c2 020a 	ubfx	r2, r2, #0, #11
 8004f2e:	610a      	str	r2, [r1, #16]
 8004f30:	70cb      	strb	r3, [r1, #3]
 8004f32:	2b02      	cmp	r3, #2
 8004f34:	d01d      	beq.n	8004f72 <HAL_PCD_EP_Open+0x7c>
 8004f36:	f894 3290 	ldrb.w	r3, [r4, #656]	@ 0x290
 8004f3a:	2b01      	cmp	r3, #1
 8004f3c:	d01c      	beq.n	8004f78 <HAL_PCD_EP_Open+0x82>
 8004f3e:	2301      	movs	r3, #1
 8004f40:	f884 3290 	strb.w	r3, [r4, #656]	@ 0x290
 8004f44:	6820      	ldr	r0, [r4, #0]
 8004f46:	f002 f94c 	bl	80071e2 <USB_ActivateEndpoint>
 8004f4a:	2000      	movs	r0, #0
 8004f4c:	f884 0290 	strb.w	r0, [r4, #656]	@ 0x290
 8004f50:	bd10      	pop	{r4, pc}
 8004f52:	f001 0c07 	and.w	ip, r1, #7
 8004f56:	eb0c 018c 	add.w	r1, ip, ip, lsl #2
 8004f5a:	00c9      	lsls	r1, r1, #3
 8004f5c:	3110      	adds	r1, #16
 8004f5e:	4421      	add	r1, r4
 8004f60:	eb0c 0c8c 	add.w	ip, ip, ip, lsl #2
 8004f64:	eb04 0ccc 	add.w	ip, r4, ip, lsl #3
 8004f68:	f04f 0e01 	mov.w	lr, #1
 8004f6c:	f88c e011 	strb.w	lr, [ip, #17]
 8004f70:	e7d8      	b.n	8004f24 <HAL_PCD_EP_Open+0x2e>
 8004f72:	2300      	movs	r3, #0
 8004f74:	710b      	strb	r3, [r1, #4]
 8004f76:	e7de      	b.n	8004f36 <HAL_PCD_EP_Open+0x40>
 8004f78:	2002      	movs	r0, #2
 8004f7a:	e7e9      	b.n	8004f50 <HAL_PCD_EP_Open+0x5a>

08004f7c <HAL_PCD_EP_Close>:
 8004f7c:	b510      	push	{r4, lr}
 8004f7e:	4604      	mov	r4, r0
 8004f80:	460a      	mov	r2, r1
 8004f82:	f011 0f80 	tst.w	r1, #128	@ 0x80
 8004f86:	d11f      	bne.n	8004fc8 <HAL_PCD_EP_Close+0x4c>
 8004f88:	f001 0007 	and.w	r0, r1, #7
 8004f8c:	eb00 0380 	add.w	r3, r0, r0, lsl #2
 8004f90:	00db      	lsls	r3, r3, #3
 8004f92:	f503 73a8 	add.w	r3, r3, #336	@ 0x150
 8004f96:	18e1      	adds	r1, r4, r3
 8004f98:	eb00 0080 	add.w	r0, r0, r0, lsl #2
 8004f9c:	eb04 00c0 	add.w	r0, r4, r0, lsl #3
 8004fa0:	2300      	movs	r3, #0
 8004fa2:	f880 3151 	strb.w	r3, [r0, #337]	@ 0x151
 8004fa6:	f002 0207 	and.w	r2, r2, #7
 8004faa:	700a      	strb	r2, [r1, #0]
 8004fac:	f894 3290 	ldrb.w	r3, [r4, #656]	@ 0x290
 8004fb0:	2b01      	cmp	r3, #1
 8004fb2:	d017      	beq.n	8004fe4 <HAL_PCD_EP_Close+0x68>
 8004fb4:	2301      	movs	r3, #1
 8004fb6:	f884 3290 	strb.w	r3, [r4, #656]	@ 0x290
 8004fba:	6820      	ldr	r0, [r4, #0]
 8004fbc:	f002 fb9e 	bl	80076fc <USB_DeactivateEndpoint>
 8004fc0:	2000      	movs	r0, #0
 8004fc2:	f884 0290 	strb.w	r0, [r4, #656]	@ 0x290
 8004fc6:	bd10      	pop	{r4, pc}
 8004fc8:	f001 0007 	and.w	r0, r1, #7
 8004fcc:	eb00 0380 	add.w	r3, r0, r0, lsl #2
 8004fd0:	00db      	lsls	r3, r3, #3
 8004fd2:	3310      	adds	r3, #16
 8004fd4:	18e1      	adds	r1, r4, r3
 8004fd6:	eb00 0080 	add.w	r0, r0, r0, lsl #2
 8004fda:	eb04 00c0 	add.w	r0, r4, r0, lsl #3
 8004fde:	2301      	movs	r3, #1
 8004fe0:	7443      	strb	r3, [r0, #17]
 8004fe2:	e7e0      	b.n	8004fa6 <HAL_PCD_EP_Close+0x2a>
 8004fe4:	2002      	movs	r0, #2
 8004fe6:	e7ee      	b.n	8004fc6 <HAL_PCD_EP_Close+0x4a>

08004fe8 <HAL_PCD_EP_Receive>:
 8004fe8:	b510      	push	{r4, lr}
 8004fea:	f001 0c07 	and.w	ip, r1, #7
 8004fee:	eb0c 018c 	add.w	r1, ip, ip, lsl #2
 8004ff2:	00c9      	lsls	r1, r1, #3
 8004ff4:	f501 71a8 	add.w	r1, r1, #336	@ 0x150
 8004ff8:	eb0c 0e8c 	add.w	lr, ip, ip, lsl #2
 8004ffc:	eb00 0ece 	add.w	lr, r0, lr, lsl #3
 8005000:	f8ce 2164 	str.w	r2, [lr, #356]	@ 0x164
 8005004:	f8ce 3168 	str.w	r3, [lr, #360]	@ 0x168
 8005008:	2400      	movs	r4, #0
 800500a:	f8ce 416c 	str.w	r4, [lr, #364]	@ 0x16c
 800500e:	f88e 4151 	strb.w	r4, [lr, #337]	@ 0x151
 8005012:	f88e c150 	strb.w	ip, [lr, #336]	@ 0x150
 8005016:	4401      	add	r1, r0
 8005018:	6800      	ldr	r0, [r0, #0]
 800501a:	f002 fcfe 	bl	8007a1a <USB_EPStartXfer>
 800501e:	4620      	mov	r0, r4
 8005020:	bd10      	pop	{r4, pc}

08005022 <HAL_PCD_EP_GetRxCount>:
 8005022:	f001 0107 	and.w	r1, r1, #7
 8005026:	eb01 0181 	add.w	r1, r1, r1, lsl #2
 800502a:	eb00 00c1 	add.w	r0, r0, r1, lsl #3
 800502e:	f8d0 016c 	ldr.w	r0, [r0, #364]	@ 0x16c
 8005032:	4770      	bx	lr

08005034 <HAL_PCD_EP_Transmit>:
 8005034:	b538      	push	{r3, r4, r5, lr}
 8005036:	f001 0c07 	and.w	ip, r1, #7
 800503a:	eb0c 018c 	add.w	r1, ip, ip, lsl #2
 800503e:	00c9      	lsls	r1, r1, #3
 8005040:	3110      	adds	r1, #16
 8005042:	eb0c 0e8c 	add.w	lr, ip, ip, lsl #2
 8005046:	eb00 0ece 	add.w	lr, r0, lr, lsl #3
 800504a:	f8ce 2024 	str.w	r2, [lr, #36]	@ 0x24
 800504e:	f10c 0201 	add.w	r2, ip, #1
 8005052:	eb02 0482 	add.w	r4, r2, r2, lsl #2
 8005056:	f840 3034 	str.w	r3, [r0, r4, lsl #3]
 800505a:	2501      	movs	r5, #1
 800505c:	f88e 5034 	strb.w	r5, [lr, #52]	@ 0x34
 8005060:	f8ce 3030 	str.w	r3, [lr, #48]	@ 0x30
 8005064:	eb00 02c4 	add.w	r2, r0, r4, lsl #3
 8005068:	2400      	movs	r4, #0
 800506a:	6054      	str	r4, [r2, #4]
 800506c:	f88e 5011 	strb.w	r5, [lr, #17]
 8005070:	f88e c010 	strb.w	ip, [lr, #16]
 8005074:	4401      	add	r1, r0
 8005076:	6800      	ldr	r0, [r0, #0]
 8005078:	f002 fccf 	bl	8007a1a <USB_EPStartXfer>
 800507c:	4620      	mov	r0, r4
 800507e:	bd38      	pop	{r3, r4, r5, pc}

08005080 <HAL_PCD_EP_SetStall>:
 8005080:	b538      	push	{r3, r4, r5, lr}
 8005082:	f001 0507 	and.w	r5, r1, #7
 8005086:	7902      	ldrb	r2, [r0, #4]
 8005088:	42aa      	cmp	r2, r5
 800508a:	d335      	bcc.n	80050f8 <HAL_PCD_EP_SetStall+0x78>
 800508c:	4604      	mov	r4, r0
 800508e:	460b      	mov	r3, r1
 8005090:	f011 0f80 	tst.w	r1, #128	@ 0x80
 8005094:	d11e      	bne.n	80050d4 <HAL_PCD_EP_SetStall+0x54>
 8005096:	eb01 0181 	add.w	r1, r1, r1, lsl #2
 800509a:	00c9      	lsls	r1, r1, #3
 800509c:	f501 71a8 	add.w	r1, r1, #336	@ 0x150
 80050a0:	4401      	add	r1, r0
 80050a2:	eb03 0383 	add.w	r3, r3, r3, lsl #2
 80050a6:	eb00 03c3 	add.w	r3, r0, r3, lsl #3
 80050aa:	2200      	movs	r2, #0
 80050ac:	f883 2151 	strb.w	r2, [r3, #337]	@ 0x151
 80050b0:	2301      	movs	r3, #1
 80050b2:	708b      	strb	r3, [r1, #2]
 80050b4:	700d      	strb	r5, [r1, #0]
 80050b6:	f894 3290 	ldrb.w	r3, [r4, #656]	@ 0x290
 80050ba:	2b01      	cmp	r3, #1
 80050bc:	d01e      	beq.n	80050fc <HAL_PCD_EP_SetStall+0x7c>
 80050be:	2301      	movs	r3, #1
 80050c0:	f884 3290 	strb.w	r3, [r4, #656]	@ 0x290
 80050c4:	6820      	ldr	r0, [r4, #0]
 80050c6:	f002 fc04 	bl	80078d2 <USB_EPSetStall>
 80050ca:	b17d      	cbz	r5, 80050ec <HAL_PCD_EP_SetStall+0x6c>
 80050cc:	2000      	movs	r0, #0
 80050ce:	f884 0290 	strb.w	r0, [r4, #656]	@ 0x290
 80050d2:	bd38      	pop	{r3, r4, r5, pc}
 80050d4:	eb05 0185 	add.w	r1, r5, r5, lsl #2
 80050d8:	00c9      	lsls	r1, r1, #3
 80050da:	3110      	adds	r1, #16
 80050dc:	4401      	add	r1, r0
 80050de:	eb05 0385 	add.w	r3, r5, r5, lsl #2
 80050e2:	eb00 03c3 	add.w	r3, r0, r3, lsl #3
 80050e6:	2201      	movs	r2, #1
 80050e8:	745a      	strb	r2, [r3, #17]
 80050ea:	e7e1      	b.n	80050b0 <HAL_PCD_EP_SetStall+0x30>
 80050ec:	f504 7126 	add.w	r1, r4, #664	@ 0x298
 80050f0:	6820      	ldr	r0, [r4, #0]
 80050f2:	f002 fc7e 	bl	80079f2 <USB_EP0_OutStart>
 80050f6:	e7e9      	b.n	80050cc <HAL_PCD_EP_SetStall+0x4c>
 80050f8:	2001      	movs	r0, #1
 80050fa:	e7ea      	b.n	80050d2 <HAL_PCD_EP_SetStall+0x52>
 80050fc:	2002      	movs	r0, #2
 80050fe:	e7e8      	b.n	80050d2 <HAL_PCD_EP_SetStall+0x52>

08005100 <HAL_PCD_EP_ClrStall>:
 8005100:	460b      	mov	r3, r1
 8005102:	7901      	ldrb	r1, [r0, #4]
 8005104:	f003 020f 	and.w	r2, r3, #15
 8005108:	4291      	cmp	r1, r2
 800510a:	d334      	bcc.n	8005176 <HAL_PCD_EP_ClrStall+0x76>
 800510c:	b510      	push	{r4, lr}
 800510e:	4604      	mov	r4, r0
 8005110:	f013 0f80 	tst.w	r3, #128	@ 0x80
 8005114:	d121      	bne.n	800515a <HAL_PCD_EP_ClrStall+0x5a>
 8005116:	f003 0207 	and.w	r2, r3, #7
 800511a:	eb02 0182 	add.w	r1, r2, r2, lsl #2
 800511e:	00c9      	lsls	r1, r1, #3
 8005120:	f501 71a8 	add.w	r1, r1, #336	@ 0x150
 8005124:	4401      	add	r1, r0
 8005126:	eb02 0282 	add.w	r2, r2, r2, lsl #2
 800512a:	eb00 02c2 	add.w	r2, r0, r2, lsl #3
 800512e:	2000      	movs	r0, #0
 8005130:	f882 0151 	strb.w	r0, [r2, #337]	@ 0x151
 8005134:	2200      	movs	r2, #0
 8005136:	708a      	strb	r2, [r1, #2]
 8005138:	f003 0307 	and.w	r3, r3, #7
 800513c:	700b      	strb	r3, [r1, #0]
 800513e:	f894 3290 	ldrb.w	r3, [r4, #656]	@ 0x290
 8005142:	2b01      	cmp	r3, #1
 8005144:	d019      	beq.n	800517a <HAL_PCD_EP_ClrStall+0x7a>
 8005146:	2301      	movs	r3, #1
 8005148:	f884 3290 	strb.w	r3, [r4, #656]	@ 0x290
 800514c:	6820      	ldr	r0, [r4, #0]
 800514e:	f002 fbe5 	bl	800791c <USB_EPClearStall>
 8005152:	2000      	movs	r0, #0
 8005154:	f884 0290 	strb.w	r0, [r4, #656]	@ 0x290
 8005158:	bd10      	pop	{r4, pc}
 800515a:	f003 0207 	and.w	r2, r3, #7
 800515e:	eb02 0182 	add.w	r1, r2, r2, lsl #2
 8005162:	00c9      	lsls	r1, r1, #3
 8005164:	3110      	adds	r1, #16
 8005166:	4401      	add	r1, r0
 8005168:	eb02 0282 	add.w	r2, r2, r2, lsl #2
 800516c:	eb00 02c2 	add.w	r2, r0, r2, lsl #3
 8005170:	2001      	movs	r0, #1
 8005172:	7450      	strb	r0, [r2, #17]
 8005174:	e7de      	b.n	8005134 <HAL_PCD_EP_ClrStall+0x34>
 8005176:	2001      	movs	r0, #1
 8005178:	4770      	bx	lr
 800517a:	2002      	movs	r0, #2
 800517c:	e7ec      	b.n	8005158 <HAL_PCD_EP_ClrStall+0x58>

0800517e <HAL_PCDEx_PMAConfig>:
 800517e:	f011 0f80 	tst.w	r1, #128	@ 0x80
 8005182:	d00b      	beq.n	800519c <HAL_PCDEx_PMAConfig+0x1e>
 8005184:	f001 0107 	and.w	r1, r1, #7
 8005188:	eb01 0181 	add.w	r1, r1, r1, lsl #2
 800518c:	00c9      	lsls	r1, r1, #3
 800518e:	3110      	adds	r1, #16
 8005190:	4408      	add	r0, r1
 8005192:	b952      	cbnz	r2, 80051aa <HAL_PCDEx_PMAConfig+0x2c>
 8005194:	7302      	strb	r2, [r0, #12]
 8005196:	80c3      	strh	r3, [r0, #6]
 8005198:	2000      	movs	r0, #0
 800519a:	4770      	bx	lr
 800519c:	eb01 0181 	add.w	r1, r1, r1, lsl #2
 80051a0:	00c9      	lsls	r1, r1, #3
 80051a2:	f501 71a8 	add.w	r1, r1, #336	@ 0x150
 80051a6:	4408      	add	r0, r1
 80051a8:	e7f3      	b.n	8005192 <HAL_PCDEx_PMAConfig+0x14>
 80051aa:	2201      	movs	r2, #1
 80051ac:	7302      	strb	r2, [r0, #12]
 80051ae:	8103      	strh	r3, [r0, #8]
 80051b0:	0c1b      	lsrs	r3, r3, #16
 80051b2:	8143      	strh	r3, [r0, #10]
 80051b4:	e7f0      	b.n	8005198 <HAL_PCDEx_PMAConfig+0x1a>

080051b6 <HAL_PCDEx_ActivateLPM>:
 80051b6:	4603      	mov	r3, r0
 80051b8:	6802      	ldr	r2, [r0, #0]
 80051ba:	2101      	movs	r1, #1
 80051bc:	f8c0 12d4 	str.w	r1, [r0, #724]	@ 0x2d4
 80051c0:	2000      	movs	r0, #0
 80051c2:	f883 02c8 	strb.w	r0, [r3, #712]	@ 0x2c8
 80051c6:	f8b2 3054 	ldrh.w	r3, [r2, #84]	@ 0x54
 80051ca:	b29b      	uxth	r3, r3
 80051cc:	430b      	orrs	r3, r1
 80051ce:	f8a2 3054 	strh.w	r3, [r2, #84]	@ 0x54
 80051d2:	f8b2 3054 	ldrh.w	r3, [r2, #84]	@ 0x54
 80051d6:	b29b      	uxth	r3, r3
 80051d8:	f043 0302 	orr.w	r3, r3, #2
 80051dc:	f8a2 3054 	strh.w	r3, [r2, #84]	@ 0x54
 80051e0:	4770      	bx	lr
	...

080051e4 <HAL_PWR_EnableBkUpAccess>:
 80051e4:	4a02      	ldr	r2, [pc, #8]	@ (80051f0 <HAL_PWR_EnableBkUpAccess+0xc>)
 80051e6:	6813      	ldr	r3, [r2, #0]
 80051e8:	f443 7380 	orr.w	r3, r3, #256	@ 0x100
 80051ec:	6013      	str	r3, [r2, #0]
 80051ee:	4770      	bx	lr
 80051f0:	40007000 	.word	0x40007000

080051f4 <HAL_PWREx_GetVoltageRange>:
 80051f4:	4b02      	ldr	r3, [pc, #8]	@ (8005200 <HAL_PWREx_GetVoltageRange+0xc>)
 80051f6:	6818      	ldr	r0, [r3, #0]
 80051f8:	f400 60c0 	and.w	r0, r0, #1536	@ 0x600
 80051fc:	4770      	bx	lr
 80051fe:	bf00      	nop
 8005200:	40007000 	.word	0x40007000

08005204 <HAL_PWREx_ControlVoltageScaling>:
 8005204:	f5b0 7f00 	cmp.w	r0, #512	@ 0x200
 8005208:	d00f      	beq.n	800522a <HAL_PWREx_ControlVoltageScaling+0x26>
 800520a:	4b1f      	ldr	r3, [pc, #124]	@ (8005288 <HAL_PWREx_ControlVoltageScaling+0x84>)
 800520c:	681b      	ldr	r3, [r3, #0]
 800520e:	f403 63c0 	and.w	r3, r3, #1536	@ 0x600
 8005212:	f5b3 6f80 	cmp.w	r3, #1024	@ 0x400
 8005216:	d034      	beq.n	8005282 <HAL_PWREx_ControlVoltageScaling+0x7e>
 8005218:	4a1b      	ldr	r2, [pc, #108]	@ (8005288 <HAL_PWREx_ControlVoltageScaling+0x84>)
 800521a:	6813      	ldr	r3, [r2, #0]
 800521c:	f423 63c0 	bic.w	r3, r3, #1536	@ 0x600
 8005220:	f443 6380 	orr.w	r3, r3, #1024	@ 0x400
 8005224:	6013      	str	r3, [r2, #0]
 8005226:	2000      	movs	r0, #0
 8005228:	4770      	bx	lr
 800522a:	4b17      	ldr	r3, [pc, #92]	@ (8005288 <HAL_PWREx_ControlVoltageScaling+0x84>)
 800522c:	681b      	ldr	r3, [r3, #0]
 800522e:	f403 63c0 	and.w	r3, r3, #1536	@ 0x600
 8005232:	f5b3 7f00 	cmp.w	r3, #512	@ 0x200
 8005236:	d020      	beq.n	800527a <HAL_PWREx_ControlVoltageScaling+0x76>
 8005238:	4a13      	ldr	r2, [pc, #76]	@ (8005288 <HAL_PWREx_ControlVoltageScaling+0x84>)
 800523a:	6813      	ldr	r3, [r2, #0]
 800523c:	f423 63c0 	bic.w	r3, r3, #1536	@ 0x600
 8005240:	f443 7300 	orr.w	r3, r3, #512	@ 0x200
 8005244:	6013      	str	r3, [r2, #0]
 8005246:	4b11      	ldr	r3, [pc, #68]	@ (800528c <HAL_PWREx_ControlVoltageScaling+0x88>)
 8005248:	681b      	ldr	r3, [r3, #0]
 800524a:	2232      	movs	r2, #50	@ 0x32
 800524c:	fb02 f303 	mul.w	r3, r2, r3
 8005250:	4a0f      	ldr	r2, [pc, #60]	@ (8005290 <HAL_PWREx_ControlVoltageScaling+0x8c>)
 8005252:	fba2 2303 	umull	r2, r3, r2, r3
 8005256:	0c9b      	lsrs	r3, r3, #18
 8005258:	3301      	adds	r3, #1
 800525a:	e000      	b.n	800525e <HAL_PWREx_ControlVoltageScaling+0x5a>
 800525c:	3b01      	subs	r3, #1
 800525e:	4a0a      	ldr	r2, [pc, #40]	@ (8005288 <HAL_PWREx_ControlVoltageScaling+0x84>)
 8005260:	6952      	ldr	r2, [r2, #20]
 8005262:	f412 6f80 	tst.w	r2, #1024	@ 0x400
 8005266:	d001      	beq.n	800526c <HAL_PWREx_ControlVoltageScaling+0x68>
 8005268:	2b00      	cmp	r3, #0
 800526a:	d1f7      	bne.n	800525c <HAL_PWREx_ControlVoltageScaling+0x58>
 800526c:	4b06      	ldr	r3, [pc, #24]	@ (8005288 <HAL_PWREx_ControlVoltageScaling+0x84>)
 800526e:	695b      	ldr	r3, [r3, #20]
 8005270:	f413 6f80 	tst.w	r3, #1024	@ 0x400
 8005274:	d103      	bne.n	800527e <HAL_PWREx_ControlVoltageScaling+0x7a>
 8005276:	2000      	movs	r0, #0
 8005278:	4770      	bx	lr
 800527a:	2000      	movs	r0, #0
 800527c:	4770      	bx	lr
 800527e:	2003      	movs	r0, #3
 8005280:	4770      	bx	lr
 8005282:	2000      	movs	r0, #0
 8005284:	4770      	bx	lr
 8005286:	bf00      	nop
 8005288:	40007000 	.word	0x40007000
 800528c:	200000c4 	.word	0x200000c4
 8005290:	431bde83 	.word	0x431bde83

08005294 <HAL_PWREx_EnableVddUSB>:
 8005294:	4a02      	ldr	r2, [pc, #8]	@ (80052a0 <HAL_PWREx_EnableVddUSB+0xc>)
 8005296:	6853      	ldr	r3, [r2, #4]
 8005298:	f443 6380 	orr.w	r3, r3, #1024	@ 0x400
 800529c:	6053      	str	r3, [r2, #4]
 800529e:	4770      	bx	lr
 80052a0:	40007000 	.word	0x40007000

080052a4 <HAL_PWREx_EnableLowPowerRunMode>:
 80052a4:	4a02      	ldr	r2, [pc, #8]	@ (80052b0 <HAL_PWREx_EnableLowPowerRunMode+0xc>)
 80052a6:	6813      	ldr	r3, [r2, #0]
 80052a8:	f443 4380 	orr.w	r3, r3, #16384	@ 0x4000
 80052ac:	6013      	str	r3, [r2, #0]
 80052ae:	4770      	bx	lr
 80052b0:	40007000 	.word	0x40007000

080052b4 <HAL_PWREx_EnterSTOP2Mode>:
 80052b4:	4a0c      	ldr	r2, [pc, #48]	@ (80052e8 <HAL_PWREx_EnterSTOP2Mode+0x34>)
 80052b6:	6813      	ldr	r3, [r2, #0]
 80052b8:	f023 0307 	bic.w	r3, r3, #7
 80052bc:	f043 0302 	orr.w	r3, r3, #2
 80052c0:	6013      	str	r3, [r2, #0]
 80052c2:	4a0a      	ldr	r2, [pc, #40]	@ (80052ec <HAL_PWREx_EnterSTOP2Mode+0x38>)
 80052c4:	6913      	ldr	r3, [r2, #16]
 80052c6:	f043 0304 	orr.w	r3, r3, #4
 80052ca:	6113      	str	r3, [r2, #16]
 80052cc:	2801      	cmp	r0, #1
 80052ce:	d008      	beq.n	80052e2 <HAL_PWREx_EnterSTOP2Mode+0x2e>
 80052d0:	bf40      	sev
 80052d2:	bf20      	wfe
 80052d4:	bf20      	wfe
 80052d6:	4a05      	ldr	r2, [pc, #20]	@ (80052ec <HAL_PWREx_EnterSTOP2Mode+0x38>)
 80052d8:	6913      	ldr	r3, [r2, #16]
 80052da:	f023 0304 	bic.w	r3, r3, #4
 80052de:	6113      	str	r3, [r2, #16]
 80052e0:	4770      	bx	lr
 80052e2:	bf30      	wfi
 80052e4:	e7f7      	b.n	80052d6 <HAL_PWREx_EnterSTOP2Mode+0x22>
 80052e6:	bf00      	nop
 80052e8:	40007000 	.word	0x40007000
 80052ec:	e000ed00 	.word	0xe000ed00

080052f0 <RCC_SetFlashLatencyFromMSIRange>:
 80052f0:	b530      	push	{r4, r5, lr}
 80052f2:	b083      	sub	sp, #12
 80052f4:	4604      	mov	r4, r0
 80052f6:	4b20      	ldr	r3, [pc, #128]	@ (8005378 <RCC_SetFlashLatencyFromMSIRange+0x88>)
 80052f8:	6d9b      	ldr	r3, [r3, #88]	@ 0x58
 80052fa:	f013 5f80 	tst.w	r3, #268435456	@ 0x10000000
 80052fe:	d00b      	beq.n	8005318 <RCC_SetFlashLatencyFromMSIRange+0x28>
 8005300:	f7ff ff78 	bl	80051f4 <HAL_PWREx_GetVoltageRange>
 8005304:	f5b0 7f00 	cmp.w	r0, #512	@ 0x200
 8005308:	d017      	beq.n	800533a <RCC_SetFlashLatencyFromMSIRange+0x4a>
 800530a:	2c80      	cmp	r4, #128	@ 0x80
 800530c:	d81f      	bhi.n	800534e <RCC_SetFlashLatencyFromMSIRange+0x5e>
 800530e:	d02d      	beq.n	800536c <RCC_SetFlashLatencyFromMSIRange+0x7c>
 8005310:	2c70      	cmp	r4, #112	@ 0x70
 8005312:	d02d      	beq.n	8005370 <RCC_SetFlashLatencyFromMSIRange+0x80>
 8005314:	2100      	movs	r1, #0
 8005316:	e01b      	b.n	8005350 <RCC_SetFlashLatencyFromMSIRange+0x60>
 8005318:	4d17      	ldr	r5, [pc, #92]	@ (8005378 <RCC_SetFlashLatencyFromMSIRange+0x88>)
 800531a:	6dab      	ldr	r3, [r5, #88]	@ 0x58
 800531c:	f043 5380 	orr.w	r3, r3, #268435456	@ 0x10000000
 8005320:	65ab      	str	r3, [r5, #88]	@ 0x58
 8005322:	6dab      	ldr	r3, [r5, #88]	@ 0x58
 8005324:	f003 5380 	and.w	r3, r3, #268435456	@ 0x10000000
 8005328:	9301      	str	r3, [sp, #4]
 800532a:	9b01      	ldr	r3, [sp, #4]
 800532c:	f7ff ff62 	bl	80051f4 <HAL_PWREx_GetVoltageRange>
 8005330:	6dab      	ldr	r3, [r5, #88]	@ 0x58
 8005332:	f023 5380 	bic.w	r3, r3, #268435456	@ 0x10000000
 8005336:	65ab      	str	r3, [r5, #88]	@ 0x58
 8005338:	e7e4      	b.n	8005304 <RCC_SetFlashLatencyFromMSIRange+0x14>
 800533a:	2c80      	cmp	r4, #128	@ 0x80
 800533c:	d903      	bls.n	8005346 <RCC_SetFlashLatencyFromMSIRange+0x56>
 800533e:	2ca0      	cmp	r4, #160	@ 0xa0
 8005340:	d903      	bls.n	800534a <RCC_SetFlashLatencyFromMSIRange+0x5a>
 8005342:	2102      	movs	r1, #2
 8005344:	e004      	b.n	8005350 <RCC_SetFlashLatencyFromMSIRange+0x60>
 8005346:	2100      	movs	r1, #0
 8005348:	e002      	b.n	8005350 <RCC_SetFlashLatencyFromMSIRange+0x60>
 800534a:	2101      	movs	r1, #1
 800534c:	e000      	b.n	8005350 <RCC_SetFlashLatencyFromMSIRange+0x60>
 800534e:	2103      	movs	r1, #3
 8005350:	4a0a      	ldr	r2, [pc, #40]	@ (800537c <RCC_SetFlashLatencyFromMSIRange+0x8c>)
 8005352:	6813      	ldr	r3, [r2, #0]
 8005354:	f023 0307 	bic.w	r3, r3, #7
 8005358:	430b      	orrs	r3, r1
 800535a:	6013      	str	r3, [r2, #0]
 800535c:	6813      	ldr	r3, [r2, #0]
 800535e:	f003 0307 	and.w	r3, r3, #7
 8005362:	428b      	cmp	r3, r1
 8005364:	d106      	bne.n	8005374 <RCC_SetFlashLatencyFromMSIRange+0x84>
 8005366:	2000      	movs	r0, #0
 8005368:	b003      	add	sp, #12
 800536a:	bd30      	pop	{r4, r5, pc}
 800536c:	2102      	movs	r1, #2
 800536e:	e7ef      	b.n	8005350 <RCC_SetFlashLatencyFromMSIRange+0x60>
 8005370:	2101      	movs	r1, #1
 8005372:	e7ed      	b.n	8005350 <RCC_SetFlashLatencyFromMSIRange+0x60>
 8005374:	2001      	movs	r0, #1
 8005376:	e7f7      	b.n	8005368 <RCC_SetFlashLatencyFromMSIRange+0x78>
 8005378:	40021000 	.word	0x40021000
 800537c:	40022000 	.word	0x40022000

08005380 <HAL_RCC_GetSysClockFreq>:
 8005380:	4a25      	ldr	r2, [pc, #148]	@ (8005418 <HAL_RCC_GetSysClockFreq+0x98>)
 8005382:	6893      	ldr	r3, [r2, #8]
 8005384:	68d2      	ldr	r2, [r2, #12]
 8005386:	f002 0203 	and.w	r2, r2, #3
 800538a:	f013 030c 	ands.w	r3, r3, #12
 800538e:	d009      	beq.n	80053a4 <HAL_RCC_GetSysClockFreq+0x24>
 8005390:	2b0c      	cmp	r3, #12
 8005392:	d005      	beq.n	80053a0 <HAL_RCC_GetSysClockFreq+0x20>
 8005394:	2b04      	cmp	r3, #4
 8005396:	d03b      	beq.n	8005410 <HAL_RCC_GetSysClockFreq+0x90>
 8005398:	2b08      	cmp	r3, #8
 800539a:	d03b      	beq.n	8005414 <HAL_RCC_GetSysClockFreq+0x94>
 800539c:	2000      	movs	r0, #0
 800539e:	e00f      	b.n	80053c0 <HAL_RCC_GetSysClockFreq+0x40>
 80053a0:	2a01      	cmp	r2, #1
 80053a2:	d1f7      	bne.n	8005394 <HAL_RCC_GetSysClockFreq+0x14>
 80053a4:	4a1c      	ldr	r2, [pc, #112]	@ (8005418 <HAL_RCC_GetSysClockFreq+0x98>)
 80053a6:	6812      	ldr	r2, [r2, #0]
 80053a8:	f012 0f08 	tst.w	r2, #8
 80053ac:	d10c      	bne.n	80053c8 <HAL_RCC_GetSysClockFreq+0x48>
 80053ae:	4a1a      	ldr	r2, [pc, #104]	@ (8005418 <HAL_RCC_GetSysClockFreq+0x98>)
 80053b0:	f8d2 2094 	ldr.w	r2, [r2, #148]	@ 0x94
 80053b4:	f3c2 2203 	ubfx	r2, r2, #8, #4
 80053b8:	4918      	ldr	r1, [pc, #96]	@ (800541c <HAL_RCC_GetSysClockFreq+0x9c>)
 80053ba:	f851 0022 	ldr.w	r0, [r1, r2, lsl #2]
 80053be:	b113      	cbz	r3, 80053c6 <HAL_RCC_GetSysClockFreq+0x46>
 80053c0:	2b0c      	cmp	r3, #12
 80053c2:	d006      	beq.n	80053d2 <HAL_RCC_GetSysClockFreq+0x52>
 80053c4:	2000      	movs	r0, #0
 80053c6:	4770      	bx	lr
 80053c8:	4a13      	ldr	r2, [pc, #76]	@ (8005418 <HAL_RCC_GetSysClockFreq+0x98>)
 80053ca:	6812      	ldr	r2, [r2, #0]
 80053cc:	f3c2 1203 	ubfx	r2, r2, #4, #4
 80053d0:	e7f2      	b.n	80053b8 <HAL_RCC_GetSysClockFreq+0x38>
 80053d2:	4b11      	ldr	r3, [pc, #68]	@ (8005418 <HAL_RCC_GetSysClockFreq+0x98>)
 80053d4:	68db      	ldr	r3, [r3, #12]
 80053d6:	f003 0303 	and.w	r3, r3, #3
 80053da:	2b02      	cmp	r3, #2
 80053dc:	d016      	beq.n	800540c <HAL_RCC_GetSysClockFreq+0x8c>
 80053de:	2b03      	cmp	r3, #3
 80053e0:	d100      	bne.n	80053e4 <HAL_RCC_GetSysClockFreq+0x64>
 80053e2:	480f      	ldr	r0, [pc, #60]	@ (8005420 <HAL_RCC_GetSysClockFreq+0xa0>)
 80053e4:	490c      	ldr	r1, [pc, #48]	@ (8005418 <HAL_RCC_GetSysClockFreq+0x98>)
 80053e6:	68ca      	ldr	r2, [r1, #12]
 80053e8:	f3c2 1202 	ubfx	r2, r2, #4, #3
 80053ec:	3201      	adds	r2, #1
 80053ee:	68cb      	ldr	r3, [r1, #12]
 80053f0:	f3c3 2306 	ubfx	r3, r3, #8, #7
 80053f4:	fb00 f303 	mul.w	r3, r0, r3
 80053f8:	fbb3 f3f2 	udiv	r3, r3, r2
 80053fc:	68c8      	ldr	r0, [r1, #12]
 80053fe:	f3c0 6041 	ubfx	r0, r0, #25, #2
 8005402:	3001      	adds	r0, #1
 8005404:	0040      	lsls	r0, r0, #1
 8005406:	fbb3 f0f0 	udiv	r0, r3, r0
 800540a:	4770      	bx	lr
 800540c:	4805      	ldr	r0, [pc, #20]	@ (8005424 <HAL_RCC_GetSysClockFreq+0xa4>)
 800540e:	e7e9      	b.n	80053e4 <HAL_RCC_GetSysClockFreq+0x64>
 8005410:	4804      	ldr	r0, [pc, #16]	@ (8005424 <HAL_RCC_GetSysClockFreq+0xa4>)
 8005412:	4770      	bx	lr
 8005414:	4802      	ldr	r0, [pc, #8]	@ (8005420 <HAL_RCC_GetSysClockFreq+0xa0>)
 8005416:	4770      	bx	lr
 8005418:	40021000 	.word	0x40021000
 800541c:	0800cdcc 	.word	0x0800cdcc
 8005420:	007a1200 	.word	0x007a1200
 8005424:	00f42400 	.word	0x00f42400

08005428 <HAL_RCC_OscConfig>:
 8005428:	2800      	cmp	r0, #0
 800542a:	f000 8353 	beq.w	8005ad4 <HAL_RCC_OscConfig+0x6ac>
 800542e:	b5f0      	push	{r4, r5, r6, r7, lr}
 8005430:	b083      	sub	sp, #12
 8005432:	4604      	mov	r4, r0
 8005434:	4b96      	ldr	r3, [pc, #600]	@ (8005690 <HAL_RCC_OscConfig+0x268>)
 8005436:	689d      	ldr	r5, [r3, #8]
 8005438:	f005 050c 	and.w	r5, r5, #12
 800543c:	68de      	ldr	r6, [r3, #12]
 800543e:	f006 0603 	and.w	r6, r6, #3
 8005442:	6803      	ldr	r3, [r0, #0]
 8005444:	f013 0f10 	tst.w	r3, #16
 8005448:	d05a      	beq.n	8005500 <HAL_RCC_OscConfig+0xd8>
 800544a:	b1e5      	cbz	r5, 8005486 <HAL_RCC_OscConfig+0x5e>
 800544c:	2d0c      	cmp	r5, #12
 800544e:	d018      	beq.n	8005482 <HAL_RCC_OscConfig+0x5a>
 8005450:	69e3      	ldr	r3, [r4, #28]
 8005452:	2b00      	cmp	r3, #0
 8005454:	f000 80bb 	beq.w	80055ce <HAL_RCC_OscConfig+0x1a6>
 8005458:	4a8d      	ldr	r2, [pc, #564]	@ (8005690 <HAL_RCC_OscConfig+0x268>)
 800545a:	6813      	ldr	r3, [r2, #0]
 800545c:	f043 0301 	orr.w	r3, r3, #1
 8005460:	6013      	str	r3, [r2, #0]
 8005462:	f7fd fbbf 	bl	8002be4 <HAL_GetTick>
 8005466:	4607      	mov	r7, r0
 8005468:	4b89      	ldr	r3, [pc, #548]	@ (8005690 <HAL_RCC_OscConfig+0x268>)
 800546a:	681b      	ldr	r3, [r3, #0]
 800546c:	f013 0f02 	tst.w	r3, #2
 8005470:	f040 809a 	bne.w	80055a8 <HAL_RCC_OscConfig+0x180>
 8005474:	f7fd fbb6 	bl	8002be4 <HAL_GetTick>
 8005478:	1bc0      	subs	r0, r0, r7
 800547a:	2802      	cmp	r0, #2
 800547c:	d9f4      	bls.n	8005468 <HAL_RCC_OscConfig+0x40>
 800547e:	2003      	movs	r0, #3
 8005480:	e335      	b.n	8005aee <HAL_RCC_OscConfig+0x6c6>
 8005482:	2e01      	cmp	r6, #1
 8005484:	d1e4      	bne.n	8005450 <HAL_RCC_OscConfig+0x28>
 8005486:	4b82      	ldr	r3, [pc, #520]	@ (8005690 <HAL_RCC_OscConfig+0x268>)
 8005488:	681b      	ldr	r3, [r3, #0]
 800548a:	f013 0f02 	tst.w	r3, #2
 800548e:	d003      	beq.n	8005498 <HAL_RCC_OscConfig+0x70>
 8005490:	69e3      	ldr	r3, [r4, #28]
 8005492:	2b00      	cmp	r3, #0
 8005494:	f000 8320 	beq.w	8005ad8 <HAL_RCC_OscConfig+0x6b0>
 8005498:	6a60      	ldr	r0, [r4, #36]	@ 0x24
 800549a:	4b7d      	ldr	r3, [pc, #500]	@ (8005690 <HAL_RCC_OscConfig+0x268>)
 800549c:	681b      	ldr	r3, [r3, #0]
 800549e:	f013 0f08 	tst.w	r3, #8
 80054a2:	d05b      	beq.n	800555c <HAL_RCC_OscConfig+0x134>
 80054a4:	4b7a      	ldr	r3, [pc, #488]	@ (8005690 <HAL_RCC_OscConfig+0x268>)
 80054a6:	681b      	ldr	r3, [r3, #0]
 80054a8:	f003 03f0 	and.w	r3, r3, #240	@ 0xf0
 80054ac:	4298      	cmp	r0, r3
 80054ae:	d85c      	bhi.n	800556a <HAL_RCC_OscConfig+0x142>
 80054b0:	4b77      	ldr	r3, [pc, #476]	@ (8005690 <HAL_RCC_OscConfig+0x268>)
 80054b2:	681a      	ldr	r2, [r3, #0]
 80054b4:	f042 0208 	orr.w	r2, r2, #8
 80054b8:	601a      	str	r2, [r3, #0]
 80054ba:	681a      	ldr	r2, [r3, #0]
 80054bc:	f022 02f0 	bic.w	r2, r2, #240	@ 0xf0
 80054c0:	6a61      	ldr	r1, [r4, #36]	@ 0x24
 80054c2:	430a      	orrs	r2, r1
 80054c4:	601a      	str	r2, [r3, #0]
 80054c6:	685a      	ldr	r2, [r3, #4]
 80054c8:	f422 427f 	bic.w	r2, r2, #65280	@ 0xff00
 80054cc:	6a21      	ldr	r1, [r4, #32]
 80054ce:	ea42 2201 	orr.w	r2, r2, r1, lsl #8
 80054d2:	605a      	str	r2, [r3, #4]
 80054d4:	2d00      	cmp	r5, #0
 80054d6:	d060      	beq.n	800559a <HAL_RCC_OscConfig+0x172>
 80054d8:	f7ff ff52 	bl	8005380 <HAL_RCC_GetSysClockFreq>
 80054dc:	4b6c      	ldr	r3, [pc, #432]	@ (8005690 <HAL_RCC_OscConfig+0x268>)
 80054de:	689b      	ldr	r3, [r3, #8]
 80054e0:	f3c3 1303 	ubfx	r3, r3, #4, #4
 80054e4:	4a6b      	ldr	r2, [pc, #428]	@ (8005694 <HAL_RCC_OscConfig+0x26c>)
 80054e6:	5cd3      	ldrb	r3, [r2, r3]
 80054e8:	f003 031f 	and.w	r3, r3, #31
 80054ec:	40d8      	lsrs	r0, r3
 80054ee:	4b6a      	ldr	r3, [pc, #424]	@ (8005698 <HAL_RCC_OscConfig+0x270>)
 80054f0:	6018      	str	r0, [r3, #0]
 80054f2:	4b6a      	ldr	r3, [pc, #424]	@ (800569c <HAL_RCC_OscConfig+0x274>)
 80054f4:	6818      	ldr	r0, [r3, #0]
 80054f6:	f7fd fb2b 	bl	8002b50 <HAL_InitTick>
 80054fa:	2800      	cmp	r0, #0
 80054fc:	f040 82f7 	bne.w	8005aee <HAL_RCC_OscConfig+0x6c6>
 8005500:	6823      	ldr	r3, [r4, #0]
 8005502:	f013 0f01 	tst.w	r3, #1
 8005506:	f000 8081 	beq.w	800560c <HAL_RCC_OscConfig+0x1e4>
 800550a:	2d08      	cmp	r5, #8
 800550c:	d075      	beq.n	80055fa <HAL_RCC_OscConfig+0x1d2>
 800550e:	2d0c      	cmp	r5, #12
 8005510:	d071      	beq.n	80055f6 <HAL_RCC_OscConfig+0x1ce>
 8005512:	6863      	ldr	r3, [r4, #4]
 8005514:	f5b3 3f80 	cmp.w	r3, #65536	@ 0x10000
 8005518:	f000 8098 	beq.w	800564c <HAL_RCC_OscConfig+0x224>
 800551c:	f5b3 2fa0 	cmp.w	r3, #327680	@ 0x50000
 8005520:	f000 809a 	beq.w	8005658 <HAL_RCC_OscConfig+0x230>
 8005524:	4b5a      	ldr	r3, [pc, #360]	@ (8005690 <HAL_RCC_OscConfig+0x268>)
 8005526:	681a      	ldr	r2, [r3, #0]
 8005528:	f422 3280 	bic.w	r2, r2, #65536	@ 0x10000
 800552c:	601a      	str	r2, [r3, #0]
 800552e:	681a      	ldr	r2, [r3, #0]
 8005530:	f422 2280 	bic.w	r2, r2, #262144	@ 0x40000
 8005534:	601a      	str	r2, [r3, #0]
 8005536:	6863      	ldr	r3, [r4, #4]
 8005538:	2b00      	cmp	r3, #0
 800553a:	f000 809a 	beq.w	8005672 <HAL_RCC_OscConfig+0x24a>
 800553e:	f7fd fb51 	bl	8002be4 <HAL_GetTick>
 8005542:	4607      	mov	r7, r0
 8005544:	4b52      	ldr	r3, [pc, #328]	@ (8005690 <HAL_RCC_OscConfig+0x268>)
 8005546:	681b      	ldr	r3, [r3, #0]
 8005548:	f413 3f00 	tst.w	r3, #131072	@ 0x20000
 800554c:	d15e      	bne.n	800560c <HAL_RCC_OscConfig+0x1e4>
 800554e:	f7fd fb49 	bl	8002be4 <HAL_GetTick>
 8005552:	1bc0      	subs	r0, r0, r7
 8005554:	2864      	cmp	r0, #100	@ 0x64
 8005556:	d9f5      	bls.n	8005544 <HAL_RCC_OscConfig+0x11c>
 8005558:	2003      	movs	r0, #3
 800555a:	e2c8      	b.n	8005aee <HAL_RCC_OscConfig+0x6c6>
 800555c:	4b4c      	ldr	r3, [pc, #304]	@ (8005690 <HAL_RCC_OscConfig+0x268>)
 800555e:	f8d3 3094 	ldr.w	r3, [r3, #148]	@ 0x94
 8005562:	091b      	lsrs	r3, r3, #4
 8005564:	f003 03f0 	and.w	r3, r3, #240	@ 0xf0
 8005568:	e7a0      	b.n	80054ac <HAL_RCC_OscConfig+0x84>
 800556a:	f7ff fec1 	bl	80052f0 <RCC_SetFlashLatencyFromMSIRange>
 800556e:	2800      	cmp	r0, #0
 8005570:	f040 82b4 	bne.w	8005adc <HAL_RCC_OscConfig+0x6b4>
 8005574:	4b46      	ldr	r3, [pc, #280]	@ (8005690 <HAL_RCC_OscConfig+0x268>)
 8005576:	681a      	ldr	r2, [r3, #0]
 8005578:	f042 0208 	orr.w	r2, r2, #8
 800557c:	601a      	str	r2, [r3, #0]
 800557e:	681a      	ldr	r2, [r3, #0]
 8005580:	f022 02f0 	bic.w	r2, r2, #240	@ 0xf0
 8005584:	6a61      	ldr	r1, [r4, #36]	@ 0x24
 8005586:	430a      	orrs	r2, r1
 8005588:	601a      	str	r2, [r3, #0]
 800558a:	685a      	ldr	r2, [r3, #4]
 800558c:	f422 427f 	bic.w	r2, r2, #65280	@ 0xff00
 8005590:	6a21      	ldr	r1, [r4, #32]
 8005592:	ea42 2201 	orr.w	r2, r2, r1, lsl #8
 8005596:	605a      	str	r2, [r3, #4]
 8005598:	e79e      	b.n	80054d8 <HAL_RCC_OscConfig+0xb0>
 800559a:	6a60      	ldr	r0, [r4, #36]	@ 0x24
 800559c:	f7ff fea8 	bl	80052f0 <RCC_SetFlashLatencyFromMSIRange>
 80055a0:	2800      	cmp	r0, #0
 80055a2:	d099      	beq.n	80054d8 <HAL_RCC_OscConfig+0xb0>
 80055a4:	2001      	movs	r0, #1
 80055a6:	e2a2      	b.n	8005aee <HAL_RCC_OscConfig+0x6c6>
 80055a8:	4b39      	ldr	r3, [pc, #228]	@ (8005690 <HAL_RCC_OscConfig+0x268>)
 80055aa:	681a      	ldr	r2, [r3, #0]
 80055ac:	f042 0208 	orr.w	r2, r2, #8
 80055b0:	601a      	str	r2, [r3, #0]
 80055b2:	681a      	ldr	r2, [r3, #0]
 80055b4:	f022 02f0 	bic.w	r2, r2, #240	@ 0xf0
 80055b8:	6a61      	ldr	r1, [r4, #36]	@ 0x24
 80055ba:	430a      	orrs	r2, r1
 80055bc:	601a      	str	r2, [r3, #0]
 80055be:	685a      	ldr	r2, [r3, #4]
 80055c0:	f422 427f 	bic.w	r2, r2, #65280	@ 0xff00
 80055c4:	6a21      	ldr	r1, [r4, #32]
 80055c6:	ea42 2201 	orr.w	r2, r2, r1, lsl #8
 80055ca:	605a      	str	r2, [r3, #4]
 80055cc:	e798      	b.n	8005500 <HAL_RCC_OscConfig+0xd8>
 80055ce:	4a30      	ldr	r2, [pc, #192]	@ (8005690 <HAL_RCC_OscConfig+0x268>)
 80055d0:	6813      	ldr	r3, [r2, #0]
 80055d2:	f023 0301 	bic.w	r3, r3, #1
 80055d6:	6013      	str	r3, [r2, #0]
 80055d8:	f7fd fb04 	bl	8002be4 <HAL_GetTick>
 80055dc:	4607      	mov	r7, r0
 80055de:	4b2c      	ldr	r3, [pc, #176]	@ (8005690 <HAL_RCC_OscConfig+0x268>)
 80055e0:	681b      	ldr	r3, [r3, #0]
 80055e2:	f013 0f02 	tst.w	r3, #2
 80055e6:	d08b      	beq.n	8005500 <HAL_RCC_OscConfig+0xd8>
 80055e8:	f7fd fafc 	bl	8002be4 <HAL_GetTick>
 80055ec:	1bc0      	subs	r0, r0, r7
 80055ee:	2802      	cmp	r0, #2
 80055f0:	d9f5      	bls.n	80055de <HAL_RCC_OscConfig+0x1b6>
 80055f2:	2003      	movs	r0, #3
 80055f4:	e27b      	b.n	8005aee <HAL_RCC_OscConfig+0x6c6>
 80055f6:	2e03      	cmp	r6, #3
 80055f8:	d18b      	bne.n	8005512 <HAL_RCC_OscConfig+0xea>
 80055fa:	4b25      	ldr	r3, [pc, #148]	@ (8005690 <HAL_RCC_OscConfig+0x268>)
 80055fc:	681b      	ldr	r3, [r3, #0]
 80055fe:	f413 3f00 	tst.w	r3, #131072	@ 0x20000
 8005602:	d003      	beq.n	800560c <HAL_RCC_OscConfig+0x1e4>
 8005604:	6863      	ldr	r3, [r4, #4]
 8005606:	2b00      	cmp	r3, #0
 8005608:	f000 826a 	beq.w	8005ae0 <HAL_RCC_OscConfig+0x6b8>
 800560c:	6823      	ldr	r3, [r4, #0]
 800560e:	f013 0f02 	tst.w	r3, #2
 8005612:	d058      	beq.n	80056c6 <HAL_RCC_OscConfig+0x29e>
 8005614:	2d04      	cmp	r5, #4
 8005616:	d045      	beq.n	80056a4 <HAL_RCC_OscConfig+0x27c>
 8005618:	2d0c      	cmp	r5, #12
 800561a:	d041      	beq.n	80056a0 <HAL_RCC_OscConfig+0x278>
 800561c:	68e3      	ldr	r3, [r4, #12]
 800561e:	2b00      	cmp	r3, #0
 8005620:	f000 8091 	beq.w	8005746 <HAL_RCC_OscConfig+0x31e>
 8005624:	4a1a      	ldr	r2, [pc, #104]	@ (8005690 <HAL_RCC_OscConfig+0x268>)
 8005626:	6813      	ldr	r3, [r2, #0]
 8005628:	f443 7380 	orr.w	r3, r3, #256	@ 0x100
 800562c:	6013      	str	r3, [r2, #0]
 800562e:	f7fd fad9 	bl	8002be4 <HAL_GetTick>
 8005632:	4606      	mov	r6, r0
 8005634:	4b16      	ldr	r3, [pc, #88]	@ (8005690 <HAL_RCC_OscConfig+0x268>)
 8005636:	681b      	ldr	r3, [r3, #0]
 8005638:	f413 6f80 	tst.w	r3, #1024	@ 0x400
 800563c:	d17a      	bne.n	8005734 <HAL_RCC_OscConfig+0x30c>
 800563e:	f7fd fad1 	bl	8002be4 <HAL_GetTick>
 8005642:	1b80      	subs	r0, r0, r6
 8005644:	2802      	cmp	r0, #2
 8005646:	d9f5      	bls.n	8005634 <HAL_RCC_OscConfig+0x20c>
 8005648:	2003      	movs	r0, #3
 800564a:	e250      	b.n	8005aee <HAL_RCC_OscConfig+0x6c6>
 800564c:	4a10      	ldr	r2, [pc, #64]	@ (8005690 <HAL_RCC_OscConfig+0x268>)
 800564e:	6813      	ldr	r3, [r2, #0]
 8005650:	f443 3380 	orr.w	r3, r3, #65536	@ 0x10000
 8005654:	6013      	str	r3, [r2, #0]
 8005656:	e76e      	b.n	8005536 <HAL_RCC_OscConfig+0x10e>
 8005658:	f103 4380 	add.w	r3, r3, #1073741824	@ 0x40000000
 800565c:	f5a3 333c 	sub.w	r3, r3, #192512	@ 0x2f000
 8005660:	681a      	ldr	r2, [r3, #0]
 8005662:	f442 2280 	orr.w	r2, r2, #262144	@ 0x40000
 8005666:	601a      	str	r2, [r3, #0]
 8005668:	681a      	ldr	r2, [r3, #0]
 800566a:	f442 3280 	orr.w	r2, r2, #65536	@ 0x10000
 800566e:	601a      	str	r2, [r3, #0]
 8005670:	e761      	b.n	8005536 <HAL_RCC_OscConfig+0x10e>
 8005672:	f7fd fab7 	bl	8002be4 <HAL_GetTick>
 8005676:	4607      	mov	r7, r0
 8005678:	4b05      	ldr	r3, [pc, #20]	@ (8005690 <HAL_RCC_OscConfig+0x268>)
 800567a:	681b      	ldr	r3, [r3, #0]
 800567c:	f413 3f00 	tst.w	r3, #131072	@ 0x20000
 8005680:	d0c4      	beq.n	800560c <HAL_RCC_OscConfig+0x1e4>
 8005682:	f7fd faaf 	bl	8002be4 <HAL_GetTick>
 8005686:	1bc0      	subs	r0, r0, r7
 8005688:	2864      	cmp	r0, #100	@ 0x64
 800568a:	d9f5      	bls.n	8005678 <HAL_RCC_OscConfig+0x250>
 800568c:	2003      	movs	r0, #3
 800568e:	e22e      	b.n	8005aee <HAL_RCC_OscConfig+0x6c6>
 8005690:	40021000 	.word	0x40021000
 8005694:	0800ce04 	.word	0x0800ce04
 8005698:	200000c4 	.word	0x200000c4
 800569c:	200000bc 	.word	0x200000bc
 80056a0:	2e02      	cmp	r6, #2
 80056a2:	d1bb      	bne.n	800561c <HAL_RCC_OscConfig+0x1f4>
 80056a4:	4baf      	ldr	r3, [pc, #700]	@ (8005964 <HAL_RCC_OscConfig+0x53c>)
 80056a6:	681b      	ldr	r3, [r3, #0]
 80056a8:	f413 6f80 	tst.w	r3, #1024	@ 0x400
 80056ac:	d003      	beq.n	80056b6 <HAL_RCC_OscConfig+0x28e>
 80056ae:	68e3      	ldr	r3, [r4, #12]
 80056b0:	2b00      	cmp	r3, #0
 80056b2:	f000 8217 	beq.w	8005ae4 <HAL_RCC_OscConfig+0x6bc>
 80056b6:	4aab      	ldr	r2, [pc, #684]	@ (8005964 <HAL_RCC_OscConfig+0x53c>)
 80056b8:	6853      	ldr	r3, [r2, #4]
 80056ba:	f023 43fe 	bic.w	r3, r3, #2130706432	@ 0x7f000000
 80056be:	6921      	ldr	r1, [r4, #16]
 80056c0:	ea43 6301 	orr.w	r3, r3, r1, lsl #24
 80056c4:	6053      	str	r3, [r2, #4]
 80056c6:	6823      	ldr	r3, [r4, #0]
 80056c8:	f013 0f08 	tst.w	r3, #8
 80056cc:	d07d      	beq.n	80057ca <HAL_RCC_OscConfig+0x3a2>
 80056ce:	6963      	ldr	r3, [r4, #20]
 80056d0:	2b00      	cmp	r3, #0
 80056d2:	d063      	beq.n	800579c <HAL_RCC_OscConfig+0x374>
 80056d4:	4ba3      	ldr	r3, [pc, #652]	@ (8005964 <HAL_RCC_OscConfig+0x53c>)
 80056d6:	f8d3 3094 	ldr.w	r3, [r3, #148]	@ 0x94
 80056da:	69a1      	ldr	r1, [r4, #24]
 80056dc:	f003 0210 	and.w	r2, r3, #16
 80056e0:	4291      	cmp	r1, r2
 80056e2:	d010      	beq.n	8005706 <HAL_RCC_OscConfig+0x2de>
 80056e4:	f003 0203 	and.w	r2, r3, #3
 80056e8:	2a02      	cmp	r2, #2
 80056ea:	f000 81fd 	beq.w	8005ae8 <HAL_RCC_OscConfig+0x6c0>
 80056ee:	f013 0f01 	tst.w	r3, #1
 80056f2:	d13c      	bne.n	800576e <HAL_RCC_OscConfig+0x346>
 80056f4:	4a9b      	ldr	r2, [pc, #620]	@ (8005964 <HAL_RCC_OscConfig+0x53c>)
 80056f6:	f8d2 3094 	ldr.w	r3, [r2, #148]	@ 0x94
 80056fa:	f023 0310 	bic.w	r3, r3, #16
 80056fe:	69a1      	ldr	r1, [r4, #24]
 8005700:	430b      	orrs	r3, r1
 8005702:	f8c2 3094 	str.w	r3, [r2, #148]	@ 0x94
 8005706:	4a97      	ldr	r2, [pc, #604]	@ (8005964 <HAL_RCC_OscConfig+0x53c>)
 8005708:	f8d2 3094 	ldr.w	r3, [r2, #148]	@ 0x94
 800570c:	f043 0301 	orr.w	r3, r3, #1
 8005710:	f8c2 3094 	str.w	r3, [r2, #148]	@ 0x94
 8005714:	f7fd fa66 	bl	8002be4 <HAL_GetTick>
 8005718:	4606      	mov	r6, r0
 800571a:	4b92      	ldr	r3, [pc, #584]	@ (8005964 <HAL_RCC_OscConfig+0x53c>)
 800571c:	f8d3 3094 	ldr.w	r3, [r3, #148]	@ 0x94
 8005720:	f013 0f02 	tst.w	r3, #2
 8005724:	d151      	bne.n	80057ca <HAL_RCC_OscConfig+0x3a2>
 8005726:	f7fd fa5d 	bl	8002be4 <HAL_GetTick>
 800572a:	1b80      	subs	r0, r0, r6
 800572c:	2811      	cmp	r0, #17
 800572e:	d9f4      	bls.n	800571a <HAL_RCC_OscConfig+0x2f2>
 8005730:	2003      	movs	r0, #3
 8005732:	e1dc      	b.n	8005aee <HAL_RCC_OscConfig+0x6c6>
 8005734:	4a8b      	ldr	r2, [pc, #556]	@ (8005964 <HAL_RCC_OscConfig+0x53c>)
 8005736:	6853      	ldr	r3, [r2, #4]
 8005738:	f023 43fe 	bic.w	r3, r3, #2130706432	@ 0x7f000000
 800573c:	6921      	ldr	r1, [r4, #16]
 800573e:	ea43 6301 	orr.w	r3, r3, r1, lsl #24
 8005742:	6053      	str	r3, [r2, #4]
 8005744:	e7bf      	b.n	80056c6 <HAL_RCC_OscConfig+0x29e>
 8005746:	4a87      	ldr	r2, [pc, #540]	@ (8005964 <HAL_RCC_OscConfig+0x53c>)
 8005748:	6813      	ldr	r3, [r2, #0]
 800574a:	f423 7380 	bic.w	r3, r3, #256	@ 0x100
 800574e:	6013      	str	r3, [r2, #0]
 8005750:	f7fd fa48 	bl	8002be4 <HAL_GetTick>
 8005754:	4606      	mov	r6, r0
 8005756:	4b83      	ldr	r3, [pc, #524]	@ (8005964 <HAL_RCC_OscConfig+0x53c>)
 8005758:	681b      	ldr	r3, [r3, #0]
 800575a:	f413 6f80 	tst.w	r3, #1024	@ 0x400
 800575e:	d0b2      	beq.n	80056c6 <HAL_RCC_OscConfig+0x29e>
 8005760:	f7fd fa40 	bl	8002be4 <HAL_GetTick>
 8005764:	1b80      	subs	r0, r0, r6
 8005766:	2802      	cmp	r0, #2
 8005768:	d9f5      	bls.n	8005756 <HAL_RCC_OscConfig+0x32e>
 800576a:	2003      	movs	r0, #3
 800576c:	e1bf      	b.n	8005aee <HAL_RCC_OscConfig+0x6c6>
 800576e:	4a7d      	ldr	r2, [pc, #500]	@ (8005964 <HAL_RCC_OscConfig+0x53c>)
 8005770:	f8d2 3094 	ldr.w	r3, [r2, #148]	@ 0x94
 8005774:	f023 0301 	bic.w	r3, r3, #1
 8005778:	f8c2 3094 	str.w	r3, [r2, #148]	@ 0x94
 800577c:	f7fd fa32 	bl	8002be4 <HAL_GetTick>
 8005780:	4606      	mov	r6, r0
 8005782:	4b78      	ldr	r3, [pc, #480]	@ (8005964 <HAL_RCC_OscConfig+0x53c>)
 8005784:	f8d3 3094 	ldr.w	r3, [r3, #148]	@ 0x94
 8005788:	f013 0f02 	tst.w	r3, #2
 800578c:	d0b2      	beq.n	80056f4 <HAL_RCC_OscConfig+0x2cc>
 800578e:	f7fd fa29 	bl	8002be4 <HAL_GetTick>
 8005792:	1b80      	subs	r0, r0, r6
 8005794:	2811      	cmp	r0, #17
 8005796:	d9f4      	bls.n	8005782 <HAL_RCC_OscConfig+0x35a>
 8005798:	2003      	movs	r0, #3
 800579a:	e1a8      	b.n	8005aee <HAL_RCC_OscConfig+0x6c6>
 800579c:	4a71      	ldr	r2, [pc, #452]	@ (8005964 <HAL_RCC_OscConfig+0x53c>)
 800579e:	f8d2 3094 	ldr.w	r3, [r2, #148]	@ 0x94
 80057a2:	f023 0301 	bic.w	r3, r3, #1
 80057a6:	f8c2 3094 	str.w	r3, [r2, #148]	@ 0x94
 80057aa:	f7fd fa1b 	bl	8002be4 <HAL_GetTick>
 80057ae:	4606      	mov	r6, r0
 80057b0:	4b6c      	ldr	r3, [pc, #432]	@ (8005964 <HAL_RCC_OscConfig+0x53c>)
 80057b2:	f8d3 3094 	ldr.w	r3, [r3, #148]	@ 0x94
 80057b6:	f013 0f02 	tst.w	r3, #2
 80057ba:	d006      	beq.n	80057ca <HAL_RCC_OscConfig+0x3a2>
 80057bc:	f7fd fa12 	bl	8002be4 <HAL_GetTick>
 80057c0:	1b80      	subs	r0, r0, r6
 80057c2:	2811      	cmp	r0, #17
 80057c4:	d9f4      	bls.n	80057b0 <HAL_RCC_OscConfig+0x388>
 80057c6:	2003      	movs	r0, #3
 80057c8:	e191      	b.n	8005aee <HAL_RCC_OscConfig+0x6c6>
 80057ca:	6823      	ldr	r3, [r4, #0]
 80057cc:	f013 0f04 	tst.w	r3, #4
 80057d0:	f000 808d 	beq.w	80058ee <HAL_RCC_OscConfig+0x4c6>
 80057d4:	4b63      	ldr	r3, [pc, #396]	@ (8005964 <HAL_RCC_OscConfig+0x53c>)
 80057d6:	6d9b      	ldr	r3, [r3, #88]	@ 0x58
 80057d8:	f013 5f80 	tst.w	r3, #268435456	@ 0x10000000
 80057dc:	d12e      	bne.n	800583c <HAL_RCC_OscConfig+0x414>
 80057de:	4b61      	ldr	r3, [pc, #388]	@ (8005964 <HAL_RCC_OscConfig+0x53c>)
 80057e0:	6d9a      	ldr	r2, [r3, #88]	@ 0x58
 80057e2:	f042 5280 	orr.w	r2, r2, #268435456	@ 0x10000000
 80057e6:	659a      	str	r2, [r3, #88]	@ 0x58
 80057e8:	6d9b      	ldr	r3, [r3, #88]	@ 0x58
 80057ea:	f003 5380 	and.w	r3, r3, #268435456	@ 0x10000000
 80057ee:	9301      	str	r3, [sp, #4]
 80057f0:	9b01      	ldr	r3, [sp, #4]
 80057f2:	2601      	movs	r6, #1
 80057f4:	4b5c      	ldr	r3, [pc, #368]	@ (8005968 <HAL_RCC_OscConfig+0x540>)
 80057f6:	681b      	ldr	r3, [r3, #0]
 80057f8:	f413 7f80 	tst.w	r3, #256	@ 0x100
 80057fc:	d020      	beq.n	8005840 <HAL_RCC_OscConfig+0x418>
 80057fe:	68a3      	ldr	r3, [r4, #8]
 8005800:	f013 0f01 	tst.w	r3, #1
 8005804:	d038      	beq.n	8005878 <HAL_RCC_OscConfig+0x450>
 8005806:	4957      	ldr	r1, [pc, #348]	@ (8005964 <HAL_RCC_OscConfig+0x53c>)
 8005808:	f8d1 2090 	ldr.w	r2, [r1, #144]	@ 0x90
 800580c:	f022 0280 	bic.w	r2, r2, #128	@ 0x80
 8005810:	f003 0380 	and.w	r3, r3, #128	@ 0x80
 8005814:	4313      	orrs	r3, r2
 8005816:	f8c1 3090 	str.w	r3, [r1, #144]	@ 0x90
 800581a:	68a3      	ldr	r3, [r4, #8]
 800581c:	f013 0f04 	tst.w	r3, #4
 8005820:	d022      	beq.n	8005868 <HAL_RCC_OscConfig+0x440>
 8005822:	f8d1 2090 	ldr.w	r2, [r1, #144]	@ 0x90
 8005826:	f042 0204 	orr.w	r2, r2, #4
 800582a:	f8c1 2090 	str.w	r2, [r1, #144]	@ 0x90
 800582e:	f8d1 2090 	ldr.w	r2, [r1, #144]	@ 0x90
 8005832:	f042 0201 	orr.w	r2, r2, #1
 8005836:	f8c1 2090 	str.w	r2, [r1, #144]	@ 0x90
 800583a:	e02a      	b.n	8005892 <HAL_RCC_OscConfig+0x46a>
 800583c:	2600      	movs	r6, #0
 800583e:	e7d9      	b.n	80057f4 <HAL_RCC_OscConfig+0x3cc>
 8005840:	4a49      	ldr	r2, [pc, #292]	@ (8005968 <HAL_RCC_OscConfig+0x540>)
 8005842:	6813      	ldr	r3, [r2, #0]
 8005844:	f443 7380 	orr.w	r3, r3, #256	@ 0x100
 8005848:	6013      	str	r3, [r2, #0]
 800584a:	f7fd f9cb 	bl	8002be4 <HAL_GetTick>
 800584e:	4607      	mov	r7, r0
 8005850:	4b45      	ldr	r3, [pc, #276]	@ (8005968 <HAL_RCC_OscConfig+0x540>)
 8005852:	681b      	ldr	r3, [r3, #0]
 8005854:	f413 7f80 	tst.w	r3, #256	@ 0x100
 8005858:	d1d1      	bne.n	80057fe <HAL_RCC_OscConfig+0x3d6>
 800585a:	f7fd f9c3 	bl	8002be4 <HAL_GetTick>
 800585e:	1bc0      	subs	r0, r0, r7
 8005860:	2802      	cmp	r0, #2
 8005862:	d9f5      	bls.n	8005850 <HAL_RCC_OscConfig+0x428>
 8005864:	2003      	movs	r0, #3
 8005866:	e142      	b.n	8005aee <HAL_RCC_OscConfig+0x6c6>
 8005868:	4a3e      	ldr	r2, [pc, #248]	@ (8005964 <HAL_RCC_OscConfig+0x53c>)
 800586a:	f8d2 3090 	ldr.w	r3, [r2, #144]	@ 0x90
 800586e:	f043 0301 	orr.w	r3, r3, #1
 8005872:	f8c2 3090 	str.w	r3, [r2, #144]	@ 0x90
 8005876:	e00c      	b.n	8005892 <HAL_RCC_OscConfig+0x46a>
 8005878:	4b3a      	ldr	r3, [pc, #232]	@ (8005964 <HAL_RCC_OscConfig+0x53c>)
 800587a:	f8d3 2090 	ldr.w	r2, [r3, #144]	@ 0x90
 800587e:	f022 0201 	bic.w	r2, r2, #1
 8005882:	f8c3 2090 	str.w	r2, [r3, #144]	@ 0x90
 8005886:	f8d3 2090 	ldr.w	r2, [r3, #144]	@ 0x90
 800588a:	f022 0204 	bic.w	r2, r2, #4
 800588e:	f8c3 2090 	str.w	r2, [r3, #144]	@ 0x90
 8005892:	68a3      	ldr	r3, [r4, #8]
 8005894:	b18b      	cbz	r3, 80058ba <HAL_RCC_OscConfig+0x492>
 8005896:	f7fd f9a5 	bl	8002be4 <HAL_GetTick>
 800589a:	4607      	mov	r7, r0
 800589c:	4b31      	ldr	r3, [pc, #196]	@ (8005964 <HAL_RCC_OscConfig+0x53c>)
 800589e:	f8d3 3090 	ldr.w	r3, [r3, #144]	@ 0x90
 80058a2:	f013 0f02 	tst.w	r3, #2
 80058a6:	d121      	bne.n	80058ec <HAL_RCC_OscConfig+0x4c4>
 80058a8:	f7fd f99c 	bl	8002be4 <HAL_GetTick>
 80058ac:	1bc0      	subs	r0, r0, r7
 80058ae:	f241 3388 	movw	r3, #5000	@ 0x1388
 80058b2:	4298      	cmp	r0, r3
 80058b4:	d9f2      	bls.n	800589c <HAL_RCC_OscConfig+0x474>
 80058b6:	2003      	movs	r0, #3
 80058b8:	e119      	b.n	8005aee <HAL_RCC_OscConfig+0x6c6>
 80058ba:	f7fd f993 	bl	8002be4 <HAL_GetTick>
 80058be:	4607      	mov	r7, r0
 80058c0:	4b28      	ldr	r3, [pc, #160]	@ (8005964 <HAL_RCC_OscConfig+0x53c>)
 80058c2:	f8d3 3090 	ldr.w	r3, [r3, #144]	@ 0x90
 80058c6:	f013 0f02 	tst.w	r3, #2
 80058ca:	d008      	beq.n	80058de <HAL_RCC_OscConfig+0x4b6>
 80058cc:	f7fd f98a 	bl	8002be4 <HAL_GetTick>
 80058d0:	1bc0      	subs	r0, r0, r7
 80058d2:	f241 3388 	movw	r3, #5000	@ 0x1388
 80058d6:	4298      	cmp	r0, r3
 80058d8:	d9f2      	bls.n	80058c0 <HAL_RCC_OscConfig+0x498>
 80058da:	2003      	movs	r0, #3
 80058dc:	e107      	b.n	8005aee <HAL_RCC_OscConfig+0x6c6>
 80058de:	4a21      	ldr	r2, [pc, #132]	@ (8005964 <HAL_RCC_OscConfig+0x53c>)
 80058e0:	f8d2 3090 	ldr.w	r3, [r2, #144]	@ 0x90
 80058e4:	f023 0380 	bic.w	r3, r3, #128	@ 0x80
 80058e8:	f8c2 3090 	str.w	r3, [r2, #144]	@ 0x90
 80058ec:	b9e6      	cbnz	r6, 8005928 <HAL_RCC_OscConfig+0x500>
 80058ee:	6823      	ldr	r3, [r4, #0]
 80058f0:	f013 0f20 	tst.w	r3, #32
 80058f4:	d03a      	beq.n	800596c <HAL_RCC_OscConfig+0x544>
 80058f6:	6aa3      	ldr	r3, [r4, #40]	@ 0x28
 80058f8:	b1e3      	cbz	r3, 8005934 <HAL_RCC_OscConfig+0x50c>
 80058fa:	4a1a      	ldr	r2, [pc, #104]	@ (8005964 <HAL_RCC_OscConfig+0x53c>)
 80058fc:	f8d2 3098 	ldr.w	r3, [r2, #152]	@ 0x98
 8005900:	f043 0301 	orr.w	r3, r3, #1
 8005904:	f8c2 3098 	str.w	r3, [r2, #152]	@ 0x98
 8005908:	f7fd f96c 	bl	8002be4 <HAL_GetTick>
 800590c:	4606      	mov	r6, r0
 800590e:	4b15      	ldr	r3, [pc, #84]	@ (8005964 <HAL_RCC_OscConfig+0x53c>)
 8005910:	f8d3 3098 	ldr.w	r3, [r3, #152]	@ 0x98
 8005914:	f013 0f02 	tst.w	r3, #2
 8005918:	d128      	bne.n	800596c <HAL_RCC_OscConfig+0x544>
 800591a:	f7fd f963 	bl	8002be4 <HAL_GetTick>
 800591e:	1b80      	subs	r0, r0, r6
 8005920:	2802      	cmp	r0, #2
 8005922:	d9f4      	bls.n	800590e <HAL_RCC_OscConfig+0x4e6>
 8005924:	2003      	movs	r0, #3
 8005926:	e0e2      	b.n	8005aee <HAL_RCC_OscConfig+0x6c6>
 8005928:	4a0e      	ldr	r2, [pc, #56]	@ (8005964 <HAL_RCC_OscConfig+0x53c>)
 800592a:	6d93      	ldr	r3, [r2, #88]	@ 0x58
 800592c:	f023 5380 	bic.w	r3, r3, #268435456	@ 0x10000000
 8005930:	6593      	str	r3, [r2, #88]	@ 0x58
 8005932:	e7dc      	b.n	80058ee <HAL_RCC_OscConfig+0x4c6>
 8005934:	4a0b      	ldr	r2, [pc, #44]	@ (8005964 <HAL_RCC_OscConfig+0x53c>)
 8005936:	f8d2 3098 	ldr.w	r3, [r2, #152]	@ 0x98
 800593a:	f023 0301 	bic.w	r3, r3, #1
 800593e:	f8c2 3098 	str.w	r3, [r2, #152]	@ 0x98
 8005942:	f7fd f94f 	bl	8002be4 <HAL_GetTick>
 8005946:	4606      	mov	r6, r0
 8005948:	4b06      	ldr	r3, [pc, #24]	@ (8005964 <HAL_RCC_OscConfig+0x53c>)
 800594a:	f8d3 3098 	ldr.w	r3, [r3, #152]	@ 0x98
 800594e:	f013 0f02 	tst.w	r3, #2
 8005952:	d00b      	beq.n	800596c <HAL_RCC_OscConfig+0x544>
 8005954:	f7fd f946 	bl	8002be4 <HAL_GetTick>
 8005958:	1b80      	subs	r0, r0, r6
 800595a:	2802      	cmp	r0, #2
 800595c:	d9f4      	bls.n	8005948 <HAL_RCC_OscConfig+0x520>
 800595e:	2003      	movs	r0, #3
 8005960:	e0c5      	b.n	8005aee <HAL_RCC_OscConfig+0x6c6>
 8005962:	bf00      	nop
 8005964:	40021000 	.word	0x40021000
 8005968:	40007000 	.word	0x40007000
 800596c:	6ae3      	ldr	r3, [r4, #44]	@ 0x2c
 800596e:	2b00      	cmp	r3, #0
 8005970:	f000 80bc 	beq.w	8005aec <HAL_RCC_OscConfig+0x6c4>
 8005974:	2b02      	cmp	r3, #2
 8005976:	d017      	beq.n	80059a8 <HAL_RCC_OscConfig+0x580>
 8005978:	2d0c      	cmp	r5, #12
 800597a:	f000 80bc 	beq.w	8005af6 <HAL_RCC_OscConfig+0x6ce>
 800597e:	4a5f      	ldr	r2, [pc, #380]	@ (8005afc <HAL_RCC_OscConfig+0x6d4>)
 8005980:	6813      	ldr	r3, [r2, #0]
 8005982:	f023 7380 	bic.w	r3, r3, #16777216	@ 0x1000000
 8005986:	6013      	str	r3, [r2, #0]
 8005988:	f7fd f92c 	bl	8002be4 <HAL_GetTick>
 800598c:	4604      	mov	r4, r0
 800598e:	4b5b      	ldr	r3, [pc, #364]	@ (8005afc <HAL_RCC_OscConfig+0x6d4>)
 8005990:	681b      	ldr	r3, [r3, #0]
 8005992:	f013 7f00 	tst.w	r3, #33554432	@ 0x2000000
 8005996:	f000 8094 	beq.w	8005ac2 <HAL_RCC_OscConfig+0x69a>
 800599a:	f7fd f923 	bl	8002be4 <HAL_GetTick>
 800599e:	1b00      	subs	r0, r0, r4
 80059a0:	2802      	cmp	r0, #2
 80059a2:	d9f4      	bls.n	800598e <HAL_RCC_OscConfig+0x566>
 80059a4:	2003      	movs	r0, #3
 80059a6:	e0a2      	b.n	8005aee <HAL_RCC_OscConfig+0x6c6>
 80059a8:	4b54      	ldr	r3, [pc, #336]	@ (8005afc <HAL_RCC_OscConfig+0x6d4>)
 80059aa:	68db      	ldr	r3, [r3, #12]
 80059ac:	f003 0103 	and.w	r1, r3, #3
 80059b0:	6b22      	ldr	r2, [r4, #48]	@ 0x30
 80059b2:	4291      	cmp	r1, r2
 80059b4:	d016      	beq.n	80059e4 <HAL_RCC_OscConfig+0x5bc>
 80059b6:	2d0c      	cmp	r5, #12
 80059b8:	f000 809b 	beq.w	8005af2 <HAL_RCC_OscConfig+0x6ca>
 80059bc:	4a4f      	ldr	r2, [pc, #316]	@ (8005afc <HAL_RCC_OscConfig+0x6d4>)
 80059be:	6813      	ldr	r3, [r2, #0]
 80059c0:	f023 7380 	bic.w	r3, r3, #16777216	@ 0x1000000
 80059c4:	6013      	str	r3, [r2, #0]
 80059c6:	f7fd f90d 	bl	8002be4 <HAL_GetTick>
 80059ca:	4605      	mov	r5, r0
 80059cc:	4b4b      	ldr	r3, [pc, #300]	@ (8005afc <HAL_RCC_OscConfig+0x6d4>)
 80059ce:	681b      	ldr	r3, [r3, #0]
 80059d0:	f013 7f00 	tst.w	r3, #33554432	@ 0x2000000
 80059d4:	d02a      	beq.n	8005a2c <HAL_RCC_OscConfig+0x604>
 80059d6:	f7fd f905 	bl	8002be4 <HAL_GetTick>
 80059da:	1b40      	subs	r0, r0, r5
 80059dc:	2802      	cmp	r0, #2
 80059de:	d9f5      	bls.n	80059cc <HAL_RCC_OscConfig+0x5a4>
 80059e0:	2003      	movs	r0, #3
 80059e2:	e084      	b.n	8005aee <HAL_RCC_OscConfig+0x6c6>
 80059e4:	f003 0270 	and.w	r2, r3, #112	@ 0x70
 80059e8:	6b61      	ldr	r1, [r4, #52]	@ 0x34
 80059ea:	3901      	subs	r1, #1
 80059ec:	ebb2 1f01 	cmp.w	r2, r1, lsl #4
 80059f0:	d1e1      	bne.n	80059b6 <HAL_RCC_OscConfig+0x58e>
 80059f2:	f403 42fe 	and.w	r2, r3, #32512	@ 0x7f00
 80059f6:	6ba1      	ldr	r1, [r4, #56]	@ 0x38
 80059f8:	ebb2 2f01 	cmp.w	r2, r1, lsl #8
 80059fc:	d1db      	bne.n	80059b6 <HAL_RCC_OscConfig+0x58e>
 80059fe:	f403 01c0 	and.w	r1, r3, #6291456	@ 0x600000
 8005a02:	6be2      	ldr	r2, [r4, #60]	@ 0x3c
 8005a04:	0852      	lsrs	r2, r2, #1
 8005a06:	3a01      	subs	r2, #1
 8005a08:	ebb1 5f42 	cmp.w	r1, r2, lsl #21
 8005a0c:	d1d3      	bne.n	80059b6 <HAL_RCC_OscConfig+0x58e>
 8005a0e:	f003 63c0 	and.w	r3, r3, #100663296	@ 0x6000000
 8005a12:	6c22      	ldr	r2, [r4, #64]	@ 0x40
 8005a14:	0852      	lsrs	r2, r2, #1
 8005a16:	3a01      	subs	r2, #1
 8005a18:	ebb3 6f42 	cmp.w	r3, r2, lsl #25
 8005a1c:	d1cb      	bne.n	80059b6 <HAL_RCC_OscConfig+0x58e>
 8005a1e:	4b37      	ldr	r3, [pc, #220]	@ (8005afc <HAL_RCC_OscConfig+0x6d4>)
 8005a20:	681b      	ldr	r3, [r3, #0]
 8005a22:	f013 7f00 	tst.w	r3, #33554432	@ 0x2000000
 8005a26:	d032      	beq.n	8005a8e <HAL_RCC_OscConfig+0x666>
 8005a28:	2000      	movs	r0, #0
 8005a2a:	e060      	b.n	8005aee <HAL_RCC_OscConfig+0x6c6>
 8005a2c:	4a33      	ldr	r2, [pc, #204]	@ (8005afc <HAL_RCC_OscConfig+0x6d4>)
 8005a2e:	68d3      	ldr	r3, [r2, #12]
 8005a30:	4933      	ldr	r1, [pc, #204]	@ (8005b00 <HAL_RCC_OscConfig+0x6d8>)
 8005a32:	4019      	ands	r1, r3
 8005a34:	6b23      	ldr	r3, [r4, #48]	@ 0x30
 8005a36:	6b60      	ldr	r0, [r4, #52]	@ 0x34
 8005a38:	3801      	subs	r0, #1
 8005a3a:	ea43 1300 	orr.w	r3, r3, r0, lsl #4
 8005a3e:	6ba0      	ldr	r0, [r4, #56]	@ 0x38
 8005a40:	ea43 2300 	orr.w	r3, r3, r0, lsl #8
 8005a44:	6be0      	ldr	r0, [r4, #60]	@ 0x3c
 8005a46:	0840      	lsrs	r0, r0, #1
 8005a48:	3801      	subs	r0, #1
 8005a4a:	ea43 5340 	orr.w	r3, r3, r0, lsl #21
 8005a4e:	6c20      	ldr	r0, [r4, #64]	@ 0x40
 8005a50:	0840      	lsrs	r0, r0, #1
 8005a52:	3801      	subs	r0, #1
 8005a54:	ea43 6340 	orr.w	r3, r3, r0, lsl #25
 8005a58:	4319      	orrs	r1, r3
 8005a5a:	60d1      	str	r1, [r2, #12]
 8005a5c:	6813      	ldr	r3, [r2, #0]
 8005a5e:	f043 7380 	orr.w	r3, r3, #16777216	@ 0x1000000
 8005a62:	6013      	str	r3, [r2, #0]
 8005a64:	68d3      	ldr	r3, [r2, #12]
 8005a66:	f043 7380 	orr.w	r3, r3, #16777216	@ 0x1000000
 8005a6a:	60d3      	str	r3, [r2, #12]
 8005a6c:	f7fd f8ba 	bl	8002be4 <HAL_GetTick>
 8005a70:	4604      	mov	r4, r0
 8005a72:	4b22      	ldr	r3, [pc, #136]	@ (8005afc <HAL_RCC_OscConfig+0x6d4>)
 8005a74:	681b      	ldr	r3, [r3, #0]
 8005a76:	f013 7f00 	tst.w	r3, #33554432	@ 0x2000000
 8005a7a:	d106      	bne.n	8005a8a <HAL_RCC_OscConfig+0x662>
 8005a7c:	f7fd f8b2 	bl	8002be4 <HAL_GetTick>
 8005a80:	1b00      	subs	r0, r0, r4
 8005a82:	2802      	cmp	r0, #2
 8005a84:	d9f5      	bls.n	8005a72 <HAL_RCC_OscConfig+0x64a>
 8005a86:	2003      	movs	r0, #3
 8005a88:	e031      	b.n	8005aee <HAL_RCC_OscConfig+0x6c6>
 8005a8a:	2000      	movs	r0, #0
 8005a8c:	e02f      	b.n	8005aee <HAL_RCC_OscConfig+0x6c6>
 8005a8e:	4b1b      	ldr	r3, [pc, #108]	@ (8005afc <HAL_RCC_OscConfig+0x6d4>)
 8005a90:	681a      	ldr	r2, [r3, #0]
 8005a92:	f042 7280 	orr.w	r2, r2, #16777216	@ 0x1000000
 8005a96:	601a      	str	r2, [r3, #0]
 8005a98:	68da      	ldr	r2, [r3, #12]
 8005a9a:	f042 7280 	orr.w	r2, r2, #16777216	@ 0x1000000
 8005a9e:	60da      	str	r2, [r3, #12]
 8005aa0:	f7fd f8a0 	bl	8002be4 <HAL_GetTick>
 8005aa4:	4604      	mov	r4, r0
 8005aa6:	4b15      	ldr	r3, [pc, #84]	@ (8005afc <HAL_RCC_OscConfig+0x6d4>)
 8005aa8:	681b      	ldr	r3, [r3, #0]
 8005aaa:	f013 7f00 	tst.w	r3, #33554432	@ 0x2000000
 8005aae:	d106      	bne.n	8005abe <HAL_RCC_OscConfig+0x696>
 8005ab0:	f7fd f898 	bl	8002be4 <HAL_GetTick>
 8005ab4:	1b03      	subs	r3, r0, r4
 8005ab6:	2b02      	cmp	r3, #2
 8005ab8:	d9f5      	bls.n	8005aa6 <HAL_RCC_OscConfig+0x67e>
 8005aba:	2003      	movs	r0, #3
 8005abc:	e017      	b.n	8005aee <HAL_RCC_OscConfig+0x6c6>
 8005abe:	2000      	movs	r0, #0
 8005ac0:	e015      	b.n	8005aee <HAL_RCC_OscConfig+0x6c6>
 8005ac2:	4a0e      	ldr	r2, [pc, #56]	@ (8005afc <HAL_RCC_OscConfig+0x6d4>)
 8005ac4:	68d3      	ldr	r3, [r2, #12]
 8005ac6:	f023 7388 	bic.w	r3, r3, #17825792	@ 0x1100000
 8005aca:	f023 0303 	bic.w	r3, r3, #3
 8005ace:	60d3      	str	r3, [r2, #12]
 8005ad0:	2000      	movs	r0, #0
 8005ad2:	e00c      	b.n	8005aee <HAL_RCC_OscConfig+0x6c6>
 8005ad4:	2001      	movs	r0, #1
 8005ad6:	4770      	bx	lr
 8005ad8:	2001      	movs	r0, #1
 8005ada:	e008      	b.n	8005aee <HAL_RCC_OscConfig+0x6c6>
 8005adc:	2001      	movs	r0, #1
 8005ade:	e006      	b.n	8005aee <HAL_RCC_OscConfig+0x6c6>
 8005ae0:	2001      	movs	r0, #1
 8005ae2:	e004      	b.n	8005aee <HAL_RCC_OscConfig+0x6c6>
 8005ae4:	2001      	movs	r0, #1
 8005ae6:	e002      	b.n	8005aee <HAL_RCC_OscConfig+0x6c6>
 8005ae8:	2001      	movs	r0, #1
 8005aea:	e000      	b.n	8005aee <HAL_RCC_OscConfig+0x6c6>
 8005aec:	2000      	movs	r0, #0
 8005aee:	b003      	add	sp, #12
 8005af0:	bdf0      	pop	{r4, r5, r6, r7, pc}
 8005af2:	2001      	movs	r0, #1
 8005af4:	e7fb      	b.n	8005aee <HAL_RCC_OscConfig+0x6c6>
 8005af6:	2001      	movs	r0, #1
 8005af8:	e7f9      	b.n	8005aee <HAL_RCC_OscConfig+0x6c6>
 8005afa:	bf00      	nop
 8005afc:	40021000 	.word	0x40021000
 8005b00:	f99f808c 	.word	0xf99f808c

08005b04 <HAL_RCC_ClockConfig>:
 8005b04:	2800      	cmp	r0, #0
 8005b06:	f000 80af 	beq.w	8005c68 <HAL_RCC_ClockConfig+0x164>
 8005b0a:	b570      	push	{r4, r5, r6, lr}
 8005b0c:	460d      	mov	r5, r1
 8005b0e:	4604      	mov	r4, r0
 8005b10:	4b59      	ldr	r3, [pc, #356]	@ (8005c78 <HAL_RCC_ClockConfig+0x174>)
 8005b12:	681b      	ldr	r3, [r3, #0]
 8005b14:	f003 0307 	and.w	r3, r3, #7
 8005b18:	428b      	cmp	r3, r1
 8005b1a:	d20b      	bcs.n	8005b34 <HAL_RCC_ClockConfig+0x30>
 8005b1c:	4a56      	ldr	r2, [pc, #344]	@ (8005c78 <HAL_RCC_ClockConfig+0x174>)
 8005b1e:	6813      	ldr	r3, [r2, #0]
 8005b20:	f023 0307 	bic.w	r3, r3, #7
 8005b24:	430b      	orrs	r3, r1
 8005b26:	6013      	str	r3, [r2, #0]
 8005b28:	6813      	ldr	r3, [r2, #0]
 8005b2a:	f003 0307 	and.w	r3, r3, #7
 8005b2e:	428b      	cmp	r3, r1
 8005b30:	f040 809c 	bne.w	8005c6c <HAL_RCC_ClockConfig+0x168>
 8005b34:	6823      	ldr	r3, [r4, #0]
 8005b36:	f013 0f02 	tst.w	r3, #2
 8005b3a:	d00c      	beq.n	8005b56 <HAL_RCC_ClockConfig+0x52>
 8005b3c:	68a2      	ldr	r2, [r4, #8]
 8005b3e:	4b4f      	ldr	r3, [pc, #316]	@ (8005c7c <HAL_RCC_ClockConfig+0x178>)
 8005b40:	689b      	ldr	r3, [r3, #8]
 8005b42:	f003 03f0 	and.w	r3, r3, #240	@ 0xf0
 8005b46:	429a      	cmp	r2, r3
 8005b48:	d905      	bls.n	8005b56 <HAL_RCC_ClockConfig+0x52>
 8005b4a:	494c      	ldr	r1, [pc, #304]	@ (8005c7c <HAL_RCC_ClockConfig+0x178>)
 8005b4c:	688b      	ldr	r3, [r1, #8]
 8005b4e:	f023 03f0 	bic.w	r3, r3, #240	@ 0xf0
 8005b52:	431a      	orrs	r2, r3
 8005b54:	608a      	str	r2, [r1, #8]
 8005b56:	6823      	ldr	r3, [r4, #0]
 8005b58:	f013 0f01 	tst.w	r3, #1
 8005b5c:	d039      	beq.n	8005bd2 <HAL_RCC_ClockConfig+0xce>
 8005b5e:	6863      	ldr	r3, [r4, #4]
 8005b60:	2b03      	cmp	r3, #3
 8005b62:	d009      	beq.n	8005b78 <HAL_RCC_ClockConfig+0x74>
 8005b64:	2b02      	cmp	r3, #2
 8005b66:	d026      	beq.n	8005bb6 <HAL_RCC_ClockConfig+0xb2>
 8005b68:	bb63      	cbnz	r3, 8005bc4 <HAL_RCC_ClockConfig+0xc0>
 8005b6a:	4a44      	ldr	r2, [pc, #272]	@ (8005c7c <HAL_RCC_ClockConfig+0x178>)
 8005b6c:	6812      	ldr	r2, [r2, #0]
 8005b6e:	f012 0f02 	tst.w	r2, #2
 8005b72:	d106      	bne.n	8005b82 <HAL_RCC_ClockConfig+0x7e>
 8005b74:	2001      	movs	r0, #1
 8005b76:	e076      	b.n	8005c66 <HAL_RCC_ClockConfig+0x162>
 8005b78:	4a40      	ldr	r2, [pc, #256]	@ (8005c7c <HAL_RCC_ClockConfig+0x178>)
 8005b7a:	6812      	ldr	r2, [r2, #0]
 8005b7c:	f012 7f00 	tst.w	r2, #33554432	@ 0x2000000
 8005b80:	d076      	beq.n	8005c70 <HAL_RCC_ClockConfig+0x16c>
 8005b82:	493e      	ldr	r1, [pc, #248]	@ (8005c7c <HAL_RCC_ClockConfig+0x178>)
 8005b84:	688a      	ldr	r2, [r1, #8]
 8005b86:	f022 0203 	bic.w	r2, r2, #3
 8005b8a:	4313      	orrs	r3, r2
 8005b8c:	608b      	str	r3, [r1, #8]
 8005b8e:	f7fd f829 	bl	8002be4 <HAL_GetTick>
 8005b92:	4606      	mov	r6, r0
 8005b94:	4b39      	ldr	r3, [pc, #228]	@ (8005c7c <HAL_RCC_ClockConfig+0x178>)
 8005b96:	689b      	ldr	r3, [r3, #8]
 8005b98:	f003 030c 	and.w	r3, r3, #12
 8005b9c:	6862      	ldr	r2, [r4, #4]
 8005b9e:	ebb3 0f82 	cmp.w	r3, r2, lsl #2
 8005ba2:	d016      	beq.n	8005bd2 <HAL_RCC_ClockConfig+0xce>
 8005ba4:	f7fd f81e 	bl	8002be4 <HAL_GetTick>
 8005ba8:	1b80      	subs	r0, r0, r6
 8005baa:	f241 3388 	movw	r3, #5000	@ 0x1388
 8005bae:	4298      	cmp	r0, r3
 8005bb0:	d9f0      	bls.n	8005b94 <HAL_RCC_ClockConfig+0x90>
 8005bb2:	2003      	movs	r0, #3
 8005bb4:	e057      	b.n	8005c66 <HAL_RCC_ClockConfig+0x162>
 8005bb6:	4a31      	ldr	r2, [pc, #196]	@ (8005c7c <HAL_RCC_ClockConfig+0x178>)
 8005bb8:	6812      	ldr	r2, [r2, #0]
 8005bba:	f412 3f00 	tst.w	r2, #131072	@ 0x20000
 8005bbe:	d1e0      	bne.n	8005b82 <HAL_RCC_ClockConfig+0x7e>
 8005bc0:	2001      	movs	r0, #1
 8005bc2:	e050      	b.n	8005c66 <HAL_RCC_ClockConfig+0x162>
 8005bc4:	4a2d      	ldr	r2, [pc, #180]	@ (8005c7c <HAL_RCC_ClockConfig+0x178>)
 8005bc6:	6812      	ldr	r2, [r2, #0]
 8005bc8:	f412 6f80 	tst.w	r2, #1024	@ 0x400
 8005bcc:	d1d9      	bne.n	8005b82 <HAL_RCC_ClockConfig+0x7e>
 8005bce:	2001      	movs	r0, #1
 8005bd0:	e049      	b.n	8005c66 <HAL_RCC_ClockConfig+0x162>
 8005bd2:	6823      	ldr	r3, [r4, #0]
 8005bd4:	f013 0f02 	tst.w	r3, #2
 8005bd8:	d00c      	beq.n	8005bf4 <HAL_RCC_ClockConfig+0xf0>
 8005bda:	68a2      	ldr	r2, [r4, #8]
 8005bdc:	4b27      	ldr	r3, [pc, #156]	@ (8005c7c <HAL_RCC_ClockConfig+0x178>)
 8005bde:	689b      	ldr	r3, [r3, #8]
 8005be0:	f003 03f0 	and.w	r3, r3, #240	@ 0xf0
 8005be4:	429a      	cmp	r2, r3
 8005be6:	d205      	bcs.n	8005bf4 <HAL_RCC_ClockConfig+0xf0>
 8005be8:	4924      	ldr	r1, [pc, #144]	@ (8005c7c <HAL_RCC_ClockConfig+0x178>)
 8005bea:	688b      	ldr	r3, [r1, #8]
 8005bec:	f023 03f0 	bic.w	r3, r3, #240	@ 0xf0
 8005bf0:	431a      	orrs	r2, r3
 8005bf2:	608a      	str	r2, [r1, #8]
 8005bf4:	4b20      	ldr	r3, [pc, #128]	@ (8005c78 <HAL_RCC_ClockConfig+0x174>)
 8005bf6:	681b      	ldr	r3, [r3, #0]
 8005bf8:	f003 0307 	and.w	r3, r3, #7
 8005bfc:	42ab      	cmp	r3, r5
 8005bfe:	d90a      	bls.n	8005c16 <HAL_RCC_ClockConfig+0x112>
 8005c00:	4a1d      	ldr	r2, [pc, #116]	@ (8005c78 <HAL_RCC_ClockConfig+0x174>)
 8005c02:	6813      	ldr	r3, [r2, #0]
 8005c04:	f023 0307 	bic.w	r3, r3, #7
 8005c08:	432b      	orrs	r3, r5
 8005c0a:	6013      	str	r3, [r2, #0]
 8005c0c:	6813      	ldr	r3, [r2, #0]
 8005c0e:	f003 0307 	and.w	r3, r3, #7
 8005c12:	42ab      	cmp	r3, r5
 8005c14:	d12e      	bne.n	8005c74 <HAL_RCC_ClockConfig+0x170>
 8005c16:	6823      	ldr	r3, [r4, #0]
 8005c18:	f013 0f04 	tst.w	r3, #4
 8005c1c:	d006      	beq.n	8005c2c <HAL_RCC_ClockConfig+0x128>
 8005c1e:	4a17      	ldr	r2, [pc, #92]	@ (8005c7c <HAL_RCC_ClockConfig+0x178>)
 8005c20:	6893      	ldr	r3, [r2, #8]
 8005c22:	f423 63e0 	bic.w	r3, r3, #1792	@ 0x700
 8005c26:	68e1      	ldr	r1, [r4, #12]
 8005c28:	430b      	orrs	r3, r1
 8005c2a:	6093      	str	r3, [r2, #8]
 8005c2c:	6823      	ldr	r3, [r4, #0]
 8005c2e:	f013 0f08 	tst.w	r3, #8
 8005c32:	d007      	beq.n	8005c44 <HAL_RCC_ClockConfig+0x140>
 8005c34:	4a11      	ldr	r2, [pc, #68]	@ (8005c7c <HAL_RCC_ClockConfig+0x178>)
 8005c36:	6893      	ldr	r3, [r2, #8]
 8005c38:	f423 5360 	bic.w	r3, r3, #14336	@ 0x3800
 8005c3c:	6921      	ldr	r1, [r4, #16]
 8005c3e:	ea43 03c1 	orr.w	r3, r3, r1, lsl #3
 8005c42:	6093      	str	r3, [r2, #8]
 8005c44:	f7ff fb9c 	bl	8005380 <HAL_RCC_GetSysClockFreq>
 8005c48:	4b0c      	ldr	r3, [pc, #48]	@ (8005c7c <HAL_RCC_ClockConfig+0x178>)
 8005c4a:	689b      	ldr	r3, [r3, #8]
 8005c4c:	f3c3 1303 	ubfx	r3, r3, #4, #4
 8005c50:	4a0b      	ldr	r2, [pc, #44]	@ (8005c80 <HAL_RCC_ClockConfig+0x17c>)
 8005c52:	5cd3      	ldrb	r3, [r2, r3]
 8005c54:	f003 031f 	and.w	r3, r3, #31
 8005c58:	40d8      	lsrs	r0, r3
 8005c5a:	4b0a      	ldr	r3, [pc, #40]	@ (8005c84 <HAL_RCC_ClockConfig+0x180>)
 8005c5c:	6018      	str	r0, [r3, #0]
 8005c5e:	4b0a      	ldr	r3, [pc, #40]	@ (8005c88 <HAL_RCC_ClockConfig+0x184>)
 8005c60:	6818      	ldr	r0, [r3, #0]
 8005c62:	f7fc ff75 	bl	8002b50 <HAL_InitTick>
 8005c66:	bd70      	pop	{r4, r5, r6, pc}
 8005c68:	2001      	movs	r0, #1
 8005c6a:	4770      	bx	lr
 8005c6c:	2001      	movs	r0, #1
 8005c6e:	e7fa      	b.n	8005c66 <HAL_RCC_ClockConfig+0x162>
 8005c70:	2001      	movs	r0, #1
 8005c72:	e7f8      	b.n	8005c66 <HAL_RCC_ClockConfig+0x162>
 8005c74:	2001      	movs	r0, #1
 8005c76:	e7f6      	b.n	8005c66 <HAL_RCC_ClockConfig+0x162>
 8005c78:	40022000 	.word	0x40022000
 8005c7c:	40021000 	.word	0x40021000
 8005c80:	0800ce04 	.word	0x0800ce04
 8005c84:	200000c4 	.word	0x200000c4
 8005c88:	200000bc 	.word	0x200000bc

08005c8c <HAL_RCC_GetHCLKFreq>:
 8005c8c:	4b01      	ldr	r3, [pc, #4]	@ (8005c94 <HAL_RCC_GetHCLKFreq+0x8>)
 8005c8e:	6818      	ldr	r0, [r3, #0]
 8005c90:	4770      	bx	lr
 8005c92:	bf00      	nop
 8005c94:	200000c4 	.word	0x200000c4

08005c98 <HAL_RCC_GetPCLK1Freq>:
 8005c98:	b508      	push	{r3, lr}
 8005c9a:	f7ff fff7 	bl	8005c8c <HAL_RCC_GetHCLKFreq>
 8005c9e:	4b05      	ldr	r3, [pc, #20]	@ (8005cb4 <HAL_RCC_GetPCLK1Freq+0x1c>)
 8005ca0:	689b      	ldr	r3, [r3, #8]
 8005ca2:	f3c3 2302 	ubfx	r3, r3, #8, #3
 8005ca6:	4a04      	ldr	r2, [pc, #16]	@ (8005cb8 <HAL_RCC_GetPCLK1Freq+0x20>)
 8005ca8:	5cd3      	ldrb	r3, [r2, r3]
 8005caa:	f003 031f 	and.w	r3, r3, #31
 8005cae:	40d8      	lsrs	r0, r3
 8005cb0:	bd08      	pop	{r3, pc}
 8005cb2:	bf00      	nop
 8005cb4:	40021000 	.word	0x40021000
 8005cb8:	0800cdfc 	.word	0x0800cdfc

08005cbc <HAL_RCC_GetPCLK2Freq>:
 8005cbc:	b508      	push	{r3, lr}
 8005cbe:	f7ff ffe5 	bl	8005c8c <HAL_RCC_GetHCLKFreq>
 8005cc2:	4b05      	ldr	r3, [pc, #20]	@ (8005cd8 <HAL_RCC_GetPCLK2Freq+0x1c>)
 8005cc4:	689b      	ldr	r3, [r3, #8]
 8005cc6:	f3c3 23c2 	ubfx	r3, r3, #11, #3
 8005cca:	4a04      	ldr	r2, [pc, #16]	@ (8005cdc <HAL_RCC_GetPCLK2Freq+0x20>)
 8005ccc:	5cd3      	ldrb	r3, [r2, r3]
 8005cce:	f003 031f 	and.w	r3, r3, #31
 8005cd2:	40d8      	lsrs	r0, r3
 8005cd4:	bd08      	pop	{r3, pc}
 8005cd6:	bf00      	nop
 8005cd8:	40021000 	.word	0x40021000
 8005cdc:	0800cdfc 	.word	0x0800cdfc

08005ce0 <HAL_RCCEx_PeriphCLKConfig>:
 8005ce0:	b5f0      	push	{r4, r5, r6, r7, lr}
 8005ce2:	b083      	sub	sp, #12
 8005ce4:	4604      	mov	r4, r0
 8005ce6:	6803      	ldr	r3, [r0, #0]
 8005ce8:	f413 3f00 	tst.w	r3, #131072	@ 0x20000
 8005cec:	d069      	beq.n	8005dc2 <HAL_RCCEx_PeriphCLKConfig+0xe2>
 8005cee:	4b87      	ldr	r3, [pc, #540]	@ (8005f0c <HAL_RCCEx_PeriphCLKConfig+0x22c>)
 8005cf0:	6d9b      	ldr	r3, [r3, #88]	@ 0x58
 8005cf2:	f013 5f80 	tst.w	r3, #268435456	@ 0x10000000
 8005cf6:	d11e      	bne.n	8005d36 <HAL_RCCEx_PeriphCLKConfig+0x56>
 8005cf8:	4b84      	ldr	r3, [pc, #528]	@ (8005f0c <HAL_RCCEx_PeriphCLKConfig+0x22c>)
 8005cfa:	6d9a      	ldr	r2, [r3, #88]	@ 0x58
 8005cfc:	f042 5280 	orr.w	r2, r2, #268435456	@ 0x10000000
 8005d00:	659a      	str	r2, [r3, #88]	@ 0x58
 8005d02:	6d9b      	ldr	r3, [r3, #88]	@ 0x58
 8005d04:	f003 5380 	and.w	r3, r3, #268435456	@ 0x10000000
 8005d08:	9301      	str	r3, [sp, #4]
 8005d0a:	9b01      	ldr	r3, [sp, #4]
 8005d0c:	2601      	movs	r6, #1
 8005d0e:	4a80      	ldr	r2, [pc, #512]	@ (8005f10 <HAL_RCCEx_PeriphCLKConfig+0x230>)
 8005d10:	6813      	ldr	r3, [r2, #0]
 8005d12:	f443 7380 	orr.w	r3, r3, #256	@ 0x100
 8005d16:	6013      	str	r3, [r2, #0]
 8005d18:	f7fc ff64 	bl	8002be4 <HAL_GetTick>
 8005d1c:	4605      	mov	r5, r0
 8005d1e:	4b7c      	ldr	r3, [pc, #496]	@ (8005f10 <HAL_RCCEx_PeriphCLKConfig+0x230>)
 8005d20:	681b      	ldr	r3, [r3, #0]
 8005d22:	f413 7f80 	tst.w	r3, #256	@ 0x100
 8005d26:	d108      	bne.n	8005d3a <HAL_RCCEx_PeriphCLKConfig+0x5a>
 8005d28:	f7fc ff5c 	bl	8002be4 <HAL_GetTick>
 8005d2c:	1b40      	subs	r0, r0, r5
 8005d2e:	2802      	cmp	r0, #2
 8005d30:	d9f5      	bls.n	8005d1e <HAL_RCCEx_PeriphCLKConfig+0x3e>
 8005d32:	2503      	movs	r5, #3
 8005d34:	e002      	b.n	8005d3c <HAL_RCCEx_PeriphCLKConfig+0x5c>
 8005d36:	2600      	movs	r6, #0
 8005d38:	e7e9      	b.n	8005d0e <HAL_RCCEx_PeriphCLKConfig+0x2e>
 8005d3a:	2500      	movs	r5, #0
 8005d3c:	bb45      	cbnz	r5, 8005d90 <HAL_RCCEx_PeriphCLKConfig+0xb0>
 8005d3e:	4b73      	ldr	r3, [pc, #460]	@ (8005f0c <HAL_RCCEx_PeriphCLKConfig+0x22c>)
 8005d40:	f8d3 3090 	ldr.w	r3, [r3, #144]	@ 0x90
 8005d44:	f413 7340 	ands.w	r3, r3, #768	@ 0x300
 8005d48:	d018      	beq.n	8005d7c <HAL_RCCEx_PeriphCLKConfig+0x9c>
 8005d4a:	6b22      	ldr	r2, [r4, #48]	@ 0x30
 8005d4c:	429a      	cmp	r2, r3
 8005d4e:	d012      	beq.n	8005d76 <HAL_RCCEx_PeriphCLKConfig+0x96>
 8005d50:	4a6e      	ldr	r2, [pc, #440]	@ (8005f0c <HAL_RCCEx_PeriphCLKConfig+0x22c>)
 8005d52:	f8d2 3090 	ldr.w	r3, [r2, #144]	@ 0x90
 8005d56:	f423 7340 	bic.w	r3, r3, #768	@ 0x300
 8005d5a:	f8d2 1090 	ldr.w	r1, [r2, #144]	@ 0x90
 8005d5e:	f441 3180 	orr.w	r1, r1, #65536	@ 0x10000
 8005d62:	f8c2 1090 	str.w	r1, [r2, #144]	@ 0x90
 8005d66:	f8d2 1090 	ldr.w	r1, [r2, #144]	@ 0x90
 8005d6a:	f421 3180 	bic.w	r1, r1, #65536	@ 0x10000
 8005d6e:	f8c2 1090 	str.w	r1, [r2, #144]	@ 0x90
 8005d72:	f8c2 3090 	str.w	r3, [r2, #144]	@ 0x90
 8005d76:	f013 0f01 	tst.w	r3, #1
 8005d7a:	d110      	bne.n	8005d9e <HAL_RCCEx_PeriphCLKConfig+0xbe>
 8005d7c:	b945      	cbnz	r5, 8005d90 <HAL_RCCEx_PeriphCLKConfig+0xb0>
 8005d7e:	4a63      	ldr	r2, [pc, #396]	@ (8005f0c <HAL_RCCEx_PeriphCLKConfig+0x22c>)
 8005d80:	f8d2 3090 	ldr.w	r3, [r2, #144]	@ 0x90
 8005d84:	f423 7340 	bic.w	r3, r3, #768	@ 0x300
 8005d88:	6b21      	ldr	r1, [r4, #48]	@ 0x30
 8005d8a:	430b      	orrs	r3, r1
 8005d8c:	f8c2 3090 	str.w	r3, [r2, #144]	@ 0x90
 8005d90:	b1c6      	cbz	r6, 8005dc4 <HAL_RCCEx_PeriphCLKConfig+0xe4>
 8005d92:	4a5e      	ldr	r2, [pc, #376]	@ (8005f0c <HAL_RCCEx_PeriphCLKConfig+0x22c>)
 8005d94:	6d93      	ldr	r3, [r2, #88]	@ 0x58
 8005d96:	f023 5380 	bic.w	r3, r3, #268435456	@ 0x10000000
 8005d9a:	6593      	str	r3, [r2, #88]	@ 0x58
 8005d9c:	e012      	b.n	8005dc4 <HAL_RCCEx_PeriphCLKConfig+0xe4>
 8005d9e:	f7fc ff21 	bl	8002be4 <HAL_GetTick>
 8005da2:	4607      	mov	r7, r0
 8005da4:	4b59      	ldr	r3, [pc, #356]	@ (8005f0c <HAL_RCCEx_PeriphCLKConfig+0x22c>)
 8005da6:	f8d3 3090 	ldr.w	r3, [r3, #144]	@ 0x90
 8005daa:	f013 0f02 	tst.w	r3, #2
 8005dae:	d1e5      	bne.n	8005d7c <HAL_RCCEx_PeriphCLKConfig+0x9c>
 8005db0:	f7fc ff18 	bl	8002be4 <HAL_GetTick>
 8005db4:	1bc0      	subs	r0, r0, r7
 8005db6:	f241 3388 	movw	r3, #5000	@ 0x1388
 8005dba:	4298      	cmp	r0, r3
 8005dbc:	d9f2      	bls.n	8005da4 <HAL_RCCEx_PeriphCLKConfig+0xc4>
 8005dbe:	2503      	movs	r5, #3
 8005dc0:	e7dc      	b.n	8005d7c <HAL_RCCEx_PeriphCLKConfig+0x9c>
 8005dc2:	2500      	movs	r5, #0
 8005dc4:	6823      	ldr	r3, [r4, #0]
 8005dc6:	f013 0f01 	tst.w	r3, #1
 8005dca:	d008      	beq.n	8005dde <HAL_RCCEx_PeriphCLKConfig+0xfe>
 8005dcc:	4a4f      	ldr	r2, [pc, #316]	@ (8005f0c <HAL_RCCEx_PeriphCLKConfig+0x22c>)
 8005dce:	f8d2 3088 	ldr.w	r3, [r2, #136]	@ 0x88
 8005dd2:	f023 0303 	bic.w	r3, r3, #3
 8005dd6:	6861      	ldr	r1, [r4, #4]
 8005dd8:	430b      	orrs	r3, r1
 8005dda:	f8c2 3088 	str.w	r3, [r2, #136]	@ 0x88
 8005dde:	6823      	ldr	r3, [r4, #0]
 8005de0:	f013 0f02 	tst.w	r3, #2
 8005de4:	d008      	beq.n	8005df8 <HAL_RCCEx_PeriphCLKConfig+0x118>
 8005de6:	4a49      	ldr	r2, [pc, #292]	@ (8005f0c <HAL_RCCEx_PeriphCLKConfig+0x22c>)
 8005de8:	f8d2 3088 	ldr.w	r3, [r2, #136]	@ 0x88
 8005dec:	f023 030c 	bic.w	r3, r3, #12
 8005df0:	68a1      	ldr	r1, [r4, #8]
 8005df2:	430b      	orrs	r3, r1
 8005df4:	f8c2 3088 	str.w	r3, [r2, #136]	@ 0x88
 8005df8:	6823      	ldr	r3, [r4, #0]
 8005dfa:	f013 0f04 	tst.w	r3, #4
 8005dfe:	d008      	beq.n	8005e12 <HAL_RCCEx_PeriphCLKConfig+0x132>
 8005e00:	4a42      	ldr	r2, [pc, #264]	@ (8005f0c <HAL_RCCEx_PeriphCLKConfig+0x22c>)
 8005e02:	f8d2 3088 	ldr.w	r3, [r2, #136]	@ 0x88
 8005e06:	f023 0330 	bic.w	r3, r3, #48	@ 0x30
 8005e0a:	68e1      	ldr	r1, [r4, #12]
 8005e0c:	430b      	orrs	r3, r1
 8005e0e:	f8c2 3088 	str.w	r3, [r2, #136]	@ 0x88
 8005e12:	6823      	ldr	r3, [r4, #0]
 8005e14:	f013 0f20 	tst.w	r3, #32
 8005e18:	d008      	beq.n	8005e2c <HAL_RCCEx_PeriphCLKConfig+0x14c>
 8005e1a:	4a3c      	ldr	r2, [pc, #240]	@ (8005f0c <HAL_RCCEx_PeriphCLKConfig+0x22c>)
 8005e1c:	f8d2 3088 	ldr.w	r3, [r2, #136]	@ 0x88
 8005e20:	f423 6340 	bic.w	r3, r3, #3072	@ 0xc00
 8005e24:	6921      	ldr	r1, [r4, #16]
 8005e26:	430b      	orrs	r3, r1
 8005e28:	f8c2 3088 	str.w	r3, [r2, #136]	@ 0x88
 8005e2c:	6823      	ldr	r3, [r4, #0]
 8005e2e:	f413 7f00 	tst.w	r3, #512	@ 0x200
 8005e32:	d008      	beq.n	8005e46 <HAL_RCCEx_PeriphCLKConfig+0x166>
 8005e34:	4a35      	ldr	r2, [pc, #212]	@ (8005f0c <HAL_RCCEx_PeriphCLKConfig+0x22c>)
 8005e36:	f8d2 3088 	ldr.w	r3, [r2, #136]	@ 0x88
 8005e3a:	f423 2340 	bic.w	r3, r3, #786432	@ 0xc0000
 8005e3e:	6a21      	ldr	r1, [r4, #32]
 8005e40:	430b      	orrs	r3, r1
 8005e42:	f8c2 3088 	str.w	r3, [r2, #136]	@ 0x88
 8005e46:	6823      	ldr	r3, [r4, #0]
 8005e48:	f413 6f80 	tst.w	r3, #1024	@ 0x400
 8005e4c:	d008      	beq.n	8005e60 <HAL_RCCEx_PeriphCLKConfig+0x180>
 8005e4e:	4a2f      	ldr	r2, [pc, #188]	@ (8005f0c <HAL_RCCEx_PeriphCLKConfig+0x22c>)
 8005e50:	f8d2 3088 	ldr.w	r3, [r2, #136]	@ 0x88
 8005e54:	f423 1340 	bic.w	r3, r3, #3145728	@ 0x300000
 8005e58:	6a61      	ldr	r1, [r4, #36]	@ 0x24
 8005e5a:	430b      	orrs	r3, r1
 8005e5c:	f8c2 3088 	str.w	r3, [r2, #136]	@ 0x88
 8005e60:	6823      	ldr	r3, [r4, #0]
 8005e62:	f013 0f40 	tst.w	r3, #64	@ 0x40
 8005e66:	d008      	beq.n	8005e7a <HAL_RCCEx_PeriphCLKConfig+0x19a>
 8005e68:	4a28      	ldr	r2, [pc, #160]	@ (8005f0c <HAL_RCCEx_PeriphCLKConfig+0x22c>)
 8005e6a:	f8d2 3088 	ldr.w	r3, [r2, #136]	@ 0x88
 8005e6e:	f423 5340 	bic.w	r3, r3, #12288	@ 0x3000
 8005e72:	6961      	ldr	r1, [r4, #20]
 8005e74:	430b      	orrs	r3, r1
 8005e76:	f8c2 3088 	str.w	r3, [r2, #136]	@ 0x88
 8005e7a:	6823      	ldr	r3, [r4, #0]
 8005e7c:	f013 0f80 	tst.w	r3, #128	@ 0x80
 8005e80:	d008      	beq.n	8005e94 <HAL_RCCEx_PeriphCLKConfig+0x1b4>
 8005e82:	4a22      	ldr	r2, [pc, #136]	@ (8005f0c <HAL_RCCEx_PeriphCLKConfig+0x22c>)
 8005e84:	f8d2 3088 	ldr.w	r3, [r2, #136]	@ 0x88
 8005e88:	f423 4340 	bic.w	r3, r3, #49152	@ 0xc000
 8005e8c:	69a1      	ldr	r1, [r4, #24]
 8005e8e:	430b      	orrs	r3, r1
 8005e90:	f8c2 3088 	str.w	r3, [r2, #136]	@ 0x88
 8005e94:	6823      	ldr	r3, [r4, #0]
 8005e96:	f413 7f80 	tst.w	r3, #256	@ 0x100
 8005e9a:	d008      	beq.n	8005eae <HAL_RCCEx_PeriphCLKConfig+0x1ce>
 8005e9c:	4a1b      	ldr	r2, [pc, #108]	@ (8005f0c <HAL_RCCEx_PeriphCLKConfig+0x22c>)
 8005e9e:	f8d2 3088 	ldr.w	r3, [r2, #136]	@ 0x88
 8005ea2:	f423 3340 	bic.w	r3, r3, #196608	@ 0x30000
 8005ea6:	69e1      	ldr	r1, [r4, #28]
 8005ea8:	430b      	orrs	r3, r1
 8005eaa:	f8c2 3088 	str.w	r3, [r2, #136]	@ 0x88
 8005eae:	6823      	ldr	r3, [r4, #0]
 8005eb0:	f413 5f00 	tst.w	r3, #8192	@ 0x2000
 8005eb4:	d00c      	beq.n	8005ed0 <HAL_RCCEx_PeriphCLKConfig+0x1f0>
 8005eb6:	4a15      	ldr	r2, [pc, #84]	@ (8005f0c <HAL_RCCEx_PeriphCLKConfig+0x22c>)
 8005eb8:	f8d2 3088 	ldr.w	r3, [r2, #136]	@ 0x88
 8005ebc:	f023 6340 	bic.w	r3, r3, #201326592	@ 0xc000000
 8005ec0:	6aa1      	ldr	r1, [r4, #40]	@ 0x28
 8005ec2:	430b      	orrs	r3, r1
 8005ec4:	f8c2 3088 	str.w	r3, [r2, #136]	@ 0x88
 8005ec8:	6aa3      	ldr	r3, [r4, #40]	@ 0x28
 8005eca:	f1b3 6f00 	cmp.w	r3, #134217728	@ 0x8000000
 8005ece:	d013      	beq.n	8005ef8 <HAL_RCCEx_PeriphCLKConfig+0x218>
 8005ed0:	6823      	ldr	r3, [r4, #0]
 8005ed2:	f413 2f80 	tst.w	r3, #262144	@ 0x40000
 8005ed6:	d00c      	beq.n	8005ef2 <HAL_RCCEx_PeriphCLKConfig+0x212>
 8005ed8:	4a0c      	ldr	r2, [pc, #48]	@ (8005f0c <HAL_RCCEx_PeriphCLKConfig+0x22c>)
 8005eda:	f8d2 3088 	ldr.w	r3, [r2, #136]	@ 0x88
 8005ede:	f023 6340 	bic.w	r3, r3, #201326592	@ 0xc000000
 8005ee2:	6ae1      	ldr	r1, [r4, #44]	@ 0x2c
 8005ee4:	430b      	orrs	r3, r1
 8005ee6:	f8c2 3088 	str.w	r3, [r2, #136]	@ 0x88
 8005eea:	6ae3      	ldr	r3, [r4, #44]	@ 0x2c
 8005eec:	f1b3 6f00 	cmp.w	r3, #134217728	@ 0x8000000
 8005ef0:	d007      	beq.n	8005f02 <HAL_RCCEx_PeriphCLKConfig+0x222>
 8005ef2:	4628      	mov	r0, r5
 8005ef4:	b003      	add	sp, #12
 8005ef6:	bdf0      	pop	{r4, r5, r6, r7, pc}
 8005ef8:	68d3      	ldr	r3, [r2, #12]
 8005efa:	f443 1380 	orr.w	r3, r3, #1048576	@ 0x100000
 8005efe:	60d3      	str	r3, [r2, #12]
 8005f00:	e7e6      	b.n	8005ed0 <HAL_RCCEx_PeriphCLKConfig+0x1f0>
 8005f02:	68d3      	ldr	r3, [r2, #12]
 8005f04:	f443 1380 	orr.w	r3, r3, #1048576	@ 0x100000
 8005f08:	60d3      	str	r3, [r2, #12]
 8005f0a:	e7f2      	b.n	8005ef2 <HAL_RCCEx_PeriphCLKConfig+0x212>
 8005f0c:	40021000 	.word	0x40021000
 8005f10:	40007000 	.word	0x40007000

08005f14 <HAL_RCCEx_EnableMSIPLLMode>:
 8005f14:	4a02      	ldr	r2, [pc, #8]	@ (8005f20 <HAL_RCCEx_EnableMSIPLLMode+0xc>)
 8005f16:	6813      	ldr	r3, [r2, #0]
 8005f18:	f043 0304 	orr.w	r3, r3, #4
 8005f1c:	6013      	str	r3, [r2, #0]
 8005f1e:	4770      	bx	lr
 8005f20:	40021000 	.word	0x40021000

08005f24 <HAL_RTC_WaitForSynchro>:
 8005f24:	b538      	push	{r3, r4, r5, lr}
 8005f26:	4604      	mov	r4, r0
 8005f28:	6803      	ldr	r3, [r0, #0]
 8005f2a:	4a0a      	ldr	r2, [pc, #40]	@ (8005f54 <HAL_RTC_WaitForSynchro+0x30>)
 8005f2c:	60da      	str	r2, [r3, #12]
 8005f2e:	f7fc fe59 	bl	8002be4 <HAL_GetTick>
 8005f32:	4605      	mov	r5, r0
 8005f34:	6823      	ldr	r3, [r4, #0]
 8005f36:	68db      	ldr	r3, [r3, #12]
 8005f38:	f013 0f20 	tst.w	r3, #32
 8005f3c:	d107      	bne.n	8005f4e <HAL_RTC_WaitForSynchro+0x2a>
 8005f3e:	f7fc fe51 	bl	8002be4 <HAL_GetTick>
 8005f42:	1b40      	subs	r0, r0, r5
 8005f44:	f5b0 7f7a 	cmp.w	r0, #1000	@ 0x3e8
 8005f48:	d9f4      	bls.n	8005f34 <HAL_RTC_WaitForSynchro+0x10>
 8005f4a:	2003      	movs	r0, #3
 8005f4c:	e000      	b.n	8005f50 <HAL_RTC_WaitForSynchro+0x2c>
 8005f4e:	2000      	movs	r0, #0
 8005f50:	bd38      	pop	{r3, r4, r5, pc}
 8005f52:	bf00      	nop
 8005f54:	0001005c 	.word	0x0001005c

08005f58 <RTC_EnterInitMode>:
 8005f58:	b570      	push	{r4, r5, r6, lr}
 8005f5a:	6803      	ldr	r3, [r0, #0]
 8005f5c:	68da      	ldr	r2, [r3, #12]
 8005f5e:	f012 0f40 	tst.w	r2, #64	@ 0x40
 8005f62:	d002      	beq.n	8005f6a <RTC_EnterInitMode+0x12>
 8005f64:	2500      	movs	r5, #0
 8005f66:	4628      	mov	r0, r5
 8005f68:	bd70      	pop	{r4, r5, r6, pc}
 8005f6a:	4604      	mov	r4, r0
 8005f6c:	68da      	ldr	r2, [r3, #12]
 8005f6e:	f042 0280 	orr.w	r2, r2, #128	@ 0x80
 8005f72:	60da      	str	r2, [r3, #12]
 8005f74:	f7fc fe36 	bl	8002be4 <HAL_GetTick>
 8005f78:	4606      	mov	r6, r0
 8005f7a:	2500      	movs	r5, #0
 8005f7c:	6823      	ldr	r3, [r4, #0]
 8005f7e:	68db      	ldr	r3, [r3, #12]
 8005f80:	f013 0f40 	tst.w	r3, #64	@ 0x40
 8005f84:	d1ef      	bne.n	8005f66 <RTC_EnterInitMode+0xe>
 8005f86:	2d03      	cmp	r5, #3
 8005f88:	d0ed      	beq.n	8005f66 <RTC_EnterInitMode+0xe>
 8005f8a:	f7fc fe2b 	bl	8002be4 <HAL_GetTick>
 8005f8e:	1b83      	subs	r3, r0, r6
 8005f90:	f5b3 7f7a 	cmp.w	r3, #1000	@ 0x3e8
 8005f94:	d9f2      	bls.n	8005f7c <RTC_EnterInitMode+0x24>
 8005f96:	2503      	movs	r5, #3
 8005f98:	f884 5029 	strb.w	r5, [r4, #41]	@ 0x29
 8005f9c:	e7ee      	b.n	8005f7c <RTC_EnterInitMode+0x24>
	...

08005fa0 <RTC_ExitInitMode>:
 8005fa0:	b510      	push	{r4, lr}
 8005fa2:	4604      	mov	r4, r0
 8005fa4:	4b10      	ldr	r3, [pc, #64]	@ (8005fe8 <RTC_ExitInitMode+0x48>)
 8005fa6:	68da      	ldr	r2, [r3, #12]
 8005fa8:	f022 0280 	bic.w	r2, r2, #128	@ 0x80
 8005fac:	60da      	str	r2, [r3, #12]
 8005fae:	699b      	ldr	r3, [r3, #24]
 8005fb0:	f013 0f20 	tst.w	r3, #32
 8005fb4:	d106      	bne.n	8005fc4 <RTC_ExitInitMode+0x24>
 8005fb6:	f7ff ffb5 	bl	8005f24 <HAL_RTC_WaitForSynchro>
 8005fba:	b198      	cbz	r0, 8005fe4 <RTC_ExitInitMode+0x44>
 8005fbc:	2003      	movs	r0, #3
 8005fbe:	f884 0029 	strb.w	r0, [r4, #41]	@ 0x29
 8005fc2:	e00f      	b.n	8005fe4 <RTC_ExitInitMode+0x44>
 8005fc4:	4a08      	ldr	r2, [pc, #32]	@ (8005fe8 <RTC_ExitInitMode+0x48>)
 8005fc6:	6993      	ldr	r3, [r2, #24]
 8005fc8:	f023 0320 	bic.w	r3, r3, #32
 8005fcc:	6193      	str	r3, [r2, #24]
 8005fce:	f7ff ffa9 	bl	8005f24 <HAL_RTC_WaitForSynchro>
 8005fd2:	b110      	cbz	r0, 8005fda <RTC_ExitInitMode+0x3a>
 8005fd4:	2003      	movs	r0, #3
 8005fd6:	f884 0029 	strb.w	r0, [r4, #41]	@ 0x29
 8005fda:	4a03      	ldr	r2, [pc, #12]	@ (8005fe8 <RTC_ExitInitMode+0x48>)
 8005fdc:	6993      	ldr	r3, [r2, #24]
 8005fde:	f043 0320 	orr.w	r3, r3, #32
 8005fe2:	6193      	str	r3, [r2, #24]
 8005fe4:	bd10      	pop	{r4, pc}
 8005fe6:	bf00      	nop
 8005fe8:	40002800 	.word	0x40002800

08005fec <HAL_RTC_Init>:
 8005fec:	2800      	cmp	r0, #0
 8005fee:	d054      	beq.n	800609a <HAL_RTC_Init+0xae>
 8005ff0:	b538      	push	{r3, r4, r5, lr}
 8005ff2:	4604      	mov	r4, r0
 8005ff4:	f890 3029 	ldrb.w	r3, [r0, #41]	@ 0x29
 8005ff8:	b17b      	cbz	r3, 800601a <HAL_RTC_Init+0x2e>
 8005ffa:	f44f 6340 	mov.w	r3, #3072	@ 0xc00
 8005ffe:	6063      	str	r3, [r4, #4]
 8006000:	2302      	movs	r3, #2
 8006002:	f884 3029 	strb.w	r3, [r4, #41]	@ 0x29
 8006006:	4b26      	ldr	r3, [pc, #152]	@ (80060a0 <HAL_RTC_Init+0xb4>)
 8006008:	68db      	ldr	r3, [r3, #12]
 800600a:	f013 0f10 	tst.w	r3, #16
 800600e:	d009      	beq.n	8006024 <HAL_RTC_Init+0x38>
 8006010:	2000      	movs	r0, #0
 8006012:	2301      	movs	r3, #1
 8006014:	f884 3029 	strb.w	r3, [r4, #41]	@ 0x29
 8006018:	bd38      	pop	{r3, r4, r5, pc}
 800601a:	f880 3028 	strb.w	r3, [r0, #40]	@ 0x28
 800601e:	f7fe f80b 	bl	8004038 <HAL_RTC_MspInit>
 8006022:	e7ea      	b.n	8005ffa <HAL_RTC_Init+0xe>
 8006024:	6823      	ldr	r3, [r4, #0]
 8006026:	22ca      	movs	r2, #202	@ 0xca
 8006028:	625a      	str	r2, [r3, #36]	@ 0x24
 800602a:	6823      	ldr	r3, [r4, #0]
 800602c:	2253      	movs	r2, #83	@ 0x53
 800602e:	625a      	str	r2, [r3, #36]	@ 0x24
 8006030:	4620      	mov	r0, r4
 8006032:	f7ff ff91 	bl	8005f58 <RTC_EnterInitMode>
 8006036:	b9c0      	cbnz	r0, 800606a <HAL_RTC_Init+0x7e>
 8006038:	6822      	ldr	r2, [r4, #0]
 800603a:	6993      	ldr	r3, [r2, #24]
 800603c:	f023 638e 	bic.w	r3, r3, #74448896	@ 0x4700000
 8006040:	f023 0340 	bic.w	r3, r3, #64	@ 0x40
 8006044:	6193      	str	r3, [r2, #24]
 8006046:	6821      	ldr	r1, [r4, #0]
 8006048:	698a      	ldr	r2, [r1, #24]
 800604a:	68a3      	ldr	r3, [r4, #8]
 800604c:	6960      	ldr	r0, [r4, #20]
 800604e:	4303      	orrs	r3, r0
 8006050:	69e0      	ldr	r0, [r4, #28]
 8006052:	4303      	orrs	r3, r0
 8006054:	4313      	orrs	r3, r2
 8006056:	618b      	str	r3, [r1, #24]
 8006058:	6823      	ldr	r3, [r4, #0]
 800605a:	6922      	ldr	r2, [r4, #16]
 800605c:	611a      	str	r2, [r3, #16]
 800605e:	6822      	ldr	r2, [r4, #0]
 8006060:	6913      	ldr	r3, [r2, #16]
 8006062:	68e1      	ldr	r1, [r4, #12]
 8006064:	ea43 4301 	orr.w	r3, r3, r1, lsl #16
 8006068:	6113      	str	r3, [r2, #16]
 800606a:	4620      	mov	r0, r4
 800606c:	f7ff ff98 	bl	8005fa0 <RTC_ExitInitMode>
 8006070:	b968      	cbnz	r0, 800608e <HAL_RTC_Init+0xa2>
 8006072:	6822      	ldr	r2, [r4, #0]
 8006074:	6993      	ldr	r3, [r2, #24]
 8006076:	f023 4360 	bic.w	r3, r3, #3758096384	@ 0xe0000000
 800607a:	6193      	str	r3, [r2, #24]
 800607c:	6821      	ldr	r1, [r4, #0]
 800607e:	698a      	ldr	r2, [r1, #24]
 8006080:	6a63      	ldr	r3, [r4, #36]	@ 0x24
 8006082:	6a25      	ldr	r5, [r4, #32]
 8006084:	432b      	orrs	r3, r5
 8006086:	69a5      	ldr	r5, [r4, #24]
 8006088:	432b      	orrs	r3, r5
 800608a:	4313      	orrs	r3, r2
 800608c:	618b      	str	r3, [r1, #24]
 800608e:	6823      	ldr	r3, [r4, #0]
 8006090:	22ff      	movs	r2, #255	@ 0xff
 8006092:	625a      	str	r2, [r3, #36]	@ 0x24
 8006094:	2800      	cmp	r0, #0
 8006096:	d1bf      	bne.n	8006018 <HAL_RTC_Init+0x2c>
 8006098:	e7bb      	b.n	8006012 <HAL_RTC_Init+0x26>
 800609a:	2001      	movs	r0, #1
 800609c:	4770      	bx	lr
 800609e:	bf00      	nop
 80060a0:	40002800 	.word	0x40002800

080060a4 <RTC_ByteToBcd2>:
 80060a4:	2300      	movs	r3, #0
 80060a6:	e002      	b.n	80060ae <RTC_ByteToBcd2+0xa>
 80060a8:	3301      	adds	r3, #1
 80060aa:	380a      	subs	r0, #10
 80060ac:	b2c0      	uxtb	r0, r0
 80060ae:	2809      	cmp	r0, #9
 80060b0:	d8fa      	bhi.n	80060a8 <RTC_ByteToBcd2+0x4>
 80060b2:	011b      	lsls	r3, r3, #4
 80060b4:	b2db      	uxtb	r3, r3
 80060b6:	4318      	orrs	r0, r3
 80060b8:	4770      	bx	lr

080060ba <HAL_RTC_SetTime>:
 80060ba:	f890 3028 	ldrb.w	r3, [r0, #40]	@ 0x28
 80060be:	2b01      	cmp	r3, #1
 80060c0:	d05f      	beq.n	8006182 <HAL_RTC_SetTime+0xc8>
 80060c2:	b570      	push	{r4, r5, r6, lr}
 80060c4:	4604      	mov	r4, r0
 80060c6:	460d      	mov	r5, r1
 80060c8:	4616      	mov	r6, r2
 80060ca:	2301      	movs	r3, #1
 80060cc:	f880 3028 	strb.w	r3, [r0, #40]	@ 0x28
 80060d0:	2302      	movs	r3, #2
 80060d2:	f880 3029 	strb.w	r3, [r0, #41]	@ 0x29
 80060d6:	6803      	ldr	r3, [r0, #0]
 80060d8:	22ca      	movs	r2, #202	@ 0xca
 80060da:	625a      	str	r2, [r3, #36]	@ 0x24
 80060dc:	6803      	ldr	r3, [r0, #0]
 80060de:	2253      	movs	r2, #83	@ 0x53
 80060e0:	625a      	str	r2, [r3, #36]	@ 0x24
 80060e2:	f7ff ff39 	bl	8005f58 <RTC_EnterInitMode>
 80060e6:	2800      	cmp	r0, #0
 80060e8:	d12e      	bne.n	8006148 <HAL_RTC_SetTime+0x8e>
 80060ea:	2e00      	cmp	r6, #0
 80060ec:	d137      	bne.n	800615e <HAL_RTC_SetTime+0xa4>
 80060ee:	6823      	ldr	r3, [r4, #0]
 80060f0:	699b      	ldr	r3, [r3, #24]
 80060f2:	f013 0f40 	tst.w	r3, #64	@ 0x40
 80060f6:	d101      	bne.n	80060fc <HAL_RTC_SetTime+0x42>
 80060f8:	2300      	movs	r3, #0
 80060fa:	70eb      	strb	r3, [r5, #3]
 80060fc:	7828      	ldrb	r0, [r5, #0]
 80060fe:	f7ff ffd1 	bl	80060a4 <RTC_ByteToBcd2>
 8006102:	0406      	lsls	r6, r0, #16
 8006104:	7868      	ldrb	r0, [r5, #1]
 8006106:	f7ff ffcd 	bl	80060a4 <RTC_ByteToBcd2>
 800610a:	ea46 2600 	orr.w	r6, r6, r0, lsl #8
 800610e:	78a8      	ldrb	r0, [r5, #2]
 8006110:	f7ff ffc8 	bl	80060a4 <RTC_ByteToBcd2>
 8006114:	ea46 0300 	orr.w	r3, r6, r0
 8006118:	78ea      	ldrb	r2, [r5, #3]
 800611a:	ea43 5382 	orr.w	r3, r3, r2, lsl #22
 800611e:	6822      	ldr	r2, [r4, #0]
 8006120:	f003 337f 	and.w	r3, r3, #2139062143	@ 0x7f7f7f7f
 8006124:	f023 43fe 	bic.w	r3, r3, #2130706432	@ 0x7f000000
 8006128:	6013      	str	r3, [r2, #0]
 800612a:	6822      	ldr	r2, [r4, #0]
 800612c:	6993      	ldr	r3, [r2, #24]
 800612e:	f423 2380 	bic.w	r3, r3, #262144	@ 0x40000
 8006132:	6193      	str	r3, [r2, #24]
 8006134:	6821      	ldr	r1, [r4, #0]
 8006136:	698b      	ldr	r3, [r1, #24]
 8006138:	68ea      	ldr	r2, [r5, #12]
 800613a:	6928      	ldr	r0, [r5, #16]
 800613c:	4302      	orrs	r2, r0
 800613e:	4313      	orrs	r3, r2
 8006140:	618b      	str	r3, [r1, #24]
 8006142:	4620      	mov	r0, r4
 8006144:	f7ff ff2c 	bl	8005fa0 <RTC_ExitInitMode>
 8006148:	6823      	ldr	r3, [r4, #0]
 800614a:	22ff      	movs	r2, #255	@ 0xff
 800614c:	625a      	str	r2, [r3, #36]	@ 0x24
 800614e:	b910      	cbnz	r0, 8006156 <HAL_RTC_SetTime+0x9c>
 8006150:	2301      	movs	r3, #1
 8006152:	f884 3029 	strb.w	r3, [r4, #41]	@ 0x29
 8006156:	2300      	movs	r3, #0
 8006158:	f884 3028 	strb.w	r3, [r4, #40]	@ 0x28
 800615c:	bd70      	pop	{r4, r5, r6, pc}
 800615e:	6823      	ldr	r3, [r4, #0]
 8006160:	699b      	ldr	r3, [r3, #24]
 8006162:	f013 0f40 	tst.w	r3, #64	@ 0x40
 8006166:	d101      	bne.n	800616c <HAL_RTC_SetTime+0xb2>
 8006168:	2300      	movs	r3, #0
 800616a:	70eb      	strb	r3, [r5, #3]
 800616c:	782a      	ldrb	r2, [r5, #0]
 800616e:	786b      	ldrb	r3, [r5, #1]
 8006170:	021b      	lsls	r3, r3, #8
 8006172:	ea43 4302 	orr.w	r3, r3, r2, lsl #16
 8006176:	78aa      	ldrb	r2, [r5, #2]
 8006178:	4313      	orrs	r3, r2
 800617a:	78ea      	ldrb	r2, [r5, #3]
 800617c:	ea43 5382 	orr.w	r3, r3, r2, lsl #22
 8006180:	e7cd      	b.n	800611e <HAL_RTC_SetTime+0x64>
 8006182:	2002      	movs	r0, #2
 8006184:	4770      	bx	lr

08006186 <HAL_RTC_SetDate>:
 8006186:	f890 3028 	ldrb.w	r3, [r0, #40]	@ 0x28
 800618a:	2b01      	cmp	r3, #1
 800618c:	d04b      	beq.n	8006226 <HAL_RTC_SetDate+0xa0>
 800618e:	b570      	push	{r4, r5, r6, lr}
 8006190:	4604      	mov	r4, r0
 8006192:	460e      	mov	r6, r1
 8006194:	2301      	movs	r3, #1
 8006196:	f880 3028 	strb.w	r3, [r0, #40]	@ 0x28
 800619a:	2302      	movs	r3, #2
 800619c:	f880 3029 	strb.w	r3, [r0, #41]	@ 0x29
 80061a0:	b1f2      	cbz	r2, 80061e0 <HAL_RTC_SetDate+0x5a>
 80061a2:	78cb      	ldrb	r3, [r1, #3]
 80061a4:	784d      	ldrb	r5, [r1, #1]
 80061a6:	022d      	lsls	r5, r5, #8
 80061a8:	ea45 4503 	orr.w	r5, r5, r3, lsl #16
 80061ac:	788b      	ldrb	r3, [r1, #2]
 80061ae:	431d      	orrs	r5, r3
 80061b0:	780b      	ldrb	r3, [r1, #0]
 80061b2:	ea45 3543 	orr.w	r5, r5, r3, lsl #13
 80061b6:	6823      	ldr	r3, [r4, #0]
 80061b8:	22ca      	movs	r2, #202	@ 0xca
 80061ba:	625a      	str	r2, [r3, #36]	@ 0x24
 80061bc:	6823      	ldr	r3, [r4, #0]
 80061be:	2253      	movs	r2, #83	@ 0x53
 80061c0:	625a      	str	r2, [r3, #36]	@ 0x24
 80061c2:	4620      	mov	r0, r4
 80061c4:	f7ff fec8 	bl	8005f58 <RTC_EnterInitMode>
 80061c8:	b318      	cbz	r0, 8006212 <HAL_RTC_SetDate+0x8c>
 80061ca:	6823      	ldr	r3, [r4, #0]
 80061cc:	22ff      	movs	r2, #255	@ 0xff
 80061ce:	625a      	str	r2, [r3, #36]	@ 0x24
 80061d0:	b910      	cbnz	r0, 80061d8 <HAL_RTC_SetDate+0x52>
 80061d2:	2301      	movs	r3, #1
 80061d4:	f884 3029 	strb.w	r3, [r4, #41]	@ 0x29
 80061d8:	2300      	movs	r3, #0
 80061da:	f884 3028 	strb.w	r3, [r4, #40]	@ 0x28
 80061de:	bd70      	pop	{r4, r5, r6, pc}
 80061e0:	784b      	ldrb	r3, [r1, #1]
 80061e2:	f013 0f10 	tst.w	r3, #16
 80061e6:	d003      	beq.n	80061f0 <HAL_RTC_SetDate+0x6a>
 80061e8:	f003 03ef 	and.w	r3, r3, #239	@ 0xef
 80061ec:	330a      	adds	r3, #10
 80061ee:	704b      	strb	r3, [r1, #1]
 80061f0:	78f0      	ldrb	r0, [r6, #3]
 80061f2:	f7ff ff57 	bl	80060a4 <RTC_ByteToBcd2>
 80061f6:	0405      	lsls	r5, r0, #16
 80061f8:	7870      	ldrb	r0, [r6, #1]
 80061fa:	f7ff ff53 	bl	80060a4 <RTC_ByteToBcd2>
 80061fe:	ea45 2500 	orr.w	r5, r5, r0, lsl #8
 8006202:	78b0      	ldrb	r0, [r6, #2]
 8006204:	f7ff ff4e 	bl	80060a4 <RTC_ByteToBcd2>
 8006208:	4305      	orrs	r5, r0
 800620a:	7833      	ldrb	r3, [r6, #0]
 800620c:	ea45 3543 	orr.w	r5, r5, r3, lsl #13
 8006210:	e7d1      	b.n	80061b6 <HAL_RTC_SetDate+0x30>
 8006212:	6823      	ldr	r3, [r4, #0]
 8006214:	f025 457f 	bic.w	r5, r5, #4278190080	@ 0xff000000
 8006218:	f025 05c0 	bic.w	r5, r5, #192	@ 0xc0
 800621c:	605d      	str	r5, [r3, #4]
 800621e:	4620      	mov	r0, r4
 8006220:	f7ff febe 	bl	8005fa0 <RTC_ExitInitMode>
 8006224:	e7d1      	b.n	80061ca <HAL_RTC_SetDate+0x44>
 8006226:	2002      	movs	r0, #2
 8006228:	4770      	bx	lr

0800622a <RTC_Bcd2ToByte>:
 800622a:	0903      	lsrs	r3, r0, #4
 800622c:	eb03 0383 	add.w	r3, r3, r3, lsl #2
 8006230:	f000 000f 	and.w	r0, r0, #15
 8006234:	eb00 0043 	add.w	r0, r0, r3, lsl #1
 8006238:	b2c0      	uxtb	r0, r0
 800623a:	4770      	bx	lr

0800623c <HAL_RTC_GetTime>:
 800623c:	b570      	push	{r4, r5, r6, lr}
 800623e:	6803      	ldr	r3, [r0, #0]
 8006240:	689b      	ldr	r3, [r3, #8]
 8006242:	604b      	str	r3, [r1, #4]
 8006244:	6803      	ldr	r3, [r0, #0]
 8006246:	691b      	ldr	r3, [r3, #16]
 8006248:	f3c3 030e 	ubfx	r3, r3, #0, #15
 800624c:	608b      	str	r3, [r1, #8]
 800624e:	6803      	ldr	r3, [r0, #0]
 8006250:	681b      	ldr	r3, [r3, #0]
 8006252:	f3c3 4005 	ubfx	r0, r3, #16, #6
 8006256:	7008      	strb	r0, [r1, #0]
 8006258:	f3c3 2606 	ubfx	r6, r3, #8, #7
 800625c:	704e      	strb	r6, [r1, #1]
 800625e:	f003 057f 	and.w	r5, r3, #127	@ 0x7f
 8006262:	708d      	strb	r5, [r1, #2]
 8006264:	f3c3 5380 	ubfx	r3, r3, #22, #1
 8006268:	70cb      	strb	r3, [r1, #3]
 800626a:	b95a      	cbnz	r2, 8006284 <HAL_RTC_GetTime+0x48>
 800626c:	460c      	mov	r4, r1
 800626e:	f7ff ffdc 	bl	800622a <RTC_Bcd2ToByte>
 8006272:	7020      	strb	r0, [r4, #0]
 8006274:	4630      	mov	r0, r6
 8006276:	f7ff ffd8 	bl	800622a <RTC_Bcd2ToByte>
 800627a:	7060      	strb	r0, [r4, #1]
 800627c:	4628      	mov	r0, r5
 800627e:	f7ff ffd4 	bl	800622a <RTC_Bcd2ToByte>
 8006282:	70a0      	strb	r0, [r4, #2]
 8006284:	2000      	movs	r0, #0
 8006286:	bd70      	pop	{r4, r5, r6, pc}

08006288 <HAL_RTC_GetDate>:
 8006288:	b570      	push	{r4, r5, r6, lr}
 800628a:	6803      	ldr	r3, [r0, #0]
 800628c:	685b      	ldr	r3, [r3, #4]
 800628e:	f3c3 4007 	ubfx	r0, r3, #16, #8
 8006292:	70c8      	strb	r0, [r1, #3]
 8006294:	f3c3 2604 	ubfx	r6, r3, #8, #5
 8006298:	704e      	strb	r6, [r1, #1]
 800629a:	f003 053f 	and.w	r5, r3, #63	@ 0x3f
 800629e:	708d      	strb	r5, [r1, #2]
 80062a0:	f3c3 3342 	ubfx	r3, r3, #13, #3
 80062a4:	700b      	strb	r3, [r1, #0]
 80062a6:	b95a      	cbnz	r2, 80062c0 <HAL_RTC_GetDate+0x38>
 80062a8:	460c      	mov	r4, r1
 80062aa:	f7ff ffbe 	bl	800622a <RTC_Bcd2ToByte>
 80062ae:	70e0      	strb	r0, [r4, #3]
 80062b0:	4630      	mov	r0, r6
 80062b2:	f7ff ffba 	bl	800622a <RTC_Bcd2ToByte>
 80062b6:	7060      	strb	r0, [r4, #1]
 80062b8:	4628      	mov	r0, r5
 80062ba:	f7ff ffb6 	bl	800622a <RTC_Bcd2ToByte>
 80062be:	70a0      	strb	r0, [r4, #2]
 80062c0:	2000      	movs	r0, #0
 80062c2:	bd70      	pop	{r4, r5, r6, pc}

080062c4 <HAL_RTCEx_SetWakeUpTimer_IT>:
 80062c4:	e92d 43f8 	stmdb	sp!, {r3, r4, r5, r6, r7, r8, r9, lr}
 80062c8:	461f      	mov	r7, r3
 80062ca:	f890 3028 	ldrb.w	r3, [r0, #40]	@ 0x28
 80062ce:	2b01      	cmp	r3, #1
 80062d0:	d066      	beq.n	80063a0 <HAL_RTCEx_SetWakeUpTimer_IT+0xdc>
 80062d2:	4604      	mov	r4, r0
 80062d4:	460e      	mov	r6, r1
 80062d6:	4690      	mov	r8, r2
 80062d8:	2301      	movs	r3, #1
 80062da:	f880 3028 	strb.w	r3, [r0, #40]	@ 0x28
 80062de:	2302      	movs	r3, #2
 80062e0:	f880 3029 	strb.w	r3, [r0, #41]	@ 0x29
 80062e4:	6803      	ldr	r3, [r0, #0]
 80062e6:	22ca      	movs	r2, #202	@ 0xca
 80062e8:	625a      	str	r2, [r3, #36]	@ 0x24
 80062ea:	6803      	ldr	r3, [r0, #0]
 80062ec:	2253      	movs	r2, #83	@ 0x53
 80062ee:	625a      	str	r2, [r3, #36]	@ 0x24
 80062f0:	6802      	ldr	r2, [r0, #0]
 80062f2:	6993      	ldr	r3, [r2, #24]
 80062f4:	f423 6380 	bic.w	r3, r3, #1024	@ 0x400
 80062f8:	6193      	str	r3, [r2, #24]
 80062fa:	6803      	ldr	r3, [r0, #0]
 80062fc:	2204      	movs	r2, #4
 80062fe:	65da      	str	r2, [r3, #92]	@ 0x5c
 8006300:	6803      	ldr	r3, [r0, #0]
 8006302:	68db      	ldr	r3, [r3, #12]
 8006304:	f013 0f40 	tst.w	r3, #64	@ 0x40
 8006308:	d02b      	beq.n	8006362 <HAL_RTCEx_SetWakeUpTimer_IT+0x9e>
 800630a:	6823      	ldr	r3, [r4, #0]
 800630c:	ea46 4607 	orr.w	r6, r6, r7, lsl #16
 8006310:	615e      	str	r6, [r3, #20]
 8006312:	6822      	ldr	r2, [r4, #0]
 8006314:	6993      	ldr	r3, [r2, #24]
 8006316:	f023 0307 	bic.w	r3, r3, #7
 800631a:	ea43 0308 	orr.w	r3, r3, r8
 800631e:	6193      	str	r3, [r2, #24]
 8006320:	2f00      	cmp	r7, #0
 8006322:	d037      	beq.n	8006394 <HAL_RTCEx_SetWakeUpTimer_IT+0xd0>
 8006324:	4a1f      	ldr	r2, [pc, #124]	@ (80063a4 <HAL_RTCEx_SetWakeUpTimer_IT+0xe0>)
 8006326:	6853      	ldr	r3, [r2, #4]
 8006328:	f443 1380 	orr.w	r3, r3, #1048576	@ 0x100000
 800632c:	6053      	str	r3, [r2, #4]
 800632e:	4a1d      	ldr	r2, [pc, #116]	@ (80063a4 <HAL_RTCEx_SetWakeUpTimer_IT+0xe0>)
 8006330:	6893      	ldr	r3, [r2, #8]
 8006332:	f443 1380 	orr.w	r3, r3, #1048576	@ 0x100000
 8006336:	6093      	str	r3, [r2, #8]
 8006338:	6822      	ldr	r2, [r4, #0]
 800633a:	6993      	ldr	r3, [r2, #24]
 800633c:	f443 4380 	orr.w	r3, r3, #16384	@ 0x4000
 8006340:	6193      	str	r3, [r2, #24]
 8006342:	6822      	ldr	r2, [r4, #0]
 8006344:	6993      	ldr	r3, [r2, #24]
 8006346:	f443 6380 	orr.w	r3, r3, #1024	@ 0x400
 800634a:	6193      	str	r3, [r2, #24]
 800634c:	6823      	ldr	r3, [r4, #0]
 800634e:	22ff      	movs	r2, #255	@ 0xff
 8006350:	625a      	str	r2, [r3, #36]	@ 0x24
 8006352:	2301      	movs	r3, #1
 8006354:	f884 3029 	strb.w	r3, [r4, #41]	@ 0x29
 8006358:	2000      	movs	r0, #0
 800635a:	f884 0028 	strb.w	r0, [r4, #40]	@ 0x28
 800635e:	e8bd 83f8 	ldmia.w	sp!, {r3, r4, r5, r6, r7, r8, r9, pc}
 8006362:	f7fc fc3f 	bl	8002be4 <HAL_GetTick>
 8006366:	4681      	mov	r9, r0
 8006368:	6823      	ldr	r3, [r4, #0]
 800636a:	68dd      	ldr	r5, [r3, #12]
 800636c:	f015 0f04 	tst.w	r5, #4
 8006370:	d1cb      	bne.n	800630a <HAL_RTCEx_SetWakeUpTimer_IT+0x46>
 8006372:	f7fc fc37 	bl	8002be4 <HAL_GetTick>
 8006376:	eba0 0009 	sub.w	r0, r0, r9
 800637a:	f5b0 7f7a 	cmp.w	r0, #1000	@ 0x3e8
 800637e:	d9f3      	bls.n	8006368 <HAL_RTCEx_SetWakeUpTimer_IT+0xa4>
 8006380:	6823      	ldr	r3, [r4, #0]
 8006382:	22ff      	movs	r2, #255	@ 0xff
 8006384:	625a      	str	r2, [r3, #36]	@ 0x24
 8006386:	2003      	movs	r0, #3
 8006388:	f884 0029 	strb.w	r0, [r4, #41]	@ 0x29
 800638c:	2300      	movs	r3, #0
 800638e:	f884 3028 	strb.w	r3, [r4, #40]	@ 0x28
 8006392:	e7e4      	b.n	800635e <HAL_RTCEx_SetWakeUpTimer_IT+0x9a>
 8006394:	4a03      	ldr	r2, [pc, #12]	@ (80063a4 <HAL_RTCEx_SetWakeUpTimer_IT+0xe0>)
 8006396:	6813      	ldr	r3, [r2, #0]
 8006398:	f443 1380 	orr.w	r3, r3, #1048576	@ 0x100000
 800639c:	6013      	str	r3, [r2, #0]
 800639e:	e7c6      	b.n	800632e <HAL_RTCEx_SetWakeUpTimer_IT+0x6a>
 80063a0:	2002      	movs	r0, #2
 80063a2:	e7dc      	b.n	800635e <HAL_RTCEx_SetWakeUpTimer_IT+0x9a>
 80063a4:	40010400 	.word	0x40010400

080063a8 <HAL_RTCEx_DeactivateWakeUpTimer>:
 80063a8:	b538      	push	{r3, r4, r5, lr}
 80063aa:	f890 3028 	ldrb.w	r3, [r0, #40]	@ 0x28
 80063ae:	2b01      	cmp	r3, #1
 80063b0:	d037      	beq.n	8006422 <HAL_RTCEx_DeactivateWakeUpTimer+0x7a>
 80063b2:	4604      	mov	r4, r0
 80063b4:	2301      	movs	r3, #1
 80063b6:	f880 3028 	strb.w	r3, [r0, #40]	@ 0x28
 80063ba:	2302      	movs	r3, #2
 80063bc:	f880 3029 	strb.w	r3, [r0, #41]	@ 0x29
 80063c0:	6803      	ldr	r3, [r0, #0]
 80063c2:	22ca      	movs	r2, #202	@ 0xca
 80063c4:	625a      	str	r2, [r3, #36]	@ 0x24
 80063c6:	6803      	ldr	r3, [r0, #0]
 80063c8:	2253      	movs	r2, #83	@ 0x53
 80063ca:	625a      	str	r2, [r3, #36]	@ 0x24
 80063cc:	6802      	ldr	r2, [r0, #0]
 80063ce:	6993      	ldr	r3, [r2, #24]
 80063d0:	f423 6380 	bic.w	r3, r3, #1024	@ 0x400
 80063d4:	6193      	str	r3, [r2, #24]
 80063d6:	6802      	ldr	r2, [r0, #0]
 80063d8:	6993      	ldr	r3, [r2, #24]
 80063da:	f423 4380 	bic.w	r3, r3, #16384	@ 0x4000
 80063de:	6193      	str	r3, [r2, #24]
 80063e0:	f7fc fc00 	bl	8002be4 <HAL_GetTick>
 80063e4:	4605      	mov	r5, r0
 80063e6:	6823      	ldr	r3, [r4, #0]
 80063e8:	68da      	ldr	r2, [r3, #12]
 80063ea:	f012 0f04 	tst.w	r2, #4
 80063ee:	d10f      	bne.n	8006410 <HAL_RTCEx_DeactivateWakeUpTimer+0x68>
 80063f0:	f7fc fbf8 	bl	8002be4 <HAL_GetTick>
 80063f4:	1b43      	subs	r3, r0, r5
 80063f6:	f5b3 7f7a 	cmp.w	r3, #1000	@ 0x3e8
 80063fa:	d9f4      	bls.n	80063e6 <HAL_RTCEx_DeactivateWakeUpTimer+0x3e>
 80063fc:	6823      	ldr	r3, [r4, #0]
 80063fe:	22ff      	movs	r2, #255	@ 0xff
 8006400:	625a      	str	r2, [r3, #36]	@ 0x24
 8006402:	2003      	movs	r0, #3
 8006404:	f884 0029 	strb.w	r0, [r4, #41]	@ 0x29
 8006408:	2300      	movs	r3, #0
 800640a:	f884 3028 	strb.w	r3, [r4, #40]	@ 0x28
 800640e:	e007      	b.n	8006420 <HAL_RTCEx_DeactivateWakeUpTimer+0x78>
 8006410:	22ff      	movs	r2, #255	@ 0xff
 8006412:	625a      	str	r2, [r3, #36]	@ 0x24
 8006414:	2301      	movs	r3, #1
 8006416:	f884 3029 	strb.w	r3, [r4, #41]	@ 0x29
 800641a:	2000      	movs	r0, #0
 800641c:	f884 0028 	strb.w	r0, [r4, #40]	@ 0x28
 8006420:	bd38      	pop	{r3, r4, r5, pc}
 8006422:	2002      	movs	r0, #2
 8006424:	e7fc      	b.n	8006420 <HAL_RTCEx_DeactivateWakeUpTimer+0x78>

08006426 <HAL_RTCEx_GetWakeUpTimer>:
 8006426:	6803      	ldr	r3, [r0, #0]
 8006428:	6958      	ldr	r0, [r3, #20]
 800642a:	b280      	uxth	r0, r0
 800642c:	4770      	bx	lr
	...

08006430 <HAL_RTCEx_WakeUpTimerIRQHandler>:
 8006430:	b510      	push	{r4, lr}
 8006432:	4604      	mov	r4, r0
 8006434:	4b08      	ldr	r3, [pc, #32]	@ (8006458 <HAL_RTCEx_WakeUpTimerIRQHandler+0x28>)
 8006436:	f44f 1280 	mov.w	r2, #1048576	@ 0x100000
 800643a:	615a      	str	r2, [r3, #20]
 800643c:	6803      	ldr	r3, [r0, #0]
 800643e:	6d5a      	ldr	r2, [r3, #84]	@ 0x54
 8006440:	f012 0f04 	tst.w	r2, #4
 8006444:	d103      	bne.n	800644e <HAL_RTCEx_WakeUpTimerIRQHandler+0x1e>
 8006446:	2301      	movs	r3, #1
 8006448:	f884 3029 	strb.w	r3, [r4, #41]	@ 0x29
 800644c:	bd10      	pop	{r4, pc}
 800644e:	2204      	movs	r2, #4
 8006450:	65da      	str	r2, [r3, #92]	@ 0x5c
 8006452:	f7fb ff0f 	bl	8002274 <HAL_RTCEx_WakeUpTimerEventCallback>
 8006456:	e7f6      	b.n	8006446 <HAL_RTCEx_WakeUpTimerIRQHandler+0x16>
 8006458:	40010400 	.word	0x40010400

0800645c <HAL_RTCEx_BKUPWrite>:
 800645c:	b082      	sub	sp, #8
 800645e:	6803      	ldr	r3, [r0, #0]
 8006460:	6840      	ldr	r0, [r0, #4]
 8006462:	4403      	add	r3, r0
 8006464:	f503 7380 	add.w	r3, r3, #256	@ 0x100
 8006468:	9301      	str	r3, [sp, #4]
 800646a:	9b01      	ldr	r3, [sp, #4]
 800646c:	eb03 0381 	add.w	r3, r3, r1, lsl #2
 8006470:	9301      	str	r3, [sp, #4]
 8006472:	9b01      	ldr	r3, [sp, #4]
 8006474:	601a      	str	r2, [r3, #0]
 8006476:	b002      	add	sp, #8
 8006478:	4770      	bx	lr

0800647a <HAL_RTCEx_BKUPRead>:
 800647a:	6803      	ldr	r3, [r0, #0]
 800647c:	6842      	ldr	r2, [r0, #4]
 800647e:	4413      	add	r3, r2
 8006480:	f503 7380 	add.w	r3, r3, #256	@ 0x100
 8006484:	f853 0021 	ldr.w	r0, [r3, r1, lsl #2]
 8006488:	4770      	bx	lr
	...

0800648c <SPI_WaitFlagStateUntilTimeout>:
 800648c:	e92d 47f0 	stmdb	sp!, {r4, r5, r6, r7, r8, r9, sl, lr}
 8006490:	b082      	sub	sp, #8
 8006492:	4605      	mov	r5, r0
 8006494:	4688      	mov	r8, r1
 8006496:	4617      	mov	r7, r2
 8006498:	461e      	mov	r6, r3
 800649a:	f7fc fba3 	bl	8002be4 <HAL_GetTick>
 800649e:	9b0a      	ldr	r3, [sp, #40]	@ 0x28
 80064a0:	1a1b      	subs	r3, r3, r0
 80064a2:	eb03 0906 	add.w	r9, r3, r6
 80064a6:	f7fc fb9d 	bl	8002be4 <HAL_GetTick>
 80064aa:	4682      	mov	sl, r0
 80064ac:	4b28      	ldr	r3, [pc, #160]	@ (8006550 <SPI_WaitFlagStateUntilTimeout+0xc4>)
 80064ae:	681b      	ldr	r3, [r3, #0]
 80064b0:	f3c3 33cb 	ubfx	r3, r3, #15, #12
 80064b4:	fb09 f303 	mul.w	r3, r9, r3
 80064b8:	9301      	str	r3, [sp, #4]
 80064ba:	682b      	ldr	r3, [r5, #0]
 80064bc:	689c      	ldr	r4, [r3, #8]
 80064be:	ea38 0404 	bics.w	r4, r8, r4
 80064c2:	bf0c      	ite	eq
 80064c4:	2301      	moveq	r3, #1
 80064c6:	2300      	movne	r3, #0
 80064c8:	42bb      	cmp	r3, r7
 80064ca:	d03d      	beq.n	8006548 <SPI_WaitFlagStateUntilTimeout+0xbc>
 80064cc:	f1b6 3fff 	cmp.w	r6, #4294967295
 80064d0:	d0f3      	beq.n	80064ba <SPI_WaitFlagStateUntilTimeout+0x2e>
 80064d2:	f7fc fb87 	bl	8002be4 <HAL_GetTick>
 80064d6:	eba0 000a 	sub.w	r0, r0, sl
 80064da:	4548      	cmp	r0, r9
 80064dc:	d207      	bcs.n	80064ee <SPI_WaitFlagStateUntilTimeout+0x62>
 80064de:	9a01      	ldr	r2, [sp, #4]
 80064e0:	b102      	cbz	r2, 80064e4 <SPI_WaitFlagStateUntilTimeout+0x58>
 80064e2:	464a      	mov	r2, r9
 80064e4:	9b01      	ldr	r3, [sp, #4]
 80064e6:	3b01      	subs	r3, #1
 80064e8:	9301      	str	r3, [sp, #4]
 80064ea:	4691      	mov	r9, r2
 80064ec:	e7e5      	b.n	80064ba <SPI_WaitFlagStateUntilTimeout+0x2e>
 80064ee:	682a      	ldr	r2, [r5, #0]
 80064f0:	6853      	ldr	r3, [r2, #4]
 80064f2:	f023 03e0 	bic.w	r3, r3, #224	@ 0xe0
 80064f6:	6053      	str	r3, [r2, #4]
 80064f8:	686b      	ldr	r3, [r5, #4]
 80064fa:	f5b3 7f82 	cmp.w	r3, #260	@ 0x104
 80064fe:	d00b      	beq.n	8006518 <SPI_WaitFlagStateUntilTimeout+0x8c>
 8006500:	6aab      	ldr	r3, [r5, #40]	@ 0x28
 8006502:	f5b3 5f00 	cmp.w	r3, #8192	@ 0x2000
 8006506:	d014      	beq.n	8006532 <SPI_WaitFlagStateUntilTimeout+0xa6>
 8006508:	2301      	movs	r3, #1
 800650a:	f885 305d 	strb.w	r3, [r5, #93]	@ 0x5d
 800650e:	2300      	movs	r3, #0
 8006510:	f885 305c 	strb.w	r3, [r5, #92]	@ 0x5c
 8006514:	2003      	movs	r0, #3
 8006516:	e018      	b.n	800654a <SPI_WaitFlagStateUntilTimeout+0xbe>
 8006518:	68ab      	ldr	r3, [r5, #8]
 800651a:	f5b3 4f00 	cmp.w	r3, #32768	@ 0x8000
 800651e:	d002      	beq.n	8006526 <SPI_WaitFlagStateUntilTimeout+0x9a>
 8006520:	f5b3 6f80 	cmp.w	r3, #1024	@ 0x400
 8006524:	d1ec      	bne.n	8006500 <SPI_WaitFlagStateUntilTimeout+0x74>
 8006526:	682a      	ldr	r2, [r5, #0]
 8006528:	6813      	ldr	r3, [r2, #0]
 800652a:	f023 0340 	bic.w	r3, r3, #64	@ 0x40
 800652e:	6013      	str	r3, [r2, #0]
 8006530:	e7e6      	b.n	8006500 <SPI_WaitFlagStateUntilTimeout+0x74>
 8006532:	682a      	ldr	r2, [r5, #0]
 8006534:	6813      	ldr	r3, [r2, #0]
 8006536:	f423 5300 	bic.w	r3, r3, #8192	@ 0x2000
 800653a:	6013      	str	r3, [r2, #0]
 800653c:	682a      	ldr	r2, [r5, #0]
 800653e:	6813      	ldr	r3, [r2, #0]
 8006540:	f443 5300 	orr.w	r3, r3, #8192	@ 0x2000
 8006544:	6013      	str	r3, [r2, #0]
 8006546:	e7df      	b.n	8006508 <SPI_WaitFlagStateUntilTimeout+0x7c>
 8006548:	2000      	movs	r0, #0
 800654a:	b002      	add	sp, #8
 800654c:	e8bd 87f0 	ldmia.w	sp!, {r4, r5, r6, r7, r8, r9, sl, pc}
 8006550:	200000c4 	.word	0x200000c4

08006554 <SPI_WaitFifoStateUntilTimeout>:
 8006554:	e92d 47f0 	stmdb	sp!, {r4, r5, r6, r7, r8, r9, sl, lr}
 8006558:	b082      	sub	sp, #8
 800655a:	4606      	mov	r6, r0
 800655c:	460c      	mov	r4, r1
 800655e:	4615      	mov	r5, r2
 8006560:	461f      	mov	r7, r3
 8006562:	2300      	movs	r3, #0
 8006564:	f88d 3003 	strb.w	r3, [sp, #3]
 8006568:	f7fc fb3c 	bl	8002be4 <HAL_GetTick>
 800656c:	9b0a      	ldr	r3, [sp, #40]	@ 0x28
 800656e:	1a1b      	subs	r3, r3, r0
 8006570:	eb03 0807 	add.w	r8, r3, r7
 8006574:	f7fc fb36 	bl	8002be4 <HAL_GetTick>
 8006578:	4681      	mov	r9, r0
 800657a:	f8d6 a000 	ldr.w	sl, [r6]
 800657e:	4b30      	ldr	r3, [pc, #192]	@ (8006640 <SPI_WaitFifoStateUntilTimeout+0xec>)
 8006580:	681b      	ldr	r3, [r3, #0]
 8006582:	eb03 0383 	add.w	r3, r3, r3, lsl #2
 8006586:	ebc3 03c3 	rsb	r3, r3, r3, lsl #3
 800658a:	0d1b      	lsrs	r3, r3, #20
 800658c:	fb08 f303 	mul.w	r3, r8, r3
 8006590:	9301      	str	r3, [sp, #4]
 8006592:	e002      	b.n	800659a <SPI_WaitFifoStateUntilTimeout+0x46>
 8006594:	f1b7 3fff 	cmp.w	r7, #4294967295
 8006598:	d112      	bne.n	80065c0 <SPI_WaitFifoStateUntilTimeout+0x6c>
 800659a:	6833      	ldr	r3, [r6, #0]
 800659c:	689b      	ldr	r3, [r3, #8]
 800659e:	ea03 0c04 	and.w	ip, r3, r4
 80065a2:	45ac      	cmp	ip, r5
 80065a4:	d047      	beq.n	8006636 <SPI_WaitFifoStateUntilTimeout+0xe2>
 80065a6:	f5b4 6fc0 	cmp.w	r4, #1536	@ 0x600
 80065aa:	d1f3      	bne.n	8006594 <SPI_WaitFifoStateUntilTimeout+0x40>
 80065ac:	2d00      	cmp	r5, #0
 80065ae:	d1f1      	bne.n	8006594 <SPI_WaitFifoStateUntilTimeout+0x40>
 80065b0:	f89a 300c 	ldrb.w	r3, [sl, #12]
 80065b4:	b2db      	uxtb	r3, r3
 80065b6:	f88d 3003 	strb.w	r3, [sp, #3]
 80065ba:	f89d 3003 	ldrb.w	r3, [sp, #3]
 80065be:	e7e9      	b.n	8006594 <SPI_WaitFifoStateUntilTimeout+0x40>
 80065c0:	f7fc fb10 	bl	8002be4 <HAL_GetTick>
 80065c4:	eba0 0009 	sub.w	r0, r0, r9
 80065c8:	4540      	cmp	r0, r8
 80065ca:	d207      	bcs.n	80065dc <SPI_WaitFifoStateUntilTimeout+0x88>
 80065cc:	9a01      	ldr	r2, [sp, #4]
 80065ce:	b102      	cbz	r2, 80065d2 <SPI_WaitFifoStateUntilTimeout+0x7e>
 80065d0:	4642      	mov	r2, r8
 80065d2:	9b01      	ldr	r3, [sp, #4]
 80065d4:	3b01      	subs	r3, #1
 80065d6:	9301      	str	r3, [sp, #4]
 80065d8:	4690      	mov	r8, r2
 80065da:	e7de      	b.n	800659a <SPI_WaitFifoStateUntilTimeout+0x46>
 80065dc:	6832      	ldr	r2, [r6, #0]
 80065de:	6853      	ldr	r3, [r2, #4]
 80065e0:	f023 03e0 	bic.w	r3, r3, #224	@ 0xe0
 80065e4:	6053      	str	r3, [r2, #4]
 80065e6:	6873      	ldr	r3, [r6, #4]
 80065e8:	f5b3 7f82 	cmp.w	r3, #260	@ 0x104
 80065ec:	d00b      	beq.n	8006606 <SPI_WaitFifoStateUntilTimeout+0xb2>
 80065ee:	6ab3      	ldr	r3, [r6, #40]	@ 0x28
 80065f0:	f5b3 5f00 	cmp.w	r3, #8192	@ 0x2000
 80065f4:	d014      	beq.n	8006620 <SPI_WaitFifoStateUntilTimeout+0xcc>
 80065f6:	2301      	movs	r3, #1
 80065f8:	f886 305d 	strb.w	r3, [r6, #93]	@ 0x5d
 80065fc:	2300      	movs	r3, #0
 80065fe:	f886 305c 	strb.w	r3, [r6, #92]	@ 0x5c
 8006602:	2003      	movs	r0, #3
 8006604:	e018      	b.n	8006638 <SPI_WaitFifoStateUntilTimeout+0xe4>
 8006606:	68b3      	ldr	r3, [r6, #8]
 8006608:	f5b3 4f00 	cmp.w	r3, #32768	@ 0x8000
 800660c:	d002      	beq.n	8006614 <SPI_WaitFifoStateUntilTimeout+0xc0>
 800660e:	f5b3 6f80 	cmp.w	r3, #1024	@ 0x400
 8006612:	d1ec      	bne.n	80065ee <SPI_WaitFifoStateUntilTimeout+0x9a>
 8006614:	6832      	ldr	r2, [r6, #0]
 8006616:	6813      	ldr	r3, [r2, #0]
 8006618:	f023 0340 	bic.w	r3, r3, #64	@ 0x40
 800661c:	6013      	str	r3, [r2, #0]
 800661e:	e7e6      	b.n	80065ee <SPI_WaitFifoStateUntilTimeout+0x9a>
 8006620:	6832      	ldr	r2, [r6, #0]
 8006622:	6813      	ldr	r3, [r2, #0]
 8006624:	f423 5300 	bic.w	r3, r3, #8192	@ 0x2000
 8006628:	6013      	str	r3, [r2, #0]
 800662a:	6832      	ldr	r2, [r6, #0]
 800662c:	6813      	ldr	r3, [r2, #0]
 800662e:	f443 5300 	orr.w	r3, r3, #8192	@ 0x2000
 8006632:	6013      	str	r3, [r2, #0]
 8006634:	e7df      	b.n	80065f6 <SPI_WaitFifoStateUntilTimeout+0xa2>
 8006636:	2000      	movs	r0, #0
 8006638:	b002      	add	sp, #8
 800663a:	e8bd 87f0 	ldmia.w	sp!, {r4, r5, r6, r7, r8, r9, sl, pc}
 800663e:	bf00      	nop
 8006640:	200000c4 	.word	0x200000c4

08006644 <SPI_EndRxTxTransaction>:
 8006644:	b570      	push	{r4, r5, r6, lr}
 8006646:	b082      	sub	sp, #8
 8006648:	4604      	mov	r4, r0
 800664a:	460d      	mov	r5, r1
 800664c:	4616      	mov	r6, r2
 800664e:	9200      	str	r2, [sp, #0]
 8006650:	460b      	mov	r3, r1
 8006652:	2200      	movs	r2, #0
 8006654:	f44f 51c0 	mov.w	r1, #6144	@ 0x1800
 8006658:	f7ff ff7c 	bl	8006554 <SPI_WaitFifoStateUntilTimeout>
 800665c:	b9b0      	cbnz	r0, 800668c <SPI_EndRxTxTransaction+0x48>
 800665e:	9600      	str	r6, [sp, #0]
 8006660:	462b      	mov	r3, r5
 8006662:	2200      	movs	r2, #0
 8006664:	2180      	movs	r1, #128	@ 0x80
 8006666:	4620      	mov	r0, r4
 8006668:	f7ff ff10 	bl	800648c <SPI_WaitFlagStateUntilTimeout>
 800666c:	b9a8      	cbnz	r0, 800669a <SPI_EndRxTxTransaction+0x56>
 800666e:	9600      	str	r6, [sp, #0]
 8006670:	462b      	mov	r3, r5
 8006672:	2200      	movs	r2, #0
 8006674:	f44f 61c0 	mov.w	r1, #1536	@ 0x600
 8006678:	4620      	mov	r0, r4
 800667a:	f7ff ff6b 	bl	8006554 <SPI_WaitFifoStateUntilTimeout>
 800667e:	b150      	cbz	r0, 8006696 <SPI_EndRxTxTransaction+0x52>
 8006680:	6e23      	ldr	r3, [r4, #96]	@ 0x60
 8006682:	f043 0320 	orr.w	r3, r3, #32
 8006686:	6623      	str	r3, [r4, #96]	@ 0x60
 8006688:	2003      	movs	r0, #3
 800668a:	e004      	b.n	8006696 <SPI_EndRxTxTransaction+0x52>
 800668c:	6e23      	ldr	r3, [r4, #96]	@ 0x60
 800668e:	f043 0320 	orr.w	r3, r3, #32
 8006692:	6623      	str	r3, [r4, #96]	@ 0x60
 8006694:	2003      	movs	r0, #3
 8006696:	b002      	add	sp, #8
 8006698:	bd70      	pop	{r4, r5, r6, pc}
 800669a:	6e23      	ldr	r3, [r4, #96]	@ 0x60
 800669c:	f043 0320 	orr.w	r3, r3, #32
 80066a0:	6623      	str	r3, [r4, #96]	@ 0x60
 80066a2:	2003      	movs	r0, #3
 80066a4:	e7f7      	b.n	8006696 <SPI_EndRxTxTransaction+0x52>

080066a6 <HAL_SPI_Init>:
 80066a6:	2800      	cmp	r0, #0
 80066a8:	d06a      	beq.n	8006780 <HAL_SPI_Init+0xda>
 80066aa:	b510      	push	{r4, lr}
 80066ac:	4604      	mov	r4, r0
 80066ae:	6a43      	ldr	r3, [r0, #36]	@ 0x24
 80066b0:	b933      	cbnz	r3, 80066c0 <HAL_SPI_Init+0x1a>
 80066b2:	6843      	ldr	r3, [r0, #4]
 80066b4:	f5b3 7f82 	cmp.w	r3, #260	@ 0x104
 80066b8:	d005      	beq.n	80066c6 <HAL_SPI_Init+0x20>
 80066ba:	2300      	movs	r3, #0
 80066bc:	61c3      	str	r3, [r0, #28]
 80066be:	e002      	b.n	80066c6 <HAL_SPI_Init+0x20>
 80066c0:	2300      	movs	r3, #0
 80066c2:	6103      	str	r3, [r0, #16]
 80066c4:	6143      	str	r3, [r0, #20]
 80066c6:	2300      	movs	r3, #0
 80066c8:	62a3      	str	r3, [r4, #40]	@ 0x28
 80066ca:	f894 305d 	ldrb.w	r3, [r4, #93]	@ 0x5d
 80066ce:	2b00      	cmp	r3, #0
 80066d0:	d04d      	beq.n	800676e <HAL_SPI_Init+0xc8>
 80066d2:	2302      	movs	r3, #2
 80066d4:	f884 305d 	strb.w	r3, [r4, #93]	@ 0x5d
 80066d8:	6822      	ldr	r2, [r4, #0]
 80066da:	6813      	ldr	r3, [r2, #0]
 80066dc:	f023 0340 	bic.w	r3, r3, #64	@ 0x40
 80066e0:	6013      	str	r3, [r2, #0]
 80066e2:	68e3      	ldr	r3, [r4, #12]
 80066e4:	f5b3 6fe0 	cmp.w	r3, #1792	@ 0x700
 80066e8:	d947      	bls.n	800677a <HAL_SPI_Init+0xd4>
 80066ea:	2200      	movs	r2, #0
 80066ec:	f5b3 6f70 	cmp.w	r3, #3840	@ 0xf00
 80066f0:	d004      	beq.n	80066fc <HAL_SPI_Init+0x56>
 80066f2:	f5b3 6fe0 	cmp.w	r3, #1792	@ 0x700
 80066f6:	d001      	beq.n	80066fc <HAL_SPI_Init+0x56>
 80066f8:	2300      	movs	r3, #0
 80066fa:	62a3      	str	r3, [r4, #40]	@ 0x28
 80066fc:	6863      	ldr	r3, [r4, #4]
 80066fe:	f403 7382 	and.w	r3, r3, #260	@ 0x104
 8006702:	68a1      	ldr	r1, [r4, #8]
 8006704:	f401 4104 	and.w	r1, r1, #33792	@ 0x8400
 8006708:	430b      	orrs	r3, r1
 800670a:	6921      	ldr	r1, [r4, #16]
 800670c:	f001 0102 	and.w	r1, r1, #2
 8006710:	430b      	orrs	r3, r1
 8006712:	6961      	ldr	r1, [r4, #20]
 8006714:	f001 0101 	and.w	r1, r1, #1
 8006718:	430b      	orrs	r3, r1
 800671a:	69a1      	ldr	r1, [r4, #24]
 800671c:	f401 7100 	and.w	r1, r1, #512	@ 0x200
 8006720:	430b      	orrs	r3, r1
 8006722:	69e1      	ldr	r1, [r4, #28]
 8006724:	f001 0138 	and.w	r1, r1, #56	@ 0x38
 8006728:	430b      	orrs	r3, r1
 800672a:	6a21      	ldr	r1, [r4, #32]
 800672c:	f001 0180 	and.w	r1, r1, #128	@ 0x80
 8006730:	430b      	orrs	r3, r1
 8006732:	6aa1      	ldr	r1, [r4, #40]	@ 0x28
 8006734:	f401 5100 	and.w	r1, r1, #8192	@ 0x2000
 8006738:	6820      	ldr	r0, [r4, #0]
 800673a:	430b      	orrs	r3, r1
 800673c:	6003      	str	r3, [r0, #0]
 800673e:	8b63      	ldrh	r3, [r4, #26]
 8006740:	f003 0304 	and.w	r3, r3, #4
 8006744:	6a61      	ldr	r1, [r4, #36]	@ 0x24
 8006746:	f001 0110 	and.w	r1, r1, #16
 800674a:	430b      	orrs	r3, r1
 800674c:	6b61      	ldr	r1, [r4, #52]	@ 0x34
 800674e:	f001 0108 	and.w	r1, r1, #8
 8006752:	430b      	orrs	r3, r1
 8006754:	68e1      	ldr	r1, [r4, #12]
 8006756:	f401 6170 	and.w	r1, r1, #3840	@ 0xf00
 800675a:	430b      	orrs	r3, r1
 800675c:	6821      	ldr	r1, [r4, #0]
 800675e:	4313      	orrs	r3, r2
 8006760:	604b      	str	r3, [r1, #4]
 8006762:	2000      	movs	r0, #0
 8006764:	6620      	str	r0, [r4, #96]	@ 0x60
 8006766:	2301      	movs	r3, #1
 8006768:	f884 305d 	strb.w	r3, [r4, #93]	@ 0x5d
 800676c:	bd10      	pop	{r4, pc}
 800676e:	f884 305c 	strb.w	r3, [r4, #92]	@ 0x5c
 8006772:	4620      	mov	r0, r4
 8006774:	f7fd fc90 	bl	8004098 <HAL_SPI_MspInit>
 8006778:	e7ab      	b.n	80066d2 <HAL_SPI_Init+0x2c>
 800677a:	f44f 5280 	mov.w	r2, #4096	@ 0x1000
 800677e:	e7b5      	b.n	80066ec <HAL_SPI_Init+0x46>
 8006780:	2001      	movs	r0, #1
 8006782:	4770      	bx	lr

08006784 <HAL_SPI_DeInit>:
 8006784:	b190      	cbz	r0, 80067ac <HAL_SPI_DeInit+0x28>
 8006786:	b510      	push	{r4, lr}
 8006788:	4604      	mov	r4, r0
 800678a:	2302      	movs	r3, #2
 800678c:	f880 305d 	strb.w	r3, [r0, #93]	@ 0x5d
 8006790:	6802      	ldr	r2, [r0, #0]
 8006792:	6813      	ldr	r3, [r2, #0]
 8006794:	f023 0340 	bic.w	r3, r3, #64	@ 0x40
 8006798:	6013      	str	r3, [r2, #0]
 800679a:	f7fd fcaf 	bl	80040fc <HAL_SPI_MspDeInit>
 800679e:	2000      	movs	r0, #0
 80067a0:	6620      	str	r0, [r4, #96]	@ 0x60
 80067a2:	f884 005d 	strb.w	r0, [r4, #93]	@ 0x5d
 80067a6:	f884 005c 	strb.w	r0, [r4, #92]	@ 0x5c
 80067aa:	bd10      	pop	{r4, pc}
 80067ac:	2001      	movs	r0, #1
 80067ae:	4770      	bx	lr

080067b0 <HAL_SPI_Transmit>:
 80067b0:	e92d 43f0 	stmdb	sp!, {r4, r5, r6, r7, r8, r9, lr}
 80067b4:	b083      	sub	sp, #12
 80067b6:	4604      	mov	r4, r0
 80067b8:	4689      	mov	r9, r1
 80067ba:	4690      	mov	r8, r2
 80067bc:	461d      	mov	r5, r3
 80067be:	f7fc fa11 	bl	8002be4 <HAL_GetTick>
 80067c2:	f894 305d 	ldrb.w	r3, [r4, #93]	@ 0x5d
 80067c6:	2b01      	cmp	r3, #1
 80067c8:	f040 80f0 	bne.w	80069ac <HAL_SPI_Transmit+0x1fc>
 80067cc:	4606      	mov	r6, r0
 80067ce:	b2df      	uxtb	r7, r3
 80067d0:	f1b9 0f00 	cmp.w	r9, #0
 80067d4:	f000 80eb 	beq.w	80069ae <HAL_SPI_Transmit+0x1fe>
 80067d8:	f1b8 0f00 	cmp.w	r8, #0
 80067dc:	f000 80e7 	beq.w	80069ae <HAL_SPI_Transmit+0x1fe>
 80067e0:	f894 305c 	ldrb.w	r3, [r4, #92]	@ 0x5c
 80067e4:	2b01      	cmp	r3, #1
 80067e6:	f000 80e6 	beq.w	80069b6 <HAL_SPI_Transmit+0x206>
 80067ea:	2301      	movs	r3, #1
 80067ec:	f884 305c 	strb.w	r3, [r4, #92]	@ 0x5c
 80067f0:	2303      	movs	r3, #3
 80067f2:	f884 305d 	strb.w	r3, [r4, #93]	@ 0x5d
 80067f6:	2300      	movs	r3, #0
 80067f8:	6623      	str	r3, [r4, #96]	@ 0x60
 80067fa:	f8c4 9038 	str.w	r9, [r4, #56]	@ 0x38
 80067fe:	f8a4 803c 	strh.w	r8, [r4, #60]	@ 0x3c
 8006802:	f8a4 803e 	strh.w	r8, [r4, #62]	@ 0x3e
 8006806:	6423      	str	r3, [r4, #64]	@ 0x40
 8006808:	f8a4 3044 	strh.w	r3, [r4, #68]	@ 0x44
 800680c:	f8a4 3046 	strh.w	r3, [r4, #70]	@ 0x46
 8006810:	6523      	str	r3, [r4, #80]	@ 0x50
 8006812:	64e3      	str	r3, [r4, #76]	@ 0x4c
 8006814:	68a3      	ldr	r3, [r4, #8]
 8006816:	f5b3 4f00 	cmp.w	r3, #32768	@ 0x8000
 800681a:	d01e      	beq.n	800685a <HAL_SPI_Transmit+0xaa>
 800681c:	6823      	ldr	r3, [r4, #0]
 800681e:	681a      	ldr	r2, [r3, #0]
 8006820:	f012 0f40 	tst.w	r2, #64	@ 0x40
 8006824:	d103      	bne.n	800682e <HAL_SPI_Transmit+0x7e>
 8006826:	681a      	ldr	r2, [r3, #0]
 8006828:	f042 0240 	orr.w	r2, r2, #64	@ 0x40
 800682c:	601a      	str	r2, [r3, #0]
 800682e:	68e3      	ldr	r3, [r4, #12]
 8006830:	f5b3 6fe0 	cmp.w	r3, #1792	@ 0x700
 8006834:	d947      	bls.n	80068c6 <HAL_SPI_Transmit+0x116>
 8006836:	6863      	ldr	r3, [r4, #4]
 8006838:	b113      	cbz	r3, 8006840 <HAL_SPI_Transmit+0x90>
 800683a:	f1b8 0f01 	cmp.w	r8, #1
 800683e:	d120      	bne.n	8006882 <HAL_SPI_Transmit+0xd2>
 8006840:	6ba2      	ldr	r2, [r4, #56]	@ 0x38
 8006842:	6823      	ldr	r3, [r4, #0]
 8006844:	8812      	ldrh	r2, [r2, #0]
 8006846:	60da      	str	r2, [r3, #12]
 8006848:	6ba3      	ldr	r3, [r4, #56]	@ 0x38
 800684a:	3302      	adds	r3, #2
 800684c:	63a3      	str	r3, [r4, #56]	@ 0x38
 800684e:	8fe3      	ldrh	r3, [r4, #62]	@ 0x3e
 8006850:	b29b      	uxth	r3, r3
 8006852:	3b01      	subs	r3, #1
 8006854:	b29b      	uxth	r3, r3
 8006856:	87e3      	strh	r3, [r4, #62]	@ 0x3e
 8006858:	e013      	b.n	8006882 <HAL_SPI_Transmit+0xd2>
 800685a:	6822      	ldr	r2, [r4, #0]
 800685c:	6813      	ldr	r3, [r2, #0]
 800685e:	f023 0340 	bic.w	r3, r3, #64	@ 0x40
 8006862:	6013      	str	r3, [r2, #0]
 8006864:	6822      	ldr	r2, [r4, #0]
 8006866:	6813      	ldr	r3, [r2, #0]
 8006868:	f443 4380 	orr.w	r3, r3, #16384	@ 0x4000
 800686c:	6013      	str	r3, [r2, #0]
 800686e:	e7d5      	b.n	800681c <HAL_SPI_Transmit+0x6c>
 8006870:	f7fc f9b8 	bl	8002be4 <HAL_GetTick>
 8006874:	1b80      	subs	r0, r0, r6
 8006876:	42a8      	cmp	r0, r5
 8006878:	d302      	bcc.n	8006880 <HAL_SPI_Transmit+0xd0>
 800687a:	f1b5 3fff 	cmp.w	r5, #4294967295
 800687e:	d11a      	bne.n	80068b6 <HAL_SPI_Transmit+0x106>
 8006880:	b1cd      	cbz	r5, 80068b6 <HAL_SPI_Transmit+0x106>
 8006882:	8fe3      	ldrh	r3, [r4, #62]	@ 0x3e
 8006884:	b29b      	uxth	r3, r3
 8006886:	2b00      	cmp	r3, #0
 8006888:	d075      	beq.n	8006976 <HAL_SPI_Transmit+0x1c6>
 800688a:	6823      	ldr	r3, [r4, #0]
 800688c:	689a      	ldr	r2, [r3, #8]
 800688e:	f012 0f02 	tst.w	r2, #2
 8006892:	d0ed      	beq.n	8006870 <HAL_SPI_Transmit+0xc0>
 8006894:	6ba2      	ldr	r2, [r4, #56]	@ 0x38
 8006896:	8812      	ldrh	r2, [r2, #0]
 8006898:	60da      	str	r2, [r3, #12]
 800689a:	6ba3      	ldr	r3, [r4, #56]	@ 0x38
 800689c:	3302      	adds	r3, #2
 800689e:	63a3      	str	r3, [r4, #56]	@ 0x38
 80068a0:	f8b4 c03e 	ldrh.w	ip, [r4, #62]	@ 0x3e
 80068a4:	fa1f fc8c 	uxth.w	ip, ip
 80068a8:	f10c 3cff 	add.w	ip, ip, #4294967295
 80068ac:	fa1f fc8c 	uxth.w	ip, ip
 80068b0:	f8a4 c03e 	strh.w	ip, [r4, #62]	@ 0x3e
 80068b4:	e7e5      	b.n	8006882 <HAL_SPI_Transmit+0xd2>
 80068b6:	2301      	movs	r3, #1
 80068b8:	f884 305d 	strb.w	r3, [r4, #93]	@ 0x5d
 80068bc:	2300      	movs	r3, #0
 80068be:	f884 305c 	strb.w	r3, [r4, #92]	@ 0x5c
 80068c2:	2703      	movs	r7, #3
 80068c4:	e073      	b.n	80069ae <HAL_SPI_Transmit+0x1fe>
 80068c6:	6863      	ldr	r3, [r4, #4]
 80068c8:	b113      	cbz	r3, 80068d0 <HAL_SPI_Transmit+0x120>
 80068ca:	f1b8 0f01 	cmp.w	r8, #1
 80068ce:	d128      	bne.n	8006922 <HAL_SPI_Transmit+0x172>
 80068d0:	8fe3      	ldrh	r3, [r4, #62]	@ 0x3e
 80068d2:	b29b      	uxth	r3, r3
 80068d4:	2b01      	cmp	r3, #1
 80068d6:	d90c      	bls.n	80068f2 <HAL_SPI_Transmit+0x142>
 80068d8:	6ba2      	ldr	r2, [r4, #56]	@ 0x38
 80068da:	6823      	ldr	r3, [r4, #0]
 80068dc:	8812      	ldrh	r2, [r2, #0]
 80068de:	60da      	str	r2, [r3, #12]
 80068e0:	6ba3      	ldr	r3, [r4, #56]	@ 0x38
 80068e2:	3302      	adds	r3, #2
 80068e4:	63a3      	str	r3, [r4, #56]	@ 0x38
 80068e6:	8fe3      	ldrh	r3, [r4, #62]	@ 0x3e
 80068e8:	b29b      	uxth	r3, r3
 80068ea:	3b02      	subs	r3, #2
 80068ec:	b29b      	uxth	r3, r3
 80068ee:	87e3      	strh	r3, [r4, #62]	@ 0x3e
 80068f0:	e017      	b.n	8006922 <HAL_SPI_Transmit+0x172>
 80068f2:	6ba2      	ldr	r2, [r4, #56]	@ 0x38
 80068f4:	6823      	ldr	r3, [r4, #0]
 80068f6:	7812      	ldrb	r2, [r2, #0]
 80068f8:	731a      	strb	r2, [r3, #12]
 80068fa:	6ba3      	ldr	r3, [r4, #56]	@ 0x38
 80068fc:	3301      	adds	r3, #1
 80068fe:	63a3      	str	r3, [r4, #56]	@ 0x38
 8006900:	8fe3      	ldrh	r3, [r4, #62]	@ 0x3e
 8006902:	b29b      	uxth	r3, r3
 8006904:	3b01      	subs	r3, #1
 8006906:	b29b      	uxth	r3, r3
 8006908:	87e3      	strh	r3, [r4, #62]	@ 0x3e
 800690a:	e00a      	b.n	8006922 <HAL_SPI_Transmit+0x172>
 800690c:	6ba3      	ldr	r3, [r4, #56]	@ 0x38
 800690e:	881b      	ldrh	r3, [r3, #0]
 8006910:	60d3      	str	r3, [r2, #12]
 8006912:	6ba3      	ldr	r3, [r4, #56]	@ 0x38
 8006914:	3302      	adds	r3, #2
 8006916:	63a3      	str	r3, [r4, #56]	@ 0x38
 8006918:	8fe3      	ldrh	r3, [r4, #62]	@ 0x3e
 800691a:	b29b      	uxth	r3, r3
 800691c:	3b02      	subs	r3, #2
 800691e:	b29b      	uxth	r3, r3
 8006920:	87e3      	strh	r3, [r4, #62]	@ 0x3e
 8006922:	8fe3      	ldrh	r3, [r4, #62]	@ 0x3e
 8006924:	b29b      	uxth	r3, r3
 8006926:	b333      	cbz	r3, 8006976 <HAL_SPI_Transmit+0x1c6>
 8006928:	6822      	ldr	r2, [r4, #0]
 800692a:	6893      	ldr	r3, [r2, #8]
 800692c:	f013 0f02 	tst.w	r3, #2
 8006930:	d00f      	beq.n	8006952 <HAL_SPI_Transmit+0x1a2>
 8006932:	8fe3      	ldrh	r3, [r4, #62]	@ 0x3e
 8006934:	b29b      	uxth	r3, r3
 8006936:	2b01      	cmp	r3, #1
 8006938:	d8e8      	bhi.n	800690c <HAL_SPI_Transmit+0x15c>
 800693a:	6ba3      	ldr	r3, [r4, #56]	@ 0x38
 800693c:	781b      	ldrb	r3, [r3, #0]
 800693e:	7313      	strb	r3, [r2, #12]
 8006940:	6ba3      	ldr	r3, [r4, #56]	@ 0x38
 8006942:	3301      	adds	r3, #1
 8006944:	63a3      	str	r3, [r4, #56]	@ 0x38
 8006946:	8fe3      	ldrh	r3, [r4, #62]	@ 0x3e
 8006948:	b29b      	uxth	r3, r3
 800694a:	3b01      	subs	r3, #1
 800694c:	b29b      	uxth	r3, r3
 800694e:	87e3      	strh	r3, [r4, #62]	@ 0x3e
 8006950:	e7e7      	b.n	8006922 <HAL_SPI_Transmit+0x172>
 8006952:	f7fc f947 	bl	8002be4 <HAL_GetTick>
 8006956:	1b80      	subs	r0, r0, r6
 8006958:	42a8      	cmp	r0, r5
 800695a:	d302      	bcc.n	8006962 <HAL_SPI_Transmit+0x1b2>
 800695c:	f1b5 3fff 	cmp.w	r5, #4294967295
 8006960:	d101      	bne.n	8006966 <HAL_SPI_Transmit+0x1b6>
 8006962:	2d00      	cmp	r5, #0
 8006964:	d1dd      	bne.n	8006922 <HAL_SPI_Transmit+0x172>
 8006966:	2301      	movs	r3, #1
 8006968:	f884 305d 	strb.w	r3, [r4, #93]	@ 0x5d
 800696c:	2300      	movs	r3, #0
 800696e:	f884 305c 	strb.w	r3, [r4, #92]	@ 0x5c
 8006972:	2703      	movs	r7, #3
 8006974:	e01b      	b.n	80069ae <HAL_SPI_Transmit+0x1fe>
 8006976:	4632      	mov	r2, r6
 8006978:	4629      	mov	r1, r5
 800697a:	4620      	mov	r0, r4
 800697c:	f7ff fe62 	bl	8006644 <SPI_EndRxTxTransaction>
 8006980:	b108      	cbz	r0, 8006986 <HAL_SPI_Transmit+0x1d6>
 8006982:	2320      	movs	r3, #32
 8006984:	6623      	str	r3, [r4, #96]	@ 0x60
 8006986:	68a3      	ldr	r3, [r4, #8]
 8006988:	b933      	cbnz	r3, 8006998 <HAL_SPI_Transmit+0x1e8>
 800698a:	9301      	str	r3, [sp, #4]
 800698c:	6823      	ldr	r3, [r4, #0]
 800698e:	68da      	ldr	r2, [r3, #12]
 8006990:	9201      	str	r2, [sp, #4]
 8006992:	689b      	ldr	r3, [r3, #8]
 8006994:	9301      	str	r3, [sp, #4]
 8006996:	9b01      	ldr	r3, [sp, #4]
 8006998:	2301      	movs	r3, #1
 800699a:	f884 305d 	strb.w	r3, [r4, #93]	@ 0x5d
 800699e:	2300      	movs	r3, #0
 80069a0:	f884 305c 	strb.w	r3, [r4, #92]	@ 0x5c
 80069a4:	6e23      	ldr	r3, [r4, #96]	@ 0x60
 80069a6:	b913      	cbnz	r3, 80069ae <HAL_SPI_Transmit+0x1fe>
 80069a8:	2700      	movs	r7, #0
 80069aa:	e000      	b.n	80069ae <HAL_SPI_Transmit+0x1fe>
 80069ac:	2702      	movs	r7, #2
 80069ae:	4638      	mov	r0, r7
 80069b0:	b003      	add	sp, #12
 80069b2:	e8bd 83f0 	ldmia.w	sp!, {r4, r5, r6, r7, r8, r9, pc}
 80069b6:	2702      	movs	r7, #2
 80069b8:	e7f9      	b.n	80069ae <HAL_SPI_Transmit+0x1fe>

080069ba <UART_EndRxTransfer>:
 80069ba:	6802      	ldr	r2, [r0, #0]
 80069bc:	e852 3f00 	ldrex	r3, [r2]
 80069c0:	f423 7390 	bic.w	r3, r3, #288	@ 0x120
 80069c4:	e842 3100 	strex	r1, r3, [r2]
 80069c8:	2900      	cmp	r1, #0
 80069ca:	d1f6      	bne.n	80069ba <UART_EndRxTransfer>
 80069cc:	6802      	ldr	r2, [r0, #0]
 80069ce:	f102 0308 	add.w	r3, r2, #8
 80069d2:	e853 3f00 	ldrex	r3, [r3]
 80069d6:	f023 0301 	bic.w	r3, r3, #1
 80069da:	3208      	adds	r2, #8
 80069dc:	e842 3100 	strex	r1, r3, [r2]
 80069e0:	2900      	cmp	r1, #0
 80069e2:	d1f3      	bne.n	80069cc <UART_EndRxTransfer+0x12>
 80069e4:	6e03      	ldr	r3, [r0, #96]	@ 0x60
 80069e6:	2b01      	cmp	r3, #1
 80069e8:	d006      	beq.n	80069f8 <UART_EndRxTransfer+0x3e>
 80069ea:	2320      	movs	r3, #32
 80069ec:	f8c0 3080 	str.w	r3, [r0, #128]	@ 0x80
 80069f0:	2300      	movs	r3, #0
 80069f2:	6603      	str	r3, [r0, #96]	@ 0x60
 80069f4:	6683      	str	r3, [r0, #104]	@ 0x68
 80069f6:	4770      	bx	lr
 80069f8:	6802      	ldr	r2, [r0, #0]
 80069fa:	e852 3f00 	ldrex	r3, [r2]
 80069fe:	f023 0310 	bic.w	r3, r3, #16
 8006a02:	e842 3100 	strex	r1, r3, [r2]
 8006a06:	2900      	cmp	r1, #0
 8006a08:	d1f6      	bne.n	80069f8 <UART_EndRxTransfer+0x3e>
 8006a0a:	e7ee      	b.n	80069ea <UART_EndRxTransfer+0x30>

08006a0c <UART_SetConfig>:
 8006a0c:	b510      	push	{r4, lr}
 8006a0e:	4604      	mov	r4, r0
 8006a10:	6883      	ldr	r3, [r0, #8]
 8006a12:	6902      	ldr	r2, [r0, #16]
 8006a14:	4313      	orrs	r3, r2
 8006a16:	6942      	ldr	r2, [r0, #20]
 8006a18:	4313      	orrs	r3, r2
 8006a1a:	69c2      	ldr	r2, [r0, #28]
 8006a1c:	4313      	orrs	r3, r2
 8006a1e:	6801      	ldr	r1, [r0, #0]
 8006a20:	6808      	ldr	r0, [r1, #0]
 8006a22:	4a94      	ldr	r2, [pc, #592]	@ (8006c74 <UART_SetConfig+0x268>)
 8006a24:	4002      	ands	r2, r0
 8006a26:	431a      	orrs	r2, r3
 8006a28:	600a      	str	r2, [r1, #0]
 8006a2a:	6822      	ldr	r2, [r4, #0]
 8006a2c:	6853      	ldr	r3, [r2, #4]
 8006a2e:	f423 5340 	bic.w	r3, r3, #12288	@ 0x3000
 8006a32:	68e1      	ldr	r1, [r4, #12]
 8006a34:	430b      	orrs	r3, r1
 8006a36:	6053      	str	r3, [r2, #4]
 8006a38:	69a1      	ldr	r1, [r4, #24]
 8006a3a:	6822      	ldr	r2, [r4, #0]
 8006a3c:	4b8e      	ldr	r3, [pc, #568]	@ (8006c78 <UART_SetConfig+0x26c>)
 8006a3e:	429a      	cmp	r2, r3
 8006a40:	d001      	beq.n	8006a46 <UART_SetConfig+0x3a>
 8006a42:	6a23      	ldr	r3, [r4, #32]
 8006a44:	4319      	orrs	r1, r3
 8006a46:	6893      	ldr	r3, [r2, #8]
 8006a48:	f423 6330 	bic.w	r3, r3, #2816	@ 0xb00
 8006a4c:	430b      	orrs	r3, r1
 8006a4e:	6093      	str	r3, [r2, #8]
 8006a50:	6823      	ldr	r3, [r4, #0]
 8006a52:	4a8a      	ldr	r2, [pc, #552]	@ (8006c7c <UART_SetConfig+0x270>)
 8006a54:	4293      	cmp	r3, r2
 8006a56:	d01f      	beq.n	8006a98 <UART_SetConfig+0x8c>
 8006a58:	4a89      	ldr	r2, [pc, #548]	@ (8006c80 <UART_SetConfig+0x274>)
 8006a5a:	4293      	cmp	r3, r2
 8006a5c:	d030      	beq.n	8006ac0 <UART_SetConfig+0xb4>
 8006a5e:	4a89      	ldr	r2, [pc, #548]	@ (8006c84 <UART_SetConfig+0x278>)
 8006a60:	4293      	cmp	r3, r2
 8006a62:	d046      	beq.n	8006af2 <UART_SetConfig+0xe6>
 8006a64:	4a84      	ldr	r2, [pc, #528]	@ (8006c78 <UART_SetConfig+0x26c>)
 8006a66:	4293      	cmp	r3, r2
 8006a68:	d055      	beq.n	8006b16 <UART_SetConfig+0x10a>
 8006a6a:	2210      	movs	r2, #16
 8006a6c:	4982      	ldr	r1, [pc, #520]	@ (8006c78 <UART_SetConfig+0x26c>)
 8006a6e:	428b      	cmp	r3, r1
 8006a70:	d07a      	beq.n	8006b68 <UART_SetConfig+0x15c>
 8006a72:	69e0      	ldr	r0, [r4, #28]
 8006a74:	f5b0 4f00 	cmp.w	r0, #32768	@ 0x8000
 8006a78:	f000 80a6 	beq.w	8006bc8 <UART_SetConfig+0x1bc>
 8006a7c:	2a08      	cmp	r2, #8
 8006a7e:	f200 8109 	bhi.w	8006c94 <UART_SetConfig+0x288>
 8006a82:	e8df f012 	tbh	[pc, r2, lsl #1]
 8006a86:	00ce      	.short	0x00ce
 8006a88:	00cc00e2 	.word	0x00cc00e2
 8006a8c:	00e50107 	.word	0x00e50107
 8006a90:	01070107 	.word	0x01070107
 8006a94:	00e80107 	.word	0x00e80107
 8006a98:	f502 4258 	add.w	r2, r2, #55296	@ 0xd800
 8006a9c:	f8d2 2088 	ldr.w	r2, [r2, #136]	@ 0x88
 8006aa0:	f002 0203 	and.w	r2, r2, #3
 8006aa4:	2a03      	cmp	r2, #3
 8006aa6:	d809      	bhi.n	8006abc <UART_SetConfig+0xb0>
 8006aa8:	e8df f002 	tbb	[pc, r2]
 8006aac:	064a0402 	.word	0x064a0402
 8006ab0:	2201      	movs	r2, #1
 8006ab2:	e7db      	b.n	8006a6c <UART_SetConfig+0x60>
 8006ab4:	2204      	movs	r2, #4
 8006ab6:	e7d9      	b.n	8006a6c <UART_SetConfig+0x60>
 8006ab8:	2208      	movs	r2, #8
 8006aba:	e7d7      	b.n	8006a6c <UART_SetConfig+0x60>
 8006abc:	2210      	movs	r2, #16
 8006abe:	e7d5      	b.n	8006a6c <UART_SetConfig+0x60>
 8006ac0:	f502 32e6 	add.w	r2, r2, #117760	@ 0x1cc00
 8006ac4:	f8d2 2088 	ldr.w	r2, [r2, #136]	@ 0x88
 8006ac8:	f002 020c 	and.w	r2, r2, #12
 8006acc:	2a0c      	cmp	r2, #12
 8006ace:	d80e      	bhi.n	8006aee <UART_SetConfig+0xe2>
 8006ad0:	e8df f002 	tbb	[pc, r2]
 8006ad4:	0d0d0d07 	.word	0x0d0d0d07
 8006ad8:	0d0d0d09 	.word	0x0d0d0d09
 8006adc:	0d0d0d38 	.word	0x0d0d0d38
 8006ae0:	0b          	.byte	0x0b
 8006ae1:	00          	.byte	0x00
 8006ae2:	2200      	movs	r2, #0
 8006ae4:	e7c2      	b.n	8006a6c <UART_SetConfig+0x60>
 8006ae6:	2204      	movs	r2, #4
 8006ae8:	e7c0      	b.n	8006a6c <UART_SetConfig+0x60>
 8006aea:	2208      	movs	r2, #8
 8006aec:	e7be      	b.n	8006a6c <UART_SetConfig+0x60>
 8006aee:	2210      	movs	r2, #16
 8006af0:	e7bc      	b.n	8006a6c <UART_SetConfig+0x60>
 8006af2:	f502 32e4 	add.w	r2, r2, #116736	@ 0x1c800
 8006af6:	f8d2 2088 	ldr.w	r2, [r2, #136]	@ 0x88
 8006afa:	f002 0230 	and.w	r2, r2, #48	@ 0x30
 8006afe:	2a20      	cmp	r2, #32
 8006b00:	d022      	beq.n	8006b48 <UART_SetConfig+0x13c>
 8006b02:	d804      	bhi.n	8006b0e <UART_SetConfig+0x102>
 8006b04:	b312      	cbz	r2, 8006b4c <UART_SetConfig+0x140>
 8006b06:	2a10      	cmp	r2, #16
 8006b08:	d122      	bne.n	8006b50 <UART_SetConfig+0x144>
 8006b0a:	2204      	movs	r2, #4
 8006b0c:	e7ae      	b.n	8006a6c <UART_SetConfig+0x60>
 8006b0e:	2a30      	cmp	r2, #48	@ 0x30
 8006b10:	d120      	bne.n	8006b54 <UART_SetConfig+0x148>
 8006b12:	2208      	movs	r2, #8
 8006b14:	e7aa      	b.n	8006a6c <UART_SetConfig+0x60>
 8006b16:	f502 32c8 	add.w	r2, r2, #102400	@ 0x19000
 8006b1a:	f8d2 2088 	ldr.w	r2, [r2, #136]	@ 0x88
 8006b1e:	f402 6240 	and.w	r2, r2, #3072	@ 0xc00
 8006b22:	f5b2 6f00 	cmp.w	r2, #2048	@ 0x800
 8006b26:	d017      	beq.n	8006b58 <UART_SetConfig+0x14c>
 8006b28:	d805      	bhi.n	8006b36 <UART_SetConfig+0x12a>
 8006b2a:	b1ba      	cbz	r2, 8006b5c <UART_SetConfig+0x150>
 8006b2c:	f5b2 6f80 	cmp.w	r2, #1024	@ 0x400
 8006b30:	d116      	bne.n	8006b60 <UART_SetConfig+0x154>
 8006b32:	2204      	movs	r2, #4
 8006b34:	e79a      	b.n	8006a6c <UART_SetConfig+0x60>
 8006b36:	f5b2 6f40 	cmp.w	r2, #3072	@ 0xc00
 8006b3a:	d113      	bne.n	8006b64 <UART_SetConfig+0x158>
 8006b3c:	2208      	movs	r2, #8
 8006b3e:	e795      	b.n	8006a6c <UART_SetConfig+0x60>
 8006b40:	2202      	movs	r2, #2
 8006b42:	e793      	b.n	8006a6c <UART_SetConfig+0x60>
 8006b44:	2202      	movs	r2, #2
 8006b46:	e791      	b.n	8006a6c <UART_SetConfig+0x60>
 8006b48:	2202      	movs	r2, #2
 8006b4a:	e78f      	b.n	8006a6c <UART_SetConfig+0x60>
 8006b4c:	2200      	movs	r2, #0
 8006b4e:	e78d      	b.n	8006a6c <UART_SetConfig+0x60>
 8006b50:	2210      	movs	r2, #16
 8006b52:	e78b      	b.n	8006a6c <UART_SetConfig+0x60>
 8006b54:	2210      	movs	r2, #16
 8006b56:	e789      	b.n	8006a6c <UART_SetConfig+0x60>
 8006b58:	2202      	movs	r2, #2
 8006b5a:	e787      	b.n	8006a6c <UART_SetConfig+0x60>
 8006b5c:	2200      	movs	r2, #0
 8006b5e:	e785      	b.n	8006a6c <UART_SetConfig+0x60>
 8006b60:	2210      	movs	r2, #16
 8006b62:	e783      	b.n	8006a6c <UART_SetConfig+0x60>
 8006b64:	2210      	movs	r2, #16
 8006b66:	e781      	b.n	8006a6c <UART_SetConfig+0x60>
 8006b68:	2a08      	cmp	r2, #8
 8006b6a:	d877      	bhi.n	8006c5c <UART_SetConfig+0x250>
 8006b6c:	e8df f002 	tbb	[pc, r2]
 8006b70:	76107608 	.word	0x76107608
 8006b74:	7676760d 	.word	0x7676760d
 8006b78:	05          	.byte	0x05
 8006b79:	00          	.byte	0x00
 8006b7a:	f44f 4000 	mov.w	r0, #32768	@ 0x8000
 8006b7e:	e008      	b.n	8006b92 <UART_SetConfig+0x186>
 8006b80:	f7ff f88a 	bl	8005c98 <HAL_RCC_GetPCLK1Freq>
 8006b84:	b928      	cbnz	r0, 8006b92 <UART_SetConfig+0x186>
 8006b86:	2000      	movs	r0, #0
 8006b88:	e085      	b.n	8006c96 <UART_SetConfig+0x28a>
 8006b8a:	f7fe fbf9 	bl	8005380 <HAL_RCC_GetSysClockFreq>
 8006b8e:	e7f9      	b.n	8006b84 <UART_SetConfig+0x178>
 8006b90:	483d      	ldr	r0, [pc, #244]	@ (8006c88 <UART_SetConfig+0x27c>)
 8006b92:	6862      	ldr	r2, [r4, #4]
 8006b94:	eb02 0342 	add.w	r3, r2, r2, lsl #1
 8006b98:	4283      	cmp	r3, r0
 8006b9a:	d861      	bhi.n	8006c60 <UART_SetConfig+0x254>
 8006b9c:	ebb0 3f02 	cmp.w	r0, r2, lsl #12
 8006ba0:	d860      	bhi.n	8006c64 <UART_SetConfig+0x258>
 8006ba2:	0e01      	lsrs	r1, r0, #24
 8006ba4:	0200      	lsls	r0, r0, #8
 8006ba6:	0853      	lsrs	r3, r2, #1
 8006ba8:	18c0      	adds	r0, r0, r3
 8006baa:	f04f 0300 	mov.w	r3, #0
 8006bae:	f141 0100 	adc.w	r1, r1, #0
 8006bb2:	f7f9 ff73 	bl	8000a9c <__aeabi_uldivmod>
 8006bb6:	f5a0 7240 	sub.w	r2, r0, #768	@ 0x300
 8006bba:	4b34      	ldr	r3, [pc, #208]	@ (8006c8c <UART_SetConfig+0x280>)
 8006bbc:	429a      	cmp	r2, r3
 8006bbe:	d853      	bhi.n	8006c68 <UART_SetConfig+0x25c>
 8006bc0:	6823      	ldr	r3, [r4, #0]
 8006bc2:	60d8      	str	r0, [r3, #12]
 8006bc4:	2000      	movs	r0, #0
 8006bc6:	e066      	b.n	8006c96 <UART_SetConfig+0x28a>
 8006bc8:	2a08      	cmp	r2, #8
 8006bca:	d84f      	bhi.n	8006c6c <UART_SetConfig+0x260>
 8006bcc:	e8df f002 	tbb	[pc, r2]
 8006bd0:	4e052107 	.word	0x4e052107
 8006bd4:	4e4e4e24 	.word	0x4e4e4e24
 8006bd8:	0b          	.byte	0x0b
 8006bd9:	00          	.byte	0x00
 8006bda:	482b      	ldr	r0, [pc, #172]	@ (8006c88 <UART_SetConfig+0x27c>)
 8006bdc:	e003      	b.n	8006be6 <UART_SetConfig+0x1da>
 8006bde:	f7ff f85b 	bl	8005c98 <HAL_RCC_GetPCLK1Freq>
 8006be2:	2800      	cmp	r0, #0
 8006be4:	d044      	beq.n	8006c70 <UART_SetConfig+0x264>
 8006be6:	6862      	ldr	r2, [r4, #4]
 8006be8:	0853      	lsrs	r3, r2, #1
 8006bea:	eb03 0340 	add.w	r3, r3, r0, lsl #1
 8006bee:	fbb3 f3f2 	udiv	r3, r3, r2
 8006bf2:	f1a3 0110 	sub.w	r1, r3, #16
 8006bf6:	f64f 72ef 	movw	r2, #65519	@ 0xffef
 8006bfa:	4291      	cmp	r1, r2
 8006bfc:	d848      	bhi.n	8006c90 <UART_SetConfig+0x284>
 8006bfe:	b29a      	uxth	r2, r3
 8006c00:	f022 020f 	bic.w	r2, r2, #15
 8006c04:	f3c3 0342 	ubfx	r3, r3, #1, #3
 8006c08:	4313      	orrs	r3, r2
 8006c0a:	6822      	ldr	r2, [r4, #0]
 8006c0c:	60d3      	str	r3, [r2, #12]
 8006c0e:	2000      	movs	r0, #0
 8006c10:	e041      	b.n	8006c96 <UART_SetConfig+0x28a>
 8006c12:	f7ff f853 	bl	8005cbc <HAL_RCC_GetPCLK2Freq>
 8006c16:	e7e4      	b.n	8006be2 <UART_SetConfig+0x1d6>
 8006c18:	f7fe fbb2 	bl	8005380 <HAL_RCC_GetSysClockFreq>
 8006c1c:	e7e1      	b.n	8006be2 <UART_SetConfig+0x1d6>
 8006c1e:	481a      	ldr	r0, [pc, #104]	@ (8006c88 <UART_SetConfig+0x27c>)
 8006c20:	e003      	b.n	8006c2a <UART_SetConfig+0x21e>
 8006c22:	f7ff f839 	bl	8005c98 <HAL_RCC_GetPCLK1Freq>
 8006c26:	2800      	cmp	r0, #0
 8006c28:	d039      	beq.n	8006c9e <UART_SetConfig+0x292>
 8006c2a:	6863      	ldr	r3, [r4, #4]
 8006c2c:	eb00 0053 	add.w	r0, r0, r3, lsr #1
 8006c30:	fbb0 f0f3 	udiv	r0, r0, r3
 8006c34:	f1a0 0210 	sub.w	r2, r0, #16
 8006c38:	f64f 73ef 	movw	r3, #65519	@ 0xffef
 8006c3c:	429a      	cmp	r2, r3
 8006c3e:	d830      	bhi.n	8006ca2 <UART_SetConfig+0x296>
 8006c40:	6823      	ldr	r3, [r4, #0]
 8006c42:	b280      	uxth	r0, r0
 8006c44:	60d8      	str	r0, [r3, #12]
 8006c46:	2000      	movs	r0, #0
 8006c48:	e025      	b.n	8006c96 <UART_SetConfig+0x28a>
 8006c4a:	f7ff f837 	bl	8005cbc <HAL_RCC_GetPCLK2Freq>
 8006c4e:	e7ea      	b.n	8006c26 <UART_SetConfig+0x21a>
 8006c50:	f7fe fb96 	bl	8005380 <HAL_RCC_GetSysClockFreq>
 8006c54:	e7e7      	b.n	8006c26 <UART_SetConfig+0x21a>
 8006c56:	f44f 4000 	mov.w	r0, #32768	@ 0x8000
 8006c5a:	e7e6      	b.n	8006c2a <UART_SetConfig+0x21e>
 8006c5c:	2001      	movs	r0, #1
 8006c5e:	e01a      	b.n	8006c96 <UART_SetConfig+0x28a>
 8006c60:	2001      	movs	r0, #1
 8006c62:	e018      	b.n	8006c96 <UART_SetConfig+0x28a>
 8006c64:	2001      	movs	r0, #1
 8006c66:	e016      	b.n	8006c96 <UART_SetConfig+0x28a>
 8006c68:	2001      	movs	r0, #1
 8006c6a:	e014      	b.n	8006c96 <UART_SetConfig+0x28a>
 8006c6c:	2001      	movs	r0, #1
 8006c6e:	e012      	b.n	8006c96 <UART_SetConfig+0x28a>
 8006c70:	2000      	movs	r0, #0
 8006c72:	e010      	b.n	8006c96 <UART_SetConfig+0x28a>
 8006c74:	efff69f3 	.word	0xefff69f3
 8006c78:	40008000 	.word	0x40008000
 8006c7c:	40013800 	.word	0x40013800
 8006c80:	40004400 	.word	0x40004400
 8006c84:	40004800 	.word	0x40004800
 8006c88:	00f42400 	.word	0x00f42400
 8006c8c:	000ffcff 	.word	0x000ffcff
 8006c90:	2001      	movs	r0, #1
 8006c92:	e000      	b.n	8006c96 <UART_SetConfig+0x28a>
 8006c94:	2001      	movs	r0, #1
 8006c96:	2300      	movs	r3, #0
 8006c98:	66a3      	str	r3, [r4, #104]	@ 0x68
 8006c9a:	66e3      	str	r3, [r4, #108]	@ 0x6c
 8006c9c:	bd10      	pop	{r4, pc}
 8006c9e:	2000      	movs	r0, #0
 8006ca0:	e7f9      	b.n	8006c96 <UART_SetConfig+0x28a>
 8006ca2:	2001      	movs	r0, #1
 8006ca4:	e7f7      	b.n	8006c96 <UART_SetConfig+0x28a>
 8006ca6:	bf00      	nop

08006ca8 <UART_AdvFeatureConfig>:
 8006ca8:	6a43      	ldr	r3, [r0, #36]	@ 0x24
 8006caa:	f013 0f08 	tst.w	r3, #8
 8006cae:	d006      	beq.n	8006cbe <UART_AdvFeatureConfig+0x16>
 8006cb0:	6802      	ldr	r2, [r0, #0]
 8006cb2:	6853      	ldr	r3, [r2, #4]
 8006cb4:	f423 4300 	bic.w	r3, r3, #32768	@ 0x8000
 8006cb8:	6b41      	ldr	r1, [r0, #52]	@ 0x34
 8006cba:	430b      	orrs	r3, r1
 8006cbc:	6053      	str	r3, [r2, #4]
 8006cbe:	6a43      	ldr	r3, [r0, #36]	@ 0x24
 8006cc0:	f013 0f01 	tst.w	r3, #1
 8006cc4:	d006      	beq.n	8006cd4 <UART_AdvFeatureConfig+0x2c>
 8006cc6:	6802      	ldr	r2, [r0, #0]
 8006cc8:	6853      	ldr	r3, [r2, #4]
 8006cca:	f423 3300 	bic.w	r3, r3, #131072	@ 0x20000
 8006cce:	6a81      	ldr	r1, [r0, #40]	@ 0x28
 8006cd0:	430b      	orrs	r3, r1
 8006cd2:	6053      	str	r3, [r2, #4]
 8006cd4:	6a43      	ldr	r3, [r0, #36]	@ 0x24
 8006cd6:	f013 0f02 	tst.w	r3, #2
 8006cda:	d006      	beq.n	8006cea <UART_AdvFeatureConfig+0x42>
 8006cdc:	6802      	ldr	r2, [r0, #0]
 8006cde:	6853      	ldr	r3, [r2, #4]
 8006ce0:	f423 3380 	bic.w	r3, r3, #65536	@ 0x10000
 8006ce4:	6ac1      	ldr	r1, [r0, #44]	@ 0x2c
 8006ce6:	430b      	orrs	r3, r1
 8006ce8:	6053      	str	r3, [r2, #4]
 8006cea:	6a43      	ldr	r3, [r0, #36]	@ 0x24
 8006cec:	f013 0f04 	tst.w	r3, #4
 8006cf0:	d006      	beq.n	8006d00 <UART_AdvFeatureConfig+0x58>
 8006cf2:	6802      	ldr	r2, [r0, #0]
 8006cf4:	6853      	ldr	r3, [r2, #4]
 8006cf6:	f423 2380 	bic.w	r3, r3, #262144	@ 0x40000
 8006cfa:	6b01      	ldr	r1, [r0, #48]	@ 0x30
 8006cfc:	430b      	orrs	r3, r1
 8006cfe:	6053      	str	r3, [r2, #4]
 8006d00:	6a43      	ldr	r3, [r0, #36]	@ 0x24
 8006d02:	f013 0f10 	tst.w	r3, #16
 8006d06:	d006      	beq.n	8006d16 <UART_AdvFeatureConfig+0x6e>
 8006d08:	6802      	ldr	r2, [r0, #0]
 8006d0a:	6893      	ldr	r3, [r2, #8]
 8006d0c:	f423 5380 	bic.w	r3, r3, #4096	@ 0x1000
 8006d10:	6b81      	ldr	r1, [r0, #56]	@ 0x38
 8006d12:	430b      	orrs	r3, r1
 8006d14:	6093      	str	r3, [r2, #8]
 8006d16:	6a43      	ldr	r3, [r0, #36]	@ 0x24
 8006d18:	f013 0f20 	tst.w	r3, #32
 8006d1c:	d006      	beq.n	8006d2c <UART_AdvFeatureConfig+0x84>
 8006d1e:	6802      	ldr	r2, [r0, #0]
 8006d20:	6893      	ldr	r3, [r2, #8]
 8006d22:	f423 5300 	bic.w	r3, r3, #8192	@ 0x2000
 8006d26:	6bc1      	ldr	r1, [r0, #60]	@ 0x3c
 8006d28:	430b      	orrs	r3, r1
 8006d2a:	6093      	str	r3, [r2, #8]
 8006d2c:	6a43      	ldr	r3, [r0, #36]	@ 0x24
 8006d2e:	f013 0f40 	tst.w	r3, #64	@ 0x40
 8006d32:	d00a      	beq.n	8006d4a <UART_AdvFeatureConfig+0xa2>
 8006d34:	6802      	ldr	r2, [r0, #0]
 8006d36:	6853      	ldr	r3, [r2, #4]
 8006d38:	f423 1380 	bic.w	r3, r3, #1048576	@ 0x100000
 8006d3c:	6c01      	ldr	r1, [r0, #64]	@ 0x40
 8006d3e:	430b      	orrs	r3, r1
 8006d40:	6053      	str	r3, [r2, #4]
 8006d42:	6c03      	ldr	r3, [r0, #64]	@ 0x40
 8006d44:	f5b3 1f80 	cmp.w	r3, #1048576	@ 0x100000
 8006d48:	d00b      	beq.n	8006d62 <UART_AdvFeatureConfig+0xba>
 8006d4a:	6a43      	ldr	r3, [r0, #36]	@ 0x24
 8006d4c:	f013 0f80 	tst.w	r3, #128	@ 0x80
 8006d50:	d006      	beq.n	8006d60 <UART_AdvFeatureConfig+0xb8>
 8006d52:	6802      	ldr	r2, [r0, #0]
 8006d54:	6853      	ldr	r3, [r2, #4]
 8006d56:	f423 2300 	bic.w	r3, r3, #524288	@ 0x80000
 8006d5a:	6c81      	ldr	r1, [r0, #72]	@ 0x48
 8006d5c:	430b      	orrs	r3, r1
 8006d5e:	6053      	str	r3, [r2, #4]
 8006d60:	4770      	bx	lr
 8006d62:	6802      	ldr	r2, [r0, #0]
 8006d64:	6853      	ldr	r3, [r2, #4]
 8006d66:	f423 03c0 	bic.w	r3, r3, #6291456	@ 0x600000
 8006d6a:	6c41      	ldr	r1, [r0, #68]	@ 0x44
 8006d6c:	430b      	orrs	r3, r1
 8006d6e:	6053      	str	r3, [r2, #4]
 8006d70:	e7eb      	b.n	8006d4a <UART_AdvFeatureConfig+0xa2>

08006d72 <UART_WaitOnFlagUntilTimeout>:
 8006d72:	e92d 43f8 	stmdb	sp!, {r3, r4, r5, r6, r7, r8, r9, lr}
 8006d76:	4605      	mov	r5, r0
 8006d78:	460e      	mov	r6, r1
 8006d7a:	4617      	mov	r7, r2
 8006d7c:	4699      	mov	r9, r3
 8006d7e:	f8dd 8020 	ldr.w	r8, [sp, #32]
 8006d82:	682b      	ldr	r3, [r5, #0]
 8006d84:	69dc      	ldr	r4, [r3, #28]
 8006d86:	ea36 0404 	bics.w	r4, r6, r4
 8006d8a:	bf0c      	ite	eq
 8006d8c:	2401      	moveq	r4, #1
 8006d8e:	2400      	movne	r4, #0
 8006d90:	42bc      	cmp	r4, r7
 8006d92:	d136      	bne.n	8006e02 <UART_WaitOnFlagUntilTimeout+0x90>
 8006d94:	f1b8 3fff 	cmp.w	r8, #4294967295
 8006d98:	d0f3      	beq.n	8006d82 <UART_WaitOnFlagUntilTimeout+0x10>
 8006d9a:	f7fb ff23 	bl	8002be4 <HAL_GetTick>
 8006d9e:	eba0 0009 	sub.w	r0, r0, r9
 8006da2:	4540      	cmp	r0, r8
 8006da4:	d830      	bhi.n	8006e08 <UART_WaitOnFlagUntilTimeout+0x96>
 8006da6:	f1b8 0f00 	cmp.w	r8, #0
 8006daa:	d02f      	beq.n	8006e0c <UART_WaitOnFlagUntilTimeout+0x9a>
 8006dac:	682b      	ldr	r3, [r5, #0]
 8006dae:	681a      	ldr	r2, [r3, #0]
 8006db0:	f012 0f04 	tst.w	r2, #4
 8006db4:	d0e5      	beq.n	8006d82 <UART_WaitOnFlagUntilTimeout+0x10>
 8006db6:	2e80      	cmp	r6, #128	@ 0x80
 8006db8:	d0e3      	beq.n	8006d82 <UART_WaitOnFlagUntilTimeout+0x10>
 8006dba:	2e40      	cmp	r6, #64	@ 0x40
 8006dbc:	d0e1      	beq.n	8006d82 <UART_WaitOnFlagUntilTimeout+0x10>
 8006dbe:	69da      	ldr	r2, [r3, #28]
 8006dc0:	f012 0f08 	tst.w	r2, #8
 8006dc4:	d111      	bne.n	8006dea <UART_WaitOnFlagUntilTimeout+0x78>
 8006dc6:	69da      	ldr	r2, [r3, #28]
 8006dc8:	f412 6f00 	tst.w	r2, #2048	@ 0x800
 8006dcc:	d0d9      	beq.n	8006d82 <UART_WaitOnFlagUntilTimeout+0x10>
 8006dce:	f44f 6200 	mov.w	r2, #2048	@ 0x800
 8006dd2:	621a      	str	r2, [r3, #32]
 8006dd4:	4628      	mov	r0, r5
 8006dd6:	f7ff fdf0 	bl	80069ba <UART_EndRxTransfer>
 8006dda:	2320      	movs	r3, #32
 8006ddc:	f8c5 3084 	str.w	r3, [r5, #132]	@ 0x84
 8006de0:	2300      	movs	r3, #0
 8006de2:	f885 3078 	strb.w	r3, [r5, #120]	@ 0x78
 8006de6:	2003      	movs	r0, #3
 8006de8:	e00c      	b.n	8006e04 <UART_WaitOnFlagUntilTimeout+0x92>
 8006dea:	2408      	movs	r4, #8
 8006dec:	621c      	str	r4, [r3, #32]
 8006dee:	4628      	mov	r0, r5
 8006df0:	f7ff fde3 	bl	80069ba <UART_EndRxTransfer>
 8006df4:	f8c5 4084 	str.w	r4, [r5, #132]	@ 0x84
 8006df8:	2300      	movs	r3, #0
 8006dfa:	f885 3078 	strb.w	r3, [r5, #120]	@ 0x78
 8006dfe:	2001      	movs	r0, #1
 8006e00:	e000      	b.n	8006e04 <UART_WaitOnFlagUntilTimeout+0x92>
 8006e02:	2000      	movs	r0, #0
 8006e04:	e8bd 83f8 	ldmia.w	sp!, {r3, r4, r5, r6, r7, r8, r9, pc}
 8006e08:	2003      	movs	r0, #3
 8006e0a:	e7fb      	b.n	8006e04 <UART_WaitOnFlagUntilTimeout+0x92>
 8006e0c:	2003      	movs	r0, #3
 8006e0e:	e7f9      	b.n	8006e04 <UART_WaitOnFlagUntilTimeout+0x92>

08006e10 <HAL_UART_Transmit>:
 8006e10:	e92d 41f0 	stmdb	sp!, {r4, r5, r6, r7, r8, lr}
 8006e14:	b082      	sub	sp, #8
 8006e16:	461e      	mov	r6, r3
 8006e18:	6fc3      	ldr	r3, [r0, #124]	@ 0x7c
 8006e1a:	2b20      	cmp	r3, #32
 8006e1c:	d156      	bne.n	8006ecc <HAL_UART_Transmit+0xbc>
 8006e1e:	4604      	mov	r4, r0
 8006e20:	460d      	mov	r5, r1
 8006e22:	4690      	mov	r8, r2
 8006e24:	2900      	cmp	r1, #0
 8006e26:	d055      	beq.n	8006ed4 <HAL_UART_Transmit+0xc4>
 8006e28:	b90a      	cbnz	r2, 8006e2e <HAL_UART_Transmit+0x1e>
 8006e2a:	2001      	movs	r0, #1
 8006e2c:	e04f      	b.n	8006ece <HAL_UART_Transmit+0xbe>
 8006e2e:	2300      	movs	r3, #0
 8006e30:	f8c0 3084 	str.w	r3, [r0, #132]	@ 0x84
 8006e34:	2321      	movs	r3, #33	@ 0x21
 8006e36:	67c3      	str	r3, [r0, #124]	@ 0x7c
 8006e38:	f7fb fed4 	bl	8002be4 <HAL_GetTick>
 8006e3c:	4607      	mov	r7, r0
 8006e3e:	f8a4 8050 	strh.w	r8, [r4, #80]	@ 0x50
 8006e42:	f8a4 8052 	strh.w	r8, [r4, #82]	@ 0x52
 8006e46:	68a3      	ldr	r3, [r4, #8]
 8006e48:	f5b3 5f80 	cmp.w	r3, #4096	@ 0x1000
 8006e4c:	d002      	beq.n	8006e54 <HAL_UART_Transmit+0x44>
 8006e4e:	f04f 0800 	mov.w	r8, #0
 8006e52:	e015      	b.n	8006e80 <HAL_UART_Transmit+0x70>
 8006e54:	6923      	ldr	r3, [r4, #16]
 8006e56:	b33b      	cbz	r3, 8006ea8 <HAL_UART_Transmit+0x98>
 8006e58:	f04f 0800 	mov.w	r8, #0
 8006e5c:	e010      	b.n	8006e80 <HAL_UART_Transmit+0x70>
 8006e5e:	2320      	movs	r3, #32
 8006e60:	67e3      	str	r3, [r4, #124]	@ 0x7c
 8006e62:	2003      	movs	r0, #3
 8006e64:	e033      	b.n	8006ece <HAL_UART_Transmit+0xbe>
 8006e66:	f838 3b02 	ldrh.w	r3, [r8], #2
 8006e6a:	6822      	ldr	r2, [r4, #0]
 8006e6c:	f3c3 0308 	ubfx	r3, r3, #0, #9
 8006e70:	8513      	strh	r3, [r2, #40]	@ 0x28
 8006e72:	f8b4 2052 	ldrh.w	r2, [r4, #82]	@ 0x52
 8006e76:	b292      	uxth	r2, r2
 8006e78:	3a01      	subs	r2, #1
 8006e7a:	b292      	uxth	r2, r2
 8006e7c:	f8a4 2052 	strh.w	r2, [r4, #82]	@ 0x52
 8006e80:	f8b4 3052 	ldrh.w	r3, [r4, #82]	@ 0x52
 8006e84:	b29b      	uxth	r3, r3
 8006e86:	b193      	cbz	r3, 8006eae <HAL_UART_Transmit+0x9e>
 8006e88:	9600      	str	r6, [sp, #0]
 8006e8a:	463b      	mov	r3, r7
 8006e8c:	2200      	movs	r2, #0
 8006e8e:	2180      	movs	r1, #128	@ 0x80
 8006e90:	4620      	mov	r0, r4
 8006e92:	f7ff ff6e 	bl	8006d72 <UART_WaitOnFlagUntilTimeout>
 8006e96:	2800      	cmp	r0, #0
 8006e98:	d1e1      	bne.n	8006e5e <HAL_UART_Transmit+0x4e>
 8006e9a:	2d00      	cmp	r5, #0
 8006e9c:	d0e3      	beq.n	8006e66 <HAL_UART_Transmit+0x56>
 8006e9e:	f815 2b01 	ldrb.w	r2, [r5], #1
 8006ea2:	6823      	ldr	r3, [r4, #0]
 8006ea4:	851a      	strh	r2, [r3, #40]	@ 0x28
 8006ea6:	e7e4      	b.n	8006e72 <HAL_UART_Transmit+0x62>
 8006ea8:	46a8      	mov	r8, r5
 8006eaa:	2500      	movs	r5, #0
 8006eac:	e7e8      	b.n	8006e80 <HAL_UART_Transmit+0x70>
 8006eae:	9600      	str	r6, [sp, #0]
 8006eb0:	463b      	mov	r3, r7
 8006eb2:	2200      	movs	r2, #0
 8006eb4:	2140      	movs	r1, #64	@ 0x40
 8006eb6:	4620      	mov	r0, r4
 8006eb8:	f7ff ff5b 	bl	8006d72 <UART_WaitOnFlagUntilTimeout>
 8006ebc:	b910      	cbnz	r0, 8006ec4 <HAL_UART_Transmit+0xb4>
 8006ebe:	2320      	movs	r3, #32
 8006ec0:	67e3      	str	r3, [r4, #124]	@ 0x7c
 8006ec2:	e004      	b.n	8006ece <HAL_UART_Transmit+0xbe>
 8006ec4:	2320      	movs	r3, #32
 8006ec6:	67e3      	str	r3, [r4, #124]	@ 0x7c
 8006ec8:	2003      	movs	r0, #3
 8006eca:	e000      	b.n	8006ece <HAL_UART_Transmit+0xbe>
 8006ecc:	2002      	movs	r0, #2
 8006ece:	b002      	add	sp, #8
 8006ed0:	e8bd 81f0 	ldmia.w	sp!, {r4, r5, r6, r7, r8, pc}
 8006ed4:	2001      	movs	r0, #1
 8006ed6:	e7fa      	b.n	8006ece <HAL_UART_Transmit+0xbe>

08006ed8 <HAL_UART_Receive>:
 8006ed8:	e92d 43f0 	stmdb	sp!, {r4, r5, r6, r7, r8, r9, lr}
 8006edc:	b083      	sub	sp, #12
 8006ede:	461e      	mov	r6, r3
 8006ee0:	f8d0 3080 	ldr.w	r3, [r0, #128]	@ 0x80
 8006ee4:	2b20      	cmp	r3, #32
 8006ee6:	d17d      	bne.n	8006fe4 <HAL_UART_Receive+0x10c>
 8006ee8:	4604      	mov	r4, r0
 8006eea:	460d      	mov	r5, r1
 8006eec:	4690      	mov	r8, r2
 8006eee:	2900      	cmp	r1, #0
 8006ef0:	d07c      	beq.n	8006fec <HAL_UART_Receive+0x114>
 8006ef2:	b90a      	cbnz	r2, 8006ef8 <HAL_UART_Receive+0x20>
 8006ef4:	2001      	movs	r0, #1
 8006ef6:	e076      	b.n	8006fe6 <HAL_UART_Receive+0x10e>
 8006ef8:	2300      	movs	r3, #0
 8006efa:	f8c0 3084 	str.w	r3, [r0, #132]	@ 0x84
 8006efe:	2222      	movs	r2, #34	@ 0x22
 8006f00:	f8c0 2080 	str.w	r2, [r0, #128]	@ 0x80
 8006f04:	6603      	str	r3, [r0, #96]	@ 0x60
 8006f06:	f7fb fe6d 	bl	8002be4 <HAL_GetTick>
 8006f0a:	4607      	mov	r7, r0
 8006f0c:	f8a4 8058 	strh.w	r8, [r4, #88]	@ 0x58
 8006f10:	f8a4 805a 	strh.w	r8, [r4, #90]	@ 0x5a
 8006f14:	68a3      	ldr	r3, [r4, #8]
 8006f16:	f5b3 5f80 	cmp.w	r3, #4096	@ 0x1000
 8006f1a:	d006      	beq.n	8006f2a <HAL_UART_Receive+0x52>
 8006f1c:	b9a3      	cbnz	r3, 8006f48 <HAL_UART_Receive+0x70>
 8006f1e:	6922      	ldr	r2, [r4, #16]
 8006f20:	b972      	cbnz	r2, 8006f40 <HAL_UART_Receive+0x68>
 8006f22:	22ff      	movs	r2, #255	@ 0xff
 8006f24:	f8a4 205c 	strh.w	r2, [r4, #92]	@ 0x5c
 8006f28:	e014      	b.n	8006f54 <HAL_UART_Receive+0x7c>
 8006f2a:	6922      	ldr	r2, [r4, #16]
 8006f2c:	b922      	cbnz	r2, 8006f38 <HAL_UART_Receive+0x60>
 8006f2e:	f240 12ff 	movw	r2, #511	@ 0x1ff
 8006f32:	f8a4 205c 	strh.w	r2, [r4, #92]	@ 0x5c
 8006f36:	e00d      	b.n	8006f54 <HAL_UART_Receive+0x7c>
 8006f38:	22ff      	movs	r2, #255	@ 0xff
 8006f3a:	f8a4 205c 	strh.w	r2, [r4, #92]	@ 0x5c
 8006f3e:	e009      	b.n	8006f54 <HAL_UART_Receive+0x7c>
 8006f40:	227f      	movs	r2, #127	@ 0x7f
 8006f42:	f8a4 205c 	strh.w	r2, [r4, #92]	@ 0x5c
 8006f46:	e005      	b.n	8006f54 <HAL_UART_Receive+0x7c>
 8006f48:	f1b3 5f80 	cmp.w	r3, #268435456	@ 0x10000000
 8006f4c:	d00a      	beq.n	8006f64 <HAL_UART_Receive+0x8c>
 8006f4e:	2200      	movs	r2, #0
 8006f50:	f8a4 205c 	strh.w	r2, [r4, #92]	@ 0x5c
 8006f54:	f8b4 805c 	ldrh.w	r8, [r4, #92]	@ 0x5c
 8006f58:	f5b3 5f80 	cmp.w	r3, #4096	@ 0x1000
 8006f5c:	d00c      	beq.n	8006f78 <HAL_UART_Receive+0xa0>
 8006f5e:	f04f 0900 	mov.w	r9, #0
 8006f62:	e020      	b.n	8006fa6 <HAL_UART_Receive+0xce>
 8006f64:	6922      	ldr	r2, [r4, #16]
 8006f66:	b91a      	cbnz	r2, 8006f70 <HAL_UART_Receive+0x98>
 8006f68:	227f      	movs	r2, #127	@ 0x7f
 8006f6a:	f8a4 205c 	strh.w	r2, [r4, #92]	@ 0x5c
 8006f6e:	e7f1      	b.n	8006f54 <HAL_UART_Receive+0x7c>
 8006f70:	223f      	movs	r2, #63	@ 0x3f
 8006f72:	f8a4 205c 	strh.w	r2, [r4, #92]	@ 0x5c
 8006f76:	e7ed      	b.n	8006f54 <HAL_UART_Receive+0x7c>
 8006f78:	6923      	ldr	r3, [r4, #16]
 8006f7a:	b35b      	cbz	r3, 8006fd4 <HAL_UART_Receive+0xfc>
 8006f7c:	f04f 0900 	mov.w	r9, #0
 8006f80:	e011      	b.n	8006fa6 <HAL_UART_Receive+0xce>
 8006f82:	2320      	movs	r3, #32
 8006f84:	f8c4 3080 	str.w	r3, [r4, #128]	@ 0x80
 8006f88:	2003      	movs	r0, #3
 8006f8a:	e02c      	b.n	8006fe6 <HAL_UART_Receive+0x10e>
 8006f8c:	6823      	ldr	r3, [r4, #0]
 8006f8e:	8c9b      	ldrh	r3, [r3, #36]	@ 0x24
 8006f90:	ea08 0303 	and.w	r3, r8, r3
 8006f94:	f829 3b02 	strh.w	r3, [r9], #2
 8006f98:	f8b4 205a 	ldrh.w	r2, [r4, #90]	@ 0x5a
 8006f9c:	b292      	uxth	r2, r2
 8006f9e:	3a01      	subs	r2, #1
 8006fa0:	b292      	uxth	r2, r2
 8006fa2:	f8a4 205a 	strh.w	r2, [r4, #90]	@ 0x5a
 8006fa6:	f8b4 305a 	ldrh.w	r3, [r4, #90]	@ 0x5a
 8006faa:	b29b      	uxth	r3, r3
 8006fac:	b1ab      	cbz	r3, 8006fda <HAL_UART_Receive+0x102>
 8006fae:	9600      	str	r6, [sp, #0]
 8006fb0:	463b      	mov	r3, r7
 8006fb2:	2200      	movs	r2, #0
 8006fb4:	2120      	movs	r1, #32
 8006fb6:	4620      	mov	r0, r4
 8006fb8:	f7ff fedb 	bl	8006d72 <UART_WaitOnFlagUntilTimeout>
 8006fbc:	2800      	cmp	r0, #0
 8006fbe:	d1e0      	bne.n	8006f82 <HAL_UART_Receive+0xaa>
 8006fc0:	2d00      	cmp	r5, #0
 8006fc2:	d0e3      	beq.n	8006f8c <HAL_UART_Receive+0xb4>
 8006fc4:	6823      	ldr	r3, [r4, #0]
 8006fc6:	8c9a      	ldrh	r2, [r3, #36]	@ 0x24
 8006fc8:	fa5f f388 	uxtb.w	r3, r8
 8006fcc:	4013      	ands	r3, r2
 8006fce:	f805 3b01 	strb.w	r3, [r5], #1
 8006fd2:	e7e1      	b.n	8006f98 <HAL_UART_Receive+0xc0>
 8006fd4:	46a9      	mov	r9, r5
 8006fd6:	2500      	movs	r5, #0
 8006fd8:	e7e5      	b.n	8006fa6 <HAL_UART_Receive+0xce>
 8006fda:	2320      	movs	r3, #32
 8006fdc:	f8c4 3080 	str.w	r3, [r4, #128]	@ 0x80
 8006fe0:	2000      	movs	r0, #0
 8006fe2:	e000      	b.n	8006fe6 <HAL_UART_Receive+0x10e>
 8006fe4:	2002      	movs	r0, #2
 8006fe6:	b003      	add	sp, #12
 8006fe8:	e8bd 83f0 	ldmia.w	sp!, {r4, r5, r6, r7, r8, r9, pc}
 8006fec:	2001      	movs	r0, #1
 8006fee:	e7fa      	b.n	8006fe6 <HAL_UART_Receive+0x10e>

08006ff0 <UART_CheckIdleState>:
 8006ff0:	b530      	push	{r4, r5, lr}
 8006ff2:	b083      	sub	sp, #12
 8006ff4:	4604      	mov	r4, r0
 8006ff6:	2300      	movs	r3, #0
 8006ff8:	f8c0 3084 	str.w	r3, [r0, #132]	@ 0x84
 8006ffc:	f7fb fdf2 	bl	8002be4 <HAL_GetTick>
 8007000:	4605      	mov	r5, r0
 8007002:	6822      	ldr	r2, [r4, #0]
 8007004:	6812      	ldr	r2, [r2, #0]
 8007006:	f012 0f08 	tst.w	r2, #8
 800700a:	d10f      	bne.n	800702c <UART_CheckIdleState+0x3c>
 800700c:	6823      	ldr	r3, [r4, #0]
 800700e:	681b      	ldr	r3, [r3, #0]
 8007010:	f013 0f04 	tst.w	r3, #4
 8007014:	d126      	bne.n	8007064 <UART_CheckIdleState+0x74>
 8007016:	2320      	movs	r3, #32
 8007018:	67e3      	str	r3, [r4, #124]	@ 0x7c
 800701a:	f8c4 3080 	str.w	r3, [r4, #128]	@ 0x80
 800701e:	2000      	movs	r0, #0
 8007020:	6620      	str	r0, [r4, #96]	@ 0x60
 8007022:	6660      	str	r0, [r4, #100]	@ 0x64
 8007024:	f884 0078 	strb.w	r0, [r4, #120]	@ 0x78
 8007028:	b003      	add	sp, #12
 800702a:	bd30      	pop	{r4, r5, pc}
 800702c:	f06f 437e 	mvn.w	r3, #4261412864	@ 0xfe000000
 8007030:	9300      	str	r3, [sp, #0]
 8007032:	4603      	mov	r3, r0
 8007034:	2200      	movs	r2, #0
 8007036:	f44f 1100 	mov.w	r1, #2097152	@ 0x200000
 800703a:	4620      	mov	r0, r4
 800703c:	f7ff fe99 	bl	8006d72 <UART_WaitOnFlagUntilTimeout>
 8007040:	2800      	cmp	r0, #0
 8007042:	d0e3      	beq.n	800700c <UART_CheckIdleState+0x1c>
 8007044:	6822      	ldr	r2, [r4, #0]
 8007046:	e852 3f00 	ldrex	r3, [r2]
 800704a:	f023 0380 	bic.w	r3, r3, #128	@ 0x80
 800704e:	e842 3100 	strex	r1, r3, [r2]
 8007052:	2900      	cmp	r1, #0
 8007054:	d1f6      	bne.n	8007044 <UART_CheckIdleState+0x54>
 8007056:	2320      	movs	r3, #32
 8007058:	67e3      	str	r3, [r4, #124]	@ 0x7c
 800705a:	2300      	movs	r3, #0
 800705c:	f884 3078 	strb.w	r3, [r4, #120]	@ 0x78
 8007060:	2003      	movs	r0, #3
 8007062:	e7e1      	b.n	8007028 <UART_CheckIdleState+0x38>
 8007064:	f06f 437e 	mvn.w	r3, #4261412864	@ 0xfe000000
 8007068:	9300      	str	r3, [sp, #0]
 800706a:	462b      	mov	r3, r5
 800706c:	2200      	movs	r2, #0
 800706e:	f44f 0180 	mov.w	r1, #4194304	@ 0x400000
 8007072:	4620      	mov	r0, r4
 8007074:	f7ff fe7d 	bl	8006d72 <UART_WaitOnFlagUntilTimeout>
 8007078:	2800      	cmp	r0, #0
 800707a:	d0cc      	beq.n	8007016 <UART_CheckIdleState+0x26>
 800707c:	6822      	ldr	r2, [r4, #0]
 800707e:	e852 3f00 	ldrex	r3, [r2]
 8007082:	f423 7390 	bic.w	r3, r3, #288	@ 0x120
 8007086:	e842 3100 	strex	r1, r3, [r2]
 800708a:	2900      	cmp	r1, #0
 800708c:	d1f6      	bne.n	800707c <UART_CheckIdleState+0x8c>
 800708e:	6822      	ldr	r2, [r4, #0]
 8007090:	f102 0308 	add.w	r3, r2, #8
 8007094:	e853 3f00 	ldrex	r3, [r3]
 8007098:	f023 0301 	bic.w	r3, r3, #1
 800709c:	3208      	adds	r2, #8
 800709e:	e842 3100 	strex	r1, r3, [r2]
 80070a2:	2900      	cmp	r1, #0
 80070a4:	d1f3      	bne.n	800708e <UART_CheckIdleState+0x9e>
 80070a6:	2320      	movs	r3, #32
 80070a8:	f8c4 3080 	str.w	r3, [r4, #128]	@ 0x80
 80070ac:	2300      	movs	r3, #0
 80070ae:	f884 3078 	strb.w	r3, [r4, #120]	@ 0x78
 80070b2:	2003      	movs	r0, #3
 80070b4:	e7b8      	b.n	8007028 <UART_CheckIdleState+0x38>

080070b6 <HAL_HalfDuplex_Init>:
 80070b6:	2800      	cmp	r0, #0
 80070b8:	d032      	beq.n	8007120 <HAL_HalfDuplex_Init+0x6a>
 80070ba:	b510      	push	{r4, lr}
 80070bc:	4604      	mov	r4, r0
 80070be:	6fc3      	ldr	r3, [r0, #124]	@ 0x7c
 80070c0:	b32b      	cbz	r3, 800710e <HAL_HalfDuplex_Init+0x58>
 80070c2:	2324      	movs	r3, #36	@ 0x24
 80070c4:	67e3      	str	r3, [r4, #124]	@ 0x7c
 80070c6:	6822      	ldr	r2, [r4, #0]
 80070c8:	6813      	ldr	r3, [r2, #0]
 80070ca:	f023 0301 	bic.w	r3, r3, #1
 80070ce:	6013      	str	r3, [r2, #0]
 80070d0:	6a63      	ldr	r3, [r4, #36]	@ 0x24
 80070d2:	bb0b      	cbnz	r3, 8007118 <HAL_HalfDuplex_Init+0x62>
 80070d4:	4620      	mov	r0, r4
 80070d6:	f7ff fc99 	bl	8006a0c <UART_SetConfig>
 80070da:	2801      	cmp	r0, #1
 80070dc:	d016      	beq.n	800710c <HAL_HalfDuplex_Init+0x56>
 80070de:	6822      	ldr	r2, [r4, #0]
 80070e0:	6853      	ldr	r3, [r2, #4]
 80070e2:	f423 4390 	bic.w	r3, r3, #18432	@ 0x4800
 80070e6:	6053      	str	r3, [r2, #4]
 80070e8:	6822      	ldr	r2, [r4, #0]
 80070ea:	6893      	ldr	r3, [r2, #8]
 80070ec:	f023 0322 	bic.w	r3, r3, #34	@ 0x22
 80070f0:	6093      	str	r3, [r2, #8]
 80070f2:	6822      	ldr	r2, [r4, #0]
 80070f4:	6893      	ldr	r3, [r2, #8]
 80070f6:	f043 0308 	orr.w	r3, r3, #8
 80070fa:	6093      	str	r3, [r2, #8]
 80070fc:	6822      	ldr	r2, [r4, #0]
 80070fe:	6813      	ldr	r3, [r2, #0]
 8007100:	f043 0301 	orr.w	r3, r3, #1
 8007104:	6013      	str	r3, [r2, #0]
 8007106:	4620      	mov	r0, r4
 8007108:	f7ff ff72 	bl	8006ff0 <UART_CheckIdleState>
 800710c:	bd10      	pop	{r4, pc}
 800710e:	f880 3078 	strb.w	r3, [r0, #120]	@ 0x78
 8007112:	f7fd f809 	bl	8004128 <HAL_UART_MspInit>
 8007116:	e7d4      	b.n	80070c2 <HAL_HalfDuplex_Init+0xc>
 8007118:	4620      	mov	r0, r4
 800711a:	f7ff fdc5 	bl	8006ca8 <UART_AdvFeatureConfig>
 800711e:	e7d9      	b.n	80070d4 <HAL_HalfDuplex_Init+0x1e>
 8007120:	2001      	movs	r0, #1
 8007122:	4770      	bx	lr

08007124 <NMI_Handler>:
 8007124:	e7fe      	b.n	8007124 <NMI_Handler>

08007126 <HardFault_Handler>:
 8007126:	e7fe      	b.n	8007126 <HardFault_Handler>

08007128 <MemManage_Handler>:
 8007128:	e7fe      	b.n	8007128 <MemManage_Handler>

0800712a <BusFault_Handler>:
 800712a:	e7fe      	b.n	800712a <BusFault_Handler>

0800712c <UsageFault_Handler>:
 800712c:	e7fe      	b.n	800712c <UsageFault_Handler>

0800712e <SVC_Handler>:
 800712e:	4770      	bx	lr

08007130 <DebugMon_Handler>:
 8007130:	4770      	bx	lr

08007132 <PendSV_Handler>:
 8007132:	4770      	bx	lr

08007134 <SysTick_Handler>:
 8007134:	b508      	push	{r3, lr}
 8007136:	f7fb fd49 	bl	8002bcc <HAL_IncTick>
 800713a:	bd08      	pop	{r3, pc}

0800713c <RTC_WKUP_IRQHandler>:
 800713c:	b508      	push	{r3, lr}
 800713e:	4802      	ldr	r0, [pc, #8]	@ (8007148 <RTC_WKUP_IRQHandler+0xc>)
 8007140:	f7ff f976 	bl	8006430 <HAL_RTCEx_WakeUpTimerIRQHandler>
 8007144:	bd08      	pop	{r3, pc}
 8007146:	bf00      	nop
 8007148:	200003bc 	.word	0x200003bc

0800714c <EXTI0_IRQHandler>:
 800714c:	b508      	push	{r3, lr}
 800714e:	2001      	movs	r0, #1
 8007150:	f7fc ff0c 	bl	8003f6c <HAL_GPIO_EXTI_IRQHandler>
 8007154:	bd08      	pop	{r3, pc}
	...

08007158 <DMA1_Channel1_IRQHandler>:
 8007158:	b508      	push	{r3, lr}
 800715a:	4802      	ldr	r0, [pc, #8]	@ (8007164 <DMA1_Channel1_IRQHandler+0xc>)
 800715c:	f7fc fd3a 	bl	8003bd4 <HAL_DMA_IRQHandler>
 8007160:	bd08      	pop	{r3, pc}
 8007162:	bf00      	nop
 8007164:	200003e8 	.word	0x200003e8

08007168 <ADC1_2_IRQHandler>:
 8007168:	b508      	push	{r3, lr}
 800716a:	4802      	ldr	r0, [pc, #8]	@ (8007174 <ADC1_2_IRQHandler+0xc>)
 800716c:	f7fb fe88 	bl	8002e80 <HAL_ADC_IRQHandler>
 8007170:	bd08      	pop	{r3, pc}
 8007172:	bf00      	nop
 8007174:	20000430 	.word	0x20000430

08007178 <USB_IRQHandler>:
 8007178:	b508      	push	{r3, lr}
 800717a:	4802      	ldr	r0, [pc, #8]	@ (8007184 <USB_IRQHandler+0xc>)
 800717c:	f7fd fde2 	bl	8004d44 <HAL_PCD_IRQHandler>
 8007180:	bd08      	pop	{r3, pc}
 8007182:	bf00      	nop
 8007184:	20001204 	.word	0x20001204

08007188 <USB_CoreInit>:
 8007188:	b084      	sub	sp, #16
 800718a:	a804      	add	r0, sp, #16
 800718c:	e900 000e 	stmdb	r0, {r1, r2, r3}
 8007190:	2000      	movs	r0, #0
 8007192:	b004      	add	sp, #16
 8007194:	4770      	bx	lr

08007196 <USB_EnableGlobalInt>:
 8007196:	4603      	mov	r3, r0
 8007198:	2000      	movs	r0, #0
 800719a:	f8a3 0044 	strh.w	r0, [r3, #68]	@ 0x44
 800719e:	f64b 7280 	movw	r2, #49024	@ 0xbf80
 80071a2:	f8a3 2040 	strh.w	r2, [r3, #64]	@ 0x40
 80071a6:	4770      	bx	lr

080071a8 <USB_DisableGlobalInt>:
 80071a8:	f8b0 3040 	ldrh.w	r3, [r0, #64]	@ 0x40
 80071ac:	f423 537e 	bic.w	r3, r3, #16256	@ 0x3f80
 80071b0:	045b      	lsls	r3, r3, #17
 80071b2:	0c5b      	lsrs	r3, r3, #17
 80071b4:	f8a0 3040 	strh.w	r3, [r0, #64]	@ 0x40
 80071b8:	2000      	movs	r0, #0
 80071ba:	4770      	bx	lr

080071bc <USB_SetCurrentMode>:
 80071bc:	2000      	movs	r0, #0
 80071be:	4770      	bx	lr

080071c0 <USB_DevInit>:
 80071c0:	b084      	sub	sp, #16
 80071c2:	4684      	mov	ip, r0
 80071c4:	a804      	add	r0, sp, #16
 80071c6:	e900 000e 	stmdb	r0, {r1, r2, r3}
 80071ca:	2301      	movs	r3, #1
 80071cc:	f8ac 3040 	strh.w	r3, [ip, #64]	@ 0x40
 80071d0:	2000      	movs	r0, #0
 80071d2:	f8ac 0040 	strh.w	r0, [ip, #64]	@ 0x40
 80071d6:	f8ac 0044 	strh.w	r0, [ip, #68]	@ 0x44
 80071da:	f8ac 0050 	strh.w	r0, [ip, #80]	@ 0x50
 80071de:	b004      	add	sp, #16
 80071e0:	4770      	bx	lr

080071e2 <USB_ActivateEndpoint>:
 80071e2:	b510      	push	{r4, lr}
 80071e4:	4603      	mov	r3, r0
 80071e6:	f891 c000 	ldrb.w	ip, [r1]
 80071ea:	f830 202c 	ldrh.w	r2, [r0, ip, lsl #2]
 80071ee:	b292      	uxth	r2, r2
 80071f0:	f422 42ec 	bic.w	r2, r2, #30208	@ 0x7600
 80071f4:	f022 0270 	bic.w	r2, r2, #112	@ 0x70
 80071f8:	b292      	uxth	r2, r2
 80071fa:	78c8      	ldrb	r0, [r1, #3]
 80071fc:	2803      	cmp	r0, #3
 80071fe:	d861      	bhi.n	80072c4 <USB_ActivateEndpoint+0xe2>
 8007200:	e8df f000 	tbb	[pc, r0]
 8007204:	58025c55 	.word	0x58025c55
 8007208:	2000      	movs	r0, #0
 800720a:	f248 0e80 	movw	lr, #32896	@ 0x8080
 800720e:	ea42 020e 	orr.w	r2, r2, lr
 8007212:	f823 202c 	strh.w	r2, [r3, ip, lsl #2]
 8007216:	f891 c000 	ldrb.w	ip, [r1]
 800721a:	f833 202c 	ldrh.w	r2, [r3, ip, lsl #2]
 800721e:	b292      	uxth	r2, r2
 8007220:	f422 42e0 	bic.w	r2, r2, #28672	@ 0x7000
 8007224:	f022 0270 	bic.w	r2, r2, #112	@ 0x70
 8007228:	ea4c 0202 	orr.w	r2, ip, r2
 800722c:	ea42 020e 	orr.w	r2, r2, lr
 8007230:	f823 202c 	strh.w	r2, [r3, ip, lsl #2]
 8007234:	7b0a      	ldrb	r2, [r1, #12]
 8007236:	2a00      	cmp	r2, #0
 8007238:	f040 80dc 	bne.w	80073f4 <USB_ActivateEndpoint+0x212>
 800723c:	784a      	ldrb	r2, [r1, #1]
 800723e:	2a00      	cmp	r2, #0
 8007240:	d051      	beq.n	80072e6 <USB_ActivateEndpoint+0x104>
 8007242:	f8b3 2050 	ldrh.w	r2, [r3, #80]	@ 0x50
 8007246:	fa13 f282 	uxtah	r2, r3, r2
 800724a:	780c      	ldrb	r4, [r1, #0]
 800724c:	eb02 02c4 	add.w	r2, r2, r4, lsl #3
 8007250:	f8b1 c006 	ldrh.w	ip, [r1, #6]
 8007254:	ea4f 0c5c 	mov.w	ip, ip, lsr #1
 8007258:	ea4f 0c4c 	mov.w	ip, ip, lsl #1
 800725c:	f8a2 c400 	strh.w	ip, [r2, #1024]	@ 0x400
 8007260:	780c      	ldrb	r4, [r1, #0]
 8007262:	f833 2024 	ldrh.w	r2, [r3, r4, lsl #2]
 8007266:	f012 0f40 	tst.w	r2, #64	@ 0x40
 800726a:	d00c      	beq.n	8007286 <USB_ActivateEndpoint+0xa4>
 800726c:	f833 2024 	ldrh.w	r2, [r3, r4, lsl #2]
 8007270:	b292      	uxth	r2, r2
 8007272:	f422 42e0 	bic.w	r2, r2, #28672	@ 0x7000
 8007276:	f022 0270 	bic.w	r2, r2, #112	@ 0x70
 800727a:	f442 4200 	orr.w	r2, r2, #32768	@ 0x8000
 800727e:	f042 02c0 	orr.w	r2, r2, #192	@ 0xc0
 8007282:	f823 2024 	strh.w	r2, [r3, r4, lsl #2]
 8007286:	78ca      	ldrb	r2, [r1, #3]
 8007288:	2a01      	cmp	r2, #1
 800728a:	d01d      	beq.n	80072c8 <USB_ActivateEndpoint+0xe6>
 800728c:	7809      	ldrb	r1, [r1, #0]
 800728e:	f833 2021 	ldrh.w	r2, [r3, r1, lsl #2]
 8007292:	b292      	uxth	r2, r2
 8007294:	f422 42e0 	bic.w	r2, r2, #28672	@ 0x7000
 8007298:	f022 0240 	bic.w	r2, r2, #64	@ 0x40
 800729c:	f082 0220 	eor.w	r2, r2, #32
 80072a0:	f442 4200 	orr.w	r2, r2, #32768	@ 0x8000
 80072a4:	f042 0280 	orr.w	r2, r2, #128	@ 0x80
 80072a8:	f823 2021 	strh.w	r2, [r3, r1, lsl #2]
 80072ac:	e1c3      	b.n	8007636 <USB_ActivateEndpoint+0x454>
 80072ae:	f442 7200 	orr.w	r2, r2, #512	@ 0x200
 80072b2:	e7aa      	b.n	800720a <USB_ActivateEndpoint+0x28>
 80072b4:	f442 62c0 	orr.w	r2, r2, #1536	@ 0x600
 80072b8:	2000      	movs	r0, #0
 80072ba:	e7a6      	b.n	800720a <USB_ActivateEndpoint+0x28>
 80072bc:	f442 6280 	orr.w	r2, r2, #1024	@ 0x400
 80072c0:	2000      	movs	r0, #0
 80072c2:	e7a2      	b.n	800720a <USB_ActivateEndpoint+0x28>
 80072c4:	2001      	movs	r0, #1
 80072c6:	e7a0      	b.n	800720a <USB_ActivateEndpoint+0x28>
 80072c8:	7809      	ldrb	r1, [r1, #0]
 80072ca:	f833 2021 	ldrh.w	r2, [r3, r1, lsl #2]
 80072ce:	b292      	uxth	r2, r2
 80072d0:	f422 42e0 	bic.w	r2, r2, #28672	@ 0x7000
 80072d4:	f022 0240 	bic.w	r2, r2, #64	@ 0x40
 80072d8:	f442 4200 	orr.w	r2, r2, #32768	@ 0x8000
 80072dc:	f042 0280 	orr.w	r2, r2, #128	@ 0x80
 80072e0:	f823 2021 	strh.w	r2, [r3, r1, lsl #2]
 80072e4:	e1a7      	b.n	8007636 <USB_ActivateEndpoint+0x454>
 80072e6:	f8b3 2050 	ldrh.w	r2, [r3, #80]	@ 0x50
 80072ea:	fa13 f282 	uxtah	r2, r3, r2
 80072ee:	780c      	ldrb	r4, [r1, #0]
 80072f0:	eb02 02c4 	add.w	r2, r2, r4, lsl #3
 80072f4:	f8b1 c006 	ldrh.w	ip, [r1, #6]
 80072f8:	ea4f 0c5c 	mov.w	ip, ip, lsr #1
 80072fc:	ea4f 0c4c 	mov.w	ip, ip, lsl #1
 8007300:	f8a2 c404 	strh.w	ip, [r2, #1028]	@ 0x404
 8007304:	f8b3 2050 	ldrh.w	r2, [r3, #80]	@ 0x50
 8007308:	fa13 f282 	uxtah	r2, r3, r2
 800730c:	780c      	ldrb	r4, [r1, #0]
 800730e:	eb02 02c4 	add.w	r2, r2, r4, lsl #3
 8007312:	f8b2 c406 	ldrh.w	ip, [r2, #1030]	@ 0x406
 8007316:	f3cc 0c09 	ubfx	ip, ip, #0, #10
 800731a:	f8a2 c406 	strh.w	ip, [r2, #1030]	@ 0x406
 800731e:	690c      	ldr	r4, [r1, #16]
 8007320:	bb74      	cbnz	r4, 8007380 <USB_ActivateEndpoint+0x19e>
 8007322:	f8b2 c406 	ldrh.w	ip, [r2, #1030]	@ 0x406
 8007326:	ea6f 4c4c 	mvn.w	ip, ip, lsl #17
 800732a:	ea6f 4c5c 	mvn.w	ip, ip, lsr #17
 800732e:	fa1f fc8c 	uxth.w	ip, ip
 8007332:	f8a2 c406 	strh.w	ip, [r2, #1030]	@ 0x406
 8007336:	780c      	ldrb	r4, [r1, #0]
 8007338:	f833 2024 	ldrh.w	r2, [r3, r4, lsl #2]
 800733c:	f412 4f80 	tst.w	r2, #16384	@ 0x4000
 8007340:	d00c      	beq.n	800735c <USB_ActivateEndpoint+0x17a>
 8007342:	f833 2024 	ldrh.w	r2, [r3, r4, lsl #2]
 8007346:	b292      	uxth	r2, r2
 8007348:	f422 42e0 	bic.w	r2, r2, #28672	@ 0x7000
 800734c:	f022 0270 	bic.w	r2, r2, #112	@ 0x70
 8007350:	f442 4240 	orr.w	r2, r2, #49152	@ 0xc000
 8007354:	f042 0280 	orr.w	r2, r2, #128	@ 0x80
 8007358:	f823 2024 	strh.w	r2, [r3, r4, lsl #2]
 800735c:	7809      	ldrb	r1, [r1, #0]
 800735e:	bbc9      	cbnz	r1, 80073d4 <USB_ActivateEndpoint+0x1f2>
 8007360:	f833 2021 	ldrh.w	r2, [r3, r1, lsl #2]
 8007364:	b292      	uxth	r2, r2
 8007366:	f422 4280 	bic.w	r2, r2, #16384	@ 0x4000
 800736a:	f022 0270 	bic.w	r2, r2, #112	@ 0x70
 800736e:	f482 5240 	eor.w	r2, r2, #12288	@ 0x3000
 8007372:	f442 4200 	orr.w	r2, r2, #32768	@ 0x8000
 8007376:	f042 0280 	orr.w	r2, r2, #128	@ 0x80
 800737a:	f823 2021 	strh.w	r2, [r3, r1, lsl #2]
 800737e:	e15a      	b.n	8007636 <USB_ActivateEndpoint+0x454>
 8007380:	2c3e      	cmp	r4, #62	@ 0x3e
 8007382:	d812      	bhi.n	80073aa <USB_ActivateEndpoint+0x1c8>
 8007384:	ea4f 0c54 	mov.w	ip, r4, lsr #1
 8007388:	f014 0f01 	tst.w	r4, #1
 800738c:	d001      	beq.n	8007392 <USB_ActivateEndpoint+0x1b0>
 800738e:	f10c 0c01 	add.w	ip, ip, #1
 8007392:	f8b2 4406 	ldrh.w	r4, [r2, #1030]	@ 0x406
 8007396:	b2a4      	uxth	r4, r4
 8007398:	ea4f 2c8c 	mov.w	ip, ip, lsl #10
 800739c:	fa1f fc8c 	uxth.w	ip, ip
 80073a0:	ea44 040c 	orr.w	r4, r4, ip
 80073a4:	f8a2 4406 	strh.w	r4, [r2, #1030]	@ 0x406
 80073a8:	e7c5      	b.n	8007336 <USB_ActivateEndpoint+0x154>
 80073aa:	ea4f 1c54 	mov.w	ip, r4, lsr #5
 80073ae:	f014 0f1f 	tst.w	r4, #31
 80073b2:	d101      	bne.n	80073b8 <USB_ActivateEndpoint+0x1d6>
 80073b4:	f10c 3cff 	add.w	ip, ip, #4294967295
 80073b8:	f8b2 4406 	ldrh.w	r4, [r2, #1030]	@ 0x406
 80073bc:	b2a4      	uxth	r4, r4
 80073be:	ea4f 2c8c 	mov.w	ip, ip, lsl #10
 80073c2:	fa1f fc8c 	uxth.w	ip, ip
 80073c6:	ea44 040c 	orr.w	r4, r4, ip
 80073ca:	f444 4400 	orr.w	r4, r4, #32768	@ 0x8000
 80073ce:	f8a2 4406 	strh.w	r4, [r2, #1030]	@ 0x406
 80073d2:	e7b0      	b.n	8007336 <USB_ActivateEndpoint+0x154>
 80073d4:	f833 2021 	ldrh.w	r2, [r3, r1, lsl #2]
 80073d8:	b292      	uxth	r2, r2
 80073da:	f422 4280 	bic.w	r2, r2, #16384	@ 0x4000
 80073de:	f022 0270 	bic.w	r2, r2, #112	@ 0x70
 80073e2:	f482 5200 	eor.w	r2, r2, #8192	@ 0x2000
 80073e6:	f442 4200 	orr.w	r2, r2, #32768	@ 0x8000
 80073ea:	f042 0280 	orr.w	r2, r2, #128	@ 0x80
 80073ee:	f823 2021 	strh.w	r2, [r3, r1, lsl #2]
 80073f2:	e120      	b.n	8007636 <USB_ActivateEndpoint+0x454>
 80073f4:	78ca      	ldrb	r2, [r1, #3]
 80073f6:	2a02      	cmp	r2, #2
 80073f8:	d074      	beq.n	80074e4 <USB_ActivateEndpoint+0x302>
 80073fa:	f891 c000 	ldrb.w	ip, [r1]
 80073fe:	f833 202c 	ldrh.w	r2, [r3, ip, lsl #2]
 8007402:	b292      	uxth	r2, r2
 8007404:	f422 42e2 	bic.w	r2, r2, #28928	@ 0x7100
 8007408:	f022 0270 	bic.w	r2, r2, #112	@ 0x70
 800740c:	f442 4200 	orr.w	r2, r2, #32768	@ 0x8000
 8007410:	f042 0280 	orr.w	r2, r2, #128	@ 0x80
 8007414:	f823 202c 	strh.w	r2, [r3, ip, lsl #2]
 8007418:	f8b3 2050 	ldrh.w	r2, [r3, #80]	@ 0x50
 800741c:	fa13 f282 	uxtah	r2, r3, r2
 8007420:	f891 c000 	ldrb.w	ip, [r1]
 8007424:	eb02 02cc 	add.w	r2, r2, ip, lsl #3
 8007428:	f8b1 c008 	ldrh.w	ip, [r1, #8]
 800742c:	ea4f 0c5c 	mov.w	ip, ip, lsr #1
 8007430:	ea4f 0c4c 	mov.w	ip, ip, lsl #1
 8007434:	f8a2 c400 	strh.w	ip, [r2, #1024]	@ 0x400
 8007438:	f8b3 2050 	ldrh.w	r2, [r3, #80]	@ 0x50
 800743c:	fa13 f282 	uxtah	r2, r3, r2
 8007440:	f891 c000 	ldrb.w	ip, [r1]
 8007444:	eb02 02cc 	add.w	r2, r2, ip, lsl #3
 8007448:	f8b1 c00a 	ldrh.w	ip, [r1, #10]
 800744c:	ea4f 0c5c 	mov.w	ip, ip, lsr #1
 8007450:	ea4f 0c4c 	mov.w	ip, ip, lsl #1
 8007454:	f8a2 c404 	strh.w	ip, [r2, #1028]	@ 0x404
 8007458:	784a      	ldrb	r2, [r1, #1]
 800745a:	2a00      	cmp	r2, #0
 800745c:	f040 80f7 	bne.w	800764e <USB_ActivateEndpoint+0x46c>
 8007460:	780c      	ldrb	r4, [r1, #0]
 8007462:	f833 2024 	ldrh.w	r2, [r3, r4, lsl #2]
 8007466:	f412 4f80 	tst.w	r2, #16384	@ 0x4000
 800746a:	d00c      	beq.n	8007486 <USB_ActivateEndpoint+0x2a4>
 800746c:	f833 2024 	ldrh.w	r2, [r3, r4, lsl #2]
 8007470:	b292      	uxth	r2, r2
 8007472:	f422 42e0 	bic.w	r2, r2, #28672	@ 0x7000
 8007476:	f022 0270 	bic.w	r2, r2, #112	@ 0x70
 800747a:	f442 4240 	orr.w	r2, r2, #49152	@ 0xc000
 800747e:	f042 0280 	orr.w	r2, r2, #128	@ 0x80
 8007482:	f823 2024 	strh.w	r2, [r3, r4, lsl #2]
 8007486:	780c      	ldrb	r4, [r1, #0]
 8007488:	f833 2024 	ldrh.w	r2, [r3, r4, lsl #2]
 800748c:	f012 0f40 	tst.w	r2, #64	@ 0x40
 8007490:	d00c      	beq.n	80074ac <USB_ActivateEndpoint+0x2ca>
 8007492:	f833 2024 	ldrh.w	r2, [r3, r4, lsl #2]
 8007496:	b292      	uxth	r2, r2
 8007498:	f422 42e0 	bic.w	r2, r2, #28672	@ 0x7000
 800749c:	f022 0270 	bic.w	r2, r2, #112	@ 0x70
 80074a0:	f442 4200 	orr.w	r2, r2, #32768	@ 0x8000
 80074a4:	f042 02c0 	orr.w	r2, r2, #192	@ 0xc0
 80074a8:	f823 2024 	strh.w	r2, [r3, r4, lsl #2]
 80074ac:	784a      	ldrb	r2, [r1, #1]
 80074ae:	2a00      	cmp	r2, #0
 80074b0:	d151      	bne.n	8007556 <USB_ActivateEndpoint+0x374>
 80074b2:	f8b3 2050 	ldrh.w	r2, [r3, #80]	@ 0x50
 80074b6:	fa13 f282 	uxtah	r2, r3, r2
 80074ba:	780c      	ldrb	r4, [r1, #0]
 80074bc:	eb02 02c4 	add.w	r2, r2, r4, lsl #3
 80074c0:	f8b2 4402 	ldrh.w	r4, [r2, #1026]	@ 0x402
 80074c4:	f3c4 0409 	ubfx	r4, r4, #0, #10
 80074c8:	f8a2 4402 	strh.w	r4, [r2, #1026]	@ 0x402
 80074cc:	690c      	ldr	r4, [r1, #16]
 80074ce:	b9c4      	cbnz	r4, 8007502 <USB_ActivateEndpoint+0x320>
 80074d0:	f8b2 4402 	ldrh.w	r4, [r2, #1026]	@ 0x402
 80074d4:	ea6f 4444 	mvn.w	r4, r4, lsl #17
 80074d8:	ea6f 4454 	mvn.w	r4, r4, lsr #17
 80074dc:	b2a4      	uxth	r4, r4
 80074de:	f8a2 4402 	strh.w	r4, [r2, #1026]	@ 0x402
 80074e2:	e03a      	b.n	800755a <USB_ActivateEndpoint+0x378>
 80074e4:	780c      	ldrb	r4, [r1, #0]
 80074e6:	f833 2024 	ldrh.w	r2, [r3, r4, lsl #2]
 80074ea:	b292      	uxth	r2, r2
 80074ec:	f422 42e0 	bic.w	r2, r2, #28672	@ 0x7000
 80074f0:	f022 0270 	bic.w	r2, r2, #112	@ 0x70
 80074f4:	f442 4201 	orr.w	r2, r2, #33024	@ 0x8100
 80074f8:	f042 0280 	orr.w	r2, r2, #128	@ 0x80
 80074fc:	f823 2024 	strh.w	r2, [r3, r4, lsl #2]
 8007500:	e78a      	b.n	8007418 <USB_ActivateEndpoint+0x236>
 8007502:	2c3e      	cmp	r4, #62	@ 0x3e
 8007504:	d812      	bhi.n	800752c <USB_ActivateEndpoint+0x34a>
 8007506:	ea4f 0c54 	mov.w	ip, r4, lsr #1
 800750a:	f014 0f01 	tst.w	r4, #1
 800750e:	d001      	beq.n	8007514 <USB_ActivateEndpoint+0x332>
 8007510:	f10c 0c01 	add.w	ip, ip, #1
 8007514:	f8b2 4402 	ldrh.w	r4, [r2, #1026]	@ 0x402
 8007518:	b2a4      	uxth	r4, r4
 800751a:	ea4f 2c8c 	mov.w	ip, ip, lsl #10
 800751e:	fa1f fc8c 	uxth.w	ip, ip
 8007522:	ea44 040c 	orr.w	r4, r4, ip
 8007526:	f8a2 4402 	strh.w	r4, [r2, #1026]	@ 0x402
 800752a:	e016      	b.n	800755a <USB_ActivateEndpoint+0x378>
 800752c:	ea4f 1c54 	mov.w	ip, r4, lsr #5
 8007530:	f014 0f1f 	tst.w	r4, #31
 8007534:	d101      	bne.n	800753a <USB_ActivateEndpoint+0x358>
 8007536:	f10c 3cff 	add.w	ip, ip, #4294967295
 800753a:	f8b2 4402 	ldrh.w	r4, [r2, #1026]	@ 0x402
 800753e:	b2a4      	uxth	r4, r4
 8007540:	ea4f 2c8c 	mov.w	ip, ip, lsl #10
 8007544:	fa1f fc8c 	uxth.w	ip, ip
 8007548:	ea44 040c 	orr.w	r4, r4, ip
 800754c:	f444 4400 	orr.w	r4, r4, #32768	@ 0x8000
 8007550:	f8a2 4402 	strh.w	r4, [r2, #1026]	@ 0x402
 8007554:	e001      	b.n	800755a <USB_ActivateEndpoint+0x378>
 8007556:	2a01      	cmp	r2, #1
 8007558:	d01b      	beq.n	8007592 <USB_ActivateEndpoint+0x3b0>
 800755a:	784a      	ldrb	r2, [r1, #1]
 800755c:	2a00      	cmp	r2, #0
 800755e:	d14d      	bne.n	80075fc <USB_ActivateEndpoint+0x41a>
 8007560:	f8b3 2050 	ldrh.w	r2, [r3, #80]	@ 0x50
 8007564:	fa13 f282 	uxtah	r2, r3, r2
 8007568:	780c      	ldrb	r4, [r1, #0]
 800756a:	eb02 02c4 	add.w	r2, r2, r4, lsl #3
 800756e:	f8b2 4406 	ldrh.w	r4, [r2, #1030]	@ 0x406
 8007572:	f3c4 0409 	ubfx	r4, r4, #0, #10
 8007576:	f8a2 4406 	strh.w	r4, [r2, #1030]	@ 0x406
 800757a:	690c      	ldr	r4, [r1, #16]
 800757c:	b9a4      	cbnz	r4, 80075a8 <USB_ActivateEndpoint+0x3c6>
 800757e:	f8b2 4406 	ldrh.w	r4, [r2, #1030]	@ 0x406
 8007582:	ea6f 4444 	mvn.w	r4, r4, lsl #17
 8007586:	ea6f 4454 	mvn.w	r4, r4, lsr #17
 800758a:	b2a4      	uxth	r4, r4
 800758c:	f8a2 4406 	strh.w	r4, [r2, #1030]	@ 0x406
 8007590:	e036      	b.n	8007600 <USB_ActivateEndpoint+0x41e>
 8007592:	f8b3 2050 	ldrh.w	r2, [r3, #80]	@ 0x50
 8007596:	fa13 f282 	uxtah	r2, r3, r2
 800759a:	780c      	ldrb	r4, [r1, #0]
 800759c:	eb02 02c4 	add.w	r2, r2, r4, lsl #3
 80075a0:	8a0c      	ldrh	r4, [r1, #16]
 80075a2:	f8a2 4402 	strh.w	r4, [r2, #1026]	@ 0x402
 80075a6:	e7d8      	b.n	800755a <USB_ActivateEndpoint+0x378>
 80075a8:	2c3e      	cmp	r4, #62	@ 0x3e
 80075aa:	d812      	bhi.n	80075d2 <USB_ActivateEndpoint+0x3f0>
 80075ac:	ea4f 0c54 	mov.w	ip, r4, lsr #1
 80075b0:	f014 0f01 	tst.w	r4, #1
 80075b4:	d001      	beq.n	80075ba <USB_ActivateEndpoint+0x3d8>
 80075b6:	f10c 0c01 	add.w	ip, ip, #1
 80075ba:	f8b2 4406 	ldrh.w	r4, [r2, #1030]	@ 0x406
 80075be:	b2a4      	uxth	r4, r4
 80075c0:	ea4f 2c8c 	mov.w	ip, ip, lsl #10
 80075c4:	fa1f fc8c 	uxth.w	ip, ip
 80075c8:	ea44 040c 	orr.w	r4, r4, ip
 80075cc:	f8a2 4406 	strh.w	r4, [r2, #1030]	@ 0x406
 80075d0:	e016      	b.n	8007600 <USB_ActivateEndpoint+0x41e>
 80075d2:	ea4f 1c54 	mov.w	ip, r4, lsr #5
 80075d6:	f014 0f1f 	tst.w	r4, #31
 80075da:	d101      	bne.n	80075e0 <USB_ActivateEndpoint+0x3fe>
 80075dc:	f10c 3cff 	add.w	ip, ip, #4294967295
 80075e0:	f8b2 4406 	ldrh.w	r4, [r2, #1030]	@ 0x406
 80075e4:	b2a4      	uxth	r4, r4
 80075e6:	ea4f 2c8c 	mov.w	ip, ip, lsl #10
 80075ea:	fa1f fc8c 	uxth.w	ip, ip
 80075ee:	ea44 040c 	orr.w	r4, r4, ip
 80075f2:	f444 4400 	orr.w	r4, r4, #32768	@ 0x8000
 80075f6:	f8a2 4406 	strh.w	r4, [r2, #1030]	@ 0x406
 80075fa:	e001      	b.n	8007600 <USB_ActivateEndpoint+0x41e>
 80075fc:	2a01      	cmp	r2, #1
 80075fe:	d01b      	beq.n	8007638 <USB_ActivateEndpoint+0x456>
 8007600:	f891 c000 	ldrb.w	ip, [r1]
 8007604:	f833 202c 	ldrh.w	r2, [r3, ip, lsl #2]
 8007608:	b292      	uxth	r2, r2
 800760a:	f422 4280 	bic.w	r2, r2, #16384	@ 0x4000
 800760e:	f022 0270 	bic.w	r2, r2, #112	@ 0x70
 8007612:	f482 5240 	eor.w	r2, r2, #12288	@ 0x3000
 8007616:	f248 0480 	movw	r4, #32896	@ 0x8080
 800761a:	4322      	orrs	r2, r4
 800761c:	f823 202c 	strh.w	r2, [r3, ip, lsl #2]
 8007620:	7809      	ldrb	r1, [r1, #0]
 8007622:	f833 2021 	ldrh.w	r2, [r3, r1, lsl #2]
 8007626:	b292      	uxth	r2, r2
 8007628:	f422 42e0 	bic.w	r2, r2, #28672	@ 0x7000
 800762c:	f022 0240 	bic.w	r2, r2, #64	@ 0x40
 8007630:	4322      	orrs	r2, r4
 8007632:	f823 2021 	strh.w	r2, [r3, r1, lsl #2]
 8007636:	bd10      	pop	{r4, pc}
 8007638:	f8b3 2050 	ldrh.w	r2, [r3, #80]	@ 0x50
 800763c:	fa13 f282 	uxtah	r2, r3, r2
 8007640:	780c      	ldrb	r4, [r1, #0]
 8007642:	eb02 02c4 	add.w	r2, r2, r4, lsl #3
 8007646:	8a0c      	ldrh	r4, [r1, #16]
 8007648:	f8a2 4406 	strh.w	r4, [r2, #1030]	@ 0x406
 800764c:	e7d8      	b.n	8007600 <USB_ActivateEndpoint+0x41e>
 800764e:	780c      	ldrb	r4, [r1, #0]
 8007650:	f833 2024 	ldrh.w	r2, [r3, r4, lsl #2]
 8007654:	f412 4f80 	tst.w	r2, #16384	@ 0x4000
 8007658:	d00c      	beq.n	8007674 <USB_ActivateEndpoint+0x492>
 800765a:	f833 2024 	ldrh.w	r2, [r3, r4, lsl #2]
 800765e:	b292      	uxth	r2, r2
 8007660:	f422 42e0 	bic.w	r2, r2, #28672	@ 0x7000
 8007664:	f022 0270 	bic.w	r2, r2, #112	@ 0x70
 8007668:	f442 4240 	orr.w	r2, r2, #49152	@ 0xc000
 800766c:	f042 0280 	orr.w	r2, r2, #128	@ 0x80
 8007670:	f823 2024 	strh.w	r2, [r3, r4, lsl #2]
 8007674:	780c      	ldrb	r4, [r1, #0]
 8007676:	f833 2024 	ldrh.w	r2, [r3, r4, lsl #2]
 800767a:	f012 0f40 	tst.w	r2, #64	@ 0x40
 800767e:	d00c      	beq.n	800769a <USB_ActivateEndpoint+0x4b8>
 8007680:	f833 2024 	ldrh.w	r2, [r3, r4, lsl #2]
 8007684:	b292      	uxth	r2, r2
 8007686:	f422 42e0 	bic.w	r2, r2, #28672	@ 0x7000
 800768a:	f022 0270 	bic.w	r2, r2, #112	@ 0x70
 800768e:	f442 4200 	orr.w	r2, r2, #32768	@ 0x8000
 8007692:	f042 02c0 	orr.w	r2, r2, #192	@ 0xc0
 8007696:	f823 2024 	strh.w	r2, [r3, r4, lsl #2]
 800769a:	78ca      	ldrb	r2, [r1, #3]
 800769c:	2a01      	cmp	r2, #1
 800769e:	d01e      	beq.n	80076de <USB_ActivateEndpoint+0x4fc>
 80076a0:	780c      	ldrb	r4, [r1, #0]
 80076a2:	f833 2024 	ldrh.w	r2, [r3, r4, lsl #2]
 80076a6:	b292      	uxth	r2, r2
 80076a8:	f422 42e0 	bic.w	r2, r2, #28672	@ 0x7000
 80076ac:	f022 0240 	bic.w	r2, r2, #64	@ 0x40
 80076b0:	f082 0220 	eor.w	r2, r2, #32
 80076b4:	f442 4200 	orr.w	r2, r2, #32768	@ 0x8000
 80076b8:	f042 0280 	orr.w	r2, r2, #128	@ 0x80
 80076bc:	f823 2024 	strh.w	r2, [r3, r4, lsl #2]
 80076c0:	7809      	ldrb	r1, [r1, #0]
 80076c2:	f833 2021 	ldrh.w	r2, [r3, r1, lsl #2]
 80076c6:	b292      	uxth	r2, r2
 80076c8:	f422 4280 	bic.w	r2, r2, #16384	@ 0x4000
 80076cc:	f022 0270 	bic.w	r2, r2, #112	@ 0x70
 80076d0:	f442 4200 	orr.w	r2, r2, #32768	@ 0x8000
 80076d4:	f042 0280 	orr.w	r2, r2, #128	@ 0x80
 80076d8:	f823 2021 	strh.w	r2, [r3, r1, lsl #2]
 80076dc:	e7ab      	b.n	8007636 <USB_ActivateEndpoint+0x454>
 80076de:	780c      	ldrb	r4, [r1, #0]
 80076e0:	f833 2024 	ldrh.w	r2, [r3, r4, lsl #2]
 80076e4:	b292      	uxth	r2, r2
 80076e6:	f422 42e0 	bic.w	r2, r2, #28672	@ 0x7000
 80076ea:	f022 0240 	bic.w	r2, r2, #64	@ 0x40
 80076ee:	f442 4200 	orr.w	r2, r2, #32768	@ 0x8000
 80076f2:	f042 0280 	orr.w	r2, r2, #128	@ 0x80
 80076f6:	f823 2024 	strh.w	r2, [r3, r4, lsl #2]
 80076fa:	e7e1      	b.n	80076c0 <USB_ActivateEndpoint+0x4de>

080076fc <USB_DeactivateEndpoint>:
 80076fc:	7b0b      	ldrb	r3, [r1, #12]
 80076fe:	2b00      	cmp	r3, #0
 8007700:	d146      	bne.n	8007790 <USB_DeactivateEndpoint+0x94>
 8007702:	784b      	ldrb	r3, [r1, #1]
 8007704:	b313      	cbz	r3, 800774c <USB_DeactivateEndpoint+0x50>
 8007706:	780a      	ldrb	r2, [r1, #0]
 8007708:	f830 3022 	ldrh.w	r3, [r0, r2, lsl #2]
 800770c:	f013 0f40 	tst.w	r3, #64	@ 0x40
 8007710:	d00c      	beq.n	800772c <USB_DeactivateEndpoint+0x30>
 8007712:	f830 3022 	ldrh.w	r3, [r0, r2, lsl #2]
 8007716:	b29b      	uxth	r3, r3
 8007718:	f423 43e0 	bic.w	r3, r3, #28672	@ 0x7000
 800771c:	f023 0370 	bic.w	r3, r3, #112	@ 0x70
 8007720:	f443 4300 	orr.w	r3, r3, #32768	@ 0x8000
 8007724:	f043 03c0 	orr.w	r3, r3, #192	@ 0xc0
 8007728:	f820 3022 	strh.w	r3, [r0, r2, lsl #2]
 800772c:	780a      	ldrb	r2, [r1, #0]
 800772e:	f830 3022 	ldrh.w	r3, [r0, r2, lsl #2]
 8007732:	b29b      	uxth	r3, r3
 8007734:	f423 43e0 	bic.w	r3, r3, #28672	@ 0x7000
 8007738:	f023 0340 	bic.w	r3, r3, #64	@ 0x40
 800773c:	f443 4300 	orr.w	r3, r3, #32768	@ 0x8000
 8007740:	f043 0380 	orr.w	r3, r3, #128	@ 0x80
 8007744:	f820 3022 	strh.w	r3, [r0, r2, lsl #2]
 8007748:	2000      	movs	r0, #0
 800774a:	4770      	bx	lr
 800774c:	780a      	ldrb	r2, [r1, #0]
 800774e:	f830 3022 	ldrh.w	r3, [r0, r2, lsl #2]
 8007752:	f413 4f80 	tst.w	r3, #16384	@ 0x4000
 8007756:	d00c      	beq.n	8007772 <USB_DeactivateEndpoint+0x76>
 8007758:	f830 3022 	ldrh.w	r3, [r0, r2, lsl #2]
 800775c:	b29b      	uxth	r3, r3
 800775e:	f423 43e0 	bic.w	r3, r3, #28672	@ 0x7000
 8007762:	f023 0370 	bic.w	r3, r3, #112	@ 0x70
 8007766:	f443 4340 	orr.w	r3, r3, #49152	@ 0xc000
 800776a:	f043 0380 	orr.w	r3, r3, #128	@ 0x80
 800776e:	f820 3022 	strh.w	r3, [r0, r2, lsl #2]
 8007772:	780a      	ldrb	r2, [r1, #0]
 8007774:	f830 3022 	ldrh.w	r3, [r0, r2, lsl #2]
 8007778:	b29b      	uxth	r3, r3
 800777a:	f423 4380 	bic.w	r3, r3, #16384	@ 0x4000
 800777e:	f023 0370 	bic.w	r3, r3, #112	@ 0x70
 8007782:	f443 4300 	orr.w	r3, r3, #32768	@ 0x8000
 8007786:	f043 0380 	orr.w	r3, r3, #128	@ 0x80
 800778a:	f820 3022 	strh.w	r3, [r0, r2, lsl #2]
 800778e:	e7db      	b.n	8007748 <USB_DeactivateEndpoint+0x4c>
 8007790:	784b      	ldrb	r3, [r1, #1]
 8007792:	2b00      	cmp	r3, #0
 8007794:	d14e      	bne.n	8007834 <USB_DeactivateEndpoint+0x138>
 8007796:	780a      	ldrb	r2, [r1, #0]
 8007798:	f830 3022 	ldrh.w	r3, [r0, r2, lsl #2]
 800779c:	f413 4f80 	tst.w	r3, #16384	@ 0x4000
 80077a0:	d00c      	beq.n	80077bc <USB_DeactivateEndpoint+0xc0>
 80077a2:	f830 3022 	ldrh.w	r3, [r0, r2, lsl #2]
 80077a6:	b29b      	uxth	r3, r3
 80077a8:	f423 43e0 	bic.w	r3, r3, #28672	@ 0x7000
 80077ac:	f023 0370 	bic.w	r3, r3, #112	@ 0x70
 80077b0:	f443 4340 	orr.w	r3, r3, #49152	@ 0xc000
 80077b4:	f043 0380 	orr.w	r3, r3, #128	@ 0x80
 80077b8:	f820 3022 	strh.w	r3, [r0, r2, lsl #2]
 80077bc:	780a      	ldrb	r2, [r1, #0]
 80077be:	f830 3022 	ldrh.w	r3, [r0, r2, lsl #2]
 80077c2:	f013 0f40 	tst.w	r3, #64	@ 0x40
 80077c6:	d00c      	beq.n	80077e2 <USB_DeactivateEndpoint+0xe6>
 80077c8:	f830 3022 	ldrh.w	r3, [r0, r2, lsl #2]
 80077cc:	b29b      	uxth	r3, r3
 80077ce:	f423 43e0 	bic.w	r3, r3, #28672	@ 0x7000
 80077d2:	f023 0370 	bic.w	r3, r3, #112	@ 0x70
 80077d6:	f443 4300 	orr.w	r3, r3, #32768	@ 0x8000
 80077da:	f043 03c0 	orr.w	r3, r3, #192	@ 0xc0
 80077de:	f820 3022 	strh.w	r3, [r0, r2, lsl #2]
 80077e2:	780a      	ldrb	r2, [r1, #0]
 80077e4:	f830 3022 	ldrh.w	r3, [r0, r2, lsl #2]
 80077e8:	b29b      	uxth	r3, r3
 80077ea:	f423 43e0 	bic.w	r3, r3, #28672	@ 0x7000
 80077ee:	f023 0370 	bic.w	r3, r3, #112	@ 0x70
 80077f2:	f443 4300 	orr.w	r3, r3, #32768	@ 0x8000
 80077f6:	f043 03c0 	orr.w	r3, r3, #192	@ 0xc0
 80077fa:	f820 3022 	strh.w	r3, [r0, r2, lsl #2]
 80077fe:	780a      	ldrb	r2, [r1, #0]
 8007800:	f830 3022 	ldrh.w	r3, [r0, r2, lsl #2]
 8007804:	b29b      	uxth	r3, r3
 8007806:	f423 4380 	bic.w	r3, r3, #16384	@ 0x4000
 800780a:	f023 0370 	bic.w	r3, r3, #112	@ 0x70
 800780e:	f248 0c80 	movw	ip, #32896	@ 0x8080
 8007812:	ea43 030c 	orr.w	r3, r3, ip
 8007816:	f820 3022 	strh.w	r3, [r0, r2, lsl #2]
 800781a:	780a      	ldrb	r2, [r1, #0]
 800781c:	f830 3022 	ldrh.w	r3, [r0, r2, lsl #2]
 8007820:	b29b      	uxth	r3, r3
 8007822:	f423 43e0 	bic.w	r3, r3, #28672	@ 0x7000
 8007826:	f023 0340 	bic.w	r3, r3, #64	@ 0x40
 800782a:	ea43 030c 	orr.w	r3, r3, ip
 800782e:	f820 3022 	strh.w	r3, [r0, r2, lsl #2]
 8007832:	e789      	b.n	8007748 <USB_DeactivateEndpoint+0x4c>
 8007834:	780a      	ldrb	r2, [r1, #0]
 8007836:	f830 3022 	ldrh.w	r3, [r0, r2, lsl #2]
 800783a:	f413 4f80 	tst.w	r3, #16384	@ 0x4000
 800783e:	d00c      	beq.n	800785a <USB_DeactivateEndpoint+0x15e>
 8007840:	f830 3022 	ldrh.w	r3, [r0, r2, lsl #2]
 8007844:	b29b      	uxth	r3, r3
 8007846:	f423 43e0 	bic.w	r3, r3, #28672	@ 0x7000
 800784a:	f023 0370 	bic.w	r3, r3, #112	@ 0x70
 800784e:	f443 4340 	orr.w	r3, r3, #49152	@ 0xc000
 8007852:	f043 0380 	orr.w	r3, r3, #128	@ 0x80
 8007856:	f820 3022 	strh.w	r3, [r0, r2, lsl #2]
 800785a:	780a      	ldrb	r2, [r1, #0]
 800785c:	f830 3022 	ldrh.w	r3, [r0, r2, lsl #2]
 8007860:	f013 0f40 	tst.w	r3, #64	@ 0x40
 8007864:	d00c      	beq.n	8007880 <USB_DeactivateEndpoint+0x184>
 8007866:	f830 3022 	ldrh.w	r3, [r0, r2, lsl #2]
 800786a:	b29b      	uxth	r3, r3
 800786c:	f423 43e0 	bic.w	r3, r3, #28672	@ 0x7000
 8007870:	f023 0370 	bic.w	r3, r3, #112	@ 0x70
 8007874:	f443 4300 	orr.w	r3, r3, #32768	@ 0x8000
 8007878:	f043 03c0 	orr.w	r3, r3, #192	@ 0xc0
 800787c:	f820 3022 	strh.w	r3, [r0, r2, lsl #2]
 8007880:	780a      	ldrb	r2, [r1, #0]
 8007882:	f830 3022 	ldrh.w	r3, [r0, r2, lsl #2]
 8007886:	b29b      	uxth	r3, r3
 8007888:	f423 43e0 	bic.w	r3, r3, #28672	@ 0x7000
 800788c:	f023 0370 	bic.w	r3, r3, #112	@ 0x70
 8007890:	f443 4340 	orr.w	r3, r3, #49152	@ 0xc000
 8007894:	f043 0380 	orr.w	r3, r3, #128	@ 0x80
 8007898:	f820 3022 	strh.w	r3, [r0, r2, lsl #2]
 800789c:	780a      	ldrb	r2, [r1, #0]
 800789e:	f830 3022 	ldrh.w	r3, [r0, r2, lsl #2]
 80078a2:	b29b      	uxth	r3, r3
 80078a4:	f423 43e0 	bic.w	r3, r3, #28672	@ 0x7000
 80078a8:	f023 0340 	bic.w	r3, r3, #64	@ 0x40
 80078ac:	f248 0c80 	movw	ip, #32896	@ 0x8080
 80078b0:	ea43 030c 	orr.w	r3, r3, ip
 80078b4:	f820 3022 	strh.w	r3, [r0, r2, lsl #2]
 80078b8:	780a      	ldrb	r2, [r1, #0]
 80078ba:	f830 3022 	ldrh.w	r3, [r0, r2, lsl #2]
 80078be:	b29b      	uxth	r3, r3
 80078c0:	f423 4380 	bic.w	r3, r3, #16384	@ 0x4000
 80078c4:	f023 0370 	bic.w	r3, r3, #112	@ 0x70
 80078c8:	ea43 030c 	orr.w	r3, r3, ip
 80078cc:	f820 3022 	strh.w	r3, [r0, r2, lsl #2]
 80078d0:	e73a      	b.n	8007748 <USB_DeactivateEndpoint+0x4c>

080078d2 <USB_EPSetStall>:
 80078d2:	784b      	ldrb	r3, [r1, #1]
 80078d4:	b18b      	cbz	r3, 80078fa <USB_EPSetStall+0x28>
 80078d6:	780a      	ldrb	r2, [r1, #0]
 80078d8:	f830 3022 	ldrh.w	r3, [r0, r2, lsl #2]
 80078dc:	b29b      	uxth	r3, r3
 80078de:	f423 43e0 	bic.w	r3, r3, #28672	@ 0x7000
 80078e2:	f023 0340 	bic.w	r3, r3, #64	@ 0x40
 80078e6:	f083 0310 	eor.w	r3, r3, #16
 80078ea:	f443 4300 	orr.w	r3, r3, #32768	@ 0x8000
 80078ee:	f043 0380 	orr.w	r3, r3, #128	@ 0x80
 80078f2:	f820 3022 	strh.w	r3, [r0, r2, lsl #2]
 80078f6:	2000      	movs	r0, #0
 80078f8:	4770      	bx	lr
 80078fa:	780a      	ldrb	r2, [r1, #0]
 80078fc:	f830 3022 	ldrh.w	r3, [r0, r2, lsl #2]
 8007900:	b29b      	uxth	r3, r3
 8007902:	f423 4380 	bic.w	r3, r3, #16384	@ 0x4000
 8007906:	f023 0370 	bic.w	r3, r3, #112	@ 0x70
 800790a:	f483 5380 	eor.w	r3, r3, #4096	@ 0x1000
 800790e:	f443 4300 	orr.w	r3, r3, #32768	@ 0x8000
 8007912:	f043 0380 	orr.w	r3, r3, #128	@ 0x80
 8007916:	f820 3022 	strh.w	r3, [r0, r2, lsl #2]
 800791a:	e7ec      	b.n	80078f6 <USB_EPSetStall+0x24>

0800791c <USB_EPClearStall>:
 800791c:	784b      	ldrb	r3, [r1, #1]
 800791e:	b333      	cbz	r3, 800796e <USB_EPClearStall+0x52>
 8007920:	780a      	ldrb	r2, [r1, #0]
 8007922:	f830 3022 	ldrh.w	r3, [r0, r2, lsl #2]
 8007926:	f013 0f40 	tst.w	r3, #64	@ 0x40
 800792a:	d00c      	beq.n	8007946 <USB_EPClearStall+0x2a>
 800792c:	f830 3022 	ldrh.w	r3, [r0, r2, lsl #2]
 8007930:	b29b      	uxth	r3, r3
 8007932:	f423 43e0 	bic.w	r3, r3, #28672	@ 0x7000
 8007936:	f023 0370 	bic.w	r3, r3, #112	@ 0x70
 800793a:	f443 4300 	orr.w	r3, r3, #32768	@ 0x8000
 800793e:	f043 03c0 	orr.w	r3, r3, #192	@ 0xc0
 8007942:	f820 3022 	strh.w	r3, [r0, r2, lsl #2]
 8007946:	78cb      	ldrb	r3, [r1, #3]
 8007948:	2b01      	cmp	r3, #1
 800794a:	d033      	beq.n	80079b4 <USB_EPClearStall+0x98>
 800794c:	780a      	ldrb	r2, [r1, #0]
 800794e:	f830 3022 	ldrh.w	r3, [r0, r2, lsl #2]
 8007952:	b29b      	uxth	r3, r3
 8007954:	f423 43e0 	bic.w	r3, r3, #28672	@ 0x7000
 8007958:	f023 0340 	bic.w	r3, r3, #64	@ 0x40
 800795c:	f083 0320 	eor.w	r3, r3, #32
 8007960:	f443 4300 	orr.w	r3, r3, #32768	@ 0x8000
 8007964:	f043 0380 	orr.w	r3, r3, #128	@ 0x80
 8007968:	f820 3022 	strh.w	r3, [r0, r2, lsl #2]
 800796c:	e022      	b.n	80079b4 <USB_EPClearStall+0x98>
 800796e:	780a      	ldrb	r2, [r1, #0]
 8007970:	f830 3022 	ldrh.w	r3, [r0, r2, lsl #2]
 8007974:	f413 4f80 	tst.w	r3, #16384	@ 0x4000
 8007978:	d00c      	beq.n	8007994 <USB_EPClearStall+0x78>
 800797a:	f830 3022 	ldrh.w	r3, [r0, r2, lsl #2]
 800797e:	b29b      	uxth	r3, r3
 8007980:	f423 43e0 	bic.w	r3, r3, #28672	@ 0x7000
 8007984:	f023 0370 	bic.w	r3, r3, #112	@ 0x70
 8007988:	f443 4340 	orr.w	r3, r3, #49152	@ 0xc000
 800798c:	f043 0380 	orr.w	r3, r3, #128	@ 0x80
 8007990:	f820 3022 	strh.w	r3, [r0, r2, lsl #2]
 8007994:	780a      	ldrb	r2, [r1, #0]
 8007996:	f830 3022 	ldrh.w	r3, [r0, r2, lsl #2]
 800799a:	b29b      	uxth	r3, r3
 800799c:	f423 4380 	bic.w	r3, r3, #16384	@ 0x4000
 80079a0:	f023 0370 	bic.w	r3, r3, #112	@ 0x70
 80079a4:	f483 5340 	eor.w	r3, r3, #12288	@ 0x3000
 80079a8:	f443 4300 	orr.w	r3, r3, #32768	@ 0x8000
 80079ac:	f043 0380 	orr.w	r3, r3, #128	@ 0x80
 80079b0:	f820 3022 	strh.w	r3, [r0, r2, lsl #2]
 80079b4:	2000      	movs	r0, #0
 80079b6:	4770      	bx	lr

080079b8 <USB_SetDevAddress>:
 80079b8:	b911      	cbnz	r1, 80079c0 <USB_SetDevAddress+0x8>
 80079ba:	2380      	movs	r3, #128	@ 0x80
 80079bc:	f8a0 304c 	strh.w	r3, [r0, #76]	@ 0x4c
 80079c0:	2000      	movs	r0, #0
 80079c2:	4770      	bx	lr

080079c4 <USB_DevConnect>:
 80079c4:	f8b0 3058 	ldrh.w	r3, [r0, #88]	@ 0x58
 80079c8:	ea6f 4343 	mvn.w	r3, r3, lsl #17
 80079cc:	ea6f 4353 	mvn.w	r3, r3, lsr #17
 80079d0:	b29b      	uxth	r3, r3
 80079d2:	f8a0 3058 	strh.w	r3, [r0, #88]	@ 0x58
 80079d6:	2000      	movs	r0, #0
 80079d8:	4770      	bx	lr

080079da <USB_DevDisconnect>:
 80079da:	f8b0 3058 	ldrh.w	r3, [r0, #88]	@ 0x58
 80079de:	f3c3 030e 	ubfx	r3, r3, #0, #15
 80079e2:	f8a0 3058 	strh.w	r3, [r0, #88]	@ 0x58
 80079e6:	2000      	movs	r0, #0
 80079e8:	4770      	bx	lr

080079ea <USB_ReadInterrupts>:
 80079ea:	f8b0 0044 	ldrh.w	r0, [r0, #68]	@ 0x44
 80079ee:	b280      	uxth	r0, r0
 80079f0:	4770      	bx	lr

080079f2 <USB_EP0_OutStart>:
 80079f2:	2000      	movs	r0, #0
 80079f4:	4770      	bx	lr

080079f6 <USB_WritePMA>:
 80079f6:	3301      	adds	r3, #1
 80079f8:	085b      	lsrs	r3, r3, #1
 80079fa:	4402      	add	r2, r0
 80079fc:	f502 6280 	add.w	r2, r2, #1024	@ 0x400
 8007a00:	e008      	b.n	8007a14 <USB_WritePMA+0x1e>
 8007a02:	7808      	ldrb	r0, [r1, #0]
 8007a04:	f891 c001 	ldrb.w	ip, [r1, #1]
 8007a08:	ea40 200c 	orr.w	r0, r0, ip, lsl #8
 8007a0c:	f822 0b02 	strh.w	r0, [r2], #2
 8007a10:	3102      	adds	r1, #2
 8007a12:	3b01      	subs	r3, #1
 8007a14:	2b00      	cmp	r3, #0
 8007a16:	d1f4      	bne.n	8007a02 <USB_WritePMA+0xc>
 8007a18:	4770      	bx	lr

08007a1a <USB_EPStartXfer>:
 8007a1a:	b570      	push	{r4, r5, r6, lr}
 8007a1c:	4605      	mov	r5, r0
 8007a1e:	460c      	mov	r4, r1
 8007a20:	784b      	ldrb	r3, [r1, #1]
 8007a22:	2b01      	cmp	r3, #1
 8007a24:	d01a      	beq.n	8007a5c <USB_EPStartXfer+0x42>
 8007a26:	7b0b      	ldrb	r3, [r1, #12]
 8007a28:	2b00      	cmp	r3, #0
 8007a2a:	f040 8292 	bne.w	8007f52 <USB_EPStartXfer+0x538>
 8007a2e:	698b      	ldr	r3, [r1, #24]
 8007a30:	2b00      	cmp	r3, #0
 8007a32:	f040 8265 	bne.w	8007f00 <USB_EPStartXfer+0x4e6>
 8007a36:	78cb      	ldrb	r3, [r1, #3]
 8007a38:	2b00      	cmp	r3, #0
 8007a3a:	f040 8261 	bne.w	8007f00 <USB_EPStartXfer+0x4e6>
 8007a3e:	780a      	ldrb	r2, [r1, #0]
 8007a40:	f830 3022 	ldrh.w	r3, [r0, r2, lsl #2]
 8007a44:	b29b      	uxth	r3, r3
 8007a46:	f423 43e0 	bic.w	r3, r3, #28672	@ 0x7000
 8007a4a:	f023 0370 	bic.w	r3, r3, #112	@ 0x70
 8007a4e:	f443 4301 	orr.w	r3, r3, #33024	@ 0x8100
 8007a52:	f043 0380 	orr.w	r3, r3, #128	@ 0x80
 8007a56:	f820 3022 	strh.w	r3, [r0, r2, lsl #2]
 8007a5a:	e25f      	b.n	8007f1c <USB_EPStartXfer+0x502>
 8007a5c:	698e      	ldr	r6, [r1, #24]
 8007a5e:	690a      	ldr	r2, [r1, #16]
 8007a60:	4296      	cmp	r6, r2
 8007a62:	d900      	bls.n	8007a66 <USB_EPStartXfer+0x4c>
 8007a64:	4616      	mov	r6, r2
 8007a66:	7b21      	ldrb	r1, [r4, #12]
 8007a68:	b341      	cbz	r1, 8007abc <USB_EPStartXfer+0xa2>
 8007a6a:	78e1      	ldrb	r1, [r4, #3]
 8007a6c:	2902      	cmp	r1, #2
 8007a6e:	d047      	beq.n	8007b00 <USB_EPStartXfer+0xe6>
 8007a70:	6a22      	ldr	r2, [r4, #32]
 8007a72:	1b92      	subs	r2, r2, r6
 8007a74:	6222      	str	r2, [r4, #32]
 8007a76:	7822      	ldrb	r2, [r4, #0]
 8007a78:	f835 1022 	ldrh.w	r1, [r5, r2, lsl #2]
 8007a7c:	f011 0f40 	tst.w	r1, #64	@ 0x40
 8007a80:	f000 81f6 	beq.w	8007e70 <USB_EPStartXfer+0x456>
 8007a84:	2b00      	cmp	r3, #0
 8007a86:	f040 81e3 	bne.w	8007e50 <USB_EPStartXfer+0x436>
 8007a8a:	f8b5 3050 	ldrh.w	r3, [r5, #80]	@ 0x50
 8007a8e:	fa15 f383 	uxtah	r3, r5, r3
 8007a92:	eb03 02c2 	add.w	r2, r3, r2, lsl #3
 8007a96:	f8b2 3406 	ldrh.w	r3, [r2, #1030]	@ 0x406
 8007a9a:	f3c3 0309 	ubfx	r3, r3, #0, #10
 8007a9e:	f8a2 3406 	strh.w	r3, [r2, #1030]	@ 0x406
 8007aa2:	2e00      	cmp	r6, #0
 8007aa4:	f040 81b4 	bne.w	8007e10 <USB_EPStartXfer+0x3f6>
 8007aa8:	f8b2 3406 	ldrh.w	r3, [r2, #1030]	@ 0x406
 8007aac:	ea6f 4343 	mvn.w	r3, r3, lsl #17
 8007ab0:	ea6f 4353 	mvn.w	r3, r3, lsr #17
 8007ab4:	b29b      	uxth	r3, r3
 8007ab6:	f8a2 3406 	strh.w	r3, [r2, #1030]	@ 0x406
 8007aba:	e1d2      	b.n	8007e62 <USB_EPStartXfer+0x448>
 8007abc:	b2b6      	uxth	r6, r6
 8007abe:	4633      	mov	r3, r6
 8007ac0:	88e2      	ldrh	r2, [r4, #6]
 8007ac2:	6961      	ldr	r1, [r4, #20]
 8007ac4:	4628      	mov	r0, r5
 8007ac6:	f7ff ff96 	bl	80079f6 <USB_WritePMA>
 8007aca:	f8b5 3050 	ldrh.w	r3, [r5, #80]	@ 0x50
 8007ace:	fa15 f383 	uxtah	r3, r5, r3
 8007ad2:	7822      	ldrb	r2, [r4, #0]
 8007ad4:	eb03 03c2 	add.w	r3, r3, r2, lsl #3
 8007ad8:	f8a3 6402 	strh.w	r6, [r3, #1026]	@ 0x402
 8007adc:	7822      	ldrb	r2, [r4, #0]
 8007ade:	f835 3022 	ldrh.w	r3, [r5, r2, lsl #2]
 8007ae2:	b29b      	uxth	r3, r3
 8007ae4:	f423 43e0 	bic.w	r3, r3, #28672	@ 0x7000
 8007ae8:	f023 0340 	bic.w	r3, r3, #64	@ 0x40
 8007aec:	f083 0330 	eor.w	r3, r3, #48	@ 0x30
 8007af0:	f443 4300 	orr.w	r3, r3, #32768	@ 0x8000
 8007af4:	f043 0380 	orr.w	r3, r3, #128	@ 0x80
 8007af8:	f825 3022 	strh.w	r3, [r5, r2, lsl #2]
 8007afc:	2000      	movs	r0, #0
 8007afe:	e224      	b.n	8007f4a <USB_EPStartXfer+0x530>
 8007b00:	6a23      	ldr	r3, [r4, #32]
 8007b02:	429a      	cmp	r2, r3
 8007b04:	f080 8166 	bcs.w	8007dd4 <USB_EPStartXfer+0x3ba>
 8007b08:	7822      	ldrb	r2, [r4, #0]
 8007b0a:	f835 3022 	ldrh.w	r3, [r5, r2, lsl #2]
 8007b0e:	b29b      	uxth	r3, r3
 8007b10:	f423 43e0 	bic.w	r3, r3, #28672	@ 0x7000
 8007b14:	f023 0370 	bic.w	r3, r3, #112	@ 0x70
 8007b18:	f443 4301 	orr.w	r3, r3, #33024	@ 0x8100
 8007b1c:	f043 0380 	orr.w	r3, r3, #128	@ 0x80
 8007b20:	f825 3022 	strh.w	r3, [r5, r2, lsl #2]
 8007b24:	6a23      	ldr	r3, [r4, #32]
 8007b26:	1b9b      	subs	r3, r3, r6
 8007b28:	6223      	str	r3, [r4, #32]
 8007b2a:	7823      	ldrb	r3, [r4, #0]
 8007b2c:	f835 2023 	ldrh.w	r2, [r5, r3, lsl #2]
 8007b30:	f012 0f40 	tst.w	r2, #64	@ 0x40
 8007b34:	f000 80a7 	beq.w	8007c86 <USB_EPStartXfer+0x26c>
 8007b38:	7862      	ldrb	r2, [r4, #1]
 8007b3a:	bbb2      	cbnz	r2, 8007baa <USB_EPStartXfer+0x190>
 8007b3c:	f8b5 2050 	ldrh.w	r2, [r5, #80]	@ 0x50
 8007b40:	fa15 f282 	uxtah	r2, r5, r2
 8007b44:	eb02 03c3 	add.w	r3, r2, r3, lsl #3
 8007b48:	f8b3 2406 	ldrh.w	r2, [r3, #1030]	@ 0x406
 8007b4c:	f3c2 0209 	ubfx	r2, r2, #0, #10
 8007b50:	f8a3 2406 	strh.w	r2, [r3, #1030]	@ 0x406
 8007b54:	b94e      	cbnz	r6, 8007b6a <USB_EPStartXfer+0x150>
 8007b56:	f8b3 2406 	ldrh.w	r2, [r3, #1030]	@ 0x406
 8007b5a:	ea6f 4242 	mvn.w	r2, r2, lsl #17
 8007b5e:	ea6f 4252 	mvn.w	r2, r2, lsr #17
 8007b62:	b292      	uxth	r2, r2
 8007b64:	f8a3 2406 	strh.w	r2, [r3, #1030]	@ 0x406
 8007b68:	e021      	b.n	8007bae <USB_EPStartXfer+0x194>
 8007b6a:	2e3e      	cmp	r6, #62	@ 0x3e
 8007b6c:	d80d      	bhi.n	8007b8a <USB_EPStartXfer+0x170>
 8007b6e:	0872      	lsrs	r2, r6, #1
 8007b70:	f016 0f01 	tst.w	r6, #1
 8007b74:	d000      	beq.n	8007b78 <USB_EPStartXfer+0x15e>
 8007b76:	3201      	adds	r2, #1
 8007b78:	f8b3 1406 	ldrh.w	r1, [r3, #1030]	@ 0x406
 8007b7c:	b289      	uxth	r1, r1
 8007b7e:	0292      	lsls	r2, r2, #10
 8007b80:	b292      	uxth	r2, r2
 8007b82:	430a      	orrs	r2, r1
 8007b84:	f8a3 2406 	strh.w	r2, [r3, #1030]	@ 0x406
 8007b88:	e011      	b.n	8007bae <USB_EPStartXfer+0x194>
 8007b8a:	0971      	lsrs	r1, r6, #5
 8007b8c:	f016 0f1f 	tst.w	r6, #31
 8007b90:	d100      	bne.n	8007b94 <USB_EPStartXfer+0x17a>
 8007b92:	3901      	subs	r1, #1
 8007b94:	f8b3 2406 	ldrh.w	r2, [r3, #1030]	@ 0x406
 8007b98:	b292      	uxth	r2, r2
 8007b9a:	0289      	lsls	r1, r1, #10
 8007b9c:	b289      	uxth	r1, r1
 8007b9e:	430a      	orrs	r2, r1
 8007ba0:	f442 4200 	orr.w	r2, r2, #32768	@ 0x8000
 8007ba4:	f8a3 2406 	strh.w	r2, [r3, #1030]	@ 0x406
 8007ba8:	e001      	b.n	8007bae <USB_EPStartXfer+0x194>
 8007baa:	2a01      	cmp	r2, #1
 8007bac:	d029      	beq.n	8007c02 <USB_EPStartXfer+0x1e8>
 8007bae:	b2b3      	uxth	r3, r6
 8007bb0:	8962      	ldrh	r2, [r4, #10]
 8007bb2:	6961      	ldr	r1, [r4, #20]
 8007bb4:	4628      	mov	r0, r5
 8007bb6:	f7ff ff1e 	bl	80079f6 <USB_WritePMA>
 8007bba:	6963      	ldr	r3, [r4, #20]
 8007bbc:	4433      	add	r3, r6
 8007bbe:	6163      	str	r3, [r4, #20]
 8007bc0:	6a23      	ldr	r3, [r4, #32]
 8007bc2:	6922      	ldr	r2, [r4, #16]
 8007bc4:	4293      	cmp	r3, r2
 8007bc6:	d926      	bls.n	8007c16 <USB_EPStartXfer+0x1fc>
 8007bc8:	1b9b      	subs	r3, r3, r6
 8007bca:	6223      	str	r3, [r4, #32]
 8007bcc:	7863      	ldrb	r3, [r4, #1]
 8007bce:	2b00      	cmp	r3, #0
 8007bd0:	d145      	bne.n	8007c5e <USB_EPStartXfer+0x244>
 8007bd2:	f8b5 3050 	ldrh.w	r3, [r5, #80]	@ 0x50
 8007bd6:	fa15 f383 	uxtah	r3, r5, r3
 8007bda:	7822      	ldrb	r2, [r4, #0]
 8007bdc:	eb03 03c2 	add.w	r3, r3, r2, lsl #3
 8007be0:	f8b3 2402 	ldrh.w	r2, [r3, #1026]	@ 0x402
 8007be4:	f3c2 0209 	ubfx	r2, r2, #0, #10
 8007be8:	f8a3 2402 	strh.w	r2, [r3, #1026]	@ 0x402
 8007bec:	b9be      	cbnz	r6, 8007c1e <USB_EPStartXfer+0x204>
 8007bee:	f8b3 2402 	ldrh.w	r2, [r3, #1026]	@ 0x402
 8007bf2:	ea6f 4242 	mvn.w	r2, r2, lsl #17
 8007bf6:	ea6f 4252 	mvn.w	r2, r2, lsr #17
 8007bfa:	b292      	uxth	r2, r2
 8007bfc:	f8a3 2402 	strh.w	r2, [r3, #1026]	@ 0x402
 8007c00:	e02f      	b.n	8007c62 <USB_EPStartXfer+0x248>
 8007c02:	f8b5 2050 	ldrh.w	r2, [r5, #80]	@ 0x50
 8007c06:	fa15 f282 	uxtah	r2, r5, r2
 8007c0a:	eb02 03c3 	add.w	r3, r2, r3, lsl #3
 8007c0e:	b2b2      	uxth	r2, r6
 8007c10:	f8a3 2406 	strh.w	r2, [r3, #1030]	@ 0x406
 8007c14:	e7cb      	b.n	8007bae <USB_EPStartXfer+0x194>
 8007c16:	2200      	movs	r2, #0
 8007c18:	6222      	str	r2, [r4, #32]
 8007c1a:	461e      	mov	r6, r3
 8007c1c:	e7d6      	b.n	8007bcc <USB_EPStartXfer+0x1b2>
 8007c1e:	2e3e      	cmp	r6, #62	@ 0x3e
 8007c20:	d80d      	bhi.n	8007c3e <USB_EPStartXfer+0x224>
 8007c22:	0872      	lsrs	r2, r6, #1
 8007c24:	f016 0f01 	tst.w	r6, #1
 8007c28:	d000      	beq.n	8007c2c <USB_EPStartXfer+0x212>
 8007c2a:	3201      	adds	r2, #1
 8007c2c:	f8b3 1402 	ldrh.w	r1, [r3, #1026]	@ 0x402
 8007c30:	b289      	uxth	r1, r1
 8007c32:	0292      	lsls	r2, r2, #10
 8007c34:	b292      	uxth	r2, r2
 8007c36:	430a      	orrs	r2, r1
 8007c38:	f8a3 2402 	strh.w	r2, [r3, #1026]	@ 0x402
 8007c3c:	e011      	b.n	8007c62 <USB_EPStartXfer+0x248>
 8007c3e:	0971      	lsrs	r1, r6, #5
 8007c40:	f016 0f1f 	tst.w	r6, #31
 8007c44:	d100      	bne.n	8007c48 <USB_EPStartXfer+0x22e>
 8007c46:	3901      	subs	r1, #1
 8007c48:	f8b3 2402 	ldrh.w	r2, [r3, #1026]	@ 0x402
 8007c4c:	b292      	uxth	r2, r2
 8007c4e:	0289      	lsls	r1, r1, #10
 8007c50:	b289      	uxth	r1, r1
 8007c52:	430a      	orrs	r2, r1
 8007c54:	f442 4200 	orr.w	r2, r2, #32768	@ 0x8000
 8007c58:	f8a3 2402 	strh.w	r2, [r3, #1026]	@ 0x402
 8007c5c:	e001      	b.n	8007c62 <USB_EPStartXfer+0x248>
 8007c5e:	2b01      	cmp	r3, #1
 8007c60:	d006      	beq.n	8007c70 <USB_EPStartXfer+0x256>
 8007c62:	b2b3      	uxth	r3, r6
 8007c64:	8922      	ldrh	r2, [r4, #8]
 8007c66:	6961      	ldr	r1, [r4, #20]
 8007c68:	4628      	mov	r0, r5
 8007c6a:	f7ff fec4 	bl	80079f6 <USB_WritePMA>
 8007c6e:	e735      	b.n	8007adc <USB_EPStartXfer+0xc2>
 8007c70:	f8b5 3050 	ldrh.w	r3, [r5, #80]	@ 0x50
 8007c74:	fa15 f383 	uxtah	r3, r5, r3
 8007c78:	7822      	ldrb	r2, [r4, #0]
 8007c7a:	eb03 03c2 	add.w	r3, r3, r2, lsl #3
 8007c7e:	b2b2      	uxth	r2, r6
 8007c80:	f8a3 2402 	strh.w	r2, [r3, #1026]	@ 0x402
 8007c84:	e7ed      	b.n	8007c62 <USB_EPStartXfer+0x248>
 8007c86:	7862      	ldrb	r2, [r4, #1]
 8007c88:	bbb2      	cbnz	r2, 8007cf8 <USB_EPStartXfer+0x2de>
 8007c8a:	f8b5 2050 	ldrh.w	r2, [r5, #80]	@ 0x50
 8007c8e:	fa15 f282 	uxtah	r2, r5, r2
 8007c92:	eb02 03c3 	add.w	r3, r2, r3, lsl #3
 8007c96:	f8b3 2402 	ldrh.w	r2, [r3, #1026]	@ 0x402
 8007c9a:	f3c2 0209 	ubfx	r2, r2, #0, #10
 8007c9e:	f8a3 2402 	strh.w	r2, [r3, #1026]	@ 0x402
 8007ca2:	b94e      	cbnz	r6, 8007cb8 <USB_EPStartXfer+0x29e>
 8007ca4:	f8b3 2402 	ldrh.w	r2, [r3, #1026]	@ 0x402
 8007ca8:	ea6f 4242 	mvn.w	r2, r2, lsl #17
 8007cac:	ea6f 4252 	mvn.w	r2, r2, lsr #17
 8007cb0:	b292      	uxth	r2, r2
 8007cb2:	f8a3 2402 	strh.w	r2, [r3, #1026]	@ 0x402
 8007cb6:	e021      	b.n	8007cfc <USB_EPStartXfer+0x2e2>
 8007cb8:	2e3e      	cmp	r6, #62	@ 0x3e
 8007cba:	d80d      	bhi.n	8007cd8 <USB_EPStartXfer+0x2be>
 8007cbc:	0872      	lsrs	r2, r6, #1
 8007cbe:	f016 0f01 	tst.w	r6, #1
 8007cc2:	d000      	beq.n	8007cc6 <USB_EPStartXfer+0x2ac>
 8007cc4:	3201      	adds	r2, #1
 8007cc6:	f8b3 1402 	ldrh.w	r1, [r3, #1026]	@ 0x402
 8007cca:	b289      	uxth	r1, r1
 8007ccc:	0292      	lsls	r2, r2, #10
 8007cce:	b292      	uxth	r2, r2
 8007cd0:	430a      	orrs	r2, r1
 8007cd2:	f8a3 2402 	strh.w	r2, [r3, #1026]	@ 0x402
 8007cd6:	e011      	b.n	8007cfc <USB_EPStartXfer+0x2e2>
 8007cd8:	0971      	lsrs	r1, r6, #5
 8007cda:	f016 0f1f 	tst.w	r6, #31
 8007cde:	d100      	bne.n	8007ce2 <USB_EPStartXfer+0x2c8>
 8007ce0:	3901      	subs	r1, #1
 8007ce2:	f8b3 2402 	ldrh.w	r2, [r3, #1026]	@ 0x402
 8007ce6:	b292      	uxth	r2, r2
 8007ce8:	0289      	lsls	r1, r1, #10
 8007cea:	b289      	uxth	r1, r1
 8007cec:	430a      	orrs	r2, r1
 8007cee:	f442 4200 	orr.w	r2, r2, #32768	@ 0x8000
 8007cf2:	f8a3 2402 	strh.w	r2, [r3, #1026]	@ 0x402
 8007cf6:	e001      	b.n	8007cfc <USB_EPStartXfer+0x2e2>
 8007cf8:	2a01      	cmp	r2, #1
 8007cfa:	d029      	beq.n	8007d50 <USB_EPStartXfer+0x336>
 8007cfc:	b2b3      	uxth	r3, r6
 8007cfe:	8922      	ldrh	r2, [r4, #8]
 8007d00:	6961      	ldr	r1, [r4, #20]
 8007d02:	4628      	mov	r0, r5
 8007d04:	f7ff fe77 	bl	80079f6 <USB_WritePMA>
 8007d08:	6963      	ldr	r3, [r4, #20]
 8007d0a:	4433      	add	r3, r6
 8007d0c:	6163      	str	r3, [r4, #20]
 8007d0e:	6a23      	ldr	r3, [r4, #32]
 8007d10:	6922      	ldr	r2, [r4, #16]
 8007d12:	4293      	cmp	r3, r2
 8007d14:	d926      	bls.n	8007d64 <USB_EPStartXfer+0x34a>
 8007d16:	1b9b      	subs	r3, r3, r6
 8007d18:	6223      	str	r3, [r4, #32]
 8007d1a:	7863      	ldrb	r3, [r4, #1]
 8007d1c:	2b00      	cmp	r3, #0
 8007d1e:	d145      	bne.n	8007dac <USB_EPStartXfer+0x392>
 8007d20:	f8b5 3050 	ldrh.w	r3, [r5, #80]	@ 0x50
 8007d24:	fa15 f383 	uxtah	r3, r5, r3
 8007d28:	7822      	ldrb	r2, [r4, #0]
 8007d2a:	eb03 03c2 	add.w	r3, r3, r2, lsl #3
 8007d2e:	f8b3 2406 	ldrh.w	r2, [r3, #1030]	@ 0x406
 8007d32:	f3c2 0209 	ubfx	r2, r2, #0, #10
 8007d36:	f8a3 2406 	strh.w	r2, [r3, #1030]	@ 0x406
 8007d3a:	b9be      	cbnz	r6, 8007d6c <USB_EPStartXfer+0x352>
 8007d3c:	f8b3 2406 	ldrh.w	r2, [r3, #1030]	@ 0x406
 8007d40:	ea6f 4242 	mvn.w	r2, r2, lsl #17
 8007d44:	ea6f 4252 	mvn.w	r2, r2, lsr #17
 8007d48:	b292      	uxth	r2, r2
 8007d4a:	f8a3 2406 	strh.w	r2, [r3, #1030]	@ 0x406
 8007d4e:	e02f      	b.n	8007db0 <USB_EPStartXfer+0x396>
 8007d50:	f8b5 2050 	ldrh.w	r2, [r5, #80]	@ 0x50
 8007d54:	fa15 f282 	uxtah	r2, r5, r2
 8007d58:	eb02 03c3 	add.w	r3, r2, r3, lsl #3
 8007d5c:	b2b2      	uxth	r2, r6
 8007d5e:	f8a3 2402 	strh.w	r2, [r3, #1026]	@ 0x402
 8007d62:	e7cb      	b.n	8007cfc <USB_EPStartXfer+0x2e2>
 8007d64:	2200      	movs	r2, #0
 8007d66:	6222      	str	r2, [r4, #32]
 8007d68:	461e      	mov	r6, r3
 8007d6a:	e7d6      	b.n	8007d1a <USB_EPStartXfer+0x300>
 8007d6c:	2e3e      	cmp	r6, #62	@ 0x3e
 8007d6e:	d80d      	bhi.n	8007d8c <USB_EPStartXfer+0x372>
 8007d70:	0872      	lsrs	r2, r6, #1
 8007d72:	f016 0f01 	tst.w	r6, #1
 8007d76:	d000      	beq.n	8007d7a <USB_EPStartXfer+0x360>
 8007d78:	3201      	adds	r2, #1
 8007d7a:	f8b3 1406 	ldrh.w	r1, [r3, #1030]	@ 0x406
 8007d7e:	b289      	uxth	r1, r1
 8007d80:	0292      	lsls	r2, r2, #10
 8007d82:	b292      	uxth	r2, r2
 8007d84:	430a      	orrs	r2, r1
 8007d86:	f8a3 2406 	strh.w	r2, [r3, #1030]	@ 0x406
 8007d8a:	e011      	b.n	8007db0 <USB_EPStartXfer+0x396>
 8007d8c:	0971      	lsrs	r1, r6, #5
 8007d8e:	f016 0f1f 	tst.w	r6, #31
 8007d92:	d100      	bne.n	8007d96 <USB_EPStartXfer+0x37c>
 8007d94:	3901      	subs	r1, #1
 8007d96:	f8b3 2406 	ldrh.w	r2, [r3, #1030]	@ 0x406
 8007d9a:	b292      	uxth	r2, r2
 8007d9c:	0289      	lsls	r1, r1, #10
 8007d9e:	b289      	uxth	r1, r1
 8007da0:	430a      	orrs	r2, r1
 8007da2:	f442 4200 	orr.w	r2, r2, #32768	@ 0x8000
 8007da6:	f8a3 2406 	strh.w	r2, [r3, #1030]	@ 0x406
 8007daa:	e001      	b.n	8007db0 <USB_EPStartXfer+0x396>
 8007dac:	2b01      	cmp	r3, #1
 8007dae:	d006      	beq.n	8007dbe <USB_EPStartXfer+0x3a4>
 8007db0:	b2b3      	uxth	r3, r6
 8007db2:	8962      	ldrh	r2, [r4, #10]
 8007db4:	6961      	ldr	r1, [r4, #20]
 8007db6:	4628      	mov	r0, r5
 8007db8:	f7ff fe1d 	bl	80079f6 <USB_WritePMA>
 8007dbc:	e68e      	b.n	8007adc <USB_EPStartXfer+0xc2>
 8007dbe:	f8b5 3050 	ldrh.w	r3, [r5, #80]	@ 0x50
 8007dc2:	fa15 f383 	uxtah	r3, r5, r3
 8007dc6:	7822      	ldrb	r2, [r4, #0]
 8007dc8:	eb03 03c2 	add.w	r3, r3, r2, lsl #3
 8007dcc:	b2b2      	uxth	r2, r6
 8007dce:	f8a3 2406 	strh.w	r2, [r3, #1030]	@ 0x406
 8007dd2:	e7ed      	b.n	8007db0 <USB_EPStartXfer+0x396>
 8007dd4:	7821      	ldrb	r1, [r4, #0]
 8007dd6:	f835 2021 	ldrh.w	r2, [r5, r1, lsl #2]
 8007dda:	b292      	uxth	r2, r2
 8007ddc:	f422 42e2 	bic.w	r2, r2, #28928	@ 0x7100
 8007de0:	f022 0270 	bic.w	r2, r2, #112	@ 0x70
 8007de4:	f442 4200 	orr.w	r2, r2, #32768	@ 0x8000
 8007de8:	f042 0280 	orr.w	r2, r2, #128	@ 0x80
 8007dec:	f825 2021 	strh.w	r2, [r5, r1, lsl #2]
 8007df0:	f8b5 2050 	ldrh.w	r2, [r5, #80]	@ 0x50
 8007df4:	fa15 f282 	uxtah	r2, r5, r2
 8007df8:	7821      	ldrb	r1, [r4, #0]
 8007dfa:	eb02 02c1 	add.w	r2, r2, r1, lsl #3
 8007dfe:	b29b      	uxth	r3, r3
 8007e00:	f8a2 3402 	strh.w	r3, [r2, #1026]	@ 0x402
 8007e04:	8922      	ldrh	r2, [r4, #8]
 8007e06:	6961      	ldr	r1, [r4, #20]
 8007e08:	4628      	mov	r0, r5
 8007e0a:	f7ff fdf4 	bl	80079f6 <USB_WritePMA>
 8007e0e:	e665      	b.n	8007adc <USB_EPStartXfer+0xc2>
 8007e10:	2e3e      	cmp	r6, #62	@ 0x3e
 8007e12:	d80d      	bhi.n	8007e30 <USB_EPStartXfer+0x416>
 8007e14:	0873      	lsrs	r3, r6, #1
 8007e16:	f016 0f01 	tst.w	r6, #1
 8007e1a:	d000      	beq.n	8007e1e <USB_EPStartXfer+0x404>
 8007e1c:	3301      	adds	r3, #1
 8007e1e:	f8b2 1406 	ldrh.w	r1, [r2, #1030]	@ 0x406
 8007e22:	b289      	uxth	r1, r1
 8007e24:	029b      	lsls	r3, r3, #10
 8007e26:	b29b      	uxth	r3, r3
 8007e28:	430b      	orrs	r3, r1
 8007e2a:	f8a2 3406 	strh.w	r3, [r2, #1030]	@ 0x406
 8007e2e:	e018      	b.n	8007e62 <USB_EPStartXfer+0x448>
 8007e30:	0971      	lsrs	r1, r6, #5
 8007e32:	f016 0f1f 	tst.w	r6, #31
 8007e36:	d100      	bne.n	8007e3a <USB_EPStartXfer+0x420>
 8007e38:	3901      	subs	r1, #1
 8007e3a:	f8b2 3406 	ldrh.w	r3, [r2, #1030]	@ 0x406
 8007e3e:	b29b      	uxth	r3, r3
 8007e40:	0289      	lsls	r1, r1, #10
 8007e42:	b289      	uxth	r1, r1
 8007e44:	430b      	orrs	r3, r1
 8007e46:	f443 4300 	orr.w	r3, r3, #32768	@ 0x8000
 8007e4a:	f8a2 3406 	strh.w	r3, [r2, #1030]	@ 0x406
 8007e4e:	e008      	b.n	8007e62 <USB_EPStartXfer+0x448>
 8007e50:	f8b5 3050 	ldrh.w	r3, [r5, #80]	@ 0x50
 8007e54:	fa15 f383 	uxtah	r3, r5, r3
 8007e58:	eb03 03c2 	add.w	r3, r3, r2, lsl #3
 8007e5c:	b2b2      	uxth	r2, r6
 8007e5e:	f8a3 2406 	strh.w	r2, [r3, #1030]	@ 0x406
 8007e62:	b2b3      	uxth	r3, r6
 8007e64:	8962      	ldrh	r2, [r4, #10]
 8007e66:	6961      	ldr	r1, [r4, #20]
 8007e68:	4628      	mov	r0, r5
 8007e6a:	f7ff fdc4 	bl	80079f6 <USB_WritePMA>
 8007e6e:	e635      	b.n	8007adc <USB_EPStartXfer+0xc2>
 8007e70:	bbb3      	cbnz	r3, 8007ee0 <USB_EPStartXfer+0x4c6>
 8007e72:	f8b5 3050 	ldrh.w	r3, [r5, #80]	@ 0x50
 8007e76:	fa15 f383 	uxtah	r3, r5, r3
 8007e7a:	eb03 02c2 	add.w	r2, r3, r2, lsl #3
 8007e7e:	f8b2 3402 	ldrh.w	r3, [r2, #1026]	@ 0x402
 8007e82:	f3c3 0309 	ubfx	r3, r3, #0, #10
 8007e86:	f8a2 3402 	strh.w	r3, [r2, #1026]	@ 0x402
 8007e8a:	b94e      	cbnz	r6, 8007ea0 <USB_EPStartXfer+0x486>
 8007e8c:	f8b2 3402 	ldrh.w	r3, [r2, #1026]	@ 0x402
 8007e90:	ea6f 4343 	mvn.w	r3, r3, lsl #17
 8007e94:	ea6f 4353 	mvn.w	r3, r3, lsr #17
 8007e98:	b29b      	uxth	r3, r3
 8007e9a:	f8a2 3402 	strh.w	r3, [r2, #1026]	@ 0x402
 8007e9e:	e028      	b.n	8007ef2 <USB_EPStartXfer+0x4d8>
 8007ea0:	2e3e      	cmp	r6, #62	@ 0x3e
 8007ea2:	d80d      	bhi.n	8007ec0 <USB_EPStartXfer+0x4a6>
 8007ea4:	0873      	lsrs	r3, r6, #1
 8007ea6:	f016 0f01 	tst.w	r6, #1
 8007eaa:	d000      	beq.n	8007eae <USB_EPStartXfer+0x494>
 8007eac:	3301      	adds	r3, #1
 8007eae:	f8b2 1402 	ldrh.w	r1, [r2, #1026]	@ 0x402
 8007eb2:	b289      	uxth	r1, r1
 8007eb4:	029b      	lsls	r3, r3, #10
 8007eb6:	b29b      	uxth	r3, r3
 8007eb8:	430b      	orrs	r3, r1
 8007eba:	f8a2 3402 	strh.w	r3, [r2, #1026]	@ 0x402
 8007ebe:	e018      	b.n	8007ef2 <USB_EPStartXfer+0x4d8>
 8007ec0:	0971      	lsrs	r1, r6, #5
 8007ec2:	f016 0f1f 	tst.w	r6, #31
 8007ec6:	d100      	bne.n	8007eca <USB_EPStartXfer+0x4b0>
 8007ec8:	3901      	subs	r1, #1
 8007eca:	f8b2 3402 	ldrh.w	r3, [r2, #1026]	@ 0x402
 8007ece:	b29b      	uxth	r3, r3
 8007ed0:	0289      	lsls	r1, r1, #10
 8007ed2:	b289      	uxth	r1, r1
 8007ed4:	430b      	orrs	r3, r1
 8007ed6:	f443 4300 	orr.w	r3, r3, #32768	@ 0x8000
 8007eda:	f8a2 3402 	strh.w	r3, [r2, #1026]	@ 0x402
 8007ede:	e008      	b.n	8007ef2 <USB_EPStartXfer+0x4d8>
 8007ee0:	f8b5 3050 	ldrh.w	r3, [r5, #80]	@ 0x50
 8007ee4:	fa15 f383 	uxtah	r3, r5, r3
 8007ee8:	eb03 03c2 	add.w	r3, r3, r2, lsl #3
 8007eec:	b2b2      	uxth	r2, r6
 8007eee:	f8a3 2402 	strh.w	r2, [r3, #1026]	@ 0x402
 8007ef2:	b2b3      	uxth	r3, r6
 8007ef4:	8922      	ldrh	r2, [r4, #8]
 8007ef6:	6961      	ldr	r1, [r4, #20]
 8007ef8:	4628      	mov	r0, r5
 8007efa:	f7ff fd7c 	bl	80079f6 <USB_WritePMA>
 8007efe:	e5ed      	b.n	8007adc <USB_EPStartXfer+0xc2>
 8007f00:	7822      	ldrb	r2, [r4, #0]
 8007f02:	f835 3022 	ldrh.w	r3, [r5, r2, lsl #2]
 8007f06:	b29b      	uxth	r3, r3
 8007f08:	f423 43e2 	bic.w	r3, r3, #28928	@ 0x7100
 8007f0c:	f023 0370 	bic.w	r3, r3, #112	@ 0x70
 8007f10:	f443 4300 	orr.w	r3, r3, #32768	@ 0x8000
 8007f14:	f043 0380 	orr.w	r3, r3, #128	@ 0x80
 8007f18:	f825 3022 	strh.w	r3, [r5, r2, lsl #2]
 8007f1c:	69a3      	ldr	r3, [r4, #24]
 8007f1e:	6922      	ldr	r2, [r4, #16]
 8007f20:	4293      	cmp	r3, r2
 8007f22:	d913      	bls.n	8007f4c <USB_EPStartXfer+0x532>
 8007f24:	1a9b      	subs	r3, r3, r2
 8007f26:	61a3      	str	r3, [r4, #24]
 8007f28:	7822      	ldrb	r2, [r4, #0]
 8007f2a:	f835 3022 	ldrh.w	r3, [r5, r2, lsl #2]
 8007f2e:	b29b      	uxth	r3, r3
 8007f30:	f423 4380 	bic.w	r3, r3, #16384	@ 0x4000
 8007f34:	f023 0370 	bic.w	r3, r3, #112	@ 0x70
 8007f38:	f483 5340 	eor.w	r3, r3, #12288	@ 0x3000
 8007f3c:	f443 4300 	orr.w	r3, r3, #32768	@ 0x8000
 8007f40:	f043 0380 	orr.w	r3, r3, #128	@ 0x80
 8007f44:	f825 3022 	strh.w	r3, [r5, r2, lsl #2]
 8007f48:	2000      	movs	r0, #0
 8007f4a:	bd70      	pop	{r4, r5, r6, pc}
 8007f4c:	2300      	movs	r3, #0
 8007f4e:	61a3      	str	r3, [r4, #24]
 8007f50:	e7ea      	b.n	8007f28 <USB_EPStartXfer+0x50e>
 8007f52:	78cb      	ldrb	r3, [r1, #3]
 8007f54:	2b02      	cmp	r3, #2
 8007f56:	d004      	beq.n	8007f62 <USB_EPStartXfer+0x548>
 8007f58:	2b01      	cmp	r3, #1
 8007f5a:	d121      	bne.n	8007fa0 <USB_EPStartXfer+0x586>
 8007f5c:	2300      	movs	r3, #0
 8007f5e:	618b      	str	r3, [r1, #24]
 8007f60:	e7e2      	b.n	8007f28 <USB_EPStartXfer+0x50e>
 8007f62:	69cb      	ldr	r3, [r1, #28]
 8007f64:	2b00      	cmp	r3, #0
 8007f66:	d0df      	beq.n	8007f28 <USB_EPStartXfer+0x50e>
 8007f68:	780a      	ldrb	r2, [r1, #0]
 8007f6a:	f830 3022 	ldrh.w	r3, [r0, r2, lsl #2]
 8007f6e:	b299      	uxth	r1, r3
 8007f70:	f413 4f80 	tst.w	r3, #16384	@ 0x4000
 8007f74:	d010      	beq.n	8007f98 <USB_EPStartXfer+0x57e>
 8007f76:	f011 0f40 	tst.w	r1, #64	@ 0x40
 8007f7a:	d0d5      	beq.n	8007f28 <USB_EPStartXfer+0x50e>
 8007f7c:	f835 3022 	ldrh.w	r3, [r5, r2, lsl #2]
 8007f80:	b29b      	uxth	r3, r3
 8007f82:	f423 43e0 	bic.w	r3, r3, #28672	@ 0x7000
 8007f86:	f023 0370 	bic.w	r3, r3, #112	@ 0x70
 8007f8a:	f443 4300 	orr.w	r3, r3, #32768	@ 0x8000
 8007f8e:	f043 03c0 	orr.w	r3, r3, #192	@ 0xc0
 8007f92:	f825 3022 	strh.w	r3, [r5, r2, lsl #2]
 8007f96:	e7c7      	b.n	8007f28 <USB_EPStartXfer+0x50e>
 8007f98:	f011 0f40 	tst.w	r1, #64	@ 0x40
 8007f9c:	d1c4      	bne.n	8007f28 <USB_EPStartXfer+0x50e>
 8007f9e:	e7ed      	b.n	8007f7c <USB_EPStartXfer+0x562>
 8007fa0:	2001      	movs	r0, #1
 8007fa2:	e7d2      	b.n	8007f4a <USB_EPStartXfer+0x530>

08007fa4 <USB_ReadPMA>:
 8007fa4:	b410      	push	{r4}
 8007fa6:	085c      	lsrs	r4, r3, #1
 8007fa8:	4402      	add	r2, r0
 8007faa:	f502 6280 	add.w	r2, r2, #1024	@ 0x400
 8007fae:	e007      	b.n	8007fc0 <USB_ReadPMA+0x1c>
 8007fb0:	f832 0b02 	ldrh.w	r0, [r2], #2
 8007fb4:	7008      	strb	r0, [r1, #0]
 8007fb6:	f3c0 2007 	ubfx	r0, r0, #8, #8
 8007fba:	7048      	strb	r0, [r1, #1]
 8007fbc:	3102      	adds	r1, #2
 8007fbe:	3c01      	subs	r4, #1
 8007fc0:	2c00      	cmp	r4, #0
 8007fc2:	d1f5      	bne.n	8007fb0 <USB_ReadPMA+0xc>
 8007fc4:	f013 0f01 	tst.w	r3, #1
 8007fc8:	d001      	beq.n	8007fce <USB_ReadPMA+0x2a>
 8007fca:	8813      	ldrh	r3, [r2, #0]
 8007fcc:	700b      	strb	r3, [r1, #0]
 8007fce:	f85d 4b04 	ldr.w	r4, [sp], #4
 8007fd2:	4770      	bx	lr

08007fd4 <_sbrk>:
 8007fd4:	b510      	push	{r4, lr}
 8007fd6:	4603      	mov	r3, r0
 8007fd8:	4a0c      	ldr	r2, [pc, #48]	@ (800800c <_sbrk+0x38>)
 8007fda:	490d      	ldr	r1, [pc, #52]	@ (8008010 <_sbrk+0x3c>)
 8007fdc:	480d      	ldr	r0, [pc, #52]	@ (8008014 <_sbrk+0x40>)
 8007fde:	6800      	ldr	r0, [r0, #0]
 8007fe0:	b140      	cbz	r0, 8007ff4 <_sbrk+0x20>
 8007fe2:	480c      	ldr	r0, [pc, #48]	@ (8008014 <_sbrk+0x40>)
 8007fe4:	6800      	ldr	r0, [r0, #0]
 8007fe6:	4403      	add	r3, r0
 8007fe8:	1a52      	subs	r2, r2, r1
 8007fea:	4293      	cmp	r3, r2
 8007fec:	d806      	bhi.n	8007ffc <_sbrk+0x28>
 8007fee:	4a09      	ldr	r2, [pc, #36]	@ (8008014 <_sbrk+0x40>)
 8007ff0:	6013      	str	r3, [r2, #0]
 8007ff2:	bd10      	pop	{r4, pc}
 8007ff4:	4807      	ldr	r0, [pc, #28]	@ (8008014 <_sbrk+0x40>)
 8007ff6:	4c08      	ldr	r4, [pc, #32]	@ (8008018 <_sbrk+0x44>)
 8007ff8:	6004      	str	r4, [r0, #0]
 8007ffa:	e7f2      	b.n	8007fe2 <_sbrk+0xe>
 8007ffc:	f002 f8ea 	bl	800a1d4 <__errno>
 8008000:	230c      	movs	r3, #12
 8008002:	6003      	str	r3, [r0, #0]
 8008004:	f04f 30ff 	mov.w	r0, #4294967295
 8008008:	e7f3      	b.n	8007ff2 <_sbrk+0x1e>
 800800a:	bf00      	nop
 800800c:	20008000 	.word	0x20008000
 8008010:	00000600 	.word	0x00000600
 8008014:	20000504 	.word	0x20000504
 8008018:	20001858 	.word	0x20001858

0800801c <SystemInit>:
 800801c:	4a03      	ldr	r2, [pc, #12]	@ (800802c <SystemInit+0x10>)
 800801e:	f8d2 3088 	ldr.w	r3, [r2, #136]	@ 0x88
 8008022:	f443 0370 	orr.w	r3, r3, #15728640	@ 0xf00000
 8008026:	f8c2 3088 	str.w	r3, [r2, #136]	@ 0x88
 800802a:	4770      	bx	lr
 800802c:	e000ed00 	.word	0xe000ed00

08008030 <MX_USB_DEVICE_IsConnected>:
 8008030:	4b03      	ldr	r3, [pc, #12]	@ (8008040 <MX_USB_DEVICE_IsConnected+0x10>)
 8008032:	f893 029c 	ldrb.w	r0, [r3, #668]	@ 0x29c
 8008036:	2803      	cmp	r0, #3
 8008038:	bf14      	ite	ne
 800803a:	2000      	movne	r0, #0
 800803c:	2001      	moveq	r0, #1
 800803e:	4770      	bx	lr
 8008040:	20000508 	.word	0x20000508

08008044 <MX_USB_DEVICE_Init>:
 8008044:	b508      	push	{r3, lr}
 8008046:	2200      	movs	r2, #0
 8008048:	490f      	ldr	r1, [pc, #60]	@ (8008088 <MX_USB_DEVICE_Init+0x44>)
 800804a:	4810      	ldr	r0, [pc, #64]	@ (800808c <MX_USB_DEVICE_Init+0x48>)
 800804c:	f000 fc9d 	bl	800898a <USBD_Init>
 8008050:	b970      	cbnz	r0, 8008070 <MX_USB_DEVICE_Init+0x2c>
 8008052:	490f      	ldr	r1, [pc, #60]	@ (8008090 <MX_USB_DEVICE_Init+0x4c>)
 8008054:	480d      	ldr	r0, [pc, #52]	@ (800808c <MX_USB_DEVICE_Init+0x48>)
 8008056:	f000 fcaf 	bl	80089b8 <USBD_RegisterClass>
 800805a:	b960      	cbnz	r0, 8008076 <MX_USB_DEVICE_Init+0x32>
 800805c:	490d      	ldr	r1, [pc, #52]	@ (8008094 <MX_USB_DEVICE_Init+0x50>)
 800805e:	480b      	ldr	r0, [pc, #44]	@ (800808c <MX_USB_DEVICE_Init+0x48>)
 8008060:	f000 fa39 	bl	80084d6 <USBD_CDC_RegisterInterface>
 8008064:	b950      	cbnz	r0, 800807c <MX_USB_DEVICE_Init+0x38>
 8008066:	4809      	ldr	r0, [pc, #36]	@ (800808c <MX_USB_DEVICE_Init+0x48>)
 8008068:	f000 fcc6 	bl	80089f8 <USBD_Start>
 800806c:	b948      	cbnz	r0, 8008082 <MX_USB_DEVICE_Init+0x3e>
 800806e:	bd08      	pop	{r3, pc}
 8008070:	f7fa f91c 	bl	80022ac <Error_Handler>
 8008074:	e7ed      	b.n	8008052 <MX_USB_DEVICE_Init+0xe>
 8008076:	f7fa f919 	bl	80022ac <Error_Handler>
 800807a:	e7ef      	b.n	800805c <MX_USB_DEVICE_Init+0x18>
 800807c:	f7fa f916 	bl	80022ac <Error_Handler>
 8008080:	e7f1      	b.n	8008066 <MX_USB_DEVICE_Init+0x22>
 8008082:	f7fa f913 	bl	80022ac <Error_Handler>
 8008086:	e7f2      	b.n	800806e <MX_USB_DEVICE_Init+0x2a>
 8008088:	200001a4 	.word	0x200001a4
 800808c:	20000508 	.word	0x20000508
 8008090:	2000010c 	.word	0x2000010c
 8008094:	20000150 	.word	0x20000150

08008098 <USBD_CDC_EP0_RxReady>:
 8008098:	b510      	push	{r4, lr}
 800809a:	f8d0 32d4 	ldr.w	r3, [r0, #724]	@ 0x2d4
 800809e:	f103 02b0 	add.w	r2, r3, #176	@ 0xb0
 80080a2:	f850 4022 	ldr.w	r4, [r0, r2, lsl #2]
 80080a6:	b18c      	cbz	r4, 80080cc <USBD_CDC_EP0_RxReady+0x34>
 80080a8:	eb00 0082 	add.w	r0, r0, r2, lsl #2
 80080ac:	6843      	ldr	r3, [r0, #4]
 80080ae:	b17b      	cbz	r3, 80080d0 <USBD_CDC_EP0_RxReady+0x38>
 80080b0:	f894 0200 	ldrb.w	r0, [r4, #512]	@ 0x200
 80080b4:	28ff      	cmp	r0, #255	@ 0xff
 80080b6:	d00d      	beq.n	80080d4 <USBD_CDC_EP0_RxReady+0x3c>
 80080b8:	689b      	ldr	r3, [r3, #8]
 80080ba:	f894 2201 	ldrb.w	r2, [r4, #513]	@ 0x201
 80080be:	4621      	mov	r1, r4
 80080c0:	4798      	blx	r3
 80080c2:	23ff      	movs	r3, #255	@ 0xff
 80080c4:	f884 3200 	strb.w	r3, [r4, #512]	@ 0x200
 80080c8:	2000      	movs	r0, #0
 80080ca:	bd10      	pop	{r4, pc}
 80080cc:	2003      	movs	r0, #3
 80080ce:	e7fc      	b.n	80080ca <USBD_CDC_EP0_RxReady+0x32>
 80080d0:	2000      	movs	r0, #0
 80080d2:	e7fa      	b.n	80080ca <USBD_CDC_EP0_RxReady+0x32>
 80080d4:	2000      	movs	r0, #0
 80080d6:	e7f8      	b.n	80080ca <USBD_CDC_EP0_RxReady+0x32>

080080d8 <USBD_CDC_GetDeviceQualifierDescriptor>:
 80080d8:	230a      	movs	r3, #10
 80080da:	8003      	strh	r3, [r0, #0]
 80080dc:	4800      	ldr	r0, [pc, #0]	@ (80080e0 <USBD_CDC_GetDeviceQualifierDescriptor+0x8>)
 80080de:	4770      	bx	lr
 80080e0:	20000144 	.word	0x20000144

080080e4 <USBD_CDC_GetOtherSpeedCfgDesc>:
 80080e4:	b5f8      	push	{r3, r4, r5, r6, r7, lr}
 80080e6:	4606      	mov	r6, r0
 80080e8:	4f0f      	ldr	r7, [pc, #60]	@ (8008128 <USBD_CDC_GetOtherSpeedCfgDesc+0x44>)
 80080ea:	2182      	movs	r1, #130	@ 0x82
 80080ec:	4638      	mov	r0, r7
 80080ee:	f000 fdf8 	bl	8008ce2 <USBD_GetEpDesc>
 80080f2:	4605      	mov	r5, r0
 80080f4:	2101      	movs	r1, #1
 80080f6:	4638      	mov	r0, r7
 80080f8:	f000 fdf3 	bl	8008ce2 <USBD_GetEpDesc>
 80080fc:	4604      	mov	r4, r0
 80080fe:	2181      	movs	r1, #129	@ 0x81
 8008100:	4638      	mov	r0, r7
 8008102:	f000 fdee 	bl	8008ce2 <USBD_GetEpDesc>
 8008106:	b10d      	cbz	r5, 800810c <USBD_CDC_GetOtherSpeedCfgDesc+0x28>
 8008108:	2210      	movs	r2, #16
 800810a:	71aa      	strb	r2, [r5, #6]
 800810c:	b11c      	cbz	r4, 8008116 <USBD_CDC_GetOtherSpeedCfgDesc+0x32>
 800810e:	2240      	movs	r2, #64	@ 0x40
 8008110:	7122      	strb	r2, [r4, #4]
 8008112:	2200      	movs	r2, #0
 8008114:	7162      	strb	r2, [r4, #5]
 8008116:	b118      	cbz	r0, 8008120 <USBD_CDC_GetOtherSpeedCfgDesc+0x3c>
 8008118:	2240      	movs	r2, #64	@ 0x40
 800811a:	7102      	strb	r2, [r0, #4]
 800811c:	2200      	movs	r2, #0
 800811e:	7142      	strb	r2, [r0, #5]
 8008120:	2343      	movs	r3, #67	@ 0x43
 8008122:	8033      	strh	r3, [r6, #0]
 8008124:	4800      	ldr	r0, [pc, #0]	@ (8008128 <USBD_CDC_GetOtherSpeedCfgDesc+0x44>)
 8008126:	bdf8      	pop	{r3, r4, r5, r6, r7, pc}
 8008128:	200000c8 	.word	0x200000c8

0800812c <USBD_CDC_GetFSCfgDesc>:
 800812c:	b5f8      	push	{r3, r4, r5, r6, r7, lr}
 800812e:	4606      	mov	r6, r0
 8008130:	4f0f      	ldr	r7, [pc, #60]	@ (8008170 <USBD_CDC_GetFSCfgDesc+0x44>)
 8008132:	2182      	movs	r1, #130	@ 0x82
 8008134:	4638      	mov	r0, r7
 8008136:	f000 fdd4 	bl	8008ce2 <USBD_GetEpDesc>
 800813a:	4605      	mov	r5, r0
 800813c:	2101      	movs	r1, #1
 800813e:	4638      	mov	r0, r7
 8008140:	f000 fdcf 	bl	8008ce2 <USBD_GetEpDesc>
 8008144:	4604      	mov	r4, r0
 8008146:	2181      	movs	r1, #129	@ 0x81
 8008148:	4638      	mov	r0, r7
 800814a:	f000 fdca 	bl	8008ce2 <USBD_GetEpDesc>
 800814e:	b10d      	cbz	r5, 8008154 <USBD_CDC_GetFSCfgDesc+0x28>
 8008150:	2210      	movs	r2, #16
 8008152:	71aa      	strb	r2, [r5, #6]
 8008154:	b11c      	cbz	r4, 800815e <USBD_CDC_GetFSCfgDesc+0x32>
 8008156:	2240      	movs	r2, #64	@ 0x40
 8008158:	7122      	strb	r2, [r4, #4]
 800815a:	2200      	movs	r2, #0
 800815c:	7162      	strb	r2, [r4, #5]
 800815e:	b118      	cbz	r0, 8008168 <USBD_CDC_GetFSCfgDesc+0x3c>
 8008160:	2240      	movs	r2, #64	@ 0x40
 8008162:	7102      	strb	r2, [r0, #4]
 8008164:	2200      	movs	r2, #0
 8008166:	7142      	strb	r2, [r0, #5]
 8008168:	2343      	movs	r3, #67	@ 0x43
 800816a:	8033      	strh	r3, [r6, #0]
 800816c:	4800      	ldr	r0, [pc, #0]	@ (8008170 <USBD_CDC_GetFSCfgDesc+0x44>)
 800816e:	bdf8      	pop	{r3, r4, r5, r6, r7, pc}
 8008170:	200000c8 	.word	0x200000c8

08008174 <USBD_CDC_GetHSCfgDesc>:
 8008174:	b5f8      	push	{r3, r4, r5, r6, r7, lr}
 8008176:	4606      	mov	r6, r0
 8008178:	4f0f      	ldr	r7, [pc, #60]	@ (80081b8 <USBD_CDC_GetHSCfgDesc+0x44>)
 800817a:	2182      	movs	r1, #130	@ 0x82
 800817c:	4638      	mov	r0, r7
 800817e:	f000 fdb0 	bl	8008ce2 <USBD_GetEpDesc>
 8008182:	4605      	mov	r5, r0
 8008184:	2101      	movs	r1, #1
 8008186:	4638      	mov	r0, r7
 8008188:	f000 fdab 	bl	8008ce2 <USBD_GetEpDesc>
 800818c:	4604      	mov	r4, r0
 800818e:	2181      	movs	r1, #129	@ 0x81
 8008190:	4638      	mov	r0, r7
 8008192:	f000 fda6 	bl	8008ce2 <USBD_GetEpDesc>
 8008196:	b10d      	cbz	r5, 800819c <USBD_CDC_GetHSCfgDesc+0x28>
 8008198:	2210      	movs	r2, #16
 800819a:	71aa      	strb	r2, [r5, #6]
 800819c:	b11c      	cbz	r4, 80081a6 <USBD_CDC_GetHSCfgDesc+0x32>
 800819e:	2200      	movs	r2, #0
 80081a0:	7122      	strb	r2, [r4, #4]
 80081a2:	2202      	movs	r2, #2
 80081a4:	7162      	strb	r2, [r4, #5]
 80081a6:	b118      	cbz	r0, 80081b0 <USBD_CDC_GetHSCfgDesc+0x3c>
 80081a8:	2200      	movs	r2, #0
 80081aa:	7102      	strb	r2, [r0, #4]
 80081ac:	2202      	movs	r2, #2
 80081ae:	7142      	strb	r2, [r0, #5]
 80081b0:	2343      	movs	r3, #67	@ 0x43
 80081b2:	8033      	strh	r3, [r6, #0]
 80081b4:	4800      	ldr	r0, [pc, #0]	@ (80081b8 <USBD_CDC_GetHSCfgDesc+0x44>)
 80081b6:	bdf8      	pop	{r3, r4, r5, r6, r7, pc}
 80081b8:	200000c8 	.word	0x200000c8

080081bc <USBD_CDC_DataOut>:
 80081bc:	b538      	push	{r3, r4, r5, lr}
 80081be:	f8d0 32d4 	ldr.w	r3, [r0, #724]	@ 0x2d4
 80081c2:	33b0      	adds	r3, #176	@ 0xb0
 80081c4:	f850 5023 	ldr.w	r5, [r0, r3, lsl #2]
 80081c8:	b195      	cbz	r5, 80081f0 <USBD_CDC_DataOut+0x34>
 80081ca:	4604      	mov	r4, r0
 80081cc:	f000 fbaf 	bl	800892e <USBD_LL_GetRxDataSize>
 80081d0:	f8c5 020c 	str.w	r0, [r5, #524]	@ 0x20c
 80081d4:	f8d4 32d4 	ldr.w	r3, [r4, #724]	@ 0x2d4
 80081d8:	33b0      	adds	r3, #176	@ 0xb0
 80081da:	eb04 0483 	add.w	r4, r4, r3, lsl #2
 80081de:	6863      	ldr	r3, [r4, #4]
 80081e0:	68db      	ldr	r3, [r3, #12]
 80081e2:	f505 7103 	add.w	r1, r5, #524	@ 0x20c
 80081e6:	f8d5 0204 	ldr.w	r0, [r5, #516]	@ 0x204
 80081ea:	4798      	blx	r3
 80081ec:	2000      	movs	r0, #0
 80081ee:	bd38      	pop	{r3, r4, r5, pc}
 80081f0:	2003      	movs	r0, #3
 80081f2:	e7fc      	b.n	80081ee <USBD_CDC_DataOut+0x32>

080081f4 <USBD_CDC_DataIn>:
 80081f4:	b538      	push	{r3, r4, r5, lr}
 80081f6:	f8d0 52c8 	ldr.w	r5, [r0, #712]	@ 0x2c8
 80081fa:	f8d0 32d4 	ldr.w	r3, [r0, #724]	@ 0x2d4
 80081fe:	33b0      	adds	r3, #176	@ 0xb0
 8008200:	f850 4023 	ldr.w	r4, [r0, r3, lsl #2]
 8008204:	b384      	cbz	r4, 8008268 <USBD_CDC_DataIn+0x74>
 8008206:	f001 030f 	and.w	r3, r1, #15
 800820a:	eb03 0283 	add.w	r2, r3, r3, lsl #2
 800820e:	eb00 0282 	add.w	r2, r0, r2, lsl #2
 8008212:	6992      	ldr	r2, [r2, #24]
 8008214:	b14a      	cbz	r2, 800822a <USBD_CDC_DataIn+0x36>
 8008216:	eb03 0c83 	add.w	ip, r3, r3, lsl #2
 800821a:	eb05 05cc 	add.w	r5, r5, ip, lsl #3
 800821e:	6a2d      	ldr	r5, [r5, #32]
 8008220:	fbb2 fcf5 	udiv	ip, r2, r5
 8008224:	fb05 221c 	mls	r2, r5, ip, r2
 8008228:	b192      	cbz	r2, 8008250 <USBD_CDC_DataIn+0x5c>
 800822a:	2300      	movs	r3, #0
 800822c:	f8c4 3214 	str.w	r3, [r4, #532]	@ 0x214
 8008230:	f8d0 32d4 	ldr.w	r3, [r0, #724]	@ 0x2d4
 8008234:	33b0      	adds	r3, #176	@ 0xb0
 8008236:	eb00 0083 	add.w	r0, r0, r3, lsl #2
 800823a:	6843      	ldr	r3, [r0, #4]
 800823c:	691b      	ldr	r3, [r3, #16]
 800823e:	b1ab      	cbz	r3, 800826c <USBD_CDC_DataIn+0x78>
 8008240:	460a      	mov	r2, r1
 8008242:	f504 7104 	add.w	r1, r4, #528	@ 0x210
 8008246:	f8d4 0208 	ldr.w	r0, [r4, #520]	@ 0x208
 800824a:	4798      	blx	r3
 800824c:	2000      	movs	r0, #0
 800824e:	bd38      	pop	{r3, r4, r5, pc}
 8008250:	eb03 0383 	add.w	r3, r3, r3, lsl #2
 8008254:	eb00 0383 	add.w	r3, r0, r3, lsl #2
 8008258:	2400      	movs	r4, #0
 800825a:	619c      	str	r4, [r3, #24]
 800825c:	4623      	mov	r3, r4
 800825e:	4622      	mov	r2, r4
 8008260:	f000 fb47 	bl	80088f2 <USBD_LL_Transmit>
 8008264:	4620      	mov	r0, r4
 8008266:	e7f2      	b.n	800824e <USBD_CDC_DataIn+0x5a>
 8008268:	2003      	movs	r0, #3
 800826a:	e7f0      	b.n	800824e <USBD_CDC_DataIn+0x5a>
 800826c:	2000      	movs	r0, #0
 800826e:	e7ee      	b.n	800824e <USBD_CDC_DataIn+0x5a>

08008270 <USBD_CDC_Setup>:
 8008270:	b5f0      	push	{r4, r5, r6, r7, lr}
 8008272:	b083      	sub	sp, #12
 8008274:	f8d0 32d4 	ldr.w	r3, [r0, #724]	@ 0x2d4
 8008278:	f103 02b0 	add.w	r2, r3, #176	@ 0xb0
 800827c:	f850 7022 	ldr.w	r7, [r0, r2, lsl #2]
 8008280:	2200      	movs	r2, #0
 8008282:	f88d 2007 	strb.w	r2, [sp, #7]
 8008286:	f8ad 2004 	strh.w	r2, [sp, #4]
 800828a:	2f00      	cmp	r7, #0
 800828c:	d078      	beq.n	8008380 <USBD_CDC_Setup+0x110>
 800828e:	4604      	mov	r4, r0
 8008290:	460d      	mov	r5, r1
 8008292:	7809      	ldrb	r1, [r1, #0]
 8008294:	f011 0660 	ands.w	r6, r1, #96	@ 0x60
 8008298:	d034      	beq.n	8008304 <USBD_CDC_Setup+0x94>
 800829a:	2e20      	cmp	r6, #32
 800829c:	d169      	bne.n	8008372 <USBD_CDC_Setup+0x102>
 800829e:	88ea      	ldrh	r2, [r5, #6]
 80082a0:	b32a      	cbz	r2, 80082ee <USBD_CDC_Setup+0x7e>
 80082a2:	f011 0f80 	tst.w	r1, #128	@ 0x80
 80082a6:	d10e      	bne.n	80082c6 <USBD_CDC_Setup+0x56>
 80082a8:	786b      	ldrb	r3, [r5, #1]
 80082aa:	f887 3200 	strb.w	r3, [r7, #512]	@ 0x200
 80082ae:	88ea      	ldrh	r2, [r5, #6]
 80082b0:	2a3f      	cmp	r2, #63	@ 0x3f
 80082b2:	d81a      	bhi.n	80082ea <USBD_CDC_Setup+0x7a>
 80082b4:	b2d2      	uxtb	r2, r2
 80082b6:	f887 2201 	strb.w	r2, [r7, #513]	@ 0x201
 80082ba:	4639      	mov	r1, r7
 80082bc:	4620      	mov	r0, r4
 80082be:	f001 f990 	bl	80095e2 <USBD_CtlPrepareRx>
 80082c2:	2600      	movs	r6, #0
 80082c4:	e059      	b.n	800837a <USBD_CDC_Setup+0x10a>
 80082c6:	33b0      	adds	r3, #176	@ 0xb0
 80082c8:	eb00 0383 	add.w	r3, r0, r3, lsl #2
 80082cc:	685b      	ldr	r3, [r3, #4]
 80082ce:	689b      	ldr	r3, [r3, #8]
 80082d0:	4639      	mov	r1, r7
 80082d2:	7868      	ldrb	r0, [r5, #1]
 80082d4:	4798      	blx	r3
 80082d6:	88ea      	ldrh	r2, [r5, #6]
 80082d8:	2a07      	cmp	r2, #7
 80082da:	bf28      	it	cs
 80082dc:	2207      	movcs	r2, #7
 80082de:	4639      	mov	r1, r7
 80082e0:	4620      	mov	r0, r4
 80082e2:	f001 f969 	bl	80095b8 <USBD_CtlSendData>
 80082e6:	2600      	movs	r6, #0
 80082e8:	e047      	b.n	800837a <USBD_CDC_Setup+0x10a>
 80082ea:	2240      	movs	r2, #64	@ 0x40
 80082ec:	e7e3      	b.n	80082b6 <USBD_CDC_Setup+0x46>
 80082ee:	33b0      	adds	r3, #176	@ 0xb0
 80082f0:	eb00 0383 	add.w	r3, r0, r3, lsl #2
 80082f4:	685b      	ldr	r3, [r3, #4]
 80082f6:	689b      	ldr	r3, [r3, #8]
 80082f8:	2200      	movs	r2, #0
 80082fa:	4629      	mov	r1, r5
 80082fc:	7868      	ldrb	r0, [r5, #1]
 80082fe:	4798      	blx	r3
 8008300:	2600      	movs	r6, #0
 8008302:	e03a      	b.n	800837a <USBD_CDC_Setup+0x10a>
 8008304:	786f      	ldrb	r7, [r5, #1]
 8008306:	2f0b      	cmp	r7, #11
 8008308:	d82e      	bhi.n	8008368 <USBD_CDC_Setup+0xf8>
 800830a:	e8df f007 	tbb	[pc, r7]
 800830e:	3606      	.short	0x3606
 8008310:	2d2d2d2d 	.word	0x2d2d2d2d
 8008314:	2d2d2d2d 	.word	0x2d2d2d2d
 8008318:	2415      	.short	0x2415
 800831a:	f890 329c 	ldrb.w	r3, [r0, #668]	@ 0x29c
 800831e:	2b03      	cmp	r3, #3
 8008320:	d004      	beq.n	800832c <USBD_CDC_Setup+0xbc>
 8008322:	4629      	mov	r1, r5
 8008324:	f000 fd1a 	bl	8008d5c <USBD_CtlError>
 8008328:	2603      	movs	r6, #3
 800832a:	e026      	b.n	800837a <USBD_CDC_Setup+0x10a>
 800832c:	2202      	movs	r2, #2
 800832e:	a901      	add	r1, sp, #4
 8008330:	f001 f942 	bl	80095b8 <USBD_CtlSendData>
 8008334:	463e      	mov	r6, r7
 8008336:	e020      	b.n	800837a <USBD_CDC_Setup+0x10a>
 8008338:	f890 329c 	ldrb.w	r3, [r0, #668]	@ 0x29c
 800833c:	2b03      	cmp	r3, #3
 800833e:	d004      	beq.n	800834a <USBD_CDC_Setup+0xda>
 8008340:	4629      	mov	r1, r5
 8008342:	f000 fd0b 	bl	8008d5c <USBD_CtlError>
 8008346:	2603      	movs	r6, #3
 8008348:	e017      	b.n	800837a <USBD_CDC_Setup+0x10a>
 800834a:	2201      	movs	r2, #1
 800834c:	f10d 0107 	add.w	r1, sp, #7
 8008350:	f001 f932 	bl	80095b8 <USBD_CtlSendData>
 8008354:	e011      	b.n	800837a <USBD_CDC_Setup+0x10a>
 8008356:	f890 329c 	ldrb.w	r3, [r0, #668]	@ 0x29c
 800835a:	2b03      	cmp	r3, #3
 800835c:	d00d      	beq.n	800837a <USBD_CDC_Setup+0x10a>
 800835e:	4629      	mov	r1, r5
 8008360:	f000 fcfc 	bl	8008d5c <USBD_CtlError>
 8008364:	2603      	movs	r6, #3
 8008366:	e008      	b.n	800837a <USBD_CDC_Setup+0x10a>
 8008368:	4629      	mov	r1, r5
 800836a:	f000 fcf7 	bl	8008d5c <USBD_CtlError>
 800836e:	2603      	movs	r6, #3
 8008370:	e003      	b.n	800837a <USBD_CDC_Setup+0x10a>
 8008372:	4629      	mov	r1, r5
 8008374:	f000 fcf2 	bl	8008d5c <USBD_CtlError>
 8008378:	2603      	movs	r6, #3
 800837a:	4630      	mov	r0, r6
 800837c:	b003      	add	sp, #12
 800837e:	bdf0      	pop	{r4, r5, r6, r7, pc}
 8008380:	2603      	movs	r6, #3
 8008382:	e7fa      	b.n	800837a <USBD_CDC_Setup+0x10a>

08008384 <USBD_CDC_DeInit>:
 8008384:	b538      	push	{r3, r4, r5, lr}
 8008386:	4604      	mov	r4, r0
 8008388:	2181      	movs	r1, #129	@ 0x81
 800838a:	f000 fa60 	bl	800884e <USBD_LL_CloseEP>
 800838e:	2500      	movs	r5, #0
 8008390:	8725      	strh	r5, [r4, #56]	@ 0x38
 8008392:	2101      	movs	r1, #1
 8008394:	4620      	mov	r0, r4
 8008396:	f000 fa5a 	bl	800884e <USBD_LL_CloseEP>
 800839a:	f8a4 5178 	strh.w	r5, [r4, #376]	@ 0x178
 800839e:	2182      	movs	r1, #130	@ 0x82
 80083a0:	4620      	mov	r0, r4
 80083a2:	f000 fa54 	bl	800884e <USBD_LL_CloseEP>
 80083a6:	f8a4 504c 	strh.w	r5, [r4, #76]	@ 0x4c
 80083aa:	f8a4 504e 	strh.w	r5, [r4, #78]	@ 0x4e
 80083ae:	f8d4 32d4 	ldr.w	r3, [r4, #724]	@ 0x2d4
 80083b2:	f103 02b0 	add.w	r2, r3, #176	@ 0xb0
 80083b6:	f854 2022 	ldr.w	r2, [r4, r2, lsl #2]
 80083ba:	b19a      	cbz	r2, 80083e4 <USBD_CDC_DeInit+0x60>
 80083bc:	33b0      	adds	r3, #176	@ 0xb0
 80083be:	eb04 0383 	add.w	r3, r4, r3, lsl #2
 80083c2:	685b      	ldr	r3, [r3, #4]
 80083c4:	685b      	ldr	r3, [r3, #4]
 80083c6:	4798      	blx	r3
 80083c8:	f8d4 32d4 	ldr.w	r3, [r4, #724]	@ 0x2d4
 80083cc:	33b0      	adds	r3, #176	@ 0xb0
 80083ce:	f854 0023 	ldr.w	r0, [r4, r3, lsl #2]
 80083d2:	f000 fad9 	bl	8008988 <USBD_static_free>
 80083d6:	f8d4 32d4 	ldr.w	r3, [r4, #724]	@ 0x2d4
 80083da:	33b0      	adds	r3, #176	@ 0xb0
 80083dc:	f844 5023 	str.w	r5, [r4, r3, lsl #2]
 80083e0:	f8c4 52bc 	str.w	r5, [r4, #700]	@ 0x2bc
 80083e4:	2000      	movs	r0, #0
 80083e6:	bd38      	pop	{r3, r4, r5, pc}

080083e8 <USBD_CDC_Init>:
 80083e8:	b570      	push	{r4, r5, r6, lr}
 80083ea:	4604      	mov	r4, r0
 80083ec:	f44f 7007 	mov.w	r0, #540	@ 0x21c
 80083f0:	f000 fac6 	bl	8008980 <USBD_static_malloc>
 80083f4:	2800      	cmp	r0, #0
 80083f6:	d049      	beq.n	800848c <USBD_CDC_Init+0xa4>
 80083f8:	4605      	mov	r5, r0
 80083fa:	f44f 7207 	mov.w	r2, #540	@ 0x21c
 80083fe:	2100      	movs	r1, #0
 8008400:	f001 f96a 	bl	80096d8 <memset>
 8008404:	f8d4 32d4 	ldr.w	r3, [r4, #724]	@ 0x2d4
 8008408:	33b0      	adds	r3, #176	@ 0xb0
 800840a:	f844 5023 	str.w	r5, [r4, r3, lsl #2]
 800840e:	f8c4 52bc 	str.w	r5, [r4, #700]	@ 0x2bc
 8008412:	7c23      	ldrb	r3, [r4, #16]
 8008414:	2b00      	cmp	r3, #0
 8008416:	d141      	bne.n	800849c <USBD_CDC_Init+0xb4>
 8008418:	f44f 7300 	mov.w	r3, #512	@ 0x200
 800841c:	2202      	movs	r2, #2
 800841e:	2181      	movs	r1, #129	@ 0x81
 8008420:	4620      	mov	r0, r4
 8008422:	f000 fa02 	bl	800882a <USBD_LL_OpenEP>
 8008426:	2601      	movs	r6, #1
 8008428:	8726      	strh	r6, [r4, #56]	@ 0x38
 800842a:	f44f 7300 	mov.w	r3, #512	@ 0x200
 800842e:	2202      	movs	r2, #2
 8008430:	4631      	mov	r1, r6
 8008432:	4620      	mov	r0, r4
 8008434:	f000 f9f9 	bl	800882a <USBD_LL_OpenEP>
 8008438:	f8a4 6178 	strh.w	r6, [r4, #376]	@ 0x178
 800843c:	2310      	movs	r3, #16
 800843e:	f8a4 304e 	strh.w	r3, [r4, #78]	@ 0x4e
 8008442:	2308      	movs	r3, #8
 8008444:	2203      	movs	r2, #3
 8008446:	2182      	movs	r1, #130	@ 0x82
 8008448:	4620      	mov	r0, r4
 800844a:	f000 f9ee 	bl	800882a <USBD_LL_OpenEP>
 800844e:	2301      	movs	r3, #1
 8008450:	f8a4 304c 	strh.w	r3, [r4, #76]	@ 0x4c
 8008454:	2600      	movs	r6, #0
 8008456:	f8c5 6204 	str.w	r6, [r5, #516]	@ 0x204
 800845a:	f8d4 32d4 	ldr.w	r3, [r4, #724]	@ 0x2d4
 800845e:	33b0      	adds	r3, #176	@ 0xb0
 8008460:	eb04 0383 	add.w	r3, r4, r3, lsl #2
 8008464:	685b      	ldr	r3, [r3, #4]
 8008466:	681b      	ldr	r3, [r3, #0]
 8008468:	4798      	blx	r3
 800846a:	f8c5 6214 	str.w	r6, [r5, #532]	@ 0x214
 800846e:	f8c5 6218 	str.w	r6, [r5, #536]	@ 0x218
 8008472:	f8d5 2204 	ldr.w	r2, [r5, #516]	@ 0x204
 8008476:	b362      	cbz	r2, 80084d2 <USBD_CDC_Init+0xea>
 8008478:	7c25      	ldrb	r5, [r4, #16]
 800847a:	bb1d      	cbnz	r5, 80084c4 <USBD_CDC_Init+0xdc>
 800847c:	f44f 7300 	mov.w	r3, #512	@ 0x200
 8008480:	2101      	movs	r1, #1
 8008482:	4620      	mov	r0, r4
 8008484:	f000 fa44 	bl	8008910 <USBD_LL_PrepareReceive>
 8008488:	4628      	mov	r0, r5
 800848a:	bd70      	pop	{r4, r5, r6, pc}
 800848c:	f8d4 32d4 	ldr.w	r3, [r4, #724]	@ 0x2d4
 8008490:	33b0      	adds	r3, #176	@ 0xb0
 8008492:	2200      	movs	r2, #0
 8008494:	f844 2023 	str.w	r2, [r4, r3, lsl #2]
 8008498:	2502      	movs	r5, #2
 800849a:	e7f5      	b.n	8008488 <USBD_CDC_Init+0xa0>
 800849c:	2340      	movs	r3, #64	@ 0x40
 800849e:	2202      	movs	r2, #2
 80084a0:	2181      	movs	r1, #129	@ 0x81
 80084a2:	4620      	mov	r0, r4
 80084a4:	f000 f9c1 	bl	800882a <USBD_LL_OpenEP>
 80084a8:	2601      	movs	r6, #1
 80084aa:	8726      	strh	r6, [r4, #56]	@ 0x38
 80084ac:	2340      	movs	r3, #64	@ 0x40
 80084ae:	2202      	movs	r2, #2
 80084b0:	4631      	mov	r1, r6
 80084b2:	4620      	mov	r0, r4
 80084b4:	f000 f9b9 	bl	800882a <USBD_LL_OpenEP>
 80084b8:	f8a4 6178 	strh.w	r6, [r4, #376]	@ 0x178
 80084bc:	2310      	movs	r3, #16
 80084be:	f8a4 304e 	strh.w	r3, [r4, #78]	@ 0x4e
 80084c2:	e7be      	b.n	8008442 <USBD_CDC_Init+0x5a>
 80084c4:	2340      	movs	r3, #64	@ 0x40
 80084c6:	2101      	movs	r1, #1
 80084c8:	4620      	mov	r0, r4
 80084ca:	f000 fa21 	bl	8008910 <USBD_LL_PrepareReceive>
 80084ce:	2500      	movs	r5, #0
 80084d0:	e7da      	b.n	8008488 <USBD_CDC_Init+0xa0>
 80084d2:	2502      	movs	r5, #2
 80084d4:	e7d8      	b.n	8008488 <USBD_CDC_Init+0xa0>

080084d6 <USBD_CDC_RegisterInterface>:
 80084d6:	b139      	cbz	r1, 80084e8 <USBD_CDC_RegisterInterface+0x12>
 80084d8:	f8d0 32d4 	ldr.w	r3, [r0, #724]	@ 0x2d4
 80084dc:	33b0      	adds	r3, #176	@ 0xb0
 80084de:	eb00 0083 	add.w	r0, r0, r3, lsl #2
 80084e2:	6041      	str	r1, [r0, #4]
 80084e4:	2000      	movs	r0, #0
 80084e6:	4770      	bx	lr
 80084e8:	2003      	movs	r0, #3
 80084ea:	4770      	bx	lr

080084ec <USBD_CDC_SetTxBuffer>:
 80084ec:	f8d0 32d4 	ldr.w	r3, [r0, #724]	@ 0x2d4
 80084f0:	33b0      	adds	r3, #176	@ 0xb0
 80084f2:	f850 3023 	ldr.w	r3, [r0, r3, lsl #2]
 80084f6:	b12b      	cbz	r3, 8008504 <USBD_CDC_SetTxBuffer+0x18>
 80084f8:	f8c3 1208 	str.w	r1, [r3, #520]	@ 0x208
 80084fc:	f8c3 2210 	str.w	r2, [r3, #528]	@ 0x210
 8008500:	2000      	movs	r0, #0
 8008502:	4770      	bx	lr
 8008504:	2003      	movs	r0, #3
 8008506:	4770      	bx	lr

08008508 <USBD_CDC_SetRxBuffer>:
 8008508:	f8d0 32d4 	ldr.w	r3, [r0, #724]	@ 0x2d4
 800850c:	33b0      	adds	r3, #176	@ 0xb0
 800850e:	f850 3023 	ldr.w	r3, [r0, r3, lsl #2]
 8008512:	b11b      	cbz	r3, 800851c <USBD_CDC_SetRxBuffer+0x14>
 8008514:	f8c3 1204 	str.w	r1, [r3, #516]	@ 0x204
 8008518:	2000      	movs	r0, #0
 800851a:	4770      	bx	lr
 800851c:	2003      	movs	r0, #3
 800851e:	4770      	bx	lr

08008520 <USBD_CDC_TransmitPacket>:
 8008520:	b508      	push	{r3, lr}
 8008522:	f8d0 32d4 	ldr.w	r3, [r0, #724]	@ 0x2d4
 8008526:	33b0      	adds	r3, #176	@ 0xb0
 8008528:	f850 2023 	ldr.w	r2, [r0, r3, lsl #2]
 800852c:	b18a      	cbz	r2, 8008552 <USBD_CDC_TransmitPacket+0x32>
 800852e:	f8d2 3214 	ldr.w	r3, [r2, #532]	@ 0x214
 8008532:	b10b      	cbz	r3, 8008538 <USBD_CDC_TransmitPacket+0x18>
 8008534:	2001      	movs	r0, #1
 8008536:	bd08      	pop	{r3, pc}
 8008538:	2301      	movs	r3, #1
 800853a:	f8c2 3214 	str.w	r3, [r2, #532]	@ 0x214
 800853e:	f8d2 3210 	ldr.w	r3, [r2, #528]	@ 0x210
 8008542:	62c3      	str	r3, [r0, #44]	@ 0x2c
 8008544:	f8d2 2208 	ldr.w	r2, [r2, #520]	@ 0x208
 8008548:	2181      	movs	r1, #129	@ 0x81
 800854a:	f000 f9d2 	bl	80088f2 <USBD_LL_Transmit>
 800854e:	2000      	movs	r0, #0
 8008550:	e7f1      	b.n	8008536 <USBD_CDC_TransmitPacket+0x16>
 8008552:	2003      	movs	r0, #3
 8008554:	e7ef      	b.n	8008536 <USBD_CDC_TransmitPacket+0x16>

08008556 <USBD_CDC_ReceivePacket>:
 8008556:	b510      	push	{r4, lr}
 8008558:	f8d0 32d4 	ldr.w	r3, [r0, #724]	@ 0x2d4
 800855c:	33b0      	adds	r3, #176	@ 0xb0
 800855e:	f850 2023 	ldr.w	r2, [r0, r3, lsl #2]
 8008562:	b192      	cbz	r2, 800858a <USBD_CDC_ReceivePacket+0x34>
 8008564:	7c04      	ldrb	r4, [r0, #16]
 8008566:	b944      	cbnz	r4, 800857a <USBD_CDC_ReceivePacket+0x24>
 8008568:	f44f 7300 	mov.w	r3, #512	@ 0x200
 800856c:	f8d2 2204 	ldr.w	r2, [r2, #516]	@ 0x204
 8008570:	2101      	movs	r1, #1
 8008572:	f000 f9cd 	bl	8008910 <USBD_LL_PrepareReceive>
 8008576:	4620      	mov	r0, r4
 8008578:	bd10      	pop	{r4, pc}
 800857a:	2340      	movs	r3, #64	@ 0x40
 800857c:	f8d2 2204 	ldr.w	r2, [r2, #516]	@ 0x204
 8008580:	2101      	movs	r1, #1
 8008582:	f000 f9c5 	bl	8008910 <USBD_LL_PrepareReceive>
 8008586:	2400      	movs	r4, #0
 8008588:	e7f5      	b.n	8008576 <USBD_CDC_ReceivePacket+0x20>
 800858a:	2403      	movs	r4, #3
 800858c:	e7f3      	b.n	8008576 <USBD_CDC_ReceivePacket+0x20>

0800858e <CDC_DeInit_FS>:
 800858e:	2000      	movs	r0, #0
 8008590:	4770      	bx	lr

08008592 <CDC_Control_FS>:
 8008592:	2000      	movs	r0, #0
 8008594:	4770      	bx	lr

08008596 <CDC_TransmitCplt_FS>:
 8008596:	2000      	movs	r0, #0
 8008598:	4770      	bx	lr
	...

0800859c <CDC_Receive_FS>:
 800859c:	b538      	push	{r3, r4, r5, lr}
 800859e:	460c      	mov	r4, r1
 80085a0:	4d09      	ldr	r5, [pc, #36]	@ (80085c8 <CDC_Receive_FS+0x2c>)
 80085a2:	4601      	mov	r1, r0
 80085a4:	4628      	mov	r0, r5
 80085a6:	f7ff ffaf 	bl	8008508 <USBD_CDC_SetRxBuffer>
 80085aa:	4628      	mov	r0, r5
 80085ac:	f7ff ffd3 	bl	8008556 <USBD_CDC_ReceivePacket>
 80085b0:	4d06      	ldr	r5, [pc, #24]	@ (80085cc <CDC_Receive_FS+0x30>)
 80085b2:	6821      	ldr	r1, [r4, #0]
 80085b4:	4628      	mov	r0, r5
 80085b6:	f7f9 fe57 	bl	8002268 <USB_CDC_RxHandler>
 80085ba:	6822      	ldr	r2, [r4, #0]
 80085bc:	2100      	movs	r1, #0
 80085be:	4628      	mov	r0, r5
 80085c0:	f001 f88a 	bl	80096d8 <memset>
 80085c4:	2000      	movs	r0, #0
 80085c6:	bd38      	pop	{r3, r4, r5, pc}
 80085c8:	20000508 	.word	0x20000508
 80085cc:	20000be4 	.word	0x20000be4

080085d0 <CDC_Init_FS>:
 80085d0:	b510      	push	{r4, lr}
 80085d2:	4c06      	ldr	r4, [pc, #24]	@ (80085ec <CDC_Init_FS+0x1c>)
 80085d4:	2200      	movs	r2, #0
 80085d6:	4906      	ldr	r1, [pc, #24]	@ (80085f0 <CDC_Init_FS+0x20>)
 80085d8:	4620      	mov	r0, r4
 80085da:	f7ff ff87 	bl	80084ec <USBD_CDC_SetTxBuffer>
 80085de:	4905      	ldr	r1, [pc, #20]	@ (80085f4 <CDC_Init_FS+0x24>)
 80085e0:	4620      	mov	r0, r4
 80085e2:	f7ff ff91 	bl	8008508 <USBD_CDC_SetRxBuffer>
 80085e6:	2000      	movs	r0, #0
 80085e8:	bd10      	pop	{r4, pc}
 80085ea:	bf00      	nop
 80085ec:	20000508 	.word	0x20000508
 80085f0:	200007e4 	.word	0x200007e4
 80085f4:	20000be4 	.word	0x20000be4

080085f8 <CDC_Transmit_FS>:
 80085f8:	4b09      	ldr	r3, [pc, #36]	@ (8008620 <CDC_Transmit_FS+0x28>)
 80085fa:	f8d3 32bc 	ldr.w	r3, [r3, #700]	@ 0x2bc
 80085fe:	f8d3 3214 	ldr.w	r3, [r3, #532]	@ 0x214
 8008602:	b10b      	cbz	r3, 8008608 <CDC_Transmit_FS+0x10>
 8008604:	2001      	movs	r0, #1
 8008606:	4770      	bx	lr
 8008608:	b510      	push	{r4, lr}
 800860a:	4c05      	ldr	r4, [pc, #20]	@ (8008620 <CDC_Transmit_FS+0x28>)
 800860c:	460a      	mov	r2, r1
 800860e:	4601      	mov	r1, r0
 8008610:	4620      	mov	r0, r4
 8008612:	f7ff ff6b 	bl	80084ec <USBD_CDC_SetTxBuffer>
 8008616:	4620      	mov	r0, r4
 8008618:	f7ff ff82 	bl	8008520 <USBD_CDC_TransmitPacket>
 800861c:	bd10      	pop	{r4, pc}
 800861e:	bf00      	nop
 8008620:	20000508 	.word	0x20000508

08008624 <SystemClockConfig_Resume>:
 8008624:	b508      	push	{r3, lr}
 8008626:	f7f9 ff29 	bl	800247c <SystemClock_Config>
 800862a:	bd08      	pop	{r3, pc}

0800862c <HAL_PCD_MspInit>:
 800862c:	b530      	push	{r4, r5, lr}
 800862e:	b095      	sub	sp, #84	@ 0x54
 8008630:	4604      	mov	r4, r0
 8008632:	2100      	movs	r1, #0
 8008634:	910f      	str	r1, [sp, #60]	@ 0x3c
 8008636:	9110      	str	r1, [sp, #64]	@ 0x40
 8008638:	9111      	str	r1, [sp, #68]	@ 0x44
 800863a:	9112      	str	r1, [sp, #72]	@ 0x48
 800863c:	9113      	str	r1, [sp, #76]	@ 0x4c
 800863e:	2234      	movs	r2, #52	@ 0x34
 8008640:	a802      	add	r0, sp, #8
 8008642:	f001 f849 	bl	80096d8 <memset>
 8008646:	6822      	ldr	r2, [r4, #0]
 8008648:	4b1d      	ldr	r3, [pc, #116]	@ (80086c0 <HAL_PCD_MspInit+0x94>)
 800864a:	429a      	cmp	r2, r3
 800864c:	d001      	beq.n	8008652 <HAL_PCD_MspInit+0x26>
 800864e:	b015      	add	sp, #84	@ 0x54
 8008650:	bd30      	pop	{r4, r5, pc}
 8008652:	f44f 5300 	mov.w	r3, #8192	@ 0x2000
 8008656:	9302      	str	r3, [sp, #8]
 8008658:	a802      	add	r0, sp, #8
 800865a:	f7fd fb41 	bl	8005ce0 <HAL_RCCEx_PeriphCLKConfig>
 800865e:	bb58      	cbnz	r0, 80086b8 <HAL_PCD_MspInit+0x8c>
 8008660:	4c18      	ldr	r4, [pc, #96]	@ (80086c4 <HAL_PCD_MspInit+0x98>)
 8008662:	6ce3      	ldr	r3, [r4, #76]	@ 0x4c
 8008664:	f043 0301 	orr.w	r3, r3, #1
 8008668:	64e3      	str	r3, [r4, #76]	@ 0x4c
 800866a:	6ce3      	ldr	r3, [r4, #76]	@ 0x4c
 800866c:	f003 0301 	and.w	r3, r3, #1
 8008670:	9300      	str	r3, [sp, #0]
 8008672:	9b00      	ldr	r3, [sp, #0]
 8008674:	f44f 53c0 	mov.w	r3, #6144	@ 0x1800
 8008678:	930f      	str	r3, [sp, #60]	@ 0x3c
 800867a:	2302      	movs	r3, #2
 800867c:	9310      	str	r3, [sp, #64]	@ 0x40
 800867e:	2500      	movs	r5, #0
 8008680:	9511      	str	r5, [sp, #68]	@ 0x44
 8008682:	2303      	movs	r3, #3
 8008684:	9312      	str	r3, [sp, #72]	@ 0x48
 8008686:	230a      	movs	r3, #10
 8008688:	9313      	str	r3, [sp, #76]	@ 0x4c
 800868a:	a90f      	add	r1, sp, #60	@ 0x3c
 800868c:	f04f 4090 	mov.w	r0, #1207959552	@ 0x48000000
 8008690:	f7fb fb02 	bl	8003c98 <HAL_GPIO_Init>
 8008694:	6da3      	ldr	r3, [r4, #88]	@ 0x58
 8008696:	f043 6380 	orr.w	r3, r3, #67108864	@ 0x4000000
 800869a:	65a3      	str	r3, [r4, #88]	@ 0x58
 800869c:	6da3      	ldr	r3, [r4, #88]	@ 0x58
 800869e:	f003 6380 	and.w	r3, r3, #67108864	@ 0x4000000
 80086a2:	9301      	str	r3, [sp, #4]
 80086a4:	9b01      	ldr	r3, [sp, #4]
 80086a6:	462a      	mov	r2, r5
 80086a8:	4629      	mov	r1, r5
 80086aa:	2043      	movs	r0, #67	@ 0x43
 80086ac:	f7fb f990 	bl	80039d0 <HAL_NVIC_SetPriority>
 80086b0:	2043      	movs	r0, #67	@ 0x43
 80086b2:	f7fb f99d 	bl	80039f0 <HAL_NVIC_EnableIRQ>
 80086b6:	e7ca      	b.n	800864e <HAL_PCD_MspInit+0x22>
 80086b8:	f7f9 fdf8 	bl	80022ac <Error_Handler>
 80086bc:	e7d0      	b.n	8008660 <HAL_PCD_MspInit+0x34>
 80086be:	bf00      	nop
 80086c0:	40006800 	.word	0x40006800
 80086c4:	40021000 	.word	0x40021000

080086c8 <HAL_PCD_SetupStageCallback>:
 80086c8:	b508      	push	{r3, lr}
 80086ca:	f500 7126 	add.w	r1, r0, #664	@ 0x298
 80086ce:	f8d0 02dc 	ldr.w	r0, [r0, #732]	@ 0x2dc
 80086d2:	f000 f9a7 	bl	8008a24 <USBD_LL_SetupStage>
 80086d6:	bd08      	pop	{r3, pc}

080086d8 <HAL_PCD_DataOutStageCallback>:
 80086d8:	b508      	push	{r3, lr}
 80086da:	eb01 0381 	add.w	r3, r1, r1, lsl #2
 80086de:	eb00 03c3 	add.w	r3, r0, r3, lsl #3
 80086e2:	f8d3 2164 	ldr.w	r2, [r3, #356]	@ 0x164
 80086e6:	f8d0 02dc 	ldr.w	r0, [r0, #732]	@ 0x2dc
 80086ea:	f000 fa2a 	bl	8008b42 <USBD_LL_DataOutStage>
 80086ee:	bd08      	pop	{r3, pc}

080086f0 <HAL_PCD_DataInStageCallback>:
 80086f0:	b508      	push	{r3, lr}
 80086f2:	eb01 0381 	add.w	r3, r1, r1, lsl #2
 80086f6:	eb00 03c3 	add.w	r3, r0, r3, lsl #3
 80086fa:	6a5a      	ldr	r2, [r3, #36]	@ 0x24
 80086fc:	f8d0 02dc 	ldr.w	r0, [r0, #732]	@ 0x2dc
 8008700:	f000 fa7f 	bl	8008c02 <USBD_LL_DataInStage>
 8008704:	bd08      	pop	{r3, pc}

08008706 <HAL_PCD_SOFCallback>:
 8008706:	b508      	push	{r3, lr}
 8008708:	f8d0 02dc 	ldr.w	r0, [r0, #732]	@ 0x2dc
 800870c:	f000 fa05 	bl	8008b1a <USBD_LL_SOF>
 8008710:	bd08      	pop	{r3, pc}

08008712 <HAL_PCD_ResetCallback>:
 8008712:	b510      	push	{r4, lr}
 8008714:	4604      	mov	r4, r0
 8008716:	7983      	ldrb	r3, [r0, #6]
 8008718:	2b02      	cmp	r3, #2
 800871a:	d109      	bne.n	8008730 <HAL_PCD_ResetCallback+0x1e>
 800871c:	2101      	movs	r1, #1
 800871e:	f8d4 02dc 	ldr.w	r0, [r4, #732]	@ 0x2dc
 8008722:	f000 f9dd 	bl	8008ae0 <USBD_LL_SetSpeed>
 8008726:	f8d4 02dc 	ldr.w	r0, [r4, #732]	@ 0x2dc
 800872a:	f000 f9a7 	bl	8008a7c <USBD_LL_Reset>
 800872e:	bd10      	pop	{r4, pc}
 8008730:	f7f9 fdbc 	bl	80022ac <Error_Handler>
 8008734:	e7f2      	b.n	800871c <HAL_PCD_ResetCallback+0xa>
	...

08008738 <HAL_PCD_SuspendCallback>:
 8008738:	b510      	push	{r4, lr}
 800873a:	4604      	mov	r4, r0
 800873c:	f8d0 02dc 	ldr.w	r0, [r0, #732]	@ 0x2dc
 8008740:	f000 f9d1 	bl	8008ae6 <USBD_LL_Suspend>
 8008744:	7aa3      	ldrb	r3, [r4, #10]
 8008746:	b123      	cbz	r3, 8008752 <HAL_PCD_SuspendCallback+0x1a>
 8008748:	4a02      	ldr	r2, [pc, #8]	@ (8008754 <HAL_PCD_SuspendCallback+0x1c>)
 800874a:	6913      	ldr	r3, [r2, #16]
 800874c:	f043 0306 	orr.w	r3, r3, #6
 8008750:	6113      	str	r3, [r2, #16]
 8008752:	bd10      	pop	{r4, pc}
 8008754:	e000ed00 	.word	0xe000ed00

08008758 <HAL_PCD_ResumeCallback>:
 8008758:	b510      	push	{r4, lr}
 800875a:	4604      	mov	r4, r0
 800875c:	7a83      	ldrb	r3, [r0, #10]
 800875e:	b923      	cbnz	r3, 800876a <HAL_PCD_ResumeCallback+0x12>
 8008760:	f8d4 02dc 	ldr.w	r0, [r4, #732]	@ 0x2dc
 8008764:	f000 f9cd 	bl	8008b02 <USBD_LL_Resume>
 8008768:	bd10      	pop	{r4, pc}
 800876a:	4a04      	ldr	r2, [pc, #16]	@ (800877c <HAL_PCD_ResumeCallback+0x24>)
 800876c:	6913      	ldr	r3, [r2, #16]
 800876e:	f023 0306 	bic.w	r3, r3, #6
 8008772:	6113      	str	r3, [r2, #16]
 8008774:	f7ff ff56 	bl	8008624 <SystemClockConfig_Resume>
 8008778:	e7f2      	b.n	8008760 <HAL_PCD_ResumeCallback+0x8>
 800877a:	bf00      	nop
 800877c:	e000ed00 	.word	0xe000ed00

08008780 <USBD_LL_Init>:
 8008780:	b510      	push	{r4, lr}
 8008782:	4604      	mov	r4, r0
 8008784:	f7fc fd86 	bl	8005294 <HAL_PWREx_EnableVddUSB>
 8008788:	481e      	ldr	r0, [pc, #120]	@ (8008804 <USBD_LL_Init+0x84>)
 800878a:	f8c0 42dc 	str.w	r4, [r0, #732]	@ 0x2dc
 800878e:	f8c4 02c8 	str.w	r0, [r4, #712]	@ 0x2c8
 8008792:	4b1d      	ldr	r3, [pc, #116]	@ (8008808 <USBD_LL_Init+0x88>)
 8008794:	6003      	str	r3, [r0, #0]
 8008796:	2308      	movs	r3, #8
 8008798:	7103      	strb	r3, [r0, #4]
 800879a:	2302      	movs	r3, #2
 800879c:	7183      	strb	r3, [r0, #6]
 800879e:	7203      	strb	r3, [r0, #8]
 80087a0:	2300      	movs	r3, #0
 80087a2:	7243      	strb	r3, [r0, #9]
 80087a4:	7283      	strb	r3, [r0, #10]
 80087a6:	72c3      	strb	r3, [r0, #11]
 80087a8:	7303      	strb	r3, [r0, #12]
 80087aa:	f7fb fd8d 	bl	80042c8 <HAL_PCD_Init>
 80087ae:	bb30      	cbnz	r0, 80087fe <USBD_LL_Init+0x7e>
 80087b0:	2318      	movs	r3, #24
 80087b2:	2200      	movs	r2, #0
 80087b4:	4611      	mov	r1, r2
 80087b6:	f8d4 02c8 	ldr.w	r0, [r4, #712]	@ 0x2c8
 80087ba:	f7fc fce0 	bl	800517e <HAL_PCDEx_PMAConfig>
 80087be:	2358      	movs	r3, #88	@ 0x58
 80087c0:	2200      	movs	r2, #0
 80087c2:	2180      	movs	r1, #128	@ 0x80
 80087c4:	f8d4 02c8 	ldr.w	r0, [r4, #712]	@ 0x2c8
 80087c8:	f7fc fcd9 	bl	800517e <HAL_PCDEx_PMAConfig>
 80087cc:	23c0      	movs	r3, #192	@ 0xc0
 80087ce:	2200      	movs	r2, #0
 80087d0:	2181      	movs	r1, #129	@ 0x81
 80087d2:	f8d4 02c8 	ldr.w	r0, [r4, #712]	@ 0x2c8
 80087d6:	f7fc fcd2 	bl	800517e <HAL_PCDEx_PMAConfig>
 80087da:	f44f 7388 	mov.w	r3, #272	@ 0x110
 80087de:	2200      	movs	r2, #0
 80087e0:	2101      	movs	r1, #1
 80087e2:	f8d4 02c8 	ldr.w	r0, [r4, #712]	@ 0x2c8
 80087e6:	f7fc fcca 	bl	800517e <HAL_PCDEx_PMAConfig>
 80087ea:	f44f 7380 	mov.w	r3, #256	@ 0x100
 80087ee:	2200      	movs	r2, #0
 80087f0:	2182      	movs	r1, #130	@ 0x82
 80087f2:	f8d4 02c8 	ldr.w	r0, [r4, #712]	@ 0x2c8
 80087f6:	f7fc fcc2 	bl	800517e <HAL_PCDEx_PMAConfig>
 80087fa:	2000      	movs	r0, #0
 80087fc:	bd10      	pop	{r4, pc}
 80087fe:	f7f9 fd55 	bl	80022ac <Error_Handler>
 8008802:	e7d5      	b.n	80087b0 <USBD_LL_Init+0x30>
 8008804:	20001204 	.word	0x20001204
 8008808:	40006800 	.word	0x40006800

0800880c <USBD_LL_Start>:
 800880c:	b508      	push	{r3, lr}
 800880e:	f8d0 02c8 	ldr.w	r0, [r0, #712]	@ 0x2c8
 8008812:	f7fb fdd4 	bl	80043be <HAL_PCD_Start>
 8008816:	2803      	cmp	r0, #3
 8008818:	d805      	bhi.n	8008826 <USBD_LL_Start+0x1a>
 800881a:	e8df f000 	tbb	[pc, r0]
 800881e:	0403      	.short	0x0403
 8008820:	0302      	.short	0x0302
 8008822:	2001      	movs	r0, #1
 8008824:	bd08      	pop	{r3, pc}
 8008826:	2003      	movs	r0, #3
 8008828:	e7fc      	b.n	8008824 <USBD_LL_Start+0x18>

0800882a <USBD_LL_OpenEP>:
 800882a:	b508      	push	{r3, lr}
 800882c:	4694      	mov	ip, r2
 800882e:	461a      	mov	r2, r3
 8008830:	4663      	mov	r3, ip
 8008832:	f8d0 02c8 	ldr.w	r0, [r0, #712]	@ 0x2c8
 8008836:	f7fc fb5e 	bl	8004ef6 <HAL_PCD_EP_Open>
 800883a:	2803      	cmp	r0, #3
 800883c:	d805      	bhi.n	800884a <USBD_LL_OpenEP+0x20>
 800883e:	e8df f000 	tbb	[pc, r0]
 8008842:	0403      	.short	0x0403
 8008844:	0302      	.short	0x0302
 8008846:	2001      	movs	r0, #1
 8008848:	bd08      	pop	{r3, pc}
 800884a:	2003      	movs	r0, #3
 800884c:	e7fc      	b.n	8008848 <USBD_LL_OpenEP+0x1e>

0800884e <USBD_LL_CloseEP>:
 800884e:	b508      	push	{r3, lr}
 8008850:	f8d0 02c8 	ldr.w	r0, [r0, #712]	@ 0x2c8
 8008854:	f7fc fb92 	bl	8004f7c <HAL_PCD_EP_Close>
 8008858:	2803      	cmp	r0, #3
 800885a:	d805      	bhi.n	8008868 <USBD_LL_CloseEP+0x1a>
 800885c:	e8df f000 	tbb	[pc, r0]
 8008860:	03020403 	.word	0x03020403
 8008864:	2001      	movs	r0, #1
 8008866:	bd08      	pop	{r3, pc}
 8008868:	2003      	movs	r0, #3
 800886a:	e7fc      	b.n	8008866 <USBD_LL_CloseEP+0x18>

0800886c <USBD_LL_StallEP>:
 800886c:	b508      	push	{r3, lr}
 800886e:	f8d0 02c8 	ldr.w	r0, [r0, #712]	@ 0x2c8
 8008872:	f7fc fc05 	bl	8005080 <HAL_PCD_EP_SetStall>
 8008876:	2803      	cmp	r0, #3
 8008878:	d805      	bhi.n	8008886 <USBD_LL_StallEP+0x1a>
 800887a:	e8df f000 	tbb	[pc, r0]
 800887e:	0403      	.short	0x0403
 8008880:	0302      	.short	0x0302
 8008882:	2001      	movs	r0, #1
 8008884:	bd08      	pop	{r3, pc}
 8008886:	2003      	movs	r0, #3
 8008888:	e7fc      	b.n	8008884 <USBD_LL_StallEP+0x18>

0800888a <USBD_LL_ClearStallEP>:
 800888a:	b508      	push	{r3, lr}
 800888c:	f8d0 02c8 	ldr.w	r0, [r0, #712]	@ 0x2c8
 8008890:	f7fc fc36 	bl	8005100 <HAL_PCD_EP_ClrStall>
 8008894:	2803      	cmp	r0, #3
 8008896:	d805      	bhi.n	80088a4 <USBD_LL_ClearStallEP+0x1a>
 8008898:	e8df f000 	tbb	[pc, r0]
 800889c:	03020403 	.word	0x03020403
 80088a0:	2001      	movs	r0, #1
 80088a2:	bd08      	pop	{r3, pc}
 80088a4:	2003      	movs	r0, #3
 80088a6:	e7fc      	b.n	80088a2 <USBD_LL_ClearStallEP+0x18>

080088a8 <USBD_LL_IsStallEP>:
 80088a8:	f8d0 32c8 	ldr.w	r3, [r0, #712]	@ 0x2c8
 80088ac:	f011 0f80 	tst.w	r1, #128	@ 0x80
 80088b0:	d108      	bne.n	80088c4 <USBD_LL_IsStallEP+0x1c>
 80088b2:	f001 017f 	and.w	r1, r1, #127	@ 0x7f
 80088b6:	eb01 0181 	add.w	r1, r1, r1, lsl #2
 80088ba:	eb03 03c1 	add.w	r3, r3, r1, lsl #3
 80088be:	f893 0152 	ldrb.w	r0, [r3, #338]	@ 0x152
 80088c2:	4770      	bx	lr
 80088c4:	f001 017f 	and.w	r1, r1, #127	@ 0x7f
 80088c8:	eb01 0181 	add.w	r1, r1, r1, lsl #2
 80088cc:	eb03 03c1 	add.w	r3, r3, r1, lsl #3
 80088d0:	7c98      	ldrb	r0, [r3, #18]
 80088d2:	4770      	bx	lr

080088d4 <USBD_LL_SetUSBAddress>:
 80088d4:	b508      	push	{r3, lr}
 80088d6:	f8d0 02c8 	ldr.w	r0, [r0, #712]	@ 0x2c8
 80088da:	f7fc fa20 	bl	8004d1e <HAL_PCD_SetAddress>
 80088de:	2803      	cmp	r0, #3
 80088e0:	d805      	bhi.n	80088ee <USBD_LL_SetUSBAddress+0x1a>
 80088e2:	e8df f000 	tbb	[pc, r0]
 80088e6:	0403      	.short	0x0403
 80088e8:	0302      	.short	0x0302
 80088ea:	2001      	movs	r0, #1
 80088ec:	bd08      	pop	{r3, pc}
 80088ee:	2003      	movs	r0, #3
 80088f0:	e7fc      	b.n	80088ec <USBD_LL_SetUSBAddress+0x18>

080088f2 <USBD_LL_Transmit>:
 80088f2:	b508      	push	{r3, lr}
 80088f4:	f8d0 02c8 	ldr.w	r0, [r0, #712]	@ 0x2c8
 80088f8:	f7fc fb9c 	bl	8005034 <HAL_PCD_EP_Transmit>
 80088fc:	2803      	cmp	r0, #3
 80088fe:	d805      	bhi.n	800890c <USBD_LL_Transmit+0x1a>
 8008900:	e8df f000 	tbb	[pc, r0]
 8008904:	03020403 	.word	0x03020403
 8008908:	2001      	movs	r0, #1
 800890a:	bd08      	pop	{r3, pc}
 800890c:	2003      	movs	r0, #3
 800890e:	e7fc      	b.n	800890a <USBD_LL_Transmit+0x18>

08008910 <USBD_LL_PrepareReceive>:
 8008910:	b508      	push	{r3, lr}
 8008912:	f8d0 02c8 	ldr.w	r0, [r0, #712]	@ 0x2c8
 8008916:	f7fc fb67 	bl	8004fe8 <HAL_PCD_EP_Receive>
 800891a:	2803      	cmp	r0, #3
 800891c:	d805      	bhi.n	800892a <USBD_LL_PrepareReceive+0x1a>
 800891e:	e8df f000 	tbb	[pc, r0]
 8008922:	0403      	.short	0x0403
 8008924:	0302      	.short	0x0302
 8008926:	2001      	movs	r0, #1
 8008928:	bd08      	pop	{r3, pc}
 800892a:	2003      	movs	r0, #3
 800892c:	e7fc      	b.n	8008928 <USBD_LL_PrepareReceive+0x18>

0800892e <USBD_LL_GetRxDataSize>:
 800892e:	b508      	push	{r3, lr}
 8008930:	f8d0 02c8 	ldr.w	r0, [r0, #712]	@ 0x2c8
 8008934:	f7fc fb75 	bl	8005022 <HAL_PCD_EP_GetRxCount>
 8008938:	bd08      	pop	{r3, pc}
	...

0800893c <HAL_PCDEx_LPM_Callback>:
 800893c:	b510      	push	{r4, lr}
 800893e:	4604      	mov	r4, r0
 8008940:	b169      	cbz	r1, 800895e <HAL_PCDEx_LPM_Callback+0x22>
 8008942:	2901      	cmp	r1, #1
 8008944:	d111      	bne.n	800896a <HAL_PCDEx_LPM_Callback+0x2e>
 8008946:	f8d0 02dc 	ldr.w	r0, [r0, #732]	@ 0x2dc
 800894a:	f000 f8cc 	bl	8008ae6 <USBD_LL_Suspend>
 800894e:	7aa3      	ldrb	r3, [r4, #10]
 8008950:	b15b      	cbz	r3, 800896a <HAL_PCDEx_LPM_Callback+0x2e>
 8008952:	4a0a      	ldr	r2, [pc, #40]	@ (800897c <HAL_PCDEx_LPM_Callback+0x40>)
 8008954:	6913      	ldr	r3, [r2, #16]
 8008956:	f043 0306 	orr.w	r3, r3, #6
 800895a:	6113      	str	r3, [r2, #16]
 800895c:	e005      	b.n	800896a <HAL_PCDEx_LPM_Callback+0x2e>
 800895e:	7a83      	ldrb	r3, [r0, #10]
 8008960:	b923      	cbnz	r3, 800896c <HAL_PCDEx_LPM_Callback+0x30>
 8008962:	f8d4 02dc 	ldr.w	r0, [r4, #732]	@ 0x2dc
 8008966:	f000 f8cc 	bl	8008b02 <USBD_LL_Resume>
 800896a:	bd10      	pop	{r4, pc}
 800896c:	f7ff fe5a 	bl	8008624 <SystemClockConfig_Resume>
 8008970:	4a02      	ldr	r2, [pc, #8]	@ (800897c <HAL_PCDEx_LPM_Callback+0x40>)
 8008972:	6913      	ldr	r3, [r2, #16]
 8008974:	f023 0306 	bic.w	r3, r3, #6
 8008978:	6113      	str	r3, [r2, #16]
 800897a:	e7f2      	b.n	8008962 <HAL_PCDEx_LPM_Callback+0x26>
 800897c:	e000ed00 	.word	0xe000ed00

08008980 <USBD_static_malloc>:
 8008980:	4800      	ldr	r0, [pc, #0]	@ (8008984 <USBD_static_malloc+0x4>)
 8008982:	4770      	bx	lr
 8008984:	20000fe4 	.word	0x20000fe4

08008988 <USBD_static_free>:
 8008988:	4770      	bx	lr

0800898a <USBD_Init>:
 800898a:	b198      	cbz	r0, 80089b4 <USBD_Init+0x2a>
 800898c:	b508      	push	{r3, lr}
 800898e:	4603      	mov	r3, r0
 8008990:	2000      	movs	r0, #0
 8008992:	f8c3 02b8 	str.w	r0, [r3, #696]	@ 0x2b8
 8008996:	f8c3 02c4 	str.w	r0, [r3, #708]	@ 0x2c4
 800899a:	f8c3 02d0 	str.w	r0, [r3, #720]	@ 0x2d0
 800899e:	b109      	cbz	r1, 80089a4 <USBD_Init+0x1a>
 80089a0:	f8c3 12b4 	str.w	r1, [r3, #692]	@ 0x2b4
 80089a4:	2101      	movs	r1, #1
 80089a6:	f883 129c 	strb.w	r1, [r3, #668]	@ 0x29c
 80089aa:	701a      	strb	r2, [r3, #0]
 80089ac:	4618      	mov	r0, r3
 80089ae:	f7ff fee7 	bl	8008780 <USBD_LL_Init>
 80089b2:	bd08      	pop	{r3, pc}
 80089b4:	2003      	movs	r0, #3
 80089b6:	4770      	bx	lr

080089b8 <USBD_RegisterClass>:
 80089b8:	b510      	push	{r4, lr}
 80089ba:	b082      	sub	sp, #8
 80089bc:	2300      	movs	r3, #0
 80089be:	f8ad 3006 	strh.w	r3, [sp, #6]
 80089c2:	b1b9      	cbz	r1, 80089f4 <USBD_RegisterClass+0x3c>
 80089c4:	4604      	mov	r4, r0
 80089c6:	f8c0 12b8 	str.w	r1, [r0, #696]	@ 0x2b8
 80089ca:	f8d0 22d4 	ldr.w	r2, [r0, #724]	@ 0x2d4
 80089ce:	6acb      	ldr	r3, [r1, #44]	@ 0x2c
 80089d0:	b143      	cbz	r3, 80089e4 <USBD_RegisterClass+0x2c>
 80089d2:	32ae      	adds	r2, #174	@ 0xae
 80089d4:	f850 3022 	ldr.w	r3, [r0, r2, lsl #2]
 80089d8:	6adb      	ldr	r3, [r3, #44]	@ 0x2c
 80089da:	f10d 0006 	add.w	r0, sp, #6
 80089de:	4798      	blx	r3
 80089e0:	f8c4 02d0 	str.w	r0, [r4, #720]	@ 0x2d0
 80089e4:	f8d4 32d8 	ldr.w	r3, [r4, #728]	@ 0x2d8
 80089e8:	3301      	adds	r3, #1
 80089ea:	f8c4 32d8 	str.w	r3, [r4, #728]	@ 0x2d8
 80089ee:	2000      	movs	r0, #0
 80089f0:	b002      	add	sp, #8
 80089f2:	bd10      	pop	{r4, pc}
 80089f4:	2003      	movs	r0, #3
 80089f6:	e7fb      	b.n	80089f0 <USBD_RegisterClass+0x38>

080089f8 <USBD_Start>:
 80089f8:	b508      	push	{r3, lr}
 80089fa:	f7ff ff07 	bl	800880c <USBD_LL_Start>
 80089fe:	bd08      	pop	{r3, pc}

08008a00 <USBD_SetClassConfig>:
 8008a00:	b508      	push	{r3, lr}
 8008a02:	f8d0 32b8 	ldr.w	r3, [r0, #696]	@ 0x2b8
 8008a06:	b113      	cbz	r3, 8008a0e <USBD_SetClassConfig+0xe>
 8008a08:	681b      	ldr	r3, [r3, #0]
 8008a0a:	4798      	blx	r3
 8008a0c:	bd08      	pop	{r3, pc}
 8008a0e:	2000      	movs	r0, #0
 8008a10:	e7fc      	b.n	8008a0c <USBD_SetClassConfig+0xc>

08008a12 <USBD_ClrClassConfig>:
 8008a12:	b508      	push	{r3, lr}
 8008a14:	f8d0 32b8 	ldr.w	r3, [r0, #696]	@ 0x2b8
 8008a18:	685b      	ldr	r3, [r3, #4]
 8008a1a:	4798      	blx	r3
 8008a1c:	b900      	cbnz	r0, 8008a20 <USBD_ClrClassConfig+0xe>
 8008a1e:	bd08      	pop	{r3, pc}
 8008a20:	2003      	movs	r0, #3
 8008a22:	e7fc      	b.n	8008a1e <USBD_ClrClassConfig+0xc>

08008a24 <USBD_LL_SetupStage>:
 8008a24:	b538      	push	{r3, r4, r5, lr}
 8008a26:	4604      	mov	r4, r0
 8008a28:	f200 25aa 	addw	r5, r0, #682	@ 0x2aa
 8008a2c:	4628      	mov	r0, r5
 8008a2e:	f000 f981 	bl	8008d34 <USBD_ParseSetupRequest>
 8008a32:	2301      	movs	r3, #1
 8008a34:	f8c4 3294 	str.w	r3, [r4, #660]	@ 0x294
 8008a38:	f8b4 32b0 	ldrh.w	r3, [r4, #688]	@ 0x2b0
 8008a3c:	f8c4 3298 	str.w	r3, [r4, #664]	@ 0x298
 8008a40:	f894 12aa 	ldrb.w	r1, [r4, #682]	@ 0x2aa
 8008a44:	f001 031f 	and.w	r3, r1, #31
 8008a48:	2b01      	cmp	r3, #1
 8008a4a:	d007      	beq.n	8008a5c <USBD_LL_SetupStage+0x38>
 8008a4c:	2b02      	cmp	r3, #2
 8008a4e:	d00a      	beq.n	8008a66 <USBD_LL_SetupStage+0x42>
 8008a50:	b973      	cbnz	r3, 8008a70 <USBD_LL_SetupStage+0x4c>
 8008a52:	4629      	mov	r1, r5
 8008a54:	4620      	mov	r0, r4
 8008a56:	f000 fb53 	bl	8009100 <USBD_StdDevReq>
 8008a5a:	bd38      	pop	{r3, r4, r5, pc}
 8008a5c:	4629      	mov	r1, r5
 8008a5e:	4620      	mov	r0, r4
 8008a60:	f000 fb89 	bl	8009176 <USBD_StdItfReq>
 8008a64:	e7f9      	b.n	8008a5a <USBD_LL_SetupStage+0x36>
 8008a66:	4629      	mov	r1, r5
 8008a68:	4620      	mov	r0, r4
 8008a6a:	f000 fbc6 	bl	80091fa <USBD_StdEPReq>
 8008a6e:	e7f4      	b.n	8008a5a <USBD_LL_SetupStage+0x36>
 8008a70:	f001 0180 	and.w	r1, r1, #128	@ 0x80
 8008a74:	4620      	mov	r0, r4
 8008a76:	f7ff fef9 	bl	800886c <USBD_LL_StallEP>
 8008a7a:	e7ee      	b.n	8008a5a <USBD_LL_SetupStage+0x36>

08008a7c <USBD_LL_Reset>:
 8008a7c:	b5f8      	push	{r3, r4, r5, r6, r7, lr}
 8008a7e:	4604      	mov	r4, r0
 8008a80:	2301      	movs	r3, #1
 8008a82:	f880 329c 	strb.w	r3, [r0, #668]	@ 0x29c
 8008a86:	2300      	movs	r3, #0
 8008a88:	f8c0 3294 	str.w	r3, [r0, #660]	@ 0x294
 8008a8c:	6043      	str	r3, [r0, #4]
 8008a8e:	f8c0 32a4 	str.w	r3, [r0, #676]	@ 0x2a4
 8008a92:	f880 32a0 	strb.w	r3, [r0, #672]	@ 0x2a0
 8008a96:	f8d0 32b8 	ldr.w	r3, [r0, #696]	@ 0x2b8
 8008a9a:	b1db      	cbz	r3, 8008ad4 <USBD_LL_Reset+0x58>
 8008a9c:	685b      	ldr	r3, [r3, #4]
 8008a9e:	b1db      	cbz	r3, 8008ad8 <USBD_LL_Reset+0x5c>
 8008aa0:	2100      	movs	r1, #0
 8008aa2:	4798      	blx	r3
 8008aa4:	4607      	mov	r7, r0
 8008aa6:	b9c8      	cbnz	r0, 8008adc <USBD_LL_Reset+0x60>
 8008aa8:	2340      	movs	r3, #64	@ 0x40
 8008aaa:	2200      	movs	r2, #0
 8008aac:	4611      	mov	r1, r2
 8008aae:	4620      	mov	r0, r4
 8008ab0:	f7ff febb 	bl	800882a <USBD_LL_OpenEP>
 8008ab4:	2601      	movs	r6, #1
 8008ab6:	f8a4 6164 	strh.w	r6, [r4, #356]	@ 0x164
 8008aba:	2540      	movs	r5, #64	@ 0x40
 8008abc:	f8c4 5160 	str.w	r5, [r4, #352]	@ 0x160
 8008ac0:	462b      	mov	r3, r5
 8008ac2:	2200      	movs	r2, #0
 8008ac4:	2180      	movs	r1, #128	@ 0x80
 8008ac6:	4620      	mov	r0, r4
 8008ac8:	f7ff feaf 	bl	800882a <USBD_LL_OpenEP>
 8008acc:	84a6      	strh	r6, [r4, #36]	@ 0x24
 8008ace:	6225      	str	r5, [r4, #32]
 8008ad0:	4638      	mov	r0, r7
 8008ad2:	bdf8      	pop	{r3, r4, r5, r6, r7, pc}
 8008ad4:	2700      	movs	r7, #0
 8008ad6:	e7e7      	b.n	8008aa8 <USBD_LL_Reset+0x2c>
 8008ad8:	2700      	movs	r7, #0
 8008ada:	e7e5      	b.n	8008aa8 <USBD_LL_Reset+0x2c>
 8008adc:	2703      	movs	r7, #3
 8008ade:	e7e3      	b.n	8008aa8 <USBD_LL_Reset+0x2c>

08008ae0 <USBD_LL_SetSpeed>:
 8008ae0:	7401      	strb	r1, [r0, #16]
 8008ae2:	2000      	movs	r0, #0
 8008ae4:	4770      	bx	lr

08008ae6 <USBD_LL_Suspend>:
 8008ae6:	f890 329c 	ldrb.w	r3, [r0, #668]	@ 0x29c
 8008aea:	2b04      	cmp	r3, #4
 8008aec:	d004      	beq.n	8008af8 <USBD_LL_Suspend+0x12>
 8008aee:	f890 329c 	ldrb.w	r3, [r0, #668]	@ 0x29c
 8008af2:	b2db      	uxtb	r3, r3
 8008af4:	f880 329d 	strb.w	r3, [r0, #669]	@ 0x29d
 8008af8:	2304      	movs	r3, #4
 8008afa:	f880 329c 	strb.w	r3, [r0, #668]	@ 0x29c
 8008afe:	2000      	movs	r0, #0
 8008b00:	4770      	bx	lr

08008b02 <USBD_LL_Resume>:
 8008b02:	f890 329c 	ldrb.w	r3, [r0, #668]	@ 0x29c
 8008b06:	2b04      	cmp	r3, #4
 8008b08:	d001      	beq.n	8008b0e <USBD_LL_Resume+0xc>
 8008b0a:	2000      	movs	r0, #0
 8008b0c:	4770      	bx	lr
 8008b0e:	f890 329d 	ldrb.w	r3, [r0, #669]	@ 0x29d
 8008b12:	b2db      	uxtb	r3, r3
 8008b14:	f880 329c 	strb.w	r3, [r0, #668]	@ 0x29c
 8008b18:	e7f7      	b.n	8008b0a <USBD_LL_Resume+0x8>

08008b1a <USBD_LL_SOF>:
 8008b1a:	b508      	push	{r3, lr}
 8008b1c:	f890 329c 	ldrb.w	r3, [r0, #668]	@ 0x29c
 8008b20:	2b03      	cmp	r3, #3
 8008b22:	d001      	beq.n	8008b28 <USBD_LL_SOF+0xe>
 8008b24:	2000      	movs	r0, #0
 8008b26:	bd08      	pop	{r3, pc}
 8008b28:	f8d0 32b8 	ldr.w	r3, [r0, #696]	@ 0x2b8
 8008b2c:	2b00      	cmp	r3, #0
 8008b2e:	d0f9      	beq.n	8008b24 <USBD_LL_SOF+0xa>
 8008b30:	69db      	ldr	r3, [r3, #28]
 8008b32:	2b00      	cmp	r3, #0
 8008b34:	d0f6      	beq.n	8008b24 <USBD_LL_SOF+0xa>
 8008b36:	4798      	blx	r3
 8008b38:	e7f4      	b.n	8008b24 <USBD_LL_SOF+0xa>

08008b3a <USBD_CoreFindIF>:
 8008b3a:	2000      	movs	r0, #0
 8008b3c:	4770      	bx	lr

08008b3e <USBD_CoreFindEP>:
 8008b3e:	2000      	movs	r0, #0
 8008b40:	4770      	bx	lr

08008b42 <USBD_LL_DataOutStage>:
 8008b42:	b538      	push	{r3, r4, r5, lr}
 8008b44:	4604      	mov	r4, r0
 8008b46:	460d      	mov	r5, r1
 8008b48:	2900      	cmp	r1, #0
 8008b4a:	d141      	bne.n	8008bd0 <USBD_LL_DataOutStage+0x8e>
 8008b4c:	4613      	mov	r3, r2
 8008b4e:	f8d0 2294 	ldr.w	r2, [r0, #660]	@ 0x294
 8008b52:	2a03      	cmp	r2, #3
 8008b54:	d001      	beq.n	8008b5a <USBD_LL_DataOutStage+0x18>
 8008b56:	4608      	mov	r0, r1
 8008b58:	bd38      	pop	{r3, r4, r5, pc}
 8008b5a:	f8d0 115c 	ldr.w	r1, [r0, #348]	@ 0x15c
 8008b5e:	f8d0 2160 	ldr.w	r2, [r0, #352]	@ 0x160
 8008b62:	4291      	cmp	r1, r2
 8008b64:	d809      	bhi.n	8008b7a <USBD_LL_DataOutStage+0x38>
 8008b66:	f890 32aa 	ldrb.w	r3, [r0, #682]	@ 0x2aa
 8008b6a:	f003 031f 	and.w	r3, r3, #31
 8008b6e:	2b01      	cmp	r3, #1
 8008b70:	d00e      	beq.n	8008b90 <USBD_LL_DataOutStage+0x4e>
 8008b72:	2b02      	cmp	r3, #2
 8008b74:	d01a      	beq.n	8008bac <USBD_LL_DataOutStage+0x6a>
 8008b76:	4628      	mov	r0, r5
 8008b78:	e00f      	b.n	8008b9a <USBD_LL_DataOutStage+0x58>
 8008b7a:	1a89      	subs	r1, r1, r2
 8008b7c:	f8c0 115c 	str.w	r1, [r0, #348]	@ 0x15c
 8008b80:	428a      	cmp	r2, r1
 8008b82:	bf28      	it	cs
 8008b84:	460a      	movcs	r2, r1
 8008b86:	4619      	mov	r1, r3
 8008b88:	f000 fd3a 	bl	8009600 <USBD_CtlContinueRx>
 8008b8c:	4628      	mov	r0, r5
 8008b8e:	e7e3      	b.n	8008b58 <USBD_LL_DataOutStage+0x16>
 8008b90:	f890 12ae 	ldrb.w	r1, [r0, #686]	@ 0x2ae
 8008b94:	f7ff ffd1 	bl	8008b3a <USBD_CoreFindIF>
 8008b98:	b918      	cbnz	r0, 8008ba2 <USBD_LL_DataOutStage+0x60>
 8008b9a:	f894 329c 	ldrb.w	r3, [r4, #668]	@ 0x29c
 8008b9e:	2b03      	cmp	r3, #3
 8008ba0:	d009      	beq.n	8008bb6 <USBD_LL_DataOutStage+0x74>
 8008ba2:	4620      	mov	r0, r4
 8008ba4:	f000 fd34 	bl	8009610 <USBD_CtlSendStatus>
 8008ba8:	4628      	mov	r0, r5
 8008baa:	e7d5      	b.n	8008b58 <USBD_LL_DataOutStage+0x16>
 8008bac:	f890 12ae 	ldrb.w	r1, [r0, #686]	@ 0x2ae
 8008bb0:	f7ff ffc5 	bl	8008b3e <USBD_CoreFindEP>
 8008bb4:	e7f0      	b.n	8008b98 <USBD_LL_DataOutStage+0x56>
 8008bb6:	f100 03ae 	add.w	r3, r0, #174	@ 0xae
 8008bba:	f854 3023 	ldr.w	r3, [r4, r3, lsl #2]
 8008bbe:	691a      	ldr	r2, [r3, #16]
 8008bc0:	2a00      	cmp	r2, #0
 8008bc2:	d0ee      	beq.n	8008ba2 <USBD_LL_DataOutStage+0x60>
 8008bc4:	f8c4 02d4 	str.w	r0, [r4, #724]	@ 0x2d4
 8008bc8:	691b      	ldr	r3, [r3, #16]
 8008bca:	4620      	mov	r0, r4
 8008bcc:	4798      	blx	r3
 8008bce:	e7e8      	b.n	8008ba2 <USBD_LL_DataOutStage+0x60>
 8008bd0:	f001 017f 	and.w	r1, r1, #127	@ 0x7f
 8008bd4:	f7ff ffb3 	bl	8008b3e <USBD_CoreFindEP>
 8008bd8:	b988      	cbnz	r0, 8008bfe <USBD_LL_DataOutStage+0xbc>
 8008bda:	f894 329c 	ldrb.w	r3, [r4, #668]	@ 0x29c
 8008bde:	2b03      	cmp	r3, #3
 8008be0:	d1ba      	bne.n	8008b58 <USBD_LL_DataOutStage+0x16>
 8008be2:	f100 03ae 	add.w	r3, r0, #174	@ 0xae
 8008be6:	f854 3023 	ldr.w	r3, [r4, r3, lsl #2]
 8008bea:	699a      	ldr	r2, [r3, #24]
 8008bec:	2a00      	cmp	r2, #0
 8008bee:	d0b3      	beq.n	8008b58 <USBD_LL_DataOutStage+0x16>
 8008bf0:	f8c4 02d4 	str.w	r0, [r4, #724]	@ 0x2d4
 8008bf4:	699b      	ldr	r3, [r3, #24]
 8008bf6:	4629      	mov	r1, r5
 8008bf8:	4620      	mov	r0, r4
 8008bfa:	4798      	blx	r3
 8008bfc:	e7ac      	b.n	8008b58 <USBD_LL_DataOutStage+0x16>
 8008bfe:	2000      	movs	r0, #0
 8008c00:	e7aa      	b.n	8008b58 <USBD_LL_DataOutStage+0x16>

08008c02 <USBD_LL_DataInStage>:
 8008c02:	b538      	push	{r3, r4, r5, lr}
 8008c04:	4604      	mov	r4, r0
 8008c06:	460d      	mov	r5, r1
 8008c08:	2900      	cmp	r1, #0
 8008c0a:	d14a      	bne.n	8008ca2 <USBD_LL_DataInStage+0xa0>
 8008c0c:	4613      	mov	r3, r2
 8008c0e:	f8d0 2294 	ldr.w	r2, [r0, #660]	@ 0x294
 8008c12:	2a02      	cmp	r2, #2
 8008c14:	d007      	beq.n	8008c26 <USBD_LL_DataInStage+0x24>
 8008c16:	f894 02a0 	ldrb.w	r0, [r4, #672]	@ 0x2a0
 8008c1a:	b118      	cbz	r0, 8008c24 <USBD_LL_DataInStage+0x22>
 8008c1c:	2300      	movs	r3, #0
 8008c1e:	f884 32a0 	strb.w	r3, [r4, #672]	@ 0x2a0
 8008c22:	4628      	mov	r0, r5
 8008c24:	bd38      	pop	{r3, r4, r5, pc}
 8008c26:	69c2      	ldr	r2, [r0, #28]
 8008c28:	6a01      	ldr	r1, [r0, #32]
 8008c2a:	428a      	cmp	r2, r1
 8008c2c:	d80d      	bhi.n	8008c4a <USBD_LL_DataInStage+0x48>
 8008c2e:	428a      	cmp	r2, r1
 8008c30:	d017      	beq.n	8008c62 <USBD_LL_DataInStage+0x60>
 8008c32:	f894 329c 	ldrb.w	r3, [r4, #668]	@ 0x29c
 8008c36:	2b03      	cmp	r3, #3
 8008c38:	d027      	beq.n	8008c8a <USBD_LL_DataInStage+0x88>
 8008c3a:	2180      	movs	r1, #128	@ 0x80
 8008c3c:	4620      	mov	r0, r4
 8008c3e:	f7ff fe15 	bl	800886c <USBD_LL_StallEP>
 8008c42:	4620      	mov	r0, r4
 8008c44:	f000 fcef 	bl	8009626 <USBD_CtlReceiveStatus>
 8008c48:	e7e5      	b.n	8008c16 <USBD_LL_DataInStage+0x14>
 8008c4a:	1a52      	subs	r2, r2, r1
 8008c4c:	61c2      	str	r2, [r0, #28]
 8008c4e:	4619      	mov	r1, r3
 8008c50:	f000 fcbf 	bl	80095d2 <USBD_CtlContinueSendData>
 8008c54:	2300      	movs	r3, #0
 8008c56:	461a      	mov	r2, r3
 8008c58:	4619      	mov	r1, r3
 8008c5a:	4620      	mov	r0, r4
 8008c5c:	f7ff fe58 	bl	8008910 <USBD_LL_PrepareReceive>
 8008c60:	e7d9      	b.n	8008c16 <USBD_LL_DataInStage+0x14>
 8008c62:	6983      	ldr	r3, [r0, #24]
 8008c64:	4299      	cmp	r1, r3
 8008c66:	d8e4      	bhi.n	8008c32 <USBD_LL_DataInStage+0x30>
 8008c68:	f8d0 2298 	ldr.w	r2, [r0, #664]	@ 0x298
 8008c6c:	4293      	cmp	r3, r2
 8008c6e:	d2e0      	bcs.n	8008c32 <USBD_LL_DataInStage+0x30>
 8008c70:	2200      	movs	r2, #0
 8008c72:	4611      	mov	r1, r2
 8008c74:	f000 fcad 	bl	80095d2 <USBD_CtlContinueSendData>
 8008c78:	2100      	movs	r1, #0
 8008c7a:	f8c4 1298 	str.w	r1, [r4, #664]	@ 0x298
 8008c7e:	460b      	mov	r3, r1
 8008c80:	460a      	mov	r2, r1
 8008c82:	4620      	mov	r0, r4
 8008c84:	f7ff fe44 	bl	8008910 <USBD_LL_PrepareReceive>
 8008c88:	e7c5      	b.n	8008c16 <USBD_LL_DataInStage+0x14>
 8008c8a:	f8d4 32b8 	ldr.w	r3, [r4, #696]	@ 0x2b8
 8008c8e:	68da      	ldr	r2, [r3, #12]
 8008c90:	2a00      	cmp	r2, #0
 8008c92:	d0d2      	beq.n	8008c3a <USBD_LL_DataInStage+0x38>
 8008c94:	2200      	movs	r2, #0
 8008c96:	f8c4 22d4 	str.w	r2, [r4, #724]	@ 0x2d4
 8008c9a:	68db      	ldr	r3, [r3, #12]
 8008c9c:	4620      	mov	r0, r4
 8008c9e:	4798      	blx	r3
 8008ca0:	e7cb      	b.n	8008c3a <USBD_LL_DataInStage+0x38>
 8008ca2:	f041 0180 	orr.w	r1, r1, #128	@ 0x80
 8008ca6:	f7ff ff4a 	bl	8008b3e <USBD_CoreFindEP>
 8008caa:	b988      	cbnz	r0, 8008cd0 <USBD_LL_DataInStage+0xce>
 8008cac:	f894 329c 	ldrb.w	r3, [r4, #668]	@ 0x29c
 8008cb0:	2b03      	cmp	r3, #3
 8008cb2:	d1b7      	bne.n	8008c24 <USBD_LL_DataInStage+0x22>
 8008cb4:	f100 03ae 	add.w	r3, r0, #174	@ 0xae
 8008cb8:	f854 3023 	ldr.w	r3, [r4, r3, lsl #2]
 8008cbc:	695a      	ldr	r2, [r3, #20]
 8008cbe:	2a00      	cmp	r2, #0
 8008cc0:	d0b0      	beq.n	8008c24 <USBD_LL_DataInStage+0x22>
 8008cc2:	f8c4 02d4 	str.w	r0, [r4, #724]	@ 0x2d4
 8008cc6:	695b      	ldr	r3, [r3, #20]
 8008cc8:	4629      	mov	r1, r5
 8008cca:	4620      	mov	r0, r4
 8008ccc:	4798      	blx	r3
 8008cce:	e7a9      	b.n	8008c24 <USBD_LL_DataInStage+0x22>
 8008cd0:	2000      	movs	r0, #0
 8008cd2:	e7a7      	b.n	8008c24 <USBD_LL_DataInStage+0x22>

08008cd4 <USBD_GetNextDesc>:
 8008cd4:	880b      	ldrh	r3, [r1, #0]
 8008cd6:	7802      	ldrb	r2, [r0, #0]
 8008cd8:	4413      	add	r3, r2
 8008cda:	800b      	strh	r3, [r1, #0]
 8008cdc:	7803      	ldrb	r3, [r0, #0]
 8008cde:	4418      	add	r0, r3
 8008ce0:	4770      	bx	lr

08008ce2 <USBD_GetEpDesc>:
 8008ce2:	8842      	ldrh	r2, [r0, #2]
 8008ce4:	7803      	ldrb	r3, [r0, #0]
 8008ce6:	429a      	cmp	r2, r3
 8008ce8:	d918      	bls.n	8008d1c <USBD_GetEpDesc+0x3a>
 8008cea:	b530      	push	{r4, r5, lr}
 8008cec:	b083      	sub	sp, #12
 8008cee:	4604      	mov	r4, r0
 8008cf0:	460d      	mov	r5, r1
 8008cf2:	f8ad 3006 	strh.w	r3, [sp, #6]
 8008cf6:	8863      	ldrh	r3, [r4, #2]
 8008cf8:	f8bd 2006 	ldrh.w	r2, [sp, #6]
 8008cfc:	429a      	cmp	r2, r3
 8008cfe:	d20a      	bcs.n	8008d16 <USBD_GetEpDesc+0x34>
 8008d00:	f10d 0106 	add.w	r1, sp, #6
 8008d04:	f7ff ffe6 	bl	8008cd4 <USBD_GetNextDesc>
 8008d08:	7843      	ldrb	r3, [r0, #1]
 8008d0a:	2b05      	cmp	r3, #5
 8008d0c:	d1f3      	bne.n	8008cf6 <USBD_GetEpDesc+0x14>
 8008d0e:	7883      	ldrb	r3, [r0, #2]
 8008d10:	42ab      	cmp	r3, r5
 8008d12:	d1f0      	bne.n	8008cf6 <USBD_GetEpDesc+0x14>
 8008d14:	e000      	b.n	8008d18 <USBD_GetEpDesc+0x36>
 8008d16:	2000      	movs	r0, #0
 8008d18:	b003      	add	sp, #12
 8008d1a:	bd30      	pop	{r4, r5, pc}
 8008d1c:	2000      	movs	r0, #0
 8008d1e:	4770      	bx	lr

08008d20 <USBD_GetLen>:
 8008d20:	4603      	mov	r3, r0
 8008d22:	2000      	movs	r0, #0
 8008d24:	e002      	b.n	8008d2c <USBD_GetLen+0xc>
 8008d26:	3001      	adds	r0, #1
 8008d28:	b2c0      	uxtb	r0, r0
 8008d2a:	3301      	adds	r3, #1
 8008d2c:	781a      	ldrb	r2, [r3, #0]
 8008d2e:	2a00      	cmp	r2, #0
 8008d30:	d1f9      	bne.n	8008d26 <USBD_GetLen+0x6>
 8008d32:	4770      	bx	lr

08008d34 <USBD_ParseSetupRequest>:
 8008d34:	780b      	ldrb	r3, [r1, #0]
 8008d36:	7003      	strb	r3, [r0, #0]
 8008d38:	784b      	ldrb	r3, [r1, #1]
 8008d3a:	7043      	strb	r3, [r0, #1]
 8008d3c:	788b      	ldrb	r3, [r1, #2]
 8008d3e:	78ca      	ldrb	r2, [r1, #3]
 8008d40:	ea43 2302 	orr.w	r3, r3, r2, lsl #8
 8008d44:	8043      	strh	r3, [r0, #2]
 8008d46:	790b      	ldrb	r3, [r1, #4]
 8008d48:	794a      	ldrb	r2, [r1, #5]
 8008d4a:	ea43 2302 	orr.w	r3, r3, r2, lsl #8
 8008d4e:	8083      	strh	r3, [r0, #4]
 8008d50:	798b      	ldrb	r3, [r1, #6]
 8008d52:	79ca      	ldrb	r2, [r1, #7]
 8008d54:	ea43 2302 	orr.w	r3, r3, r2, lsl #8
 8008d58:	80c3      	strh	r3, [r0, #6]
 8008d5a:	4770      	bx	lr

08008d5c <USBD_CtlError>:
 8008d5c:	b510      	push	{r4, lr}
 8008d5e:	4604      	mov	r4, r0
 8008d60:	2180      	movs	r1, #128	@ 0x80
 8008d62:	f7ff fd83 	bl	800886c <USBD_LL_StallEP>
 8008d66:	2100      	movs	r1, #0
 8008d68:	4620      	mov	r0, r4
 8008d6a:	f7ff fd7f 	bl	800886c <USBD_LL_StallEP>
 8008d6e:	bd10      	pop	{r4, pc}

08008d70 <USBD_GetDescriptor>:
 8008d70:	b530      	push	{r4, r5, lr}
 8008d72:	b083      	sub	sp, #12
 8008d74:	4605      	mov	r5, r0
 8008d76:	460c      	mov	r4, r1
 8008d78:	2300      	movs	r3, #0
 8008d7a:	f8ad 3006 	strh.w	r3, [sp, #6]
 8008d7e:	884a      	ldrh	r2, [r1, #2]
 8008d80:	0a13      	lsrs	r3, r2, #8
 8008d82:	3b01      	subs	r3, #1
 8008d84:	2b0e      	cmp	r3, #14
 8008d86:	f200 80bb 	bhi.w	8008f00 <USBD_GetDescriptor+0x190>
 8008d8a:	e8df f003 	tbb	[pc, r3]
 8008d8e:	2f15      	.short	0x2f15
 8008d90:	9db9b943 	.word	0x9db9b943
 8008d94:	b9b9b9aa 	.word	0xb9b9b9aa
 8008d98:	b9b9b9b9 	.word	0xb9b9b9b9
 8008d9c:	08          	.byte	0x08
 8008d9d:	00          	.byte	0x00
 8008d9e:	f8d0 32b4 	ldr.w	r3, [r0, #692]	@ 0x2b4
 8008da2:	69db      	ldr	r3, [r3, #28]
 8008da4:	b123      	cbz	r3, 8008db0 <USBD_GetDescriptor+0x40>
 8008da6:	f10d 0106 	add.w	r1, sp, #6
 8008daa:	7c00      	ldrb	r0, [r0, #16]
 8008dac:	4798      	blx	r3
 8008dae:	e00a      	b.n	8008dc6 <USBD_GetDescriptor+0x56>
 8008db0:	4621      	mov	r1, r4
 8008db2:	f7ff ffd3 	bl	8008d5c <USBD_CtlError>
 8008db6:	e0a6      	b.n	8008f06 <USBD_GetDescriptor+0x196>
 8008db8:	f8d0 32b4 	ldr.w	r3, [r0, #692]	@ 0x2b4
 8008dbc:	681b      	ldr	r3, [r3, #0]
 8008dbe:	f10d 0106 	add.w	r1, sp, #6
 8008dc2:	7c00      	ldrb	r0, [r0, #16]
 8008dc4:	4798      	blx	r3
 8008dc6:	88e2      	ldrh	r2, [r4, #6]
 8008dc8:	2a00      	cmp	r2, #0
 8008dca:	f000 80a3 	beq.w	8008f14 <USBD_GetDescriptor+0x1a4>
 8008dce:	f8bd 3006 	ldrh.w	r3, [sp, #6]
 8008dd2:	2b00      	cmp	r3, #0
 8008dd4:	f000 8099 	beq.w	8008f0a <USBD_GetDescriptor+0x19a>
 8008dd8:	429a      	cmp	r2, r3
 8008dda:	bf28      	it	cs
 8008ddc:	461a      	movcs	r2, r3
 8008dde:	f8ad 2006 	strh.w	r2, [sp, #6]
 8008de2:	4601      	mov	r1, r0
 8008de4:	4628      	mov	r0, r5
 8008de6:	f000 fbe7 	bl	80095b8 <USBD_CtlSendData>
 8008dea:	e08c      	b.n	8008f06 <USBD_GetDescriptor+0x196>
 8008dec:	7c03      	ldrb	r3, [r0, #16]
 8008dee:	b943      	cbnz	r3, 8008e02 <USBD_GetDescriptor+0x92>
 8008df0:	f8d0 32b8 	ldr.w	r3, [r0, #696]	@ 0x2b8
 8008df4:	6a9b      	ldr	r3, [r3, #40]	@ 0x28
 8008df6:	f10d 0006 	add.w	r0, sp, #6
 8008dfa:	4798      	blx	r3
 8008dfc:	2302      	movs	r3, #2
 8008dfe:	7043      	strb	r3, [r0, #1]
 8008e00:	e7e1      	b.n	8008dc6 <USBD_GetDescriptor+0x56>
 8008e02:	f8d0 32b8 	ldr.w	r3, [r0, #696]	@ 0x2b8
 8008e06:	6adb      	ldr	r3, [r3, #44]	@ 0x2c
 8008e08:	f10d 0006 	add.w	r0, sp, #6
 8008e0c:	4798      	blx	r3
 8008e0e:	2302      	movs	r3, #2
 8008e10:	7043      	strb	r3, [r0, #1]
 8008e12:	e7d8      	b.n	8008dc6 <USBD_GetDescriptor+0x56>
 8008e14:	b2d2      	uxtb	r2, r2
 8008e16:	2a05      	cmp	r2, #5
 8008e18:	d852      	bhi.n	8008ec0 <USBD_GetDescriptor+0x150>
 8008e1a:	e8df f002 	tbb	[pc, r2]
 8008e1e:	1003      	.short	0x1003
 8008e20:	44372a1d 	.word	0x44372a1d
 8008e24:	f8d0 32b4 	ldr.w	r3, [r0, #692]	@ 0x2b4
 8008e28:	685b      	ldr	r3, [r3, #4]
 8008e2a:	b123      	cbz	r3, 8008e36 <USBD_GetDescriptor+0xc6>
 8008e2c:	f10d 0106 	add.w	r1, sp, #6
 8008e30:	7c00      	ldrb	r0, [r0, #16]
 8008e32:	4798      	blx	r3
 8008e34:	e7c7      	b.n	8008dc6 <USBD_GetDescriptor+0x56>
 8008e36:	4621      	mov	r1, r4
 8008e38:	f7ff ff90 	bl	8008d5c <USBD_CtlError>
 8008e3c:	e063      	b.n	8008f06 <USBD_GetDescriptor+0x196>
 8008e3e:	f8d0 32b4 	ldr.w	r3, [r0, #692]	@ 0x2b4
 8008e42:	689b      	ldr	r3, [r3, #8]
 8008e44:	b123      	cbz	r3, 8008e50 <USBD_GetDescriptor+0xe0>
 8008e46:	f10d 0106 	add.w	r1, sp, #6
 8008e4a:	7c00      	ldrb	r0, [r0, #16]
 8008e4c:	4798      	blx	r3
 8008e4e:	e7ba      	b.n	8008dc6 <USBD_GetDescriptor+0x56>
 8008e50:	4621      	mov	r1, r4
 8008e52:	f7ff ff83 	bl	8008d5c <USBD_CtlError>
 8008e56:	e056      	b.n	8008f06 <USBD_GetDescriptor+0x196>
 8008e58:	f8d0 32b4 	ldr.w	r3, [r0, #692]	@ 0x2b4
 8008e5c:	68db      	ldr	r3, [r3, #12]
 8008e5e:	b123      	cbz	r3, 8008e6a <USBD_GetDescriptor+0xfa>
 8008e60:	f10d 0106 	add.w	r1, sp, #6
 8008e64:	7c00      	ldrb	r0, [r0, #16]
 8008e66:	4798      	blx	r3
 8008e68:	e7ad      	b.n	8008dc6 <USBD_GetDescriptor+0x56>
 8008e6a:	4621      	mov	r1, r4
 8008e6c:	f7ff ff76 	bl	8008d5c <USBD_CtlError>
 8008e70:	e049      	b.n	8008f06 <USBD_GetDescriptor+0x196>
 8008e72:	f8d0 32b4 	ldr.w	r3, [r0, #692]	@ 0x2b4
 8008e76:	691b      	ldr	r3, [r3, #16]
 8008e78:	b123      	cbz	r3, 8008e84 <USBD_GetDescriptor+0x114>
 8008e7a:	f10d 0106 	add.w	r1, sp, #6
 8008e7e:	7c00      	ldrb	r0, [r0, #16]
 8008e80:	4798      	blx	r3
 8008e82:	e7a0      	b.n	8008dc6 <USBD_GetDescriptor+0x56>
 8008e84:	4621      	mov	r1, r4
 8008e86:	f7ff ff69 	bl	8008d5c <USBD_CtlError>
 8008e8a:	e03c      	b.n	8008f06 <USBD_GetDescriptor+0x196>
 8008e8c:	f8d0 32b4 	ldr.w	r3, [r0, #692]	@ 0x2b4
 8008e90:	695b      	ldr	r3, [r3, #20]
 8008e92:	b123      	cbz	r3, 8008e9e <USBD_GetDescriptor+0x12e>
 8008e94:	f10d 0106 	add.w	r1, sp, #6
 8008e98:	7c00      	ldrb	r0, [r0, #16]
 8008e9a:	4798      	blx	r3
 8008e9c:	e793      	b.n	8008dc6 <USBD_GetDescriptor+0x56>
 8008e9e:	4621      	mov	r1, r4
 8008ea0:	f7ff ff5c 	bl	8008d5c <USBD_CtlError>
 8008ea4:	e02f      	b.n	8008f06 <USBD_GetDescriptor+0x196>
 8008ea6:	f8d0 32b4 	ldr.w	r3, [r0, #692]	@ 0x2b4
 8008eaa:	699b      	ldr	r3, [r3, #24]
 8008eac:	b123      	cbz	r3, 8008eb8 <USBD_GetDescriptor+0x148>
 8008eae:	f10d 0106 	add.w	r1, sp, #6
 8008eb2:	7c00      	ldrb	r0, [r0, #16]
 8008eb4:	4798      	blx	r3
 8008eb6:	e786      	b.n	8008dc6 <USBD_GetDescriptor+0x56>
 8008eb8:	4621      	mov	r1, r4
 8008eba:	f7ff ff4f 	bl	8008d5c <USBD_CtlError>
 8008ebe:	e022      	b.n	8008f06 <USBD_GetDescriptor+0x196>
 8008ec0:	4621      	mov	r1, r4
 8008ec2:	f7ff ff4b 	bl	8008d5c <USBD_CtlError>
 8008ec6:	e01e      	b.n	8008f06 <USBD_GetDescriptor+0x196>
 8008ec8:	7c03      	ldrb	r3, [r0, #16]
 8008eca:	b933      	cbnz	r3, 8008eda <USBD_GetDescriptor+0x16a>
 8008ecc:	f8d0 32b8 	ldr.w	r3, [r0, #696]	@ 0x2b8
 8008ed0:	6b5b      	ldr	r3, [r3, #52]	@ 0x34
 8008ed2:	f10d 0006 	add.w	r0, sp, #6
 8008ed6:	4798      	blx	r3
 8008ed8:	e775      	b.n	8008dc6 <USBD_GetDescriptor+0x56>
 8008eda:	4621      	mov	r1, r4
 8008edc:	f7ff ff3e 	bl	8008d5c <USBD_CtlError>
 8008ee0:	e011      	b.n	8008f06 <USBD_GetDescriptor+0x196>
 8008ee2:	7c03      	ldrb	r3, [r0, #16]
 8008ee4:	b943      	cbnz	r3, 8008ef8 <USBD_GetDescriptor+0x188>
 8008ee6:	f8d0 32b8 	ldr.w	r3, [r0, #696]	@ 0x2b8
 8008eea:	6b1b      	ldr	r3, [r3, #48]	@ 0x30
 8008eec:	f10d 0006 	add.w	r0, sp, #6
 8008ef0:	4798      	blx	r3
 8008ef2:	2307      	movs	r3, #7
 8008ef4:	7043      	strb	r3, [r0, #1]
 8008ef6:	e766      	b.n	8008dc6 <USBD_GetDescriptor+0x56>
 8008ef8:	4621      	mov	r1, r4
 8008efa:	f7ff ff2f 	bl	8008d5c <USBD_CtlError>
 8008efe:	e002      	b.n	8008f06 <USBD_GetDescriptor+0x196>
 8008f00:	4621      	mov	r1, r4
 8008f02:	f7ff ff2b 	bl	8008d5c <USBD_CtlError>
 8008f06:	b003      	add	sp, #12
 8008f08:	bd30      	pop	{r4, r5, pc}
 8008f0a:	4621      	mov	r1, r4
 8008f0c:	4628      	mov	r0, r5
 8008f0e:	f7ff ff25 	bl	8008d5c <USBD_CtlError>
 8008f12:	e7f8      	b.n	8008f06 <USBD_GetDescriptor+0x196>
 8008f14:	4628      	mov	r0, r5
 8008f16:	f000 fb7b 	bl	8009610 <USBD_CtlSendStatus>
 8008f1a:	e7f4      	b.n	8008f06 <USBD_GetDescriptor+0x196>

08008f1c <USBD_SetAddress>:
 8008f1c:	b538      	push	{r3, r4, r5, lr}
 8008f1e:	4604      	mov	r4, r0
 8008f20:	888b      	ldrh	r3, [r1, #4]
 8008f22:	b9f3      	cbnz	r3, 8008f62 <USBD_SetAddress+0x46>
 8008f24:	88cb      	ldrh	r3, [r1, #6]
 8008f26:	b9e3      	cbnz	r3, 8008f62 <USBD_SetAddress+0x46>
 8008f28:	884b      	ldrh	r3, [r1, #2]
 8008f2a:	2b7f      	cmp	r3, #127	@ 0x7f
 8008f2c:	d819      	bhi.n	8008f62 <USBD_SetAddress+0x46>
 8008f2e:	f003 057f 	and.w	r5, r3, #127	@ 0x7f
 8008f32:	f890 329c 	ldrb.w	r3, [r0, #668]	@ 0x29c
 8008f36:	2b03      	cmp	r3, #3
 8008f38:	d00c      	beq.n	8008f54 <USBD_SetAddress+0x38>
 8008f3a:	f880 529e 	strb.w	r5, [r0, #670]	@ 0x29e
 8008f3e:	4629      	mov	r1, r5
 8008f40:	f7ff fcc8 	bl	80088d4 <USBD_LL_SetUSBAddress>
 8008f44:	4620      	mov	r0, r4
 8008f46:	f000 fb63 	bl	8009610 <USBD_CtlSendStatus>
 8008f4a:	b135      	cbz	r5, 8008f5a <USBD_SetAddress+0x3e>
 8008f4c:	2302      	movs	r3, #2
 8008f4e:	f884 329c 	strb.w	r3, [r4, #668]	@ 0x29c
 8008f52:	e009      	b.n	8008f68 <USBD_SetAddress+0x4c>
 8008f54:	f7ff ff02 	bl	8008d5c <USBD_CtlError>
 8008f58:	e006      	b.n	8008f68 <USBD_SetAddress+0x4c>
 8008f5a:	2301      	movs	r3, #1
 8008f5c:	f884 329c 	strb.w	r3, [r4, #668]	@ 0x29c
 8008f60:	e002      	b.n	8008f68 <USBD_SetAddress+0x4c>
 8008f62:	4620      	mov	r0, r4
 8008f64:	f7ff fefa 	bl	8008d5c <USBD_CtlError>
 8008f68:	bd38      	pop	{r3, r4, r5, pc}
	...

08008f6c <USBD_SetConfig>:
 8008f6c:	b570      	push	{r4, r5, r6, lr}
 8008f6e:	4604      	mov	r4, r0
 8008f70:	460e      	mov	r6, r1
 8008f72:	788d      	ldrb	r5, [r1, #2]
 8008f74:	4b2f      	ldr	r3, [pc, #188]	@ (8009034 <USBD_SetConfig+0xc8>)
 8008f76:	701d      	strb	r5, [r3, #0]
 8008f78:	2d01      	cmp	r5, #1
 8008f7a:	d810      	bhi.n	8008f9e <USBD_SetConfig+0x32>
 8008f7c:	f890 329c 	ldrb.w	r3, [r0, #668]	@ 0x29c
 8008f80:	b2da      	uxtb	r2, r3
 8008f82:	2b02      	cmp	r3, #2
 8008f84:	d00f      	beq.n	8008fa6 <USBD_SetConfig+0x3a>
 8008f86:	2a03      	cmp	r2, #3
 8008f88:	d026      	beq.n	8008fd8 <USBD_SetConfig+0x6c>
 8008f8a:	f7ff fee7 	bl	8008d5c <USBD_CtlError>
 8008f8e:	4b29      	ldr	r3, [pc, #164]	@ (8009034 <USBD_SetConfig+0xc8>)
 8008f90:	7819      	ldrb	r1, [r3, #0]
 8008f92:	4620      	mov	r0, r4
 8008f94:	f7ff fd3d 	bl	8008a12 <USBD_ClrClassConfig>
 8008f98:	2503      	movs	r5, #3
 8008f9a:	4628      	mov	r0, r5
 8008f9c:	bd70      	pop	{r4, r5, r6, pc}
 8008f9e:	f7ff fedd 	bl	8008d5c <USBD_CtlError>
 8008fa2:	2503      	movs	r5, #3
 8008fa4:	e7f9      	b.n	8008f9a <USBD_SetConfig+0x2e>
 8008fa6:	b1a5      	cbz	r5, 8008fd2 <USBD_SetConfig+0x66>
 8008fa8:	6045      	str	r5, [r0, #4]
 8008faa:	4629      	mov	r1, r5
 8008fac:	f7ff fd28 	bl	8008a00 <USBD_SetClassConfig>
 8008fb0:	4605      	mov	r5, r0
 8008fb2:	b138      	cbz	r0, 8008fc4 <USBD_SetConfig+0x58>
 8008fb4:	4631      	mov	r1, r6
 8008fb6:	4620      	mov	r0, r4
 8008fb8:	f7ff fed0 	bl	8008d5c <USBD_CtlError>
 8008fbc:	2302      	movs	r3, #2
 8008fbe:	f884 329c 	strb.w	r3, [r4, #668]	@ 0x29c
 8008fc2:	e7ea      	b.n	8008f9a <USBD_SetConfig+0x2e>
 8008fc4:	4620      	mov	r0, r4
 8008fc6:	f000 fb23 	bl	8009610 <USBD_CtlSendStatus>
 8008fca:	2303      	movs	r3, #3
 8008fcc:	f884 329c 	strb.w	r3, [r4, #668]	@ 0x29c
 8008fd0:	e7e3      	b.n	8008f9a <USBD_SetConfig+0x2e>
 8008fd2:	f000 fb1d 	bl	8009610 <USBD_CtlSendStatus>
 8008fd6:	e7e0      	b.n	8008f9a <USBD_SetConfig+0x2e>
 8008fd8:	b1cd      	cbz	r5, 800900e <USBD_SetConfig+0xa2>
 8008fda:	6841      	ldr	r1, [r0, #4]
 8008fdc:	428d      	cmp	r5, r1
 8008fde:	d025      	beq.n	800902c <USBD_SetConfig+0xc0>
 8008fe0:	b2c9      	uxtb	r1, r1
 8008fe2:	f7ff fd16 	bl	8008a12 <USBD_ClrClassConfig>
 8008fe6:	4b13      	ldr	r3, [pc, #76]	@ (8009034 <USBD_SetConfig+0xc8>)
 8008fe8:	7819      	ldrb	r1, [r3, #0]
 8008fea:	6061      	str	r1, [r4, #4]
 8008fec:	4620      	mov	r0, r4
 8008fee:	f7ff fd07 	bl	8008a00 <USBD_SetClassConfig>
 8008ff2:	4605      	mov	r5, r0
 8008ff4:	b1b0      	cbz	r0, 8009024 <USBD_SetConfig+0xb8>
 8008ff6:	4631      	mov	r1, r6
 8008ff8:	4620      	mov	r0, r4
 8008ffa:	f7ff feaf 	bl	8008d5c <USBD_CtlError>
 8008ffe:	7921      	ldrb	r1, [r4, #4]
 8009000:	4620      	mov	r0, r4
 8009002:	f7ff fd06 	bl	8008a12 <USBD_ClrClassConfig>
 8009006:	2302      	movs	r3, #2
 8009008:	f884 329c 	strb.w	r3, [r4, #668]	@ 0x29c
 800900c:	e7c5      	b.n	8008f9a <USBD_SetConfig+0x2e>
 800900e:	2302      	movs	r3, #2
 8009010:	f880 329c 	strb.w	r3, [r0, #668]	@ 0x29c
 8009014:	6045      	str	r5, [r0, #4]
 8009016:	4629      	mov	r1, r5
 8009018:	f7ff fcfb 	bl	8008a12 <USBD_ClrClassConfig>
 800901c:	4620      	mov	r0, r4
 800901e:	f000 faf7 	bl	8009610 <USBD_CtlSendStatus>
 8009022:	e7ba      	b.n	8008f9a <USBD_SetConfig+0x2e>
 8009024:	4620      	mov	r0, r4
 8009026:	f000 faf3 	bl	8009610 <USBD_CtlSendStatus>
 800902a:	e7b6      	b.n	8008f9a <USBD_SetConfig+0x2e>
 800902c:	f000 faf0 	bl	8009610 <USBD_CtlSendStatus>
 8009030:	2500      	movs	r5, #0
 8009032:	e7b2      	b.n	8008f9a <USBD_SetConfig+0x2e>
 8009034:	200014e4 	.word	0x200014e4

08009038 <USBD_GetConfig>:
 8009038:	b508      	push	{r3, lr}
 800903a:	88cb      	ldrh	r3, [r1, #6]
 800903c:	2b01      	cmp	r3, #1
 800903e:	d10b      	bne.n	8009058 <USBD_GetConfig+0x20>
 8009040:	f890 329c 	ldrb.w	r3, [r0, #668]	@ 0x29c
 8009044:	b2da      	uxtb	r2, r3
 8009046:	2b02      	cmp	r3, #2
 8009048:	d909      	bls.n	800905e <USBD_GetConfig+0x26>
 800904a:	2a03      	cmp	r2, #3
 800904c:	d111      	bne.n	8009072 <USBD_GetConfig+0x3a>
 800904e:	2201      	movs	r2, #1
 8009050:	1d01      	adds	r1, r0, #4
 8009052:	f000 fab1 	bl	80095b8 <USBD_CtlSendData>
 8009056:	e001      	b.n	800905c <USBD_GetConfig+0x24>
 8009058:	f7ff fe80 	bl	8008d5c <USBD_CtlError>
 800905c:	bd08      	pop	{r3, pc}
 800905e:	b252      	sxtb	r2, r2
 8009060:	b13a      	cbz	r2, 8009072 <USBD_GetConfig+0x3a>
 8009062:	4601      	mov	r1, r0
 8009064:	2300      	movs	r3, #0
 8009066:	f841 3f08 	str.w	r3, [r1, #8]!
 800906a:	2201      	movs	r2, #1
 800906c:	f000 faa4 	bl	80095b8 <USBD_CtlSendData>
 8009070:	e7f4      	b.n	800905c <USBD_GetConfig+0x24>
 8009072:	f7ff fe73 	bl	8008d5c <USBD_CtlError>
 8009076:	e7f1      	b.n	800905c <USBD_GetConfig+0x24>

08009078 <USBD_GetStatus>:
 8009078:	b508      	push	{r3, lr}
 800907a:	f890 329c 	ldrb.w	r3, [r0, #668]	@ 0x29c
 800907e:	3b01      	subs	r3, #1
 8009080:	2b02      	cmp	r3, #2
 8009082:	d812      	bhi.n	80090aa <USBD_GetStatus+0x32>
 8009084:	88cb      	ldrh	r3, [r1, #6]
 8009086:	2b02      	cmp	r3, #2
 8009088:	d10c      	bne.n	80090a4 <USBD_GetStatus+0x2c>
 800908a:	2301      	movs	r3, #1
 800908c:	60c3      	str	r3, [r0, #12]
 800908e:	f8d0 32a4 	ldr.w	r3, [r0, #676]	@ 0x2a4
 8009092:	b10b      	cbz	r3, 8009098 <USBD_GetStatus+0x20>
 8009094:	2303      	movs	r3, #3
 8009096:	60c3      	str	r3, [r0, #12]
 8009098:	2202      	movs	r2, #2
 800909a:	f100 010c 	add.w	r1, r0, #12
 800909e:	f000 fa8b 	bl	80095b8 <USBD_CtlSendData>
 80090a2:	bd08      	pop	{r3, pc}
 80090a4:	f7ff fe5a 	bl	8008d5c <USBD_CtlError>
 80090a8:	e7fb      	b.n	80090a2 <USBD_GetStatus+0x2a>
 80090aa:	f7ff fe57 	bl	8008d5c <USBD_CtlError>
 80090ae:	e7f8      	b.n	80090a2 <USBD_GetStatus+0x2a>

080090b0 <USBD_SetFeature>:
 80090b0:	b508      	push	{r3, lr}
 80090b2:	884b      	ldrh	r3, [r1, #2]
 80090b4:	2b01      	cmp	r3, #1
 80090b6:	d004      	beq.n	80090c2 <USBD_SetFeature+0x12>
 80090b8:	2b02      	cmp	r3, #2
 80090ba:	d007      	beq.n	80090cc <USBD_SetFeature+0x1c>
 80090bc:	f7ff fe4e 	bl	8008d5c <USBD_CtlError>
 80090c0:	bd08      	pop	{r3, pc}
 80090c2:	f8c0 32a4 	str.w	r3, [r0, #676]	@ 0x2a4
 80090c6:	f000 faa3 	bl	8009610 <USBD_CtlSendStatus>
 80090ca:	e7f9      	b.n	80090c0 <USBD_SetFeature+0x10>
 80090cc:	888b      	ldrh	r3, [r1, #4]
 80090ce:	0a1b      	lsrs	r3, r3, #8
 80090d0:	f880 32a0 	strb.w	r3, [r0, #672]	@ 0x2a0
 80090d4:	f000 fa9c 	bl	8009610 <USBD_CtlSendStatus>
 80090d8:	e7f2      	b.n	80090c0 <USBD_SetFeature+0x10>

080090da <USBD_ClrFeature>:
 80090da:	b508      	push	{r3, lr}
 80090dc:	f890 329c 	ldrb.w	r3, [r0, #668]	@ 0x29c
 80090e0:	3b01      	subs	r3, #1
 80090e2:	2b02      	cmp	r3, #2
 80090e4:	d809      	bhi.n	80090fa <USBD_ClrFeature+0x20>
 80090e6:	884b      	ldrh	r3, [r1, #2]
 80090e8:	2b01      	cmp	r3, #1
 80090ea:	d000      	beq.n	80090ee <USBD_ClrFeature+0x14>
 80090ec:	bd08      	pop	{r3, pc}
 80090ee:	2300      	movs	r3, #0
 80090f0:	f8c0 32a4 	str.w	r3, [r0, #676]	@ 0x2a4
 80090f4:	f000 fa8c 	bl	8009610 <USBD_CtlSendStatus>
 80090f8:	e7f8      	b.n	80090ec <USBD_ClrFeature+0x12>
 80090fa:	f7ff fe2f 	bl	8008d5c <USBD_CtlError>
 80090fe:	e7f5      	b.n	80090ec <USBD_ClrFeature+0x12>

08009100 <USBD_StdDevReq>:
 8009100:	b538      	push	{r3, r4, r5, lr}
 8009102:	780c      	ldrb	r4, [r1, #0]
 8009104:	f004 0460 	and.w	r4, r4, #96	@ 0x60
 8009108:	2c20      	cmp	r4, #32
 800910a:	d006      	beq.n	800911a <USBD_StdDevReq+0x1a>
 800910c:	2c40      	cmp	r4, #64	@ 0x40
 800910e:	d004      	beq.n	800911a <USBD_StdDevReq+0x1a>
 8009110:	b16c      	cbz	r4, 800912e <USBD_StdDevReq+0x2e>
 8009112:	f7ff fe23 	bl	8008d5c <USBD_CtlError>
 8009116:	2400      	movs	r4, #0
 8009118:	e007      	b.n	800912a <USBD_StdDevReq+0x2a>
 800911a:	f8d0 32d4 	ldr.w	r3, [r0, #724]	@ 0x2d4
 800911e:	33ae      	adds	r3, #174	@ 0xae
 8009120:	f850 3023 	ldr.w	r3, [r0, r3, lsl #2]
 8009124:	689b      	ldr	r3, [r3, #8]
 8009126:	4798      	blx	r3
 8009128:	4604      	mov	r4, r0
 800912a:	4620      	mov	r0, r4
 800912c:	bd38      	pop	{r3, r4, r5, pc}
 800912e:	784d      	ldrb	r5, [r1, #1]
 8009130:	2d09      	cmp	r5, #9
 8009132:	d81d      	bhi.n	8009170 <USBD_StdDevReq+0x70>
 8009134:	e8df f005 	tbb	[pc, r5]
 8009138:	161c1912 	.word	0x161c1912
 800913c:	1c05081c 	.word	0x1c05081c
 8009140:	0b0f      	.short	0x0b0f
 8009142:	f7ff fe15 	bl	8008d70 <USBD_GetDescriptor>
 8009146:	e7f0      	b.n	800912a <USBD_StdDevReq+0x2a>
 8009148:	f7ff fee8 	bl	8008f1c <USBD_SetAddress>
 800914c:	e7ed      	b.n	800912a <USBD_StdDevReq+0x2a>
 800914e:	f7ff ff0d 	bl	8008f6c <USBD_SetConfig>
 8009152:	4604      	mov	r4, r0
 8009154:	e7e9      	b.n	800912a <USBD_StdDevReq+0x2a>
 8009156:	f7ff ff6f 	bl	8009038 <USBD_GetConfig>
 800915a:	e7e6      	b.n	800912a <USBD_StdDevReq+0x2a>
 800915c:	f7ff ff8c 	bl	8009078 <USBD_GetStatus>
 8009160:	462c      	mov	r4, r5
 8009162:	e7e2      	b.n	800912a <USBD_StdDevReq+0x2a>
 8009164:	f7ff ffa4 	bl	80090b0 <USBD_SetFeature>
 8009168:	e7df      	b.n	800912a <USBD_StdDevReq+0x2a>
 800916a:	f7ff ffb6 	bl	80090da <USBD_ClrFeature>
 800916e:	e7dc      	b.n	800912a <USBD_StdDevReq+0x2a>
 8009170:	f7ff fdf4 	bl	8008d5c <USBD_CtlError>
 8009174:	e7d9      	b.n	800912a <USBD_StdDevReq+0x2a>

08009176 <USBD_StdItfReq>:
 8009176:	b570      	push	{r4, r5, r6, lr}
 8009178:	4605      	mov	r5, r0
 800917a:	460c      	mov	r4, r1
 800917c:	780b      	ldrb	r3, [r1, #0]
 800917e:	f003 0360 	and.w	r3, r3, #96	@ 0x60
 8009182:	2b20      	cmp	r3, #32
 8009184:	d007      	beq.n	8009196 <USBD_StdItfReq+0x20>
 8009186:	2b40      	cmp	r3, #64	@ 0x40
 8009188:	d005      	beq.n	8009196 <USBD_StdItfReq+0x20>
 800918a:	b123      	cbz	r3, 8009196 <USBD_StdItfReq+0x20>
 800918c:	f7ff fde6 	bl	8008d5c <USBD_CtlError>
 8009190:	2600      	movs	r6, #0
 8009192:	4630      	mov	r0, r6
 8009194:	bd70      	pop	{r4, r5, r6, pc}
 8009196:	f895 329c 	ldrb.w	r3, [r5, #668]	@ 0x29c
 800919a:	3b01      	subs	r3, #1
 800919c:	2b02      	cmp	r3, #2
 800919e:	d826      	bhi.n	80091ee <USBD_StdItfReq+0x78>
 80091a0:	7921      	ldrb	r1, [r4, #4]
 80091a2:	2901      	cmp	r1, #1
 80091a4:	d905      	bls.n	80091b2 <USBD_StdItfReq+0x3c>
 80091a6:	4621      	mov	r1, r4
 80091a8:	4628      	mov	r0, r5
 80091aa:	f7ff fdd7 	bl	8008d5c <USBD_CtlError>
 80091ae:	2600      	movs	r6, #0
 80091b0:	e7ef      	b.n	8009192 <USBD_StdItfReq+0x1c>
 80091b2:	4628      	mov	r0, r5
 80091b4:	f7ff fcc1 	bl	8008b3a <USBD_CoreFindIF>
 80091b8:	b968      	cbnz	r0, 80091d6 <USBD_StdItfReq+0x60>
 80091ba:	f100 02ae 	add.w	r2, r0, #174	@ 0xae
 80091be:	f855 2022 	ldr.w	r2, [r5, r2, lsl #2]
 80091c2:	6891      	ldr	r1, [r2, #8]
 80091c4:	b189      	cbz	r1, 80091ea <USBD_StdItfReq+0x74>
 80091c6:	f8c5 02d4 	str.w	r0, [r5, #724]	@ 0x2d4
 80091ca:	6893      	ldr	r3, [r2, #8]
 80091cc:	4621      	mov	r1, r4
 80091ce:	4628      	mov	r0, r5
 80091d0:	4798      	blx	r3
 80091d2:	4606      	mov	r6, r0
 80091d4:	e000      	b.n	80091d8 <USBD_StdItfReq+0x62>
 80091d6:	2603      	movs	r6, #3
 80091d8:	88e3      	ldrh	r3, [r4, #6]
 80091da:	2b00      	cmp	r3, #0
 80091dc:	d1d9      	bne.n	8009192 <USBD_StdItfReq+0x1c>
 80091de:	2e00      	cmp	r6, #0
 80091e0:	d1d7      	bne.n	8009192 <USBD_StdItfReq+0x1c>
 80091e2:	4628      	mov	r0, r5
 80091e4:	f000 fa14 	bl	8009610 <USBD_CtlSendStatus>
 80091e8:	e7d3      	b.n	8009192 <USBD_StdItfReq+0x1c>
 80091ea:	2603      	movs	r6, #3
 80091ec:	e7f4      	b.n	80091d8 <USBD_StdItfReq+0x62>
 80091ee:	4621      	mov	r1, r4
 80091f0:	4628      	mov	r0, r5
 80091f2:	f7ff fdb3 	bl	8008d5c <USBD_CtlError>
 80091f6:	2600      	movs	r6, #0
 80091f8:	e7cb      	b.n	8009192 <USBD_StdItfReq+0x1c>

080091fa <USBD_StdEPReq>:
 80091fa:	e92d 41f0 	stmdb	sp!, {r4, r5, r6, r7, r8, lr}
 80091fe:	4606      	mov	r6, r0
 8009200:	460d      	mov	r5, r1
 8009202:	888b      	ldrh	r3, [r1, #4]
 8009204:	b2df      	uxtb	r7, r3
 8009206:	780c      	ldrb	r4, [r1, #0]
 8009208:	f004 0460 	and.w	r4, r4, #96	@ 0x60
 800920c:	2c20      	cmp	r4, #32
 800920e:	d008      	beq.n	8009222 <USBD_StdEPReq+0x28>
 8009210:	2c40      	cmp	r4, #64	@ 0x40
 8009212:	d006      	beq.n	8009222 <USBD_StdEPReq+0x28>
 8009214:	b1dc      	cbz	r4, 800924e <USBD_StdEPReq+0x54>
 8009216:	f7ff fda1 	bl	8008d5c <USBD_CtlError>
 800921a:	2400      	movs	r4, #0
 800921c:	4620      	mov	r0, r4
 800921e:	e8bd 81f0 	ldmia.w	sp!, {r4, r5, r6, r7, r8, pc}
 8009222:	4639      	mov	r1, r7
 8009224:	4630      	mov	r0, r6
 8009226:	f7ff fc8a 	bl	8008b3e <USBD_CoreFindEP>
 800922a:	4604      	mov	r4, r0
 800922c:	2800      	cmp	r0, #0
 800922e:	f040 80fc 	bne.w	800942a <USBD_StdEPReq+0x230>
 8009232:	f8c6 02d4 	str.w	r0, [r6, #724]	@ 0x2d4
 8009236:	f100 03ae 	add.w	r3, r0, #174	@ 0xae
 800923a:	f856 3023 	ldr.w	r3, [r6, r3, lsl #2]
 800923e:	689b      	ldr	r3, [r3, #8]
 8009240:	2b00      	cmp	r3, #0
 8009242:	d0eb      	beq.n	800921c <USBD_StdEPReq+0x22>
 8009244:	4629      	mov	r1, r5
 8009246:	4630      	mov	r0, r6
 8009248:	4798      	blx	r3
 800924a:	4604      	mov	r4, r0
 800924c:	e7e6      	b.n	800921c <USBD_StdEPReq+0x22>
 800924e:	f891 8001 	ldrb.w	r8, [r1, #1]
 8009252:	f1b8 0f01 	cmp.w	r8, #1
 8009256:	d031      	beq.n	80092bc <USBD_StdEPReq+0xc2>
 8009258:	f1b8 0f03 	cmp.w	r8, #3
 800925c:	d005      	beq.n	800926a <USBD_StdEPReq+0x70>
 800925e:	f1b8 0f00 	cmp.w	r8, #0
 8009262:	d067      	beq.n	8009334 <USBD_StdEPReq+0x13a>
 8009264:	f7ff fd7a 	bl	8008d5c <USBD_CtlError>
 8009268:	e7d8      	b.n	800921c <USBD_StdEPReq+0x22>
 800926a:	f890 329c 	ldrb.w	r3, [r0, #668]	@ 0x29c
 800926e:	b2da      	uxtb	r2, r3
 8009270:	2b02      	cmp	r3, #2
 8009272:	d004      	beq.n	800927e <USBD_StdEPReq+0x84>
 8009274:	2a03      	cmp	r2, #3
 8009276:	d012      	beq.n	800929e <USBD_StdEPReq+0xa4>
 8009278:	f7ff fd70 	bl	8008d5c <USBD_CtlError>
 800927c:	e7ce      	b.n	800921c <USBD_StdEPReq+0x22>
 800927e:	b10f      	cbz	r7, 8009284 <USBD_StdEPReq+0x8a>
 8009280:	2f80      	cmp	r7, #128	@ 0x80
 8009282:	d104      	bne.n	800928e <USBD_StdEPReq+0x94>
 8009284:	4629      	mov	r1, r5
 8009286:	4630      	mov	r0, r6
 8009288:	f7ff fd68 	bl	8008d5c <USBD_CtlError>
 800928c:	e7c6      	b.n	800921c <USBD_StdEPReq+0x22>
 800928e:	4639      	mov	r1, r7
 8009290:	f7ff faec 	bl	800886c <USBD_LL_StallEP>
 8009294:	2180      	movs	r1, #128	@ 0x80
 8009296:	4630      	mov	r0, r6
 8009298:	f7ff fae8 	bl	800886c <USBD_LL_StallEP>
 800929c:	e7be      	b.n	800921c <USBD_StdEPReq+0x22>
 800929e:	884b      	ldrh	r3, [r1, #2]
 80092a0:	b923      	cbnz	r3, 80092ac <USBD_StdEPReq+0xb2>
 80092a2:	b11f      	cbz	r7, 80092ac <USBD_StdEPReq+0xb2>
 80092a4:	2f80      	cmp	r7, #128	@ 0x80
 80092a6:	d001      	beq.n	80092ac <USBD_StdEPReq+0xb2>
 80092a8:	88cb      	ldrh	r3, [r1, #6]
 80092aa:	b11b      	cbz	r3, 80092b4 <USBD_StdEPReq+0xba>
 80092ac:	4630      	mov	r0, r6
 80092ae:	f000 f9af 	bl	8009610 <USBD_CtlSendStatus>
 80092b2:	e7b3      	b.n	800921c <USBD_StdEPReq+0x22>
 80092b4:	4639      	mov	r1, r7
 80092b6:	f7ff fad9 	bl	800886c <USBD_LL_StallEP>
 80092ba:	e7f7      	b.n	80092ac <USBD_StdEPReq+0xb2>
 80092bc:	f890 329c 	ldrb.w	r3, [r0, #668]	@ 0x29c
 80092c0:	b2da      	uxtb	r2, r3
 80092c2:	2b02      	cmp	r3, #2
 80092c4:	d004      	beq.n	80092d0 <USBD_StdEPReq+0xd6>
 80092c6:	2a03      	cmp	r2, #3
 80092c8:	d012      	beq.n	80092f0 <USBD_StdEPReq+0xf6>
 80092ca:	f7ff fd47 	bl	8008d5c <USBD_CtlError>
 80092ce:	e7a5      	b.n	800921c <USBD_StdEPReq+0x22>
 80092d0:	b10f      	cbz	r7, 80092d6 <USBD_StdEPReq+0xdc>
 80092d2:	2f80      	cmp	r7, #128	@ 0x80
 80092d4:	d104      	bne.n	80092e0 <USBD_StdEPReq+0xe6>
 80092d6:	4629      	mov	r1, r5
 80092d8:	4630      	mov	r0, r6
 80092da:	f7ff fd3f 	bl	8008d5c <USBD_CtlError>
 80092de:	e79d      	b.n	800921c <USBD_StdEPReq+0x22>
 80092e0:	4639      	mov	r1, r7
 80092e2:	f7ff fac3 	bl	800886c <USBD_LL_StallEP>
 80092e6:	2180      	movs	r1, #128	@ 0x80
 80092e8:	4630      	mov	r0, r6
 80092ea:	f7ff fabf 	bl	800886c <USBD_LL_StallEP>
 80092ee:	e795      	b.n	800921c <USBD_StdEPReq+0x22>
 80092f0:	884b      	ldrh	r3, [r1, #2]
 80092f2:	2b00      	cmp	r3, #0
 80092f4:	d192      	bne.n	800921c <USBD_StdEPReq+0x22>
 80092f6:	f017 0f7f 	tst.w	r7, #127	@ 0x7f
 80092fa:	d117      	bne.n	800932c <USBD_StdEPReq+0x132>
 80092fc:	4630      	mov	r0, r6
 80092fe:	f000 f987 	bl	8009610 <USBD_CtlSendStatus>
 8009302:	4639      	mov	r1, r7
 8009304:	4630      	mov	r0, r6
 8009306:	f7ff fc1a 	bl	8008b3e <USBD_CoreFindEP>
 800930a:	2800      	cmp	r0, #0
 800930c:	d186      	bne.n	800921c <USBD_StdEPReq+0x22>
 800930e:	f8c6 02d4 	str.w	r0, [r6, #724]	@ 0x2d4
 8009312:	f100 02ae 	add.w	r2, r0, #174	@ 0xae
 8009316:	f856 2022 	ldr.w	r2, [r6, r2, lsl #2]
 800931a:	6892      	ldr	r2, [r2, #8]
 800931c:	2a00      	cmp	r2, #0
 800931e:	f000 8086 	beq.w	800942e <USBD_StdEPReq+0x234>
 8009322:	4629      	mov	r1, r5
 8009324:	4630      	mov	r0, r6
 8009326:	4790      	blx	r2
 8009328:	4604      	mov	r4, r0
 800932a:	e777      	b.n	800921c <USBD_StdEPReq+0x22>
 800932c:	4639      	mov	r1, r7
 800932e:	f7ff faac 	bl	800888a <USBD_LL_ClearStallEP>
 8009332:	e7e3      	b.n	80092fc <USBD_StdEPReq+0x102>
 8009334:	f890 229c 	ldrb.w	r2, [r0, #668]	@ 0x29c
 8009338:	b2d1      	uxtb	r1, r2
 800933a:	2a02      	cmp	r2, #2
 800933c:	d006      	beq.n	800934c <USBD_StdEPReq+0x152>
 800933e:	2903      	cmp	r1, #3
 8009340:	d029      	beq.n	8009396 <USBD_StdEPReq+0x19c>
 8009342:	4629      	mov	r1, r5
 8009344:	f7ff fd0a 	bl	8008d5c <USBD_CtlError>
 8009348:	4644      	mov	r4, r8
 800934a:	e767      	b.n	800921c <USBD_StdEPReq+0x22>
 800934c:	b10f      	cbz	r7, 8009352 <USBD_StdEPReq+0x158>
 800934e:	2f80      	cmp	r7, #128	@ 0x80
 8009350:	d113      	bne.n	800937a <USBD_StdEPReq+0x180>
 8009352:	f013 0f80 	tst.w	r3, #128	@ 0x80
 8009356:	d115      	bne.n	8009384 <USBD_StdEPReq+0x18a>
 8009358:	f007 077f 	and.w	r7, r7, #127	@ 0x7f
 800935c:	eb07 0787 	add.w	r7, r7, r7, lsl #2
 8009360:	00b9      	lsls	r1, r7, #2
 8009362:	f501 71a8 	add.w	r1, r1, #336	@ 0x150
 8009366:	4431      	add	r1, r6
 8009368:	3104      	adds	r1, #4
 800936a:	2300      	movs	r3, #0
 800936c:	600b      	str	r3, [r1, #0]
 800936e:	2202      	movs	r2, #2
 8009370:	4630      	mov	r0, r6
 8009372:	f000 f921 	bl	80095b8 <USBD_CtlSendData>
 8009376:	4644      	mov	r4, r8
 8009378:	e750      	b.n	800921c <USBD_StdEPReq+0x22>
 800937a:	4629      	mov	r1, r5
 800937c:	f7ff fcee 	bl	8008d5c <USBD_CtlError>
 8009380:	4644      	mov	r4, r8
 8009382:	e74b      	b.n	800921c <USBD_StdEPReq+0x22>
 8009384:	f007 077f 	and.w	r7, r7, #127	@ 0x7f
 8009388:	eb07 0787 	add.w	r7, r7, r7, lsl #2
 800938c:	00b9      	lsls	r1, r7, #2
 800938e:	3110      	adds	r1, #16
 8009390:	4431      	add	r1, r6
 8009392:	3104      	adds	r1, #4
 8009394:	e7e9      	b.n	800936a <USBD_StdEPReq+0x170>
 8009396:	b25b      	sxtb	r3, r3
 8009398:	2b00      	cmp	r3, #0
 800939a:	db1f      	blt.n	80093dc <USBD_StdEPReq+0x1e2>
 800939c:	f007 020f 	and.w	r2, r7, #15
 80093a0:	eb02 0282 	add.w	r2, r2, r2, lsl #2
 80093a4:	eb00 0282 	add.w	r2, r0, r2, lsl #2
 80093a8:	f8b2 2164 	ldrh.w	r2, [r2, #356]	@ 0x164
 80093ac:	b322      	cbz	r2, 80093f8 <USBD_StdEPReq+0x1fe>
 80093ae:	2b00      	cmp	r3, #0
 80093b0:	db27      	blt.n	8009402 <USBD_StdEPReq+0x208>
 80093b2:	f007 037f 	and.w	r3, r7, #127	@ 0x7f
 80093b6:	eb03 0383 	add.w	r3, r3, r3, lsl #2
 80093ba:	009c      	lsls	r4, r3, #2
 80093bc:	f504 74a8 	add.w	r4, r4, #336	@ 0x150
 80093c0:	4434      	add	r4, r6
 80093c2:	3404      	adds	r4, #4
 80093c4:	b10f      	cbz	r7, 80093ca <USBD_StdEPReq+0x1d0>
 80093c6:	2f80      	cmp	r7, #128	@ 0x80
 80093c8:	d124      	bne.n	8009414 <USBD_StdEPReq+0x21a>
 80093ca:	2300      	movs	r3, #0
 80093cc:	6023      	str	r3, [r4, #0]
 80093ce:	2202      	movs	r2, #2
 80093d0:	4621      	mov	r1, r4
 80093d2:	4630      	mov	r0, r6
 80093d4:	f000 f8f0 	bl	80095b8 <USBD_CtlSendData>
 80093d8:	4644      	mov	r4, r8
 80093da:	e71f      	b.n	800921c <USBD_StdEPReq+0x22>
 80093dc:	f007 020f 	and.w	r2, r7, #15
 80093e0:	eb02 0282 	add.w	r2, r2, r2, lsl #2
 80093e4:	eb00 0282 	add.w	r2, r0, r2, lsl #2
 80093e8:	8c92      	ldrh	r2, [r2, #36]	@ 0x24
 80093ea:	2a00      	cmp	r2, #0
 80093ec:	d1df      	bne.n	80093ae <USBD_StdEPReq+0x1b4>
 80093ee:	4629      	mov	r1, r5
 80093f0:	f7ff fcb4 	bl	8008d5c <USBD_CtlError>
 80093f4:	4644      	mov	r4, r8
 80093f6:	e711      	b.n	800921c <USBD_StdEPReq+0x22>
 80093f8:	4629      	mov	r1, r5
 80093fa:	f7ff fcaf 	bl	8008d5c <USBD_CtlError>
 80093fe:	4644      	mov	r4, r8
 8009400:	e70c      	b.n	800921c <USBD_StdEPReq+0x22>
 8009402:	f007 037f 	and.w	r3, r7, #127	@ 0x7f
 8009406:	eb03 0383 	add.w	r3, r3, r3, lsl #2
 800940a:	009c      	lsls	r4, r3, #2
 800940c:	3410      	adds	r4, #16
 800940e:	4434      	add	r4, r6
 8009410:	3404      	adds	r4, #4
 8009412:	e7d7      	b.n	80093c4 <USBD_StdEPReq+0x1ca>
 8009414:	4639      	mov	r1, r7
 8009416:	4630      	mov	r0, r6
 8009418:	f7ff fa46 	bl	80088a8 <USBD_LL_IsStallEP>
 800941c:	b110      	cbz	r0, 8009424 <USBD_StdEPReq+0x22a>
 800941e:	2301      	movs	r3, #1
 8009420:	6023      	str	r3, [r4, #0]
 8009422:	e7d4      	b.n	80093ce <USBD_StdEPReq+0x1d4>
 8009424:	2300      	movs	r3, #0
 8009426:	6023      	str	r3, [r4, #0]
 8009428:	e7d1      	b.n	80093ce <USBD_StdEPReq+0x1d4>
 800942a:	2400      	movs	r4, #0
 800942c:	e6f6      	b.n	800921c <USBD_StdEPReq+0x22>
 800942e:	4604      	mov	r4, r0
 8009430:	e6f4      	b.n	800921c <USBD_StdEPReq+0x22>

08009432 <USBD_GetString>:
 8009432:	b300      	cbz	r0, 8009476 <USBD_GetString+0x44>
 8009434:	b570      	push	{r4, r5, r6, lr}
 8009436:	460d      	mov	r5, r1
 8009438:	4616      	mov	r6, r2
 800943a:	4604      	mov	r4, r0
 800943c:	f7ff fc70 	bl	8008d20 <USBD_GetLen>
 8009440:	3001      	adds	r0, #1
 8009442:	0043      	lsls	r3, r0, #1
 8009444:	f5b3 7f00 	cmp.w	r3, #512	@ 0x200
 8009448:	d806      	bhi.n	8009458 <USBD_GetString+0x26>
 800944a:	b29b      	uxth	r3, r3
 800944c:	8033      	strh	r3, [r6, #0]
 800944e:	702b      	strb	r3, [r5, #0]
 8009450:	2303      	movs	r3, #3
 8009452:	706b      	strb	r3, [r5, #1]
 8009454:	2302      	movs	r3, #2
 8009456:	e00a      	b.n	800946e <USBD_GetString+0x3c>
 8009458:	f44f 7300 	mov.w	r3, #512	@ 0x200
 800945c:	e7f6      	b.n	800944c <USBD_GetString+0x1a>
 800945e:	54ea      	strb	r2, [r5, r3]
 8009460:	3401      	adds	r4, #1
 8009462:	1c5a      	adds	r2, r3, #1
 8009464:	b2d2      	uxtb	r2, r2
 8009466:	2100      	movs	r1, #0
 8009468:	54a9      	strb	r1, [r5, r2]
 800946a:	3302      	adds	r3, #2
 800946c:	b2db      	uxtb	r3, r3
 800946e:	7822      	ldrb	r2, [r4, #0]
 8009470:	2a00      	cmp	r2, #0
 8009472:	d1f4      	bne.n	800945e <USBD_GetString+0x2c>
 8009474:	bd70      	pop	{r4, r5, r6, pc}
 8009476:	4770      	bx	lr

08009478 <USBD_FS_DeviceDescriptor>:
 8009478:	2312      	movs	r3, #18
 800947a:	800b      	strh	r3, [r1, #0]
 800947c:	4800      	ldr	r0, [pc, #0]	@ (8009480 <USBD_FS_DeviceDescriptor+0x8>)
 800947e:	4770      	bx	lr
 8009480:	20000190 	.word	0x20000190

08009484 <USBD_FS_LangIDStrDescriptor>:
 8009484:	2304      	movs	r3, #4
 8009486:	800b      	strh	r3, [r1, #0]
 8009488:	4800      	ldr	r0, [pc, #0]	@ (800948c <USBD_FS_LangIDStrDescriptor+0x8>)
 800948a:	4770      	bx	lr
 800948c:	20000180 	.word	0x20000180

08009490 <USBD_FS_USR_BOSDescriptor>:
 8009490:	230c      	movs	r3, #12
 8009492:	800b      	strh	r3, [r1, #0]
 8009494:	4800      	ldr	r0, [pc, #0]	@ (8009498 <USBD_FS_USR_BOSDescriptor+0x8>)
 8009496:	4770      	bx	lr
 8009498:	20000184 	.word	0x20000184

0800949c <IntToUnicode>:
 800949c:	2300      	movs	r3, #0
 800949e:	4293      	cmp	r3, r2
 80094a0:	d21e      	bcs.n	80094e0 <IntToUnicode+0x44>
 80094a2:	b500      	push	{lr}
 80094a4:	e010      	b.n	80094c8 <IntToUnicode+0x2c>
 80094a6:	f10c 0c37 	add.w	ip, ip, #55	@ 0x37
 80094aa:	f801 c013 	strb.w	ip, [r1, r3, lsl #1]
 80094ae:	0100      	lsls	r0, r0, #4
 80094b0:	ea4f 0c43 	mov.w	ip, r3, lsl #1
 80094b4:	f10c 0c01 	add.w	ip, ip, #1
 80094b8:	f04f 0e00 	mov.w	lr, #0
 80094bc:	f801 e00c 	strb.w	lr, [r1, ip]
 80094c0:	3301      	adds	r3, #1
 80094c2:	b2db      	uxtb	r3, r3
 80094c4:	4293      	cmp	r3, r2
 80094c6:	d209      	bcs.n	80094dc <IntToUnicode+0x40>
 80094c8:	ea4f 7c10 	mov.w	ip, r0, lsr #28
 80094cc:	f1b0 4f20 	cmp.w	r0, #2684354560	@ 0xa0000000
 80094d0:	d2e9      	bcs.n	80094a6 <IntToUnicode+0xa>
 80094d2:	f10c 0c30 	add.w	ip, ip, #48	@ 0x30
 80094d6:	f801 c013 	strb.w	ip, [r1, r3, lsl #1]
 80094da:	e7e8      	b.n	80094ae <IntToUnicode+0x12>
 80094dc:	f85d fb04 	ldr.w	pc, [sp], #4
 80094e0:	4770      	bx	lr
	...

080094e4 <Get_SerialNum>:
 80094e4:	b538      	push	{r3, r4, r5, lr}
 80094e6:	4b0b      	ldr	r3, [pc, #44]	@ (8009514 <Get_SerialNum+0x30>)
 80094e8:	f8d3 0590 	ldr.w	r0, [r3, #1424]	@ 0x590
 80094ec:	f8d3 4594 	ldr.w	r4, [r3, #1428]	@ 0x594
 80094f0:	f8d3 3598 	ldr.w	r3, [r3, #1432]	@ 0x598
 80094f4:	18c0      	adds	r0, r0, r3
 80094f6:	d100      	bne.n	80094fa <Get_SerialNum+0x16>
 80094f8:	bd38      	pop	{r3, r4, r5, pc}
 80094fa:	4d07      	ldr	r5, [pc, #28]	@ (8009518 <Get_SerialNum+0x34>)
 80094fc:	2208      	movs	r2, #8
 80094fe:	4629      	mov	r1, r5
 8009500:	f7ff ffcc 	bl	800949c <IntToUnicode>
 8009504:	2204      	movs	r2, #4
 8009506:	f105 0110 	add.w	r1, r5, #16
 800950a:	4620      	mov	r0, r4
 800950c:	f7ff ffc6 	bl	800949c <IntToUnicode>
 8009510:	e7f2      	b.n	80094f8 <Get_SerialNum+0x14>
 8009512:	bf00      	nop
 8009514:	1fff7000 	.word	0x1fff7000
 8009518:	20000166 	.word	0x20000166

0800951c <USBD_FS_SerialStrDescriptor>:
 800951c:	b508      	push	{r3, lr}
 800951e:	231a      	movs	r3, #26
 8009520:	800b      	strh	r3, [r1, #0]
 8009522:	f7ff ffdf 	bl	80094e4 <Get_SerialNum>
 8009526:	4801      	ldr	r0, [pc, #4]	@ (800952c <USBD_FS_SerialStrDescriptor+0x10>)
 8009528:	bd08      	pop	{r3, pc}
 800952a:	bf00      	nop
 800952c:	20000164 	.word	0x20000164

08009530 <USBD_FS_ProductStrDescriptor>:
 8009530:	b508      	push	{r3, lr}
 8009532:	460a      	mov	r2, r1
 8009534:	b928      	cbnz	r0, 8009542 <USBD_FS_ProductStrDescriptor+0x12>
 8009536:	4905      	ldr	r1, [pc, #20]	@ (800954c <USBD_FS_ProductStrDescriptor+0x1c>)
 8009538:	4805      	ldr	r0, [pc, #20]	@ (8009550 <USBD_FS_ProductStrDescriptor+0x20>)
 800953a:	f7ff ff7a 	bl	8009432 <USBD_GetString>
 800953e:	4803      	ldr	r0, [pc, #12]	@ (800954c <USBD_FS_ProductStrDescriptor+0x1c>)
 8009540:	bd08      	pop	{r3, pc}
 8009542:	4902      	ldr	r1, [pc, #8]	@ (800954c <USBD_FS_ProductStrDescriptor+0x1c>)
 8009544:	4802      	ldr	r0, [pc, #8]	@ (8009550 <USBD_FS_ProductStrDescriptor+0x20>)
 8009546:	f7ff ff74 	bl	8009432 <USBD_GetString>
 800954a:	e7f8      	b.n	800953e <USBD_FS_ProductStrDescriptor+0xe>
 800954c:	200014e8 	.word	0x200014e8
 8009550:	0800b8b8 	.word	0x0800b8b8

08009554 <USBD_FS_ManufacturerStrDescriptor>:
 8009554:	b510      	push	{r4, lr}
 8009556:	460a      	mov	r2, r1
 8009558:	4c03      	ldr	r4, [pc, #12]	@ (8009568 <USBD_FS_ManufacturerStrDescriptor+0x14>)
 800955a:	4621      	mov	r1, r4
 800955c:	4803      	ldr	r0, [pc, #12]	@ (800956c <USBD_FS_ManufacturerStrDescriptor+0x18>)
 800955e:	f7ff ff68 	bl	8009432 <USBD_GetString>
 8009562:	4620      	mov	r0, r4
 8009564:	bd10      	pop	{r4, pc}
 8009566:	bf00      	nop
 8009568:	200014e8 	.word	0x200014e8
 800956c:	0800b8b8 	.word	0x0800b8b8

08009570 <USBD_FS_ConfigStrDescriptor>:
 8009570:	b508      	push	{r3, lr}
 8009572:	460a      	mov	r2, r1
 8009574:	b928      	cbnz	r0, 8009582 <USBD_FS_ConfigStrDescriptor+0x12>
 8009576:	4905      	ldr	r1, [pc, #20]	@ (800958c <USBD_FS_ConfigStrDescriptor+0x1c>)
 8009578:	4805      	ldr	r0, [pc, #20]	@ (8009590 <USBD_FS_ConfigStrDescriptor+0x20>)
 800957a:	f7ff ff5a 	bl	8009432 <USBD_GetString>
 800957e:	4803      	ldr	r0, [pc, #12]	@ (800958c <USBD_FS_ConfigStrDescriptor+0x1c>)
 8009580:	bd08      	pop	{r3, pc}
 8009582:	4902      	ldr	r1, [pc, #8]	@ (800958c <USBD_FS_ConfigStrDescriptor+0x1c>)
 8009584:	4802      	ldr	r0, [pc, #8]	@ (8009590 <USBD_FS_ConfigStrDescriptor+0x20>)
 8009586:	f7ff ff54 	bl	8009432 <USBD_GetString>
 800958a:	e7f8      	b.n	800957e <USBD_FS_ConfigStrDescriptor+0xe>
 800958c:	200014e8 	.word	0x200014e8
 8009590:	0800b8c4 	.word	0x0800b8c4

08009594 <USBD_FS_InterfaceStrDescriptor>:
 8009594:	b508      	push	{r3, lr}
 8009596:	460a      	mov	r2, r1
 8009598:	b928      	cbnz	r0, 80095a6 <USBD_FS_InterfaceStrDescriptor+0x12>
 800959a:	4905      	ldr	r1, [pc, #20]	@ (80095b0 <USBD_FS_InterfaceStrDescriptor+0x1c>)
 800959c:	4805      	ldr	r0, [pc, #20]	@ (80095b4 <USBD_FS_InterfaceStrDescriptor+0x20>)
 800959e:	f7ff ff48 	bl	8009432 <USBD_GetString>
 80095a2:	4803      	ldr	r0, [pc, #12]	@ (80095b0 <USBD_FS_InterfaceStrDescriptor+0x1c>)
 80095a4:	bd08      	pop	{r3, pc}
 80095a6:	4902      	ldr	r1, [pc, #8]	@ (80095b0 <USBD_FS_InterfaceStrDescriptor+0x1c>)
 80095a8:	4802      	ldr	r0, [pc, #8]	@ (80095b4 <USBD_FS_InterfaceStrDescriptor+0x20>)
 80095aa:	f7ff ff42 	bl	8009432 <USBD_GetString>
 80095ae:	e7f8      	b.n	80095a2 <USBD_FS_InterfaceStrDescriptor+0xe>
 80095b0:	200014e8 	.word	0x200014e8
 80095b4:	0800b8d0 	.word	0x0800b8d0

080095b8 <USBD_CtlSendData>:
 80095b8:	b508      	push	{r3, lr}
 80095ba:	4613      	mov	r3, r2
 80095bc:	2202      	movs	r2, #2
 80095be:	f8c0 2294 	str.w	r2, [r0, #660]	@ 0x294
 80095c2:	6183      	str	r3, [r0, #24]
 80095c4:	61c3      	str	r3, [r0, #28]
 80095c6:	460a      	mov	r2, r1
 80095c8:	2100      	movs	r1, #0
 80095ca:	f7ff f992 	bl	80088f2 <USBD_LL_Transmit>
 80095ce:	2000      	movs	r0, #0
 80095d0:	bd08      	pop	{r3, pc}

080095d2 <USBD_CtlContinueSendData>:
 80095d2:	b508      	push	{r3, lr}
 80095d4:	4613      	mov	r3, r2
 80095d6:	460a      	mov	r2, r1
 80095d8:	2100      	movs	r1, #0
 80095da:	f7ff f98a 	bl	80088f2 <USBD_LL_Transmit>
 80095de:	2000      	movs	r0, #0
 80095e0:	bd08      	pop	{r3, pc}

080095e2 <USBD_CtlPrepareRx>:
 80095e2:	b508      	push	{r3, lr}
 80095e4:	4613      	mov	r3, r2
 80095e6:	2203      	movs	r2, #3
 80095e8:	f8c0 2294 	str.w	r2, [r0, #660]	@ 0x294
 80095ec:	f8c0 3158 	str.w	r3, [r0, #344]	@ 0x158
 80095f0:	f8c0 315c 	str.w	r3, [r0, #348]	@ 0x15c
 80095f4:	460a      	mov	r2, r1
 80095f6:	2100      	movs	r1, #0
 80095f8:	f7ff f98a 	bl	8008910 <USBD_LL_PrepareReceive>
 80095fc:	2000      	movs	r0, #0
 80095fe:	bd08      	pop	{r3, pc}

08009600 <USBD_CtlContinueRx>:
 8009600:	b508      	push	{r3, lr}
 8009602:	4613      	mov	r3, r2
 8009604:	460a      	mov	r2, r1
 8009606:	2100      	movs	r1, #0
 8009608:	f7ff f982 	bl	8008910 <USBD_LL_PrepareReceive>
 800960c:	2000      	movs	r0, #0
 800960e:	bd08      	pop	{r3, pc}

08009610 <USBD_CtlSendStatus>:
 8009610:	b508      	push	{r3, lr}
 8009612:	2204      	movs	r2, #4
 8009614:	f8c0 2294 	str.w	r2, [r0, #660]	@ 0x294
 8009618:	2300      	movs	r3, #0
 800961a:	461a      	mov	r2, r3
 800961c:	4619      	mov	r1, r3
 800961e:	f7ff f968 	bl	80088f2 <USBD_LL_Transmit>
 8009622:	2000      	movs	r0, #0
 8009624:	bd08      	pop	{r3, pc}

08009626 <USBD_CtlReceiveStatus>:
 8009626:	b508      	push	{r3, lr}
 8009628:	2205      	movs	r2, #5
 800962a:	f8c0 2294 	str.w	r2, [r0, #660]	@ 0x294
 800962e:	2300      	movs	r3, #0
 8009630:	461a      	mov	r2, r3
 8009632:	4619      	mov	r1, r3
 8009634:	f7ff f96c 	bl	8008910 <USBD_LL_PrepareReceive>
 8009638:	2000      	movs	r0, #0
 800963a:	bd08      	pop	{r3, pc}

0800963c <Reset_Handler>:
 800963c:	f8df d034 	ldr.w	sp, [pc, #52]	@ 8009674 <LoopForever+0x2>
 8009640:	f7fe fcec 	bl	800801c <SystemInit>
 8009644:	480c      	ldr	r0, [pc, #48]	@ (8009678 <LoopForever+0x6>)
 8009646:	490d      	ldr	r1, [pc, #52]	@ (800967c <LoopForever+0xa>)
 8009648:	4a0d      	ldr	r2, [pc, #52]	@ (8009680 <LoopForever+0xe>)
 800964a:	2300      	movs	r3, #0
 800964c:	e002      	b.n	8009654 <LoopCopyDataInit>

0800964e <CopyDataInit>:
 800964e:	58d4      	ldr	r4, [r2, r3]
 8009650:	50c4      	str	r4, [r0, r3]
 8009652:	3304      	adds	r3, #4

08009654 <LoopCopyDataInit>:
 8009654:	18c4      	adds	r4, r0, r3
 8009656:	428c      	cmp	r4, r1
 8009658:	d3f9      	bcc.n	800964e <CopyDataInit>
 800965a:	4a0a      	ldr	r2, [pc, #40]	@ (8009684 <LoopForever+0x12>)
 800965c:	4c0a      	ldr	r4, [pc, #40]	@ (8009688 <LoopForever+0x16>)
 800965e:	2300      	movs	r3, #0
 8009660:	e001      	b.n	8009666 <LoopFillZerobss>

08009662 <FillZerobss>:
 8009662:	6013      	str	r3, [r2, #0]
 8009664:	3204      	adds	r2, #4

08009666 <LoopFillZerobss>:
 8009666:	42a2      	cmp	r2, r4
 8009668:	d3fb      	bcc.n	8009662 <FillZerobss>
 800966a:	f000 fdb9 	bl	800a1e0 <__libc_init_array>
 800966e:	f7f8 ffaf 	bl	80025d0 <main>

08009672 <LoopForever>:
 8009672:	e7fe      	b.n	8009672 <LoopForever>
 8009674:	20008000 	.word	0x20008000
 8009678:	20000000 	.word	0x20000000
 800967c:	20000278 	.word	0x20000278
 8009680:	0800d090 	.word	0x0800d090
 8009684:	20000278 	.word	0x20000278
 8009688:	20001854 	.word	0x20001854

0800968c <COMP_IRQHandler>:
 800968c:	e7fe      	b.n	800968c <COMP_IRQHandler>
	...

08009690 <siprintf>:
 8009690:	b40e      	push	{r1, r2, r3}
 8009692:	b510      	push	{r4, lr}
 8009694:	b09d      	sub	sp, #116	@ 0x74
 8009696:	ab1f      	add	r3, sp, #124	@ 0x7c
 8009698:	9002      	str	r0, [sp, #8]
 800969a:	9006      	str	r0, [sp, #24]
 800969c:	f06f 4100 	mvn.w	r1, #2147483648	@ 0x80000000
 80096a0:	480a      	ldr	r0, [pc, #40]	@ (80096cc <siprintf+0x3c>)
 80096a2:	9107      	str	r1, [sp, #28]
 80096a4:	9104      	str	r1, [sp, #16]
 80096a6:	490a      	ldr	r1, [pc, #40]	@ (80096d0 <siprintf+0x40>)
 80096a8:	f853 2b04 	ldr.w	r2, [r3], #4
 80096ac:	9105      	str	r1, [sp, #20]
 80096ae:	2400      	movs	r4, #0
 80096b0:	a902      	add	r1, sp, #8
 80096b2:	6800      	ldr	r0, [r0, #0]
 80096b4:	9301      	str	r3, [sp, #4]
 80096b6:	941b      	str	r4, [sp, #108]	@ 0x6c
 80096b8:	f000 ffe8 	bl	800a68c <_svfiprintf_r>
 80096bc:	9b02      	ldr	r3, [sp, #8]
 80096be:	701c      	strb	r4, [r3, #0]
 80096c0:	b01d      	add	sp, #116	@ 0x74
 80096c2:	e8bd 4010 	ldmia.w	sp!, {r4, lr}
 80096c6:	b003      	add	sp, #12
 80096c8:	4770      	bx	lr
 80096ca:	bf00      	nop
 80096cc:	200001cc 	.word	0x200001cc
 80096d0:	ffff0208 	.word	0xffff0208

080096d4 <__seofread>:
 80096d4:	2000      	movs	r0, #0
 80096d6:	4770      	bx	lr

080096d8 <memset>:
 80096d8:	4402      	add	r2, r0
 80096da:	4603      	mov	r3, r0
 80096dc:	4293      	cmp	r3, r2
 80096de:	d100      	bne.n	80096e2 <memset+0xa>
 80096e0:	4770      	bx	lr
 80096e2:	f803 1b01 	strb.w	r1, [r3], #1
 80096e6:	e7f9      	b.n	80096dc <memset+0x4>

080096e8 <validate_structure>:
 80096e8:	b5f7      	push	{r0, r1, r2, r4, r5, r6, r7, lr}
 80096ea:	6801      	ldr	r1, [r0, #0]
 80096ec:	293b      	cmp	r1, #59	@ 0x3b
 80096ee:	4604      	mov	r4, r0
 80096f0:	d911      	bls.n	8009716 <validate_structure+0x2e>
 80096f2:	223c      	movs	r2, #60	@ 0x3c
 80096f4:	4668      	mov	r0, sp
 80096f6:	f000 fda3 	bl	800a240 <div>
 80096fa:	9a01      	ldr	r2, [sp, #4]
 80096fc:	6863      	ldr	r3, [r4, #4]
 80096fe:	9900      	ldr	r1, [sp, #0]
 8009700:	2a00      	cmp	r2, #0
 8009702:	440b      	add	r3, r1
 8009704:	6063      	str	r3, [r4, #4]
 8009706:	bfbb      	ittet	lt
 8009708:	323c      	addlt	r2, #60	@ 0x3c
 800970a:	f103 33ff 	addlt.w	r3, r3, #4294967295
 800970e:	6022      	strge	r2, [r4, #0]
 8009710:	6022      	strlt	r2, [r4, #0]
 8009712:	bfb8      	it	lt
 8009714:	6063      	strlt	r3, [r4, #4]
 8009716:	6861      	ldr	r1, [r4, #4]
 8009718:	293b      	cmp	r1, #59	@ 0x3b
 800971a:	d911      	bls.n	8009740 <validate_structure+0x58>
 800971c:	223c      	movs	r2, #60	@ 0x3c
 800971e:	4668      	mov	r0, sp
 8009720:	f000 fd8e 	bl	800a240 <div>
 8009724:	9a01      	ldr	r2, [sp, #4]
 8009726:	68a3      	ldr	r3, [r4, #8]
 8009728:	9900      	ldr	r1, [sp, #0]
 800972a:	2a00      	cmp	r2, #0
 800972c:	440b      	add	r3, r1
 800972e:	60a3      	str	r3, [r4, #8]
 8009730:	bfbb      	ittet	lt
 8009732:	323c      	addlt	r2, #60	@ 0x3c
 8009734:	f103 33ff 	addlt.w	r3, r3, #4294967295
 8009738:	6062      	strge	r2, [r4, #4]
 800973a:	6062      	strlt	r2, [r4, #4]
 800973c:	bfb8      	it	lt
 800973e:	60a3      	strlt	r3, [r4, #8]
 8009740:	68a1      	ldr	r1, [r4, #8]
 8009742:	2917      	cmp	r1, #23
 8009744:	d911      	bls.n	800976a <validate_structure+0x82>
 8009746:	2218      	movs	r2, #24
 8009748:	4668      	mov	r0, sp
 800974a:	f000 fd79 	bl	800a240 <div>
 800974e:	9a01      	ldr	r2, [sp, #4]
 8009750:	68e3      	ldr	r3, [r4, #12]
 8009752:	9900      	ldr	r1, [sp, #0]
 8009754:	2a00      	cmp	r2, #0
 8009756:	440b      	add	r3, r1
 8009758:	60e3      	str	r3, [r4, #12]
 800975a:	bfbb      	ittet	lt
 800975c:	3218      	addlt	r2, #24
 800975e:	f103 33ff 	addlt.w	r3, r3, #4294967295
 8009762:	60a2      	strge	r2, [r4, #8]
 8009764:	60a2      	strlt	r2, [r4, #8]
 8009766:	bfb8      	it	lt
 8009768:	60e3      	strlt	r3, [r4, #12]
 800976a:	6921      	ldr	r1, [r4, #16]
 800976c:	290b      	cmp	r1, #11
 800976e:	d911      	bls.n	8009794 <validate_structure+0xac>
 8009770:	220c      	movs	r2, #12
 8009772:	4668      	mov	r0, sp
 8009774:	f000 fd64 	bl	800a240 <div>
 8009778:	9a01      	ldr	r2, [sp, #4]
 800977a:	6963      	ldr	r3, [r4, #20]
 800977c:	9900      	ldr	r1, [sp, #0]
 800977e:	2a00      	cmp	r2, #0
 8009780:	440b      	add	r3, r1
 8009782:	6163      	str	r3, [r4, #20]
 8009784:	bfbb      	ittet	lt
 8009786:	320c      	addlt	r2, #12
 8009788:	f103 33ff 	addlt.w	r3, r3, #4294967295
 800978c:	6122      	strge	r2, [r4, #16]
 800978e:	6122      	strlt	r2, [r4, #16]
 8009790:	bfb8      	it	lt
 8009792:	6163      	strlt	r3, [r4, #20]
 8009794:	6963      	ldr	r3, [r4, #20]
 8009796:	079a      	lsls	r2, r3, #30
 8009798:	d13f      	bne.n	800981a <validate_structure+0x132>
 800979a:	2164      	movs	r1, #100	@ 0x64
 800979c:	fb93 f2f1 	sdiv	r2, r3, r1
 80097a0:	fb01 3212 	mls	r2, r1, r2, r3
 80097a4:	2a00      	cmp	r2, #0
 80097a6:	d13a      	bne.n	800981e <validate_structure+0x136>
 80097a8:	f203 736c 	addw	r3, r3, #1900	@ 0x76c
 80097ac:	f44f 72c8 	mov.w	r2, #400	@ 0x190
 80097b0:	fb93 f1f2 	sdiv	r1, r3, r2
 80097b4:	fb02 3311 	mls	r3, r2, r1, r3
 80097b8:	2b00      	cmp	r3, #0
 80097ba:	bf0c      	ite	eq
 80097bc:	231d      	moveq	r3, #29
 80097be:	231c      	movne	r3, #28
 80097c0:	68e2      	ldr	r2, [r4, #12]
 80097c2:	2a00      	cmp	r2, #0
 80097c4:	dd2d      	ble.n	8009822 <validate_structure+0x13a>
 80097c6:	4d30      	ldr	r5, [pc, #192]	@ (8009888 <validate_structure+0x1a0>)
 80097c8:	6921      	ldr	r1, [r4, #16]
 80097ca:	2901      	cmp	r1, #1
 80097cc:	bf14      	ite	ne
 80097ce:	f855 0021 	ldrne.w	r0, [r5, r1, lsl #2]
 80097d2:	4618      	moveq	r0, r3
 80097d4:	4282      	cmp	r2, r0
 80097d6:	dd4d      	ble.n	8009874 <validate_structure+0x18c>
 80097d8:	3101      	adds	r1, #1
 80097da:	1a12      	subs	r2, r2, r0
 80097dc:	290c      	cmp	r1, #12
 80097de:	60e2      	str	r2, [r4, #12]
 80097e0:	6121      	str	r1, [r4, #16]
 80097e2:	d1f1      	bne.n	80097c8 <validate_structure+0xe0>
 80097e4:	6963      	ldr	r3, [r4, #20]
 80097e6:	2000      	movs	r0, #0
 80097e8:	1c59      	adds	r1, r3, #1
 80097ea:	6120      	str	r0, [r4, #16]
 80097ec:	0788      	lsls	r0, r1, #30
 80097ee:	6161      	str	r1, [r4, #20]
 80097f0:	d146      	bne.n	8009880 <validate_structure+0x198>
 80097f2:	2064      	movs	r0, #100	@ 0x64
 80097f4:	fb91 f6f0 	sdiv	r6, r1, r0
 80097f8:	fb00 1116 	mls	r1, r0, r6, r1
 80097fc:	2900      	cmp	r1, #0
 80097fe:	d141      	bne.n	8009884 <validate_structure+0x19c>
 8009800:	f203 736d 	addw	r3, r3, #1901	@ 0x76d
 8009804:	f44f 71c8 	mov.w	r1, #400	@ 0x190
 8009808:	fb93 f0f1 	sdiv	r0, r3, r1
 800980c:	fb01 3310 	mls	r3, r1, r0, r3
 8009810:	2b00      	cmp	r3, #0
 8009812:	bf0c      	ite	eq
 8009814:	231d      	moveq	r3, #29
 8009816:	231c      	movne	r3, #28
 8009818:	e7d6      	b.n	80097c8 <validate_structure+0xe0>
 800981a:	231c      	movs	r3, #28
 800981c:	e7d0      	b.n	80097c0 <validate_structure+0xd8>
 800981e:	231d      	movs	r3, #29
 8009820:	e7ce      	b.n	80097c0 <validate_structure+0xd8>
 8009822:	4e19      	ldr	r6, [pc, #100]	@ (8009888 <validate_structure+0x1a0>)
 8009824:	250b      	movs	r5, #11
 8009826:	2064      	movs	r0, #100	@ 0x64
 8009828:	6921      	ldr	r1, [r4, #16]
 800982a:	3901      	subs	r1, #1
 800982c:	6121      	str	r1, [r4, #16]
 800982e:	3101      	adds	r1, #1
 8009830:	d116      	bne.n	8009860 <validate_structure+0x178>
 8009832:	6963      	ldr	r3, [r4, #20]
 8009834:	1e59      	subs	r1, r3, #1
 8009836:	078f      	lsls	r7, r1, #30
 8009838:	e9c4 5104 	strd	r5, r1, [r4, #16]
 800983c:	d11c      	bne.n	8009878 <validate_structure+0x190>
 800983e:	fb91 f7f0 	sdiv	r7, r1, r0
 8009842:	fb00 1117 	mls	r1, r0, r7, r1
 8009846:	b9c9      	cbnz	r1, 800987c <validate_structure+0x194>
 8009848:	f203 736b 	addw	r3, r3, #1899	@ 0x76b
 800984c:	f44f 71c8 	mov.w	r1, #400	@ 0x190
 8009850:	fb93 f7f1 	sdiv	r7, r3, r1
 8009854:	fb01 3317 	mls	r3, r1, r7, r3
 8009858:	2b00      	cmp	r3, #0
 800985a:	bf0c      	ite	eq
 800985c:	231d      	moveq	r3, #29
 800985e:	231c      	movne	r3, #28
 8009860:	6921      	ldr	r1, [r4, #16]
 8009862:	2901      	cmp	r1, #1
 8009864:	bf14      	ite	ne
 8009866:	f856 1021 	ldrne.w	r1, [r6, r1, lsl #2]
 800986a:	4619      	moveq	r1, r3
 800986c:	440a      	add	r2, r1
 800986e:	2a00      	cmp	r2, #0
 8009870:	60e2      	str	r2, [r4, #12]
 8009872:	ddd9      	ble.n	8009828 <validate_structure+0x140>
 8009874:	b003      	add	sp, #12
 8009876:	bdf0      	pop	{r4, r5, r6, r7, pc}
 8009878:	231c      	movs	r3, #28
 800987a:	e7f1      	b.n	8009860 <validate_structure+0x178>
 800987c:	231d      	movs	r3, #29
 800987e:	e7ef      	b.n	8009860 <validate_structure+0x178>
 8009880:	231c      	movs	r3, #28
 8009882:	e7a1      	b.n	80097c8 <validate_structure+0xe0>
 8009884:	231d      	movs	r3, #29
 8009886:	e79f      	b.n	80097c8 <validate_structure+0xe0>
 8009888:	0800ce44 	.word	0x0800ce44

0800988c <mktime>:
 800988c:	e92d 4ff0 	stmdb	sp!, {r4, r5, r6, r7, r8, r9, sl, fp, lr}
 8009890:	b085      	sub	sp, #20
 8009892:	4607      	mov	r7, r0
 8009894:	f001 f9dc 	bl	800ac50 <__gettzinfo>
 8009898:	4681      	mov	r9, r0
 800989a:	4638      	mov	r0, r7
 800989c:	f7ff ff24 	bl	80096e8 <validate_structure>
 80098a0:	e9d7 4300 	ldrd	r4, r3, [r7]
 80098a4:	223c      	movs	r2, #60	@ 0x3c
 80098a6:	fb02 4403 	mla	r4, r2, r3, r4
 80098aa:	68bb      	ldr	r3, [r7, #8]
 80098ac:	697d      	ldr	r5, [r7, #20]
 80098ae:	f44f 6261 	mov.w	r2, #3600	@ 0xe10
 80098b2:	fb02 4403 	mla	r4, r2, r3, r4
 80098b6:	e9d7 6303 	ldrd	r6, r3, [r7, #12]
 80098ba:	4ac3      	ldr	r2, [pc, #780]	@ (8009bc8 <mktime+0x33c>)
 80098bc:	f852 2023 	ldr.w	r2, [r2, r3, lsl #2]
 80098c0:	3e01      	subs	r6, #1
 80098c2:	2b01      	cmp	r3, #1
 80098c4:	4416      	add	r6, r2
 80098c6:	dd11      	ble.n	80098ec <mktime+0x60>
 80098c8:	07a9      	lsls	r1, r5, #30
 80098ca:	d10f      	bne.n	80098ec <mktime+0x60>
 80098cc:	2264      	movs	r2, #100	@ 0x64
 80098ce:	fb95 f3f2 	sdiv	r3, r5, r2
 80098d2:	fb02 5313 	mls	r3, r2, r3, r5
 80098d6:	b943      	cbnz	r3, 80098ea <mktime+0x5e>
 80098d8:	f205 736c 	addw	r3, r5, #1900	@ 0x76c
 80098dc:	f44f 72c8 	mov.w	r2, #400	@ 0x190
 80098e0:	fb93 f1f2 	sdiv	r1, r3, r2
 80098e4:	fb02 3311 	mls	r3, r2, r1, r3
 80098e8:	b903      	cbnz	r3, 80098ec <mktime+0x60>
 80098ea:	3601      	adds	r6, #1
 80098ec:	f505 531c 	add.w	r3, r5, #9984	@ 0x2700
 80098f0:	3310      	adds	r3, #16
 80098f2:	f644 6220 	movw	r2, #20000	@ 0x4e20
 80098f6:	4293      	cmp	r3, r2
 80098f8:	61fe      	str	r6, [r7, #28]
 80098fa:	f200 8170 	bhi.w	8009bde <mktime+0x352>
 80098fe:	2d46      	cmp	r5, #70	@ 0x46
 8009900:	f340 80b6 	ble.w	8009a70 <mktime+0x1e4>
 8009904:	2346      	movs	r3, #70	@ 0x46
 8009906:	f240 1c6d 	movw	ip, #365	@ 0x16d
 800990a:	2164      	movs	r1, #100	@ 0x64
 800990c:	f44f 70c8 	mov.w	r0, #400	@ 0x190
 8009910:	079a      	lsls	r2, r3, #30
 8009912:	f040 80a7 	bne.w	8009a64 <mktime+0x1d8>
 8009916:	fb93 f2f1 	sdiv	r2, r3, r1
 800991a:	fb01 3212 	mls	r2, r1, r2, r3
 800991e:	2a00      	cmp	r2, #0
 8009920:	f040 80a3 	bne.w	8009a6a <mktime+0x1de>
 8009924:	f203 726c 	addw	r2, r3, #1900	@ 0x76c
 8009928:	fb92 fef0 	sdiv	lr, r2, r0
 800992c:	fb00 221e 	mls	r2, r0, lr, r2
 8009930:	2a00      	cmp	r2, #0
 8009932:	bf0c      	ite	eq
 8009934:	f44f 72b7 	moveq.w	r2, #366	@ 0x16e
 8009938:	4662      	movne	r2, ip
 800993a:	3301      	adds	r3, #1
 800993c:	42ab      	cmp	r3, r5
 800993e:	4416      	add	r6, r2
 8009940:	d1e6      	bne.n	8009910 <mktime+0x84>
 8009942:	4ba2      	ldr	r3, [pc, #648]	@ (8009bcc <mktime+0x340>)
 8009944:	ea4f 78e4 	mov.w	r8, r4, asr #31
 8009948:	fbc6 4803 	smlal	r4, r8, r6, r3
 800994c:	f000 fa0a 	bl	8009d64 <__tz_lock>
 8009950:	f000 fa14 	bl	8009d7c <_tzset_unlocked>
 8009954:	4b9e      	ldr	r3, [pc, #632]	@ (8009bd0 <mktime+0x344>)
 8009956:	681b      	ldr	r3, [r3, #0]
 8009958:	2b00      	cmp	r3, #0
 800995a:	f000 8147 	beq.w	8009bec <mktime+0x360>
 800995e:	f8d7 a020 	ldr.w	sl, [r7, #32]
 8009962:	6978      	ldr	r0, [r7, #20]
 8009964:	4653      	mov	r3, sl
 8009966:	2b01      	cmp	r3, #1
 8009968:	bfa8      	it	ge
 800996a:	2301      	movge	r3, #1
 800996c:	9301      	str	r3, [sp, #4]
 800996e:	f8d9 3004 	ldr.w	r3, [r9, #4]
 8009972:	f200 706c 	addw	r0, r0, #1900	@ 0x76c
 8009976:	4283      	cmp	r3, r0
 8009978:	f040 80bd 	bne.w	8009af6 <mktime+0x26a>
 800997c:	e9d9 2108 	ldrd	r2, r1, [r9, #32]
 8009980:	f8d9 0050 	ldr.w	r0, [r9, #80]	@ 0x50
 8009984:	f8d9 c04c 	ldr.w	ip, [r9, #76]	@ 0x4c
 8009988:	1a13      	subs	r3, r2, r0
 800998a:	9303      	str	r3, [sp, #12]
 800998c:	f8d9 3048 	ldr.w	r3, [r9, #72]	@ 0x48
 8009990:	9302      	str	r3, [sp, #8]
 8009992:	9a02      	ldr	r2, [sp, #8]
 8009994:	f8d9 3028 	ldr.w	r3, [r9, #40]	@ 0x28
 8009998:	eb61 7be0 	sbc.w	fp, r1, r0, asr #31
 800999c:	ebb2 0e03 	subs.w	lr, r2, r3
 80099a0:	eb6c 71e3 	sbc.w	r1, ip, r3, asr #31
 80099a4:	4574      	cmp	r4, lr
 80099a6:	eb78 0201 	sbcs.w	r2, r8, r1
 80099aa:	f280 80c7 	bge.w	8009b3c <mktime+0x2b0>
 80099ae:	f8d9 2000 	ldr.w	r2, [r9]
 80099b2:	2a00      	cmp	r2, #0
 80099b4:	f000 80d0 	beq.w	8009b58 <mktime+0x2cc>
 80099b8:	9a03      	ldr	r2, [sp, #12]
 80099ba:	4294      	cmp	r4, r2
 80099bc:	eb78 020b 	sbcs.w	r2, r8, fp
 80099c0:	f2c0 8111 	blt.w	8009be6 <mktime+0x35a>
 80099c4:	4574      	cmp	r4, lr
 80099c6:	eb78 0101 	sbcs.w	r1, r8, r1
 80099ca:	bfb4      	ite	lt
 80099cc:	f04f 0b01 	movlt.w	fp, #1
 80099d0:	f04f 0b00 	movge.w	fp, #0
 80099d4:	f1ba 0f00 	cmp.w	sl, #0
 80099d8:	f2c0 8094 	blt.w	8009b04 <mktime+0x278>
 80099dc:	9a01      	ldr	r2, [sp, #4]
 80099de:	ea82 0a0b 	eor.w	sl, r2, fp
 80099e2:	f1ba 0f01 	cmp.w	sl, #1
 80099e6:	f040 808d 	bne.w	8009b04 <mktime+0x278>
 80099ea:	f1bb 0f00 	cmp.w	fp, #0
 80099ee:	f000 80c2 	beq.w	8009b76 <mktime+0x2ea>
 80099f2:	1a1b      	subs	r3, r3, r0
 80099f4:	683a      	ldr	r2, [r7, #0]
 80099f6:	441a      	add	r2, r3
 80099f8:	191c      	adds	r4, r3, r4
 80099fa:	603a      	str	r2, [r7, #0]
 80099fc:	4638      	mov	r0, r7
 80099fe:	68fa      	ldr	r2, [r7, #12]
 8009a00:	9201      	str	r2, [sp, #4]
 8009a02:	eb48 78e3 	adc.w	r8, r8, r3, asr #31
 8009a06:	f7ff fe6f 	bl	80096e8 <validate_structure>
 8009a0a:	68fb      	ldr	r3, [r7, #12]
 8009a0c:	9a01      	ldr	r2, [sp, #4]
 8009a0e:	1a9b      	subs	r3, r3, r2
 8009a10:	d078      	beq.n	8009b04 <mktime+0x278>
 8009a12:	2b01      	cmp	r3, #1
 8009a14:	f300 80b1 	bgt.w	8009b7a <mktime+0x2ee>
 8009a18:	f1b3 3fff 	cmp.w	r3, #4294967295
 8009a1c:	bfa8      	it	ge
 8009a1e:	469a      	movge	sl, r3
 8009a20:	69fb      	ldr	r3, [r7, #28]
 8009a22:	eb1a 0303 	adds.w	r3, sl, r3
 8009a26:	4456      	add	r6, sl
 8009a28:	f140 80b0 	bpl.w	8009b8c <mktime+0x300>
 8009a2c:	1e6b      	subs	r3, r5, #1
 8009a2e:	0799      	lsls	r1, r3, #30
 8009a30:	f040 80a6 	bne.w	8009b80 <mktime+0x2f4>
 8009a34:	2264      	movs	r2, #100	@ 0x64
 8009a36:	fb93 f1f2 	sdiv	r1, r3, r2
 8009a3a:	fb02 3311 	mls	r3, r2, r1, r3
 8009a3e:	2b00      	cmp	r3, #0
 8009a40:	f040 80a1 	bne.w	8009b86 <mktime+0x2fa>
 8009a44:	f44f 73c8 	mov.w	r3, #400	@ 0x190
 8009a48:	f205 756b 	addw	r5, r5, #1899	@ 0x76b
 8009a4c:	fb95 f2f3 	sdiv	r2, r5, r3
 8009a50:	fb03 5512 	mls	r5, r3, r2, r5
 8009a54:	2d00      	cmp	r5, #0
 8009a56:	f240 136d 	movw	r3, #365	@ 0x16d
 8009a5a:	bf18      	it	ne
 8009a5c:	f44f 73b6 	movne.w	r3, #364	@ 0x16c
 8009a60:	61fb      	str	r3, [r7, #28]
 8009a62:	e04f      	b.n	8009b04 <mktime+0x278>
 8009a64:	f240 126d 	movw	r2, #365	@ 0x16d
 8009a68:	e767      	b.n	800993a <mktime+0xae>
 8009a6a:	f44f 72b7 	mov.w	r2, #366	@ 0x16e
 8009a6e:	e764      	b.n	800993a <mktime+0xae>
 8009a70:	f43f af67 	beq.w	8009942 <mktime+0xb6>
 8009a74:	2345      	movs	r3, #69	@ 0x45
 8009a76:	f240 1c6d 	movw	ip, #365	@ 0x16d
 8009a7a:	2164      	movs	r1, #100	@ 0x64
 8009a7c:	f44f 70c8 	mov.w	r0, #400	@ 0x190
 8009a80:	e012      	b.n	8009aa8 <mktime+0x21c>
 8009a82:	bb62      	cbnz	r2, 8009ade <mktime+0x252>
 8009a84:	fb93 f2f1 	sdiv	r2, r3, r1
 8009a88:	fb01 3212 	mls	r2, r1, r2, r3
 8009a8c:	bb52      	cbnz	r2, 8009ae4 <mktime+0x258>
 8009a8e:	f203 726c 	addw	r2, r3, #1900	@ 0x76c
 8009a92:	fb92 fef0 	sdiv	lr, r2, r0
 8009a96:	fb00 221e 	mls	r2, r0, lr, r2
 8009a9a:	2a00      	cmp	r2, #0
 8009a9c:	bf0c      	ite	eq
 8009a9e:	f44f 72b7 	moveq.w	r2, #366	@ 0x16e
 8009aa2:	4662      	movne	r2, ip
 8009aa4:	1ab6      	subs	r6, r6, r2
 8009aa6:	3b01      	subs	r3, #1
 8009aa8:	42ab      	cmp	r3, r5
 8009aaa:	f003 0203 	and.w	r2, r3, #3
 8009aae:	dce8      	bgt.n	8009a82 <mktime+0x1f6>
 8009ab0:	b9da      	cbnz	r2, 8009aea <mktime+0x25e>
 8009ab2:	2264      	movs	r2, #100	@ 0x64
 8009ab4:	fb95 f3f2 	sdiv	r3, r5, r2
 8009ab8:	fb02 5313 	mls	r3, r2, r3, r5
 8009abc:	b9c3      	cbnz	r3, 8009af0 <mktime+0x264>
 8009abe:	f205 736c 	addw	r3, r5, #1900	@ 0x76c
 8009ac2:	f44f 72c8 	mov.w	r2, #400	@ 0x190
 8009ac6:	fb93 f1f2 	sdiv	r1, r3, r2
 8009aca:	fb02 3311 	mls	r3, r2, r1, r3
 8009ace:	2b00      	cmp	r3, #0
 8009ad0:	f240 136d 	movw	r3, #365	@ 0x16d
 8009ad4:	bf08      	it	eq
 8009ad6:	f44f 73b7 	moveq.w	r3, #366	@ 0x16e
 8009ada:	1af6      	subs	r6, r6, r3
 8009adc:	e731      	b.n	8009942 <mktime+0xb6>
 8009ade:	f240 126d 	movw	r2, #365	@ 0x16d
 8009ae2:	e7df      	b.n	8009aa4 <mktime+0x218>
 8009ae4:	f44f 72b7 	mov.w	r2, #366	@ 0x16e
 8009ae8:	e7dc      	b.n	8009aa4 <mktime+0x218>
 8009aea:	f240 136d 	movw	r3, #365	@ 0x16d
 8009aee:	e7f4      	b.n	8009ada <mktime+0x24e>
 8009af0:	f44f 73b7 	mov.w	r3, #366	@ 0x16e
 8009af4:	e7f1      	b.n	8009ada <mktime+0x24e>
 8009af6:	f000 f881 	bl	8009bfc <__tzcalc_limits>
 8009afa:	2800      	cmp	r0, #0
 8009afc:	f47f af3e 	bne.w	800997c <mktime+0xf0>
 8009b00:	f8dd b004 	ldr.w	fp, [sp, #4]
 8009b04:	f1bb 0f01 	cmp.w	fp, #1
 8009b08:	d172      	bne.n	8009bf0 <mktime+0x364>
 8009b0a:	f8d9 3050 	ldr.w	r3, [r9, #80]	@ 0x50
 8009b0e:	191c      	adds	r4, r3, r4
 8009b10:	eb48 78e3 	adc.w	r8, r8, r3, asr #31
 8009b14:	f04f 0b01 	mov.w	fp, #1
 8009b18:	f000 f92a 	bl	8009d70 <__tz_unlock>
 8009b1c:	3604      	adds	r6, #4
 8009b1e:	2307      	movs	r3, #7
 8009b20:	fb96 f3f3 	sdiv	r3, r6, r3
 8009b24:	ebc3 03c3 	rsb	r3, r3, r3, lsl #3
 8009b28:	1af6      	subs	r6, r6, r3
 8009b2a:	d456      	bmi.n	8009bda <mktime+0x34e>
 8009b2c:	f8c7 b020 	str.w	fp, [r7, #32]
 8009b30:	61be      	str	r6, [r7, #24]
 8009b32:	4620      	mov	r0, r4
 8009b34:	4641      	mov	r1, r8
 8009b36:	b005      	add	sp, #20
 8009b38:	e8bd 8ff0 	ldmia.w	sp!, {r4, r5, r6, r7, r8, r9, sl, fp, pc}
 8009b3c:	9a02      	ldr	r2, [sp, #8]
 8009b3e:	1a12      	subs	r2, r2, r0
 8009b40:	9202      	str	r2, [sp, #8]
 8009b42:	ea4f 72e0 	mov.w	r2, r0, asr #31
 8009b46:	eb6c 0c02 	sbc.w	ip, ip, r2
 8009b4a:	9a02      	ldr	r2, [sp, #8]
 8009b4c:	4294      	cmp	r4, r2
 8009b4e:	eb78 0c0c 	sbcs.w	ip, r8, ip
 8009b52:	f6bf af2c 	bge.w	80099ae <mktime+0x122>
 8009b56:	e7d3      	b.n	8009b00 <mktime+0x274>
 8009b58:	9a03      	ldr	r2, [sp, #12]
 8009b5a:	4294      	cmp	r4, r2
 8009b5c:	eb78 020b 	sbcs.w	r2, r8, fp
 8009b60:	f6ff af30 	blt.w	80099c4 <mktime+0x138>
 8009b64:	f1ba 0f00 	cmp.w	sl, #0
 8009b68:	dbcf      	blt.n	8009b0a <mktime+0x27e>
 8009b6a:	f04f 0b01 	mov.w	fp, #1
 8009b6e:	e735      	b.n	80099dc <mktime+0x150>
 8009b70:	f04f 0b00 	mov.w	fp, #0
 8009b74:	e732      	b.n	80099dc <mktime+0x150>
 8009b76:	1ac3      	subs	r3, r0, r3
 8009b78:	e73c      	b.n	80099f4 <mktime+0x168>
 8009b7a:	f04f 3aff 	mov.w	sl, #4294967295
 8009b7e:	e74f      	b.n	8009a20 <mktime+0x194>
 8009b80:	f44f 73b6 	mov.w	r3, #364	@ 0x16c
 8009b84:	e76c      	b.n	8009a60 <mktime+0x1d4>
 8009b86:	f240 136d 	movw	r3, #365	@ 0x16d
 8009b8a:	e769      	b.n	8009a60 <mktime+0x1d4>
 8009b8c:	07aa      	lsls	r2, r5, #30
 8009b8e:	d117      	bne.n	8009bc0 <mktime+0x334>
 8009b90:	2164      	movs	r1, #100	@ 0x64
 8009b92:	fb95 f2f1 	sdiv	r2, r5, r1
 8009b96:	fb01 5212 	mls	r2, r1, r2, r5
 8009b9a:	b9da      	cbnz	r2, 8009bd4 <mktime+0x348>
 8009b9c:	f44f 72c8 	mov.w	r2, #400	@ 0x190
 8009ba0:	f205 756c 	addw	r5, r5, #1900	@ 0x76c
 8009ba4:	fb95 f1f2 	sdiv	r1, r5, r2
 8009ba8:	fb02 5511 	mls	r5, r2, r1, r5
 8009bac:	2d00      	cmp	r5, #0
 8009bae:	f240 126d 	movw	r2, #365	@ 0x16d
 8009bb2:	bf08      	it	eq
 8009bb4:	f44f 72b7 	moveq.w	r2, #366	@ 0x16e
 8009bb8:	4293      	cmp	r3, r2
 8009bba:	bfa8      	it	ge
 8009bbc:	1a9b      	subge	r3, r3, r2
 8009bbe:	e74f      	b.n	8009a60 <mktime+0x1d4>
 8009bc0:	f240 126d 	movw	r2, #365	@ 0x16d
 8009bc4:	e7f8      	b.n	8009bb8 <mktime+0x32c>
 8009bc6:	bf00      	nop
 8009bc8:	0800ce14 	.word	0x0800ce14
 8009bcc:	00015180 	.word	0x00015180
 8009bd0:	20001840 	.word	0x20001840
 8009bd4:	f44f 72b7 	mov.w	r2, #366	@ 0x16e
 8009bd8:	e7ee      	b.n	8009bb8 <mktime+0x32c>
 8009bda:	3607      	adds	r6, #7
 8009bdc:	e7a6      	b.n	8009b2c <mktime+0x2a0>
 8009bde:	f04f 34ff 	mov.w	r4, #4294967295
 8009be2:	46a0      	mov	r8, r4
 8009be4:	e7a5      	b.n	8009b32 <mktime+0x2a6>
 8009be6:	f1ba 0f00 	cmp.w	sl, #0
 8009bea:	dac1      	bge.n	8009b70 <mktime+0x2e4>
 8009bec:	f04f 0b00 	mov.w	fp, #0
 8009bf0:	f8d9 3028 	ldr.w	r3, [r9, #40]	@ 0x28
 8009bf4:	191c      	adds	r4, r3, r4
 8009bf6:	eb48 78e3 	adc.w	r8, r8, r3, asr #31
 8009bfa:	e78d      	b.n	8009b18 <mktime+0x28c>

08009bfc <__tzcalc_limits>:
 8009bfc:	e92d 43f8 	stmdb	sp!, {r3, r4, r5, r6, r7, r8, r9, lr}
 8009c00:	4604      	mov	r4, r0
 8009c02:	f001 f825 	bl	800ac50 <__gettzinfo>
 8009c06:	f240 73b1 	movw	r3, #1969	@ 0x7b1
 8009c0a:	429c      	cmp	r4, r3
 8009c0c:	f340 80a3 	ble.w	8009d56 <__tzcalc_limits+0x15a>
 8009c10:	f46f 65f6 	mvn.w	r5, #1968	@ 0x7b0
 8009c14:	1966      	adds	r6, r4, r5
 8009c16:	f2a4 73b2 	subw	r3, r4, #1970	@ 0x7b2
 8009c1a:	f240 126d 	movw	r2, #365	@ 0x16d
 8009c1e:	10b6      	asrs	r6, r6, #2
 8009c20:	fb02 6603 	mla	r6, r2, r3, r6
 8009c24:	f46f 67c8 	mvn.w	r7, #1600	@ 0x640
 8009c28:	f06f 0263 	mvn.w	r2, #99	@ 0x63
 8009c2c:	f2a4 736d 	subw	r3, r4, #1901	@ 0x76d
 8009c30:	fb93 f3f2 	sdiv	r3, r3, r2
 8009c34:	f44f 72c8 	mov.w	r2, #400	@ 0x190
 8009c38:	441e      	add	r6, r3
 8009c3a:	19e3      	adds	r3, r4, r7
 8009c3c:	fbb3 f3f2 	udiv	r3, r3, r2
 8009c40:	4a46      	ldr	r2, [pc, #280]	@ (8009d5c <__tzcalc_limits+0x160>)
 8009c42:	6044      	str	r4, [r0, #4]
 8009c44:	441e      	add	r6, r3
 8009c46:	4605      	mov	r5, r0
 8009c48:	f100 0750 	add.w	r7, r0, #80	@ 0x50
 8009c4c:	7a2b      	ldrb	r3, [r5, #8]
 8009c4e:	f8d5 c014 	ldr.w	ip, [r5, #20]
 8009c52:	2b4a      	cmp	r3, #74	@ 0x4a
 8009c54:	d138      	bne.n	8009cc8 <__tzcalc_limits+0xcc>
 8009c56:	07a1      	lsls	r1, r4, #30
 8009c58:	eb06 030c 	add.w	r3, r6, ip
 8009c5c:	d106      	bne.n	8009c6c <__tzcalc_limits+0x70>
 8009c5e:	f04f 0e64 	mov.w	lr, #100	@ 0x64
 8009c62:	fb94 f1fe 	sdiv	r1, r4, lr
 8009c66:	fb0e 4111 	mls	r1, lr, r1, r4
 8009c6a:	b931      	cbnz	r1, 8009c7a <__tzcalc_limits+0x7e>
 8009c6c:	f44f 7ec8 	mov.w	lr, #400	@ 0x190
 8009c70:	fb94 f1fe 	sdiv	r1, r4, lr
 8009c74:	fb0e 4111 	mls	r1, lr, r1, r4
 8009c78:	bb19      	cbnz	r1, 8009cc2 <__tzcalc_limits+0xc6>
 8009c7a:	f1bc 0f3b 	cmp.w	ip, #59	@ 0x3b
 8009c7e:	bfd4      	ite	le
 8009c80:	f04f 0c00 	movle.w	ip, #0
 8009c84:	f04f 0c01 	movgt.w	ip, #1
 8009c88:	4463      	add	r3, ip
 8009c8a:	3b01      	subs	r3, #1
 8009c8c:	69a9      	ldr	r1, [r5, #24]
 8009c8e:	ea4f 7ce1 	mov.w	ip, r1, asr #31
 8009c92:	fbc3 1c02 	smlal	r1, ip, r3, r2
 8009c96:	6aab      	ldr	r3, [r5, #40]	@ 0x28
 8009c98:	18c9      	adds	r1, r1, r3
 8009c9a:	eb4c 73e3 	adc.w	r3, ip, r3, asr #31
 8009c9e:	e9c5 1308 	strd	r1, r3, [r5, #32]
 8009ca2:	3528      	adds	r5, #40	@ 0x28
 8009ca4:	42af      	cmp	r7, r5
 8009ca6:	d1d1      	bne.n	8009c4c <__tzcalc_limits+0x50>
 8009ca8:	e9d0 4308 	ldrd	r4, r3, [r0, #32]
 8009cac:	e9d0 1212 	ldrd	r1, r2, [r0, #72]	@ 0x48
 8009cb0:	428c      	cmp	r4, r1
 8009cb2:	4193      	sbcs	r3, r2
 8009cb4:	bfb4      	ite	lt
 8009cb6:	2301      	movlt	r3, #1
 8009cb8:	2300      	movge	r3, #0
 8009cba:	6003      	str	r3, [r0, #0]
 8009cbc:	2001      	movs	r0, #1
 8009cbe:	e8bd 83f8 	ldmia.w	sp!, {r3, r4, r5, r6, r7, r8, r9, pc}
 8009cc2:	f04f 0c00 	mov.w	ip, #0
 8009cc6:	e7df      	b.n	8009c88 <__tzcalc_limits+0x8c>
 8009cc8:	2b44      	cmp	r3, #68	@ 0x44
 8009cca:	d102      	bne.n	8009cd2 <__tzcalc_limits+0xd6>
 8009ccc:	eb06 030c 	add.w	r3, r6, ip
 8009cd0:	e7dc      	b.n	8009c8c <__tzcalc_limits+0x90>
 8009cd2:	07a3      	lsls	r3, r4, #30
 8009cd4:	d105      	bne.n	8009ce2 <__tzcalc_limits+0xe6>
 8009cd6:	2164      	movs	r1, #100	@ 0x64
 8009cd8:	fb94 f3f1 	sdiv	r3, r4, r1
 8009cdc:	fb01 4313 	mls	r3, r1, r3, r4
 8009ce0:	bb93      	cbnz	r3, 8009d48 <__tzcalc_limits+0x14c>
 8009ce2:	f44f 71c8 	mov.w	r1, #400	@ 0x190
 8009ce6:	fb94 f3f1 	sdiv	r3, r4, r1
 8009cea:	fb01 4313 	mls	r3, r1, r3, r4
 8009cee:	fab3 f383 	clz	r3, r3
 8009cf2:	095b      	lsrs	r3, r3, #5
 8009cf4:	f8df e068 	ldr.w	lr, [pc, #104]	@ 8009d60 <__tzcalc_limits+0x164>
 8009cf8:	f8d5 900c 	ldr.w	r9, [r5, #12]
 8009cfc:	425b      	negs	r3, r3
 8009cfe:	f003 0330 	and.w	r3, r3, #48	@ 0x30
 8009d02:	4631      	mov	r1, r6
 8009d04:	f04f 0800 	mov.w	r8, #0
 8009d08:	4473      	add	r3, lr
 8009d0a:	f108 0801 	add.w	r8, r8, #1
 8009d0e:	45c1      	cmp	r9, r8
 8009d10:	f853 e028 	ldr.w	lr, [r3, r8, lsl #2]
 8009d14:	dc1a      	bgt.n	8009d4c <__tzcalc_limits+0x150>
 8009d16:	f101 0804 	add.w	r8, r1, #4
 8009d1a:	2307      	movs	r3, #7
 8009d1c:	fb98 f3f3 	sdiv	r3, r8, r3
 8009d20:	ebc3 03c3 	rsb	r3, r3, r3, lsl #3
 8009d24:	eba8 0303 	sub.w	r3, r8, r3
 8009d28:	ebbc 0c03 	subs.w	ip, ip, r3
 8009d2c:	692b      	ldr	r3, [r5, #16]
 8009d2e:	f103 33ff 	add.w	r3, r3, #4294967295
 8009d32:	bf48      	it	mi
 8009d34:	f10c 0c07 	addmi.w	ip, ip, #7
 8009d38:	ebc3 03c3 	rsb	r3, r3, r3, lsl #3
 8009d3c:	449c      	add	ip, r3
 8009d3e:	45f4      	cmp	ip, lr
 8009d40:	da06      	bge.n	8009d50 <__tzcalc_limits+0x154>
 8009d42:	eb01 030c 	add.w	r3, r1, ip
 8009d46:	e7a1      	b.n	8009c8c <__tzcalc_limits+0x90>
 8009d48:	2301      	movs	r3, #1
 8009d4a:	e7d3      	b.n	8009cf4 <__tzcalc_limits+0xf8>
 8009d4c:	4471      	add	r1, lr
 8009d4e:	e7dc      	b.n	8009d0a <__tzcalc_limits+0x10e>
 8009d50:	f1ac 0c07 	sub.w	ip, ip, #7
 8009d54:	e7f3      	b.n	8009d3e <__tzcalc_limits+0x142>
 8009d56:	2000      	movs	r0, #0
 8009d58:	e7b1      	b.n	8009cbe <__tzcalc_limits+0xc2>
 8009d5a:	bf00      	nop
 8009d5c:	00015180 	.word	0x00015180
 8009d60:	0800d010 	.word	0x0800d010

08009d64 <__tz_lock>:
 8009d64:	4801      	ldr	r0, [pc, #4]	@ (8009d6c <__tz_lock+0x8>)
 8009d66:	f000 ba5f 	b.w	800a228 <__retarget_lock_acquire>
 8009d6a:	bf00      	nop
 8009d6c:	20001848 	.word	0x20001848

08009d70 <__tz_unlock>:
 8009d70:	4801      	ldr	r0, [pc, #4]	@ (8009d78 <__tz_unlock+0x8>)
 8009d72:	f000 ba5b 	b.w	800a22c <__retarget_lock_release>
 8009d76:	bf00      	nop
 8009d78:	20001848 	.word	0x20001848

08009d7c <_tzset_unlocked>:
 8009d7c:	4b01      	ldr	r3, [pc, #4]	@ (8009d84 <_tzset_unlocked+0x8>)
 8009d7e:	6818      	ldr	r0, [r3, #0]
 8009d80:	f000 b802 	b.w	8009d88 <_tzset_unlocked_r>
 8009d84:	200001cc 	.word	0x200001cc

08009d88 <_tzset_unlocked_r>:
 8009d88:	e92d 4ff0 	stmdb	sp!, {r4, r5, r6, r7, r8, r9, sl, fp, lr}
 8009d8c:	b08d      	sub	sp, #52	@ 0x34
 8009d8e:	4605      	mov	r5, r0
 8009d90:	f000 ff5e 	bl	800ac50 <__gettzinfo>
 8009d94:	49bc      	ldr	r1, [pc, #752]	@ (800a088 <_tzset_unlocked_r+0x300>)
 8009d96:	4fbd      	ldr	r7, [pc, #756]	@ (800a08c <_tzset_unlocked_r+0x304>)
 8009d98:	4604      	mov	r4, r0
 8009d9a:	4628      	mov	r0, r5
 8009d9c:	f000 fade 	bl	800a35c <_getenv_r>
 8009da0:	6839      	ldr	r1, [r7, #0]
 8009da2:	4606      	mov	r6, r0
 8009da4:	bb10      	cbnz	r0, 8009dec <_tzset_unlocked_r+0x64>
 8009da6:	4bba      	ldr	r3, [pc, #744]	@ (800a090 <_tzset_unlocked_r+0x308>)
 8009da8:	4aba      	ldr	r2, [pc, #744]	@ (800a094 <_tzset_unlocked_r+0x30c>)
 8009daa:	6018      	str	r0, [r3, #0]
 8009dac:	4bba      	ldr	r3, [pc, #744]	@ (800a098 <_tzset_unlocked_r+0x310>)
 8009dae:	62a6      	str	r6, [r4, #40]	@ 0x28
 8009db0:	6018      	str	r0, [r3, #0]
 8009db2:	4bba      	ldr	r3, [pc, #744]	@ (800a09c <_tzset_unlocked_r+0x314>)
 8009db4:	6526      	str	r6, [r4, #80]	@ 0x50
 8009db6:	e9c3 2200 	strd	r2, r2, [r3]
 8009dba:	204a      	movs	r0, #74	@ 0x4a
 8009dbc:	2200      	movs	r2, #0
 8009dbe:	2300      	movs	r3, #0
 8009dc0:	7220      	strb	r0, [r4, #8]
 8009dc2:	f884 0030 	strb.w	r0, [r4, #48]	@ 0x30
 8009dc6:	e9c4 6603 	strd	r6, r6, [r4, #12]
 8009dca:	e9c4 6605 	strd	r6, r6, [r4, #20]
 8009dce:	e9c4 2308 	strd	r2, r3, [r4, #32]
 8009dd2:	e9c4 660d 	strd	r6, r6, [r4, #52]	@ 0x34
 8009dd6:	e9c4 660f 	strd	r6, r6, [r4, #60]	@ 0x3c
 8009dda:	e9c4 2312 	strd	r2, r3, [r4, #72]	@ 0x48
 8009dde:	4608      	mov	r0, r1
 8009de0:	f000 fac4 	bl	800a36c <free>
 8009de4:	603e      	str	r6, [r7, #0]
 8009de6:	b00d      	add	sp, #52	@ 0x34
 8009de8:	e8bd 8ff0 	ldmia.w	sp!, {r4, r5, r6, r7, r8, r9, sl, fp, pc}
 8009dec:	2900      	cmp	r1, #0
 8009dee:	f040 808f 	bne.w	8009f10 <_tzset_unlocked_r+0x188>
 8009df2:	6838      	ldr	r0, [r7, #0]
 8009df4:	f000 faba 	bl	800a36c <free>
 8009df8:	4630      	mov	r0, r6
 8009dfa:	f7f6 f9d3 	bl	80001a4 <strlen>
 8009dfe:	1c41      	adds	r1, r0, #1
 8009e00:	4628      	mov	r0, r5
 8009e02:	f000 fadd 	bl	800a3c0 <_malloc_r>
 8009e06:	6038      	str	r0, [r7, #0]
 8009e08:	2800      	cmp	r0, #0
 8009e0a:	f040 8087 	bne.w	8009f1c <_tzset_unlocked_r+0x194>
 8009e0e:	4aa2      	ldr	r2, [pc, #648]	@ (800a098 <_tzset_unlocked_r+0x310>)
 8009e10:	4fa2      	ldr	r7, [pc, #648]	@ (800a09c <_tzset_unlocked_r+0x314>)
 8009e12:	f8df a27c 	ldr.w	sl, [pc, #636]	@ 800a090 <_tzset_unlocked_r+0x308>
 8009e16:	2300      	movs	r3, #0
 8009e18:	6013      	str	r3, [r2, #0]
 8009e1a:	4aa1      	ldr	r2, [pc, #644]	@ (800a0a0 <_tzset_unlocked_r+0x318>)
 8009e1c:	f8ca 3000 	str.w	r3, [sl]
 8009e20:	2000      	movs	r0, #0
 8009e22:	2100      	movs	r1, #0
 8009e24:	e9c7 2200 	strd	r2, r2, [r7]
 8009e28:	e9c4 3303 	strd	r3, r3, [r4, #12]
 8009e2c:	e9c4 3305 	strd	r3, r3, [r4, #20]
 8009e30:	e9c4 0108 	strd	r0, r1, [r4, #32]
 8009e34:	e9c4 330d 	strd	r3, r3, [r4, #52]	@ 0x34
 8009e38:	e9c4 330f 	strd	r3, r3, [r4, #60]	@ 0x3c
 8009e3c:	e9c4 0112 	strd	r0, r1, [r4, #72]	@ 0x48
 8009e40:	224a      	movs	r2, #74	@ 0x4a
 8009e42:	7222      	strb	r2, [r4, #8]
 8009e44:	62a3      	str	r3, [r4, #40]	@ 0x28
 8009e46:	f884 2030 	strb.w	r2, [r4, #48]	@ 0x30
 8009e4a:	6523      	str	r3, [r4, #80]	@ 0x50
 8009e4c:	7833      	ldrb	r3, [r6, #0]
 8009e4e:	2b3a      	cmp	r3, #58	@ 0x3a
 8009e50:	bf08      	it	eq
 8009e52:	3601      	addeq	r6, #1
 8009e54:	f10d 0b28 	add.w	fp, sp, #40	@ 0x28
 8009e58:	7833      	ldrb	r3, [r6, #0]
 8009e5a:	2b3c      	cmp	r3, #60	@ 0x3c
 8009e5c:	d162      	bne.n	8009f24 <_tzset_unlocked_r+0x19c>
 8009e5e:	1c75      	adds	r5, r6, #1
 8009e60:	4a90      	ldr	r2, [pc, #576]	@ (800a0a4 <_tzset_unlocked_r+0x31c>)
 8009e62:	4991      	ldr	r1, [pc, #580]	@ (800a0a8 <_tzset_unlocked_r+0x320>)
 8009e64:	465b      	mov	r3, fp
 8009e66:	4628      	mov	r0, r5
 8009e68:	f000 fe9a 	bl	800aba0 <siscanf>
 8009e6c:	2800      	cmp	r0, #0
 8009e6e:	ddba      	ble.n	8009de6 <_tzset_unlocked_r+0x5e>
 8009e70:	9b0a      	ldr	r3, [sp, #40]	@ 0x28
 8009e72:	1eda      	subs	r2, r3, #3
 8009e74:	2a07      	cmp	r2, #7
 8009e76:	d8b6      	bhi.n	8009de6 <_tzset_unlocked_r+0x5e>
 8009e78:	5cea      	ldrb	r2, [r5, r3]
 8009e7a:	2a3e      	cmp	r2, #62	@ 0x3e
 8009e7c:	d1b3      	bne.n	8009de6 <_tzset_unlocked_r+0x5e>
 8009e7e:	3602      	adds	r6, #2
 8009e80:	18f5      	adds	r5, r6, r3
 8009e82:	5cf3      	ldrb	r3, [r6, r3]
 8009e84:	2b2d      	cmp	r3, #45	@ 0x2d
 8009e86:	d15b      	bne.n	8009f40 <_tzset_unlocked_r+0x1b8>
 8009e88:	3501      	adds	r5, #1
 8009e8a:	f04f 38ff 	mov.w	r8, #4294967295
 8009e8e:	2300      	movs	r3, #0
 8009e90:	f8ad 301e 	strh.w	r3, [sp, #30]
 8009e94:	f8ad 3020 	strh.w	r3, [sp, #32]
 8009e98:	f10d 0920 	add.w	r9, sp, #32
 8009e9c:	f10d 031e 	add.w	r3, sp, #30
 8009ea0:	9300      	str	r3, [sp, #0]
 8009ea2:	e9cd b901 	strd	fp, r9, [sp, #4]
 8009ea6:	4981      	ldr	r1, [pc, #516]	@ (800a0ac <_tzset_unlocked_r+0x324>)
 8009ea8:	f8cd b00c 	str.w	fp, [sp, #12]
 8009eac:	465b      	mov	r3, fp
 8009eae:	aa07      	add	r2, sp, #28
 8009eb0:	4628      	mov	r0, r5
 8009eb2:	f000 fe75 	bl	800aba0 <siscanf>
 8009eb6:	2800      	cmp	r0, #0
 8009eb8:	dd95      	ble.n	8009de6 <_tzset_unlocked_r+0x5e>
 8009eba:	f8bd 301e 	ldrh.w	r3, [sp, #30]
 8009ebe:	f8bd 6020 	ldrh.w	r6, [sp, #32]
 8009ec2:	223c      	movs	r2, #60	@ 0x3c
 8009ec4:	fb02 6603 	mla	r6, r2, r3, r6
 8009ec8:	f8bd 301c 	ldrh.w	r3, [sp, #28]
 8009ecc:	f44f 6261 	mov.w	r2, #3600	@ 0xe10
 8009ed0:	fb02 6603 	mla	r6, r2, r3, r6
 8009ed4:	9b0a      	ldr	r3, [sp, #40]	@ 0x28
 8009ed6:	fb08 f606 	mul.w	r6, r8, r6
 8009eda:	eb05 0803 	add.w	r8, r5, r3
 8009ede:	5ceb      	ldrb	r3, [r5, r3]
 8009ee0:	2b3c      	cmp	r3, #60	@ 0x3c
 8009ee2:	f040 80ed 	bne.w	800a0c0 <_tzset_unlocked_r+0x338>
 8009ee6:	f108 0501 	add.w	r5, r8, #1
 8009eea:	4a71      	ldr	r2, [pc, #452]	@ (800a0b0 <_tzset_unlocked_r+0x328>)
 8009eec:	496e      	ldr	r1, [pc, #440]	@ (800a0a8 <_tzset_unlocked_r+0x320>)
 8009eee:	465b      	mov	r3, fp
 8009ef0:	4628      	mov	r0, r5
 8009ef2:	f000 fe55 	bl	800aba0 <siscanf>
 8009ef6:	2800      	cmp	r0, #0
 8009ef8:	dc28      	bgt.n	8009f4c <_tzset_unlocked_r+0x1c4>
 8009efa:	f898 3001 	ldrb.w	r3, [r8, #1]
 8009efe:	2b3e      	cmp	r3, #62	@ 0x3e
 8009f00:	d124      	bne.n	8009f4c <_tzset_unlocked_r+0x1c4>
 8009f02:	4b68      	ldr	r3, [pc, #416]	@ (800a0a4 <_tzset_unlocked_r+0x31c>)
 8009f04:	62a6      	str	r6, [r4, #40]	@ 0x28
 8009f06:	e9c7 3300 	strd	r3, r3, [r7]
 8009f0a:	f8ca 6000 	str.w	r6, [sl]
 8009f0e:	e76a      	b.n	8009de6 <_tzset_unlocked_r+0x5e>
 8009f10:	f7f6 f93e 	bl	8000190 <strcmp>
 8009f14:	2800      	cmp	r0, #0
 8009f16:	f47f af6c 	bne.w	8009df2 <_tzset_unlocked_r+0x6a>
 8009f1a:	e764      	b.n	8009de6 <_tzset_unlocked_r+0x5e>
 8009f1c:	4631      	mov	r1, r6
 8009f1e:	f000 f987 	bl	800a230 <strcpy>
 8009f22:	e774      	b.n	8009e0e <_tzset_unlocked_r+0x86>
 8009f24:	4a5f      	ldr	r2, [pc, #380]	@ (800a0a4 <_tzset_unlocked_r+0x31c>)
 8009f26:	4963      	ldr	r1, [pc, #396]	@ (800a0b4 <_tzset_unlocked_r+0x32c>)
 8009f28:	465b      	mov	r3, fp
 8009f2a:	4630      	mov	r0, r6
 8009f2c:	f000 fe38 	bl	800aba0 <siscanf>
 8009f30:	2800      	cmp	r0, #0
 8009f32:	f77f af58 	ble.w	8009de6 <_tzset_unlocked_r+0x5e>
 8009f36:	9b0a      	ldr	r3, [sp, #40]	@ 0x28
 8009f38:	1eda      	subs	r2, r3, #3
 8009f3a:	2a07      	cmp	r2, #7
 8009f3c:	d9a0      	bls.n	8009e80 <_tzset_unlocked_r+0xf8>
 8009f3e:	e752      	b.n	8009de6 <_tzset_unlocked_r+0x5e>
 8009f40:	2b2b      	cmp	r3, #43	@ 0x2b
 8009f42:	bf08      	it	eq
 8009f44:	3501      	addeq	r5, #1
 8009f46:	f04f 0801 	mov.w	r8, #1
 8009f4a:	e7a0      	b.n	8009e8e <_tzset_unlocked_r+0x106>
 8009f4c:	9b0a      	ldr	r3, [sp, #40]	@ 0x28
 8009f4e:	1eda      	subs	r2, r3, #3
 8009f50:	2a07      	cmp	r2, #7
 8009f52:	f63f af48 	bhi.w	8009de6 <_tzset_unlocked_r+0x5e>
 8009f56:	5cea      	ldrb	r2, [r5, r3]
 8009f58:	2a3e      	cmp	r2, #62	@ 0x3e
 8009f5a:	f47f af44 	bne.w	8009de6 <_tzset_unlocked_r+0x5e>
 8009f5e:	f108 0802 	add.w	r8, r8, #2
 8009f62:	eb08 0503 	add.w	r5, r8, r3
 8009f66:	f818 3003 	ldrb.w	r3, [r8, r3]
 8009f6a:	2b2d      	cmp	r3, #45	@ 0x2d
 8009f6c:	f040 80b7 	bne.w	800a0de <_tzset_unlocked_r+0x356>
 8009f70:	3501      	adds	r5, #1
 8009f72:	f04f 38ff 	mov.w	r8, #4294967295
 8009f76:	2300      	movs	r3, #0
 8009f78:	f8ad 301c 	strh.w	r3, [sp, #28]
 8009f7c:	f8ad 301e 	strh.w	r3, [sp, #30]
 8009f80:	f8ad 3020 	strh.w	r3, [sp, #32]
 8009f84:	930a      	str	r3, [sp, #40]	@ 0x28
 8009f86:	f10d 031e 	add.w	r3, sp, #30
 8009f8a:	9300      	str	r3, [sp, #0]
 8009f8c:	e9cd 9b02 	strd	r9, fp, [sp, #8]
 8009f90:	4946      	ldr	r1, [pc, #280]	@ (800a0ac <_tzset_unlocked_r+0x324>)
 8009f92:	f8cd b004 	str.w	fp, [sp, #4]
 8009f96:	465b      	mov	r3, fp
 8009f98:	aa07      	add	r2, sp, #28
 8009f9a:	4628      	mov	r0, r5
 8009f9c:	f000 fe00 	bl	800aba0 <siscanf>
 8009fa0:	2800      	cmp	r0, #0
 8009fa2:	f300 80a2 	bgt.w	800a0ea <_tzset_unlocked_r+0x362>
 8009fa6:	f5a6 6361 	sub.w	r3, r6, #3600	@ 0xe10
 8009faa:	9304      	str	r3, [sp, #16]
 8009fac:	9b0a      	ldr	r3, [sp, #40]	@ 0x28
 8009fae:	46a0      	mov	r8, r4
 8009fb0:	441d      	add	r5, r3
 8009fb2:	f04f 0b00 	mov.w	fp, #0
 8009fb6:	782b      	ldrb	r3, [r5, #0]
 8009fb8:	2b2c      	cmp	r3, #44	@ 0x2c
 8009fba:	bf08      	it	eq
 8009fbc:	3501      	addeq	r5, #1
 8009fbe:	f895 9000 	ldrb.w	r9, [r5]
 8009fc2:	f1b9 0f4d 	cmp.w	r9, #77	@ 0x4d
 8009fc6:	f040 80a0 	bne.w	800a10a <_tzset_unlocked_r+0x382>
 8009fca:	ab0a      	add	r3, sp, #40	@ 0x28
 8009fcc:	f10d 0226 	add.w	r2, sp, #38	@ 0x26
 8009fd0:	e9cd 3201 	strd	r3, r2, [sp, #4]
 8009fd4:	aa09      	add	r2, sp, #36	@ 0x24
 8009fd6:	9200      	str	r2, [sp, #0]
 8009fd8:	4937      	ldr	r1, [pc, #220]	@ (800a0b8 <_tzset_unlocked_r+0x330>)
 8009fda:	9303      	str	r3, [sp, #12]
 8009fdc:	f10d 0222 	add.w	r2, sp, #34	@ 0x22
 8009fe0:	4628      	mov	r0, r5
 8009fe2:	f000 fddd 	bl	800aba0 <siscanf>
 8009fe6:	2803      	cmp	r0, #3
 8009fe8:	f47f aefd 	bne.w	8009de6 <_tzset_unlocked_r+0x5e>
 8009fec:	f8bd 1022 	ldrh.w	r1, [sp, #34]	@ 0x22
 8009ff0:	1e4b      	subs	r3, r1, #1
 8009ff2:	2b0b      	cmp	r3, #11
 8009ff4:	f63f aef7 	bhi.w	8009de6 <_tzset_unlocked_r+0x5e>
 8009ff8:	f8bd 2024 	ldrh.w	r2, [sp, #36]	@ 0x24
 8009ffc:	1e53      	subs	r3, r2, #1
 8009ffe:	2b04      	cmp	r3, #4
 800a000:	f63f aef1 	bhi.w	8009de6 <_tzset_unlocked_r+0x5e>
 800a004:	f8bd 3026 	ldrh.w	r3, [sp, #38]	@ 0x26
 800a008:	2b06      	cmp	r3, #6
 800a00a:	f63f aeec 	bhi.w	8009de6 <_tzset_unlocked_r+0x5e>
 800a00e:	e9c8 1203 	strd	r1, r2, [r8, #12]
 800a012:	f888 9008 	strb.w	r9, [r8, #8]
 800a016:	f8c8 3014 	str.w	r3, [r8, #20]
 800a01a:	9b0a      	ldr	r3, [sp, #40]	@ 0x28
 800a01c:	eb05 0903 	add.w	r9, r5, r3
 800a020:	2500      	movs	r5, #0
 800a022:	f04f 0302 	mov.w	r3, #2
 800a026:	f8ad 301c 	strh.w	r3, [sp, #28]
 800a02a:	f8ad 501e 	strh.w	r5, [sp, #30]
 800a02e:	f8ad 5020 	strh.w	r5, [sp, #32]
 800a032:	950a      	str	r5, [sp, #40]	@ 0x28
 800a034:	f899 3000 	ldrb.w	r3, [r9]
 800a038:	2b2f      	cmp	r3, #47	@ 0x2f
 800a03a:	f040 8094 	bne.w	800a166 <_tzset_unlocked_r+0x3de>
 800a03e:	ab0a      	add	r3, sp, #40	@ 0x28
 800a040:	aa08      	add	r2, sp, #32
 800a042:	e9cd 3201 	strd	r3, r2, [sp, #4]
 800a046:	f10d 021e 	add.w	r2, sp, #30
 800a04a:	9200      	str	r2, [sp, #0]
 800a04c:	491b      	ldr	r1, [pc, #108]	@ (800a0bc <_tzset_unlocked_r+0x334>)
 800a04e:	9303      	str	r3, [sp, #12]
 800a050:	aa07      	add	r2, sp, #28
 800a052:	4648      	mov	r0, r9
 800a054:	f000 fda4 	bl	800aba0 <siscanf>
 800a058:	42a8      	cmp	r0, r5
 800a05a:	f300 8084 	bgt.w	800a166 <_tzset_unlocked_r+0x3de>
 800a05e:	214a      	movs	r1, #74	@ 0x4a
 800a060:	2200      	movs	r2, #0
 800a062:	2300      	movs	r3, #0
 800a064:	e9c4 5503 	strd	r5, r5, [r4, #12]
 800a068:	e9c4 5505 	strd	r5, r5, [r4, #20]
 800a06c:	e9c4 2308 	strd	r2, r3, [r4, #32]
 800a070:	e9c4 550d 	strd	r5, r5, [r4, #52]	@ 0x34
 800a074:	e9c4 550f 	strd	r5, r5, [r4, #60]	@ 0x3c
 800a078:	e9c4 2312 	strd	r2, r3, [r4, #72]	@ 0x48
 800a07c:	7221      	strb	r1, [r4, #8]
 800a07e:	62a5      	str	r5, [r4, #40]	@ 0x28
 800a080:	f884 1030 	strb.w	r1, [r4, #48]	@ 0x30
 800a084:	6525      	str	r5, [r4, #80]	@ 0x50
 800a086:	e6ae      	b.n	8009de6 <_tzset_unlocked_r+0x5e>
 800a088:	0800ce74 	.word	0x0800ce74
 800a08c:	20001820 	.word	0x20001820
 800a090:	2000183c 	.word	0x2000183c
 800a094:	0800ce77 	.word	0x0800ce77
 800a098:	20001840 	.word	0x20001840
 800a09c:	200001c4 	.word	0x200001c4
 800a0a0:	0800cec7 	.word	0x0800cec7
 800a0a4:	20001830 	.word	0x20001830
 800a0a8:	0800ce7b 	.word	0x0800ce7b
 800a0ac:	0800ceb0 	.word	0x0800ceb0
 800a0b0:	20001824 	.word	0x20001824
 800a0b4:	0800ce8e 	.word	0x0800ce8e
 800a0b8:	0800ce9c 	.word	0x0800ce9c
 800a0bc:	0800ceaf 	.word	0x0800ceaf
 800a0c0:	4a40      	ldr	r2, [pc, #256]	@ (800a1c4 <_tzset_unlocked_r+0x43c>)
 800a0c2:	4941      	ldr	r1, [pc, #260]	@ (800a1c8 <_tzset_unlocked_r+0x440>)
 800a0c4:	465b      	mov	r3, fp
 800a0c6:	4640      	mov	r0, r8
 800a0c8:	f000 fd6a 	bl	800aba0 <siscanf>
 800a0cc:	2800      	cmp	r0, #0
 800a0ce:	f77f af18 	ble.w	8009f02 <_tzset_unlocked_r+0x17a>
 800a0d2:	9b0a      	ldr	r3, [sp, #40]	@ 0x28
 800a0d4:	1eda      	subs	r2, r3, #3
 800a0d6:	2a07      	cmp	r2, #7
 800a0d8:	f67f af43 	bls.w	8009f62 <_tzset_unlocked_r+0x1da>
 800a0dc:	e683      	b.n	8009de6 <_tzset_unlocked_r+0x5e>
 800a0de:	2b2b      	cmp	r3, #43	@ 0x2b
 800a0e0:	bf08      	it	eq
 800a0e2:	3501      	addeq	r5, #1
 800a0e4:	f04f 0801 	mov.w	r8, #1
 800a0e8:	e745      	b.n	8009f76 <_tzset_unlocked_r+0x1ee>
 800a0ea:	f8bd 201e 	ldrh.w	r2, [sp, #30]
 800a0ee:	f8bd 3020 	ldrh.w	r3, [sp, #32]
 800a0f2:	213c      	movs	r1, #60	@ 0x3c
 800a0f4:	fb01 3302 	mla	r3, r1, r2, r3
 800a0f8:	f8bd 201c 	ldrh.w	r2, [sp, #28]
 800a0fc:	f44f 6161 	mov.w	r1, #3600	@ 0xe10
 800a100:	fb01 3302 	mla	r3, r1, r2, r3
 800a104:	fb08 f303 	mul.w	r3, r8, r3
 800a108:	e74f      	b.n	8009faa <_tzset_unlocked_r+0x222>
 800a10a:	f1b9 0f4a 	cmp.w	r9, #74	@ 0x4a
 800a10e:	bf06      	itte	eq
 800a110:	3501      	addeq	r5, #1
 800a112:	464b      	moveq	r3, r9
 800a114:	2344      	movne	r3, #68	@ 0x44
 800a116:	220a      	movs	r2, #10
 800a118:	a90b      	add	r1, sp, #44	@ 0x2c
 800a11a:	4628      	mov	r0, r5
 800a11c:	9305      	str	r3, [sp, #20]
 800a11e:	f000 fa4b 	bl	800a5b8 <strtoul>
 800a122:	f8dd 902c 	ldr.w	r9, [sp, #44]	@ 0x2c
 800a126:	9b05      	ldr	r3, [sp, #20]
 800a128:	f8ad 0026 	strh.w	r0, [sp, #38]	@ 0x26
 800a12c:	45a9      	cmp	r9, r5
 800a12e:	d114      	bne.n	800a15a <_tzset_unlocked_r+0x3d2>
 800a130:	234d      	movs	r3, #77	@ 0x4d
 800a132:	f1bb 0f00 	cmp.w	fp, #0
 800a136:	d107      	bne.n	800a148 <_tzset_unlocked_r+0x3c0>
 800a138:	7223      	strb	r3, [r4, #8]
 800a13a:	2103      	movs	r1, #3
 800a13c:	2302      	movs	r3, #2
 800a13e:	e9c4 1303 	strd	r1, r3, [r4, #12]
 800a142:	f8c4 b014 	str.w	fp, [r4, #20]
 800a146:	e76b      	b.n	800a020 <_tzset_unlocked_r+0x298>
 800a148:	f884 3030 	strb.w	r3, [r4, #48]	@ 0x30
 800a14c:	220b      	movs	r2, #11
 800a14e:	2301      	movs	r3, #1
 800a150:	e9c4 230d 	strd	r2, r3, [r4, #52]	@ 0x34
 800a154:	2300      	movs	r3, #0
 800a156:	63e3      	str	r3, [r4, #60]	@ 0x3c
 800a158:	e762      	b.n	800a020 <_tzset_unlocked_r+0x298>
 800a15a:	b280      	uxth	r0, r0
 800a15c:	f888 3008 	strb.w	r3, [r8, #8]
 800a160:	f8c8 0014 	str.w	r0, [r8, #20]
 800a164:	e75c      	b.n	800a020 <_tzset_unlocked_r+0x298>
 800a166:	f8bd 201e 	ldrh.w	r2, [sp, #30]
 800a16a:	f8bd 3020 	ldrh.w	r3, [sp, #32]
 800a16e:	213c      	movs	r1, #60	@ 0x3c
 800a170:	fb01 3302 	mla	r3, r1, r2, r3
 800a174:	f8bd 201c 	ldrh.w	r2, [sp, #28]
 800a178:	f44f 6161 	mov.w	r1, #3600	@ 0xe10
 800a17c:	fb01 3302 	mla	r3, r1, r2, r3
 800a180:	f8c8 3018 	str.w	r3, [r8, #24]
 800a184:	9d0a      	ldr	r5, [sp, #40]	@ 0x28
 800a186:	f10b 0301 	add.w	r3, fp, #1
 800a18a:	2b02      	cmp	r3, #2
 800a18c:	444d      	add	r5, r9
 800a18e:	f108 0828 	add.w	r8, r8, #40	@ 0x28
 800a192:	f04f 0b01 	mov.w	fp, #1
 800a196:	f47f af0e 	bne.w	8009fb6 <_tzset_unlocked_r+0x22e>
 800a19a:	9b04      	ldr	r3, [sp, #16]
 800a19c:	6523      	str	r3, [r4, #80]	@ 0x50
 800a19e:	4b0b      	ldr	r3, [pc, #44]	@ (800a1cc <_tzset_unlocked_r+0x444>)
 800a1a0:	603b      	str	r3, [r7, #0]
 800a1a2:	6860      	ldr	r0, [r4, #4]
 800a1a4:	4b07      	ldr	r3, [pc, #28]	@ (800a1c4 <_tzset_unlocked_r+0x43c>)
 800a1a6:	62a6      	str	r6, [r4, #40]	@ 0x28
 800a1a8:	607b      	str	r3, [r7, #4]
 800a1aa:	f7ff fd27 	bl	8009bfc <__tzcalc_limits>
 800a1ae:	6aa2      	ldr	r2, [r4, #40]	@ 0x28
 800a1b0:	6d23      	ldr	r3, [r4, #80]	@ 0x50
 800a1b2:	f8ca 2000 	str.w	r2, [sl]
 800a1b6:	1a9b      	subs	r3, r3, r2
 800a1b8:	4a05      	ldr	r2, [pc, #20]	@ (800a1d0 <_tzset_unlocked_r+0x448>)
 800a1ba:	bf18      	it	ne
 800a1bc:	2301      	movne	r3, #1
 800a1be:	6013      	str	r3, [r2, #0]
 800a1c0:	e611      	b.n	8009de6 <_tzset_unlocked_r+0x5e>
 800a1c2:	bf00      	nop
 800a1c4:	20001824 	.word	0x20001824
 800a1c8:	0800ce8e 	.word	0x0800ce8e
 800a1cc:	20001830 	.word	0x20001830
 800a1d0:	20001840 	.word	0x20001840

0800a1d4 <__errno>:
 800a1d4:	4b01      	ldr	r3, [pc, #4]	@ (800a1dc <__errno+0x8>)
 800a1d6:	6818      	ldr	r0, [r3, #0]
 800a1d8:	4770      	bx	lr
 800a1da:	bf00      	nop
 800a1dc:	200001cc 	.word	0x200001cc

0800a1e0 <__libc_init_array>:
 800a1e0:	b570      	push	{r4, r5, r6, lr}
 800a1e2:	4b0d      	ldr	r3, [pc, #52]	@ (800a218 <__libc_init_array+0x38>)
 800a1e4:	4d0d      	ldr	r5, [pc, #52]	@ (800a21c <__libc_init_array+0x3c>)
 800a1e6:	1b5b      	subs	r3, r3, r5
 800a1e8:	109c      	asrs	r4, r3, #2
 800a1ea:	2600      	movs	r6, #0
 800a1ec:	42a6      	cmp	r6, r4
 800a1ee:	d109      	bne.n	800a204 <__libc_init_array+0x24>
 800a1f0:	f001 fb22 	bl	800b838 <_init>
 800a1f4:	4d0a      	ldr	r5, [pc, #40]	@ (800a220 <__libc_init_array+0x40>)
 800a1f6:	4b0b      	ldr	r3, [pc, #44]	@ (800a224 <__libc_init_array+0x44>)
 800a1f8:	1b5b      	subs	r3, r3, r5
 800a1fa:	109c      	asrs	r4, r3, #2
 800a1fc:	2600      	movs	r6, #0
 800a1fe:	42a6      	cmp	r6, r4
 800a200:	d105      	bne.n	800a20e <__libc_init_array+0x2e>
 800a202:	bd70      	pop	{r4, r5, r6, pc}
 800a204:	f855 3b04 	ldr.w	r3, [r5], #4
 800a208:	4798      	blx	r3
 800a20a:	3601      	adds	r6, #1
 800a20c:	e7ee      	b.n	800a1ec <__libc_init_array+0xc>
 800a20e:	f855 3b04 	ldr.w	r3, [r5], #4
 800a212:	4798      	blx	r3
 800a214:	3601      	adds	r6, #1
 800a216:	e7f2      	b.n	800a1fe <__libc_init_array+0x1e>
 800a218:	0800d080 	.word	0x0800d080
 800a21c:	0800d080 	.word	0x0800d080
 800a220:	0800d080 	.word	0x0800d080
 800a224:	0800d084 	.word	0x0800d084

0800a228 <__retarget_lock_acquire>:
 800a228:	4770      	bx	lr

0800a22a <__retarget_lock_acquire_recursive>:
 800a22a:	4770      	bx	lr

0800a22c <__retarget_lock_release>:
 800a22c:	4770      	bx	lr

0800a22e <__retarget_lock_release_recursive>:
 800a22e:	4770      	bx	lr

0800a230 <strcpy>:
 800a230:	4603      	mov	r3, r0
 800a232:	f811 2b01 	ldrb.w	r2, [r1], #1
 800a236:	f803 2b01 	strb.w	r2, [r3], #1
 800a23a:	2a00      	cmp	r2, #0
 800a23c:	d1f9      	bne.n	800a232 <strcpy+0x2>
 800a23e:	4770      	bx	lr

0800a240 <div>:
 800a240:	b510      	push	{r4, lr}
 800a242:	fb91 f4f2 	sdiv	r4, r1, r2
 800a246:	fb02 1114 	mls	r1, r2, r4, r1
 800a24a:	6004      	str	r4, [r0, #0]
 800a24c:	6041      	str	r1, [r0, #4]
 800a24e:	bd10      	pop	{r4, pc}

0800a250 <_free_r>:
 800a250:	b538      	push	{r3, r4, r5, lr}
 800a252:	4605      	mov	r5, r0
 800a254:	2900      	cmp	r1, #0
 800a256:	d041      	beq.n	800a2dc <_free_r+0x8c>
 800a258:	f851 3c04 	ldr.w	r3, [r1, #-4]
 800a25c:	1f0c      	subs	r4, r1, #4
 800a25e:	2b00      	cmp	r3, #0
 800a260:	bfb8      	it	lt
 800a262:	18e4      	addlt	r4, r4, r3
 800a264:	f000 f92c 	bl	800a4c0 <__malloc_lock>
 800a268:	4a1d      	ldr	r2, [pc, #116]	@ (800a2e0 <_free_r+0x90>)
 800a26a:	6813      	ldr	r3, [r2, #0]
 800a26c:	b933      	cbnz	r3, 800a27c <_free_r+0x2c>
 800a26e:	6063      	str	r3, [r4, #4]
 800a270:	6014      	str	r4, [r2, #0]
 800a272:	4628      	mov	r0, r5
 800a274:	e8bd 4038 	ldmia.w	sp!, {r3, r4, r5, lr}
 800a278:	f000 b928 	b.w	800a4cc <__malloc_unlock>
 800a27c:	42a3      	cmp	r3, r4
 800a27e:	d908      	bls.n	800a292 <_free_r+0x42>
 800a280:	6820      	ldr	r0, [r4, #0]
 800a282:	1821      	adds	r1, r4, r0
 800a284:	428b      	cmp	r3, r1
 800a286:	bf01      	itttt	eq
 800a288:	6819      	ldreq	r1, [r3, #0]
 800a28a:	685b      	ldreq	r3, [r3, #4]
 800a28c:	1809      	addeq	r1, r1, r0
 800a28e:	6021      	streq	r1, [r4, #0]
 800a290:	e7ed      	b.n	800a26e <_free_r+0x1e>
 800a292:	461a      	mov	r2, r3
 800a294:	685b      	ldr	r3, [r3, #4]
 800a296:	b10b      	cbz	r3, 800a29c <_free_r+0x4c>
 800a298:	42a3      	cmp	r3, r4
 800a29a:	d9fa      	bls.n	800a292 <_free_r+0x42>
 800a29c:	6811      	ldr	r1, [r2, #0]
 800a29e:	1850      	adds	r0, r2, r1
 800a2a0:	42a0      	cmp	r0, r4
 800a2a2:	d10b      	bne.n	800a2bc <_free_r+0x6c>
 800a2a4:	6820      	ldr	r0, [r4, #0]
 800a2a6:	4401      	add	r1, r0
 800a2a8:	1850      	adds	r0, r2, r1
 800a2aa:	4283      	cmp	r3, r0
 800a2ac:	6011      	str	r1, [r2, #0]
 800a2ae:	d1e0      	bne.n	800a272 <_free_r+0x22>
 800a2b0:	6818      	ldr	r0, [r3, #0]
 800a2b2:	685b      	ldr	r3, [r3, #4]
 800a2b4:	6053      	str	r3, [r2, #4]
 800a2b6:	4408      	add	r0, r1
 800a2b8:	6010      	str	r0, [r2, #0]
 800a2ba:	e7da      	b.n	800a272 <_free_r+0x22>
 800a2bc:	d902      	bls.n	800a2c4 <_free_r+0x74>
 800a2be:	230c      	movs	r3, #12
 800a2c0:	602b      	str	r3, [r5, #0]
 800a2c2:	e7d6      	b.n	800a272 <_free_r+0x22>
 800a2c4:	6820      	ldr	r0, [r4, #0]
 800a2c6:	1821      	adds	r1, r4, r0
 800a2c8:	428b      	cmp	r3, r1
 800a2ca:	bf04      	itt	eq
 800a2cc:	6819      	ldreq	r1, [r3, #0]
 800a2ce:	685b      	ldreq	r3, [r3, #4]
 800a2d0:	6063      	str	r3, [r4, #4]
 800a2d2:	bf04      	itt	eq
 800a2d4:	1809      	addeq	r1, r1, r0
 800a2d6:	6021      	streq	r1, [r4, #0]
 800a2d8:	6054      	str	r4, [r2, #4]
 800a2da:	e7ca      	b.n	800a272 <_free_r+0x22>
 800a2dc:	bd38      	pop	{r3, r4, r5, pc}
 800a2de:	bf00      	nop
 800a2e0:	20001850 	.word	0x20001850

0800a2e4 <_findenv_r>:
 800a2e4:	e92d 4ff8 	stmdb	sp!, {r3, r4, r5, r6, r7, r8, r9, sl, fp, lr}
 800a2e8:	f8df a06c 	ldr.w	sl, [pc, #108]	@ 800a358 <_findenv_r+0x74>
 800a2ec:	4606      	mov	r6, r0
 800a2ee:	4689      	mov	r9, r1
 800a2f0:	4617      	mov	r7, r2
 800a2f2:	f000 fccf 	bl	800ac94 <__env_lock>
 800a2f6:	f8da 4000 	ldr.w	r4, [sl]
 800a2fa:	b134      	cbz	r4, 800a30a <_findenv_r+0x26>
 800a2fc:	464b      	mov	r3, r9
 800a2fe:	4698      	mov	r8, r3
 800a300:	f813 2b01 	ldrb.w	r2, [r3], #1
 800a304:	b13a      	cbz	r2, 800a316 <_findenv_r+0x32>
 800a306:	2a3d      	cmp	r2, #61	@ 0x3d
 800a308:	d1f9      	bne.n	800a2fe <_findenv_r+0x1a>
 800a30a:	4630      	mov	r0, r6
 800a30c:	f000 fcc8 	bl	800aca0 <__env_unlock>
 800a310:	2000      	movs	r0, #0
 800a312:	e8bd 8ff8 	ldmia.w	sp!, {r3, r4, r5, r6, r7, r8, r9, sl, fp, pc}
 800a316:	eba8 0809 	sub.w	r8, r8, r9
 800a31a:	46a3      	mov	fp, r4
 800a31c:	f854 0b04 	ldr.w	r0, [r4], #4
 800a320:	2800      	cmp	r0, #0
 800a322:	d0f2      	beq.n	800a30a <_findenv_r+0x26>
 800a324:	4642      	mov	r2, r8
 800a326:	4649      	mov	r1, r9
 800a328:	f000 fc7f 	bl	800ac2a <strncmp>
 800a32c:	2800      	cmp	r0, #0
 800a32e:	d1f4      	bne.n	800a31a <_findenv_r+0x36>
 800a330:	f854 3c04 	ldr.w	r3, [r4, #-4]
 800a334:	eb03 0508 	add.w	r5, r3, r8
 800a338:	f813 3008 	ldrb.w	r3, [r3, r8]
 800a33c:	2b3d      	cmp	r3, #61	@ 0x3d
 800a33e:	d1ec      	bne.n	800a31a <_findenv_r+0x36>
 800a340:	f8da 3000 	ldr.w	r3, [sl]
 800a344:	ebab 0303 	sub.w	r3, fp, r3
 800a348:	109b      	asrs	r3, r3, #2
 800a34a:	4630      	mov	r0, r6
 800a34c:	603b      	str	r3, [r7, #0]
 800a34e:	f000 fca7 	bl	800aca0 <__env_unlock>
 800a352:	1c68      	adds	r0, r5, #1
 800a354:	e7dd      	b.n	800a312 <_findenv_r+0x2e>
 800a356:	bf00      	nop
 800a358:	200000c0 	.word	0x200000c0

0800a35c <_getenv_r>:
 800a35c:	b507      	push	{r0, r1, r2, lr}
 800a35e:	aa01      	add	r2, sp, #4
 800a360:	f7ff ffc0 	bl	800a2e4 <_findenv_r>
 800a364:	b003      	add	sp, #12
 800a366:	f85d fb04 	ldr.w	pc, [sp], #4
	...

0800a36c <free>:
 800a36c:	4b02      	ldr	r3, [pc, #8]	@ (800a378 <free+0xc>)
 800a36e:	4601      	mov	r1, r0
 800a370:	6818      	ldr	r0, [r3, #0]
 800a372:	f7ff bf6d 	b.w	800a250 <_free_r>
 800a376:	bf00      	nop
 800a378:	200001cc 	.word	0x200001cc

0800a37c <sbrk_aligned>:
 800a37c:	b570      	push	{r4, r5, r6, lr}
 800a37e:	4e0f      	ldr	r6, [pc, #60]	@ (800a3bc <sbrk_aligned+0x40>)
 800a380:	460c      	mov	r4, r1
 800a382:	6831      	ldr	r1, [r6, #0]
 800a384:	4605      	mov	r5, r0
 800a386:	b911      	cbnz	r1, 800a38e <sbrk_aligned+0x12>
 800a388:	f000 fc66 	bl	800ac58 <_sbrk_r>
 800a38c:	6030      	str	r0, [r6, #0]
 800a38e:	4621      	mov	r1, r4
 800a390:	4628      	mov	r0, r5
 800a392:	f000 fc61 	bl	800ac58 <_sbrk_r>
 800a396:	1c43      	adds	r3, r0, #1
 800a398:	d103      	bne.n	800a3a2 <sbrk_aligned+0x26>
 800a39a:	f04f 34ff 	mov.w	r4, #4294967295
 800a39e:	4620      	mov	r0, r4
 800a3a0:	bd70      	pop	{r4, r5, r6, pc}
 800a3a2:	1cc4      	adds	r4, r0, #3
 800a3a4:	f024 0403 	bic.w	r4, r4, #3
 800a3a8:	42a0      	cmp	r0, r4
 800a3aa:	d0f8      	beq.n	800a39e <sbrk_aligned+0x22>
 800a3ac:	1a21      	subs	r1, r4, r0
 800a3ae:	4628      	mov	r0, r5
 800a3b0:	f000 fc52 	bl	800ac58 <_sbrk_r>
 800a3b4:	3001      	adds	r0, #1
 800a3b6:	d1f2      	bne.n	800a39e <sbrk_aligned+0x22>
 800a3b8:	e7ef      	b.n	800a39a <sbrk_aligned+0x1e>
 800a3ba:	bf00      	nop
 800a3bc:	2000184c 	.word	0x2000184c

0800a3c0 <_malloc_r>:
 800a3c0:	e92d 43f8 	stmdb	sp!, {r3, r4, r5, r6, r7, r8, r9, lr}
 800a3c4:	1ccd      	adds	r5, r1, #3
 800a3c6:	f025 0503 	bic.w	r5, r5, #3
 800a3ca:	3508      	adds	r5, #8
 800a3cc:	2d0c      	cmp	r5, #12
 800a3ce:	bf38      	it	cc
 800a3d0:	250c      	movcc	r5, #12
 800a3d2:	2d00      	cmp	r5, #0
 800a3d4:	4606      	mov	r6, r0
 800a3d6:	db01      	blt.n	800a3dc <_malloc_r+0x1c>
 800a3d8:	42a9      	cmp	r1, r5
 800a3da:	d904      	bls.n	800a3e6 <_malloc_r+0x26>
 800a3dc:	230c      	movs	r3, #12
 800a3de:	6033      	str	r3, [r6, #0]
 800a3e0:	2000      	movs	r0, #0
 800a3e2:	e8bd 83f8 	ldmia.w	sp!, {r3, r4, r5, r6, r7, r8, r9, pc}
 800a3e6:	f8df 80d4 	ldr.w	r8, [pc, #212]	@ 800a4bc <_malloc_r+0xfc>
 800a3ea:	f000 f869 	bl	800a4c0 <__malloc_lock>
 800a3ee:	f8d8 3000 	ldr.w	r3, [r8]
 800a3f2:	461c      	mov	r4, r3
 800a3f4:	bb44      	cbnz	r4, 800a448 <_malloc_r+0x88>
 800a3f6:	4629      	mov	r1, r5
 800a3f8:	4630      	mov	r0, r6
 800a3fa:	f7ff ffbf 	bl	800a37c <sbrk_aligned>
 800a3fe:	1c43      	adds	r3, r0, #1
 800a400:	4604      	mov	r4, r0
 800a402:	d158      	bne.n	800a4b6 <_malloc_r+0xf6>
 800a404:	f8d8 4000 	ldr.w	r4, [r8]
 800a408:	4627      	mov	r7, r4
 800a40a:	2f00      	cmp	r7, #0
 800a40c:	d143      	bne.n	800a496 <_malloc_r+0xd6>
 800a40e:	2c00      	cmp	r4, #0
 800a410:	d04b      	beq.n	800a4aa <_malloc_r+0xea>
 800a412:	6823      	ldr	r3, [r4, #0]
 800a414:	4639      	mov	r1, r7
 800a416:	4630      	mov	r0, r6
 800a418:	eb04 0903 	add.w	r9, r4, r3
 800a41c:	f000 fc1c 	bl	800ac58 <_sbrk_r>
 800a420:	4581      	cmp	r9, r0
 800a422:	d142      	bne.n	800a4aa <_malloc_r+0xea>
 800a424:	6821      	ldr	r1, [r4, #0]
 800a426:	1a6d      	subs	r5, r5, r1
 800a428:	4629      	mov	r1, r5
 800a42a:	4630      	mov	r0, r6
 800a42c:	f7ff ffa6 	bl	800a37c <sbrk_aligned>
 800a430:	3001      	adds	r0, #1
 800a432:	d03a      	beq.n	800a4aa <_malloc_r+0xea>
 800a434:	6823      	ldr	r3, [r4, #0]
 800a436:	442b      	add	r3, r5
 800a438:	6023      	str	r3, [r4, #0]
 800a43a:	f8d8 3000 	ldr.w	r3, [r8]
 800a43e:	685a      	ldr	r2, [r3, #4]
 800a440:	bb62      	cbnz	r2, 800a49c <_malloc_r+0xdc>
 800a442:	f8c8 7000 	str.w	r7, [r8]
 800a446:	e00f      	b.n	800a468 <_malloc_r+0xa8>
 800a448:	6822      	ldr	r2, [r4, #0]
 800a44a:	1b52      	subs	r2, r2, r5
 800a44c:	d420      	bmi.n	800a490 <_malloc_r+0xd0>
 800a44e:	2a0b      	cmp	r2, #11
 800a450:	d917      	bls.n	800a482 <_malloc_r+0xc2>
 800a452:	1961      	adds	r1, r4, r5
 800a454:	42a3      	cmp	r3, r4
 800a456:	6025      	str	r5, [r4, #0]
 800a458:	bf18      	it	ne
 800a45a:	6059      	strne	r1, [r3, #4]
 800a45c:	6863      	ldr	r3, [r4, #4]
 800a45e:	bf08      	it	eq
 800a460:	f8c8 1000 	streq.w	r1, [r8]
 800a464:	5162      	str	r2, [r4, r5]
 800a466:	604b      	str	r3, [r1, #4]
 800a468:	4630      	mov	r0, r6
 800a46a:	f000 f82f 	bl	800a4cc <__malloc_unlock>
 800a46e:	f104 000b 	add.w	r0, r4, #11
 800a472:	1d23      	adds	r3, r4, #4
 800a474:	f020 0007 	bic.w	r0, r0, #7
 800a478:	1ac2      	subs	r2, r0, r3
 800a47a:	bf1c      	itt	ne
 800a47c:	1a1b      	subne	r3, r3, r0
 800a47e:	50a3      	strne	r3, [r4, r2]
 800a480:	e7af      	b.n	800a3e2 <_malloc_r+0x22>
 800a482:	6862      	ldr	r2, [r4, #4]
 800a484:	42a3      	cmp	r3, r4
 800a486:	bf0c      	ite	eq
 800a488:	f8c8 2000 	streq.w	r2, [r8]
 800a48c:	605a      	strne	r2, [r3, #4]
 800a48e:	e7eb      	b.n	800a468 <_malloc_r+0xa8>
 800a490:	4623      	mov	r3, r4
 800a492:	6864      	ldr	r4, [r4, #4]
 800a494:	e7ae      	b.n	800a3f4 <_malloc_r+0x34>
 800a496:	463c      	mov	r4, r7
 800a498:	687f      	ldr	r7, [r7, #4]
 800a49a:	e7b6      	b.n	800a40a <_malloc_r+0x4a>
 800a49c:	461a      	mov	r2, r3
 800a49e:	685b      	ldr	r3, [r3, #4]
 800a4a0:	42a3      	cmp	r3, r4
 800a4a2:	d1fb      	bne.n	800a49c <_malloc_r+0xdc>
 800a4a4:	2300      	movs	r3, #0
 800a4a6:	6053      	str	r3, [r2, #4]
 800a4a8:	e7de      	b.n	800a468 <_malloc_r+0xa8>
 800a4aa:	230c      	movs	r3, #12
 800a4ac:	6033      	str	r3, [r6, #0]
 800a4ae:	4630      	mov	r0, r6
 800a4b0:	f000 f80c 	bl	800a4cc <__malloc_unlock>
 800a4b4:	e794      	b.n	800a3e0 <_malloc_r+0x20>
 800a4b6:	6005      	str	r5, [r0, #0]
 800a4b8:	e7d6      	b.n	800a468 <_malloc_r+0xa8>
 800a4ba:	bf00      	nop
 800a4bc:	20001850 	.word	0x20001850

0800a4c0 <__malloc_lock>:
 800a4c0:	4801      	ldr	r0, [pc, #4]	@ (800a4c8 <__malloc_lock+0x8>)
 800a4c2:	f7ff beb2 	b.w	800a22a <__retarget_lock_acquire_recursive>
 800a4c6:	bf00      	nop
 800a4c8:	2000184a 	.word	0x2000184a

0800a4cc <__malloc_unlock>:
 800a4cc:	4801      	ldr	r0, [pc, #4]	@ (800a4d4 <__malloc_unlock+0x8>)
 800a4ce:	f7ff beae 	b.w	800a22e <__retarget_lock_release_recursive>
 800a4d2:	bf00      	nop
 800a4d4:	2000184a 	.word	0x2000184a

0800a4d8 <_strtoul_l.isra.0>:
 800a4d8:	e92d 43f0 	stmdb	sp!, {r4, r5, r6, r7, r8, r9, lr}
 800a4dc:	4e34      	ldr	r6, [pc, #208]	@ (800a5b0 <_strtoul_l.isra.0+0xd8>)
 800a4de:	4686      	mov	lr, r0
 800a4e0:	460d      	mov	r5, r1
 800a4e2:	4628      	mov	r0, r5
 800a4e4:	f815 4b01 	ldrb.w	r4, [r5], #1
 800a4e8:	5d37      	ldrb	r7, [r6, r4]
 800a4ea:	f017 0708 	ands.w	r7, r7, #8
 800a4ee:	d1f8      	bne.n	800a4e2 <_strtoul_l.isra.0+0xa>
 800a4f0:	2c2d      	cmp	r4, #45	@ 0x2d
 800a4f2:	d110      	bne.n	800a516 <_strtoul_l.isra.0+0x3e>
 800a4f4:	782c      	ldrb	r4, [r5, #0]
 800a4f6:	2701      	movs	r7, #1
 800a4f8:	1c85      	adds	r5, r0, #2
 800a4fa:	f033 0010 	bics.w	r0, r3, #16
 800a4fe:	d115      	bne.n	800a52c <_strtoul_l.isra.0+0x54>
 800a500:	2c30      	cmp	r4, #48	@ 0x30
 800a502:	d10d      	bne.n	800a520 <_strtoul_l.isra.0+0x48>
 800a504:	7828      	ldrb	r0, [r5, #0]
 800a506:	f000 00df 	and.w	r0, r0, #223	@ 0xdf
 800a50a:	2858      	cmp	r0, #88	@ 0x58
 800a50c:	d108      	bne.n	800a520 <_strtoul_l.isra.0+0x48>
 800a50e:	786c      	ldrb	r4, [r5, #1]
 800a510:	3502      	adds	r5, #2
 800a512:	2310      	movs	r3, #16
 800a514:	e00a      	b.n	800a52c <_strtoul_l.isra.0+0x54>
 800a516:	2c2b      	cmp	r4, #43	@ 0x2b
 800a518:	bf04      	itt	eq
 800a51a:	782c      	ldrbeq	r4, [r5, #0]
 800a51c:	1c85      	addeq	r5, r0, #2
 800a51e:	e7ec      	b.n	800a4fa <_strtoul_l.isra.0+0x22>
 800a520:	2b00      	cmp	r3, #0
 800a522:	d1f6      	bne.n	800a512 <_strtoul_l.isra.0+0x3a>
 800a524:	2c30      	cmp	r4, #48	@ 0x30
 800a526:	bf14      	ite	ne
 800a528:	230a      	movne	r3, #10
 800a52a:	2308      	moveq	r3, #8
 800a52c:	f04f 38ff 	mov.w	r8, #4294967295
 800a530:	2600      	movs	r6, #0
 800a532:	fbb8 f8f3 	udiv	r8, r8, r3
 800a536:	fb03 f908 	mul.w	r9, r3, r8
 800a53a:	ea6f 0909 	mvn.w	r9, r9
 800a53e:	4630      	mov	r0, r6
 800a540:	f1a4 0c30 	sub.w	ip, r4, #48	@ 0x30
 800a544:	f1bc 0f09 	cmp.w	ip, #9
 800a548:	d810      	bhi.n	800a56c <_strtoul_l.isra.0+0x94>
 800a54a:	4664      	mov	r4, ip
 800a54c:	42a3      	cmp	r3, r4
 800a54e:	dd1e      	ble.n	800a58e <_strtoul_l.isra.0+0xb6>
 800a550:	f1b6 3fff 	cmp.w	r6, #4294967295
 800a554:	d007      	beq.n	800a566 <_strtoul_l.isra.0+0x8e>
 800a556:	4580      	cmp	r8, r0
 800a558:	d316      	bcc.n	800a588 <_strtoul_l.isra.0+0xb0>
 800a55a:	d101      	bne.n	800a560 <_strtoul_l.isra.0+0x88>
 800a55c:	45a1      	cmp	r9, r4
 800a55e:	db13      	blt.n	800a588 <_strtoul_l.isra.0+0xb0>
 800a560:	fb00 4003 	mla	r0, r0, r3, r4
 800a564:	2601      	movs	r6, #1
 800a566:	f815 4b01 	ldrb.w	r4, [r5], #1
 800a56a:	e7e9      	b.n	800a540 <_strtoul_l.isra.0+0x68>
 800a56c:	f1a4 0c41 	sub.w	ip, r4, #65	@ 0x41
 800a570:	f1bc 0f19 	cmp.w	ip, #25
 800a574:	d801      	bhi.n	800a57a <_strtoul_l.isra.0+0xa2>
 800a576:	3c37      	subs	r4, #55	@ 0x37
 800a578:	e7e8      	b.n	800a54c <_strtoul_l.isra.0+0x74>
 800a57a:	f1a4 0c61 	sub.w	ip, r4, #97	@ 0x61
 800a57e:	f1bc 0f19 	cmp.w	ip, #25
 800a582:	d804      	bhi.n	800a58e <_strtoul_l.isra.0+0xb6>
 800a584:	3c57      	subs	r4, #87	@ 0x57
 800a586:	e7e1      	b.n	800a54c <_strtoul_l.isra.0+0x74>
 800a588:	f04f 36ff 	mov.w	r6, #4294967295
 800a58c:	e7eb      	b.n	800a566 <_strtoul_l.isra.0+0x8e>
 800a58e:	1c73      	adds	r3, r6, #1
 800a590:	d106      	bne.n	800a5a0 <_strtoul_l.isra.0+0xc8>
 800a592:	2322      	movs	r3, #34	@ 0x22
 800a594:	f8ce 3000 	str.w	r3, [lr]
 800a598:	4630      	mov	r0, r6
 800a59a:	b932      	cbnz	r2, 800a5aa <_strtoul_l.isra.0+0xd2>
 800a59c:	e8bd 83f0 	ldmia.w	sp!, {r4, r5, r6, r7, r8, r9, pc}
 800a5a0:	b107      	cbz	r7, 800a5a4 <_strtoul_l.isra.0+0xcc>
 800a5a2:	4240      	negs	r0, r0
 800a5a4:	2a00      	cmp	r2, #0
 800a5a6:	d0f9      	beq.n	800a59c <_strtoul_l.isra.0+0xc4>
 800a5a8:	b106      	cbz	r6, 800a5ac <_strtoul_l.isra.0+0xd4>
 800a5aa:	1e69      	subs	r1, r5, #1
 800a5ac:	6011      	str	r1, [r2, #0]
 800a5ae:	e7f5      	b.n	800a59c <_strtoul_l.isra.0+0xc4>
 800a5b0:	0800cf11 	.word	0x0800cf11

0800a5b4 <_strtoul_r>:
 800a5b4:	f7ff bf90 	b.w	800a4d8 <_strtoul_l.isra.0>

0800a5b8 <strtoul>:
 800a5b8:	4613      	mov	r3, r2
 800a5ba:	460a      	mov	r2, r1
 800a5bc:	4601      	mov	r1, r0
 800a5be:	4802      	ldr	r0, [pc, #8]	@ (800a5c8 <strtoul+0x10>)
 800a5c0:	6800      	ldr	r0, [r0, #0]
 800a5c2:	f7ff bf89 	b.w	800a4d8 <_strtoul_l.isra.0>
 800a5c6:	bf00      	nop
 800a5c8:	200001cc 	.word	0x200001cc

0800a5cc <__ssputs_r>:
 800a5cc:	e92d 47f0 	stmdb	sp!, {r4, r5, r6, r7, r8, r9, sl, lr}
 800a5d0:	688e      	ldr	r6, [r1, #8]
 800a5d2:	461f      	mov	r7, r3
 800a5d4:	42be      	cmp	r6, r7
 800a5d6:	4682      	mov	sl, r0
 800a5d8:	460c      	mov	r4, r1
 800a5da:	4690      	mov	r8, r2
 800a5dc:	4633      	mov	r3, r6
 800a5de:	d853      	bhi.n	800a688 <__ssputs_r+0xbc>
 800a5e0:	f9b1 000c 	ldrsh.w	r0, [r1, #12]
 800a5e4:	f410 6f90 	tst.w	r0, #1152	@ 0x480
 800a5e8:	d02b      	beq.n	800a642 <__ssputs_r+0x76>
 800a5ea:	6965      	ldr	r5, [r4, #20]
 800a5ec:	6823      	ldr	r3, [r4, #0]
 800a5ee:	6909      	ldr	r1, [r1, #16]
 800a5f0:	eb05 0545 	add.w	r5, r5, r5, lsl #1
 800a5f4:	eba3 0901 	sub.w	r9, r3, r1
 800a5f8:	eb05 75d5 	add.w	r5, r5, r5, lsr #31
 800a5fc:	1c7b      	adds	r3, r7, #1
 800a5fe:	106d      	asrs	r5, r5, #1
 800a600:	444b      	add	r3, r9
 800a602:	42ab      	cmp	r3, r5
 800a604:	462a      	mov	r2, r5
 800a606:	bf84      	itt	hi
 800a608:	461d      	movhi	r5, r3
 800a60a:	462a      	movhi	r2, r5
 800a60c:	0543      	lsls	r3, r0, #21
 800a60e:	d527      	bpl.n	800a660 <__ssputs_r+0x94>
 800a610:	4611      	mov	r1, r2
 800a612:	4650      	mov	r0, sl
 800a614:	f7ff fed4 	bl	800a3c0 <_malloc_r>
 800a618:	4606      	mov	r6, r0
 800a61a:	b358      	cbz	r0, 800a674 <__ssputs_r+0xa8>
 800a61c:	6921      	ldr	r1, [r4, #16]
 800a61e:	464a      	mov	r2, r9
 800a620:	f000 fb2a 	bl	800ac78 <memcpy>
 800a624:	89a3      	ldrh	r3, [r4, #12]
 800a626:	f423 6390 	bic.w	r3, r3, #1152	@ 0x480
 800a62a:	f043 0380 	orr.w	r3, r3, #128	@ 0x80
 800a62e:	81a3      	strh	r3, [r4, #12]
 800a630:	6126      	str	r6, [r4, #16]
 800a632:	6165      	str	r5, [r4, #20]
 800a634:	444e      	add	r6, r9
 800a636:	eba5 0509 	sub.w	r5, r5, r9
 800a63a:	6026      	str	r6, [r4, #0]
 800a63c:	60a5      	str	r5, [r4, #8]
 800a63e:	463e      	mov	r6, r7
 800a640:	463b      	mov	r3, r7
 800a642:	461f      	mov	r7, r3
 800a644:	6820      	ldr	r0, [r4, #0]
 800a646:	463a      	mov	r2, r7
 800a648:	4641      	mov	r1, r8
 800a64a:	f000 fad5 	bl	800abf8 <memmove>
 800a64e:	68a3      	ldr	r3, [r4, #8]
 800a650:	1b9b      	subs	r3, r3, r6
 800a652:	60a3      	str	r3, [r4, #8]
 800a654:	6823      	ldr	r3, [r4, #0]
 800a656:	443b      	add	r3, r7
 800a658:	6023      	str	r3, [r4, #0]
 800a65a:	2000      	movs	r0, #0
 800a65c:	e8bd 87f0 	ldmia.w	sp!, {r4, r5, r6, r7, r8, r9, sl, pc}
 800a660:	4650      	mov	r0, sl
 800a662:	f000 fb23 	bl	800acac <_realloc_r>
 800a666:	4606      	mov	r6, r0
 800a668:	2800      	cmp	r0, #0
 800a66a:	d1e1      	bne.n	800a630 <__ssputs_r+0x64>
 800a66c:	6921      	ldr	r1, [r4, #16]
 800a66e:	4650      	mov	r0, sl
 800a670:	f7ff fdee 	bl	800a250 <_free_r>
 800a674:	230c      	movs	r3, #12
 800a676:	f8ca 3000 	str.w	r3, [sl]
 800a67a:	89a3      	ldrh	r3, [r4, #12]
 800a67c:	f043 0340 	orr.w	r3, r3, #64	@ 0x40
 800a680:	81a3      	strh	r3, [r4, #12]
 800a682:	f04f 30ff 	mov.w	r0, #4294967295
 800a686:	e7e9      	b.n	800a65c <__ssputs_r+0x90>
 800a688:	463e      	mov	r6, r7
 800a68a:	e7db      	b.n	800a644 <__ssputs_r+0x78>

0800a68c <_svfiprintf_r>:
 800a68c:	e92d 4ff0 	stmdb	sp!, {r4, r5, r6, r7, r8, r9, sl, fp, lr}
 800a690:	4698      	mov	r8, r3
 800a692:	898b      	ldrh	r3, [r1, #12]
 800a694:	061b      	lsls	r3, r3, #24
 800a696:	b09d      	sub	sp, #116	@ 0x74
 800a698:	4607      	mov	r7, r0
 800a69a:	460d      	mov	r5, r1
 800a69c:	4614      	mov	r4, r2
 800a69e:	d510      	bpl.n	800a6c2 <_svfiprintf_r+0x36>
 800a6a0:	690b      	ldr	r3, [r1, #16]
 800a6a2:	b973      	cbnz	r3, 800a6c2 <_svfiprintf_r+0x36>
 800a6a4:	2140      	movs	r1, #64	@ 0x40
 800a6a6:	f7ff fe8b 	bl	800a3c0 <_malloc_r>
 800a6aa:	6028      	str	r0, [r5, #0]
 800a6ac:	6128      	str	r0, [r5, #16]
 800a6ae:	b930      	cbnz	r0, 800a6be <_svfiprintf_r+0x32>
 800a6b0:	230c      	movs	r3, #12
 800a6b2:	603b      	str	r3, [r7, #0]
 800a6b4:	f04f 30ff 	mov.w	r0, #4294967295
 800a6b8:	b01d      	add	sp, #116	@ 0x74
 800a6ba:	e8bd 8ff0 	ldmia.w	sp!, {r4, r5, r6, r7, r8, r9, sl, fp, pc}
 800a6be:	2340      	movs	r3, #64	@ 0x40
 800a6c0:	616b      	str	r3, [r5, #20]
 800a6c2:	2300      	movs	r3, #0
 800a6c4:	9309      	str	r3, [sp, #36]	@ 0x24
 800a6c6:	2320      	movs	r3, #32
 800a6c8:	f88d 3029 	strb.w	r3, [sp, #41]	@ 0x29
 800a6cc:	f8cd 800c 	str.w	r8, [sp, #12]
 800a6d0:	2330      	movs	r3, #48	@ 0x30
 800a6d2:	f8df 819c 	ldr.w	r8, [pc, #412]	@ 800a870 <_svfiprintf_r+0x1e4>
 800a6d6:	f88d 302a 	strb.w	r3, [sp, #42]	@ 0x2a
 800a6da:	f04f 0901 	mov.w	r9, #1
 800a6de:	4623      	mov	r3, r4
 800a6e0:	469a      	mov	sl, r3
 800a6e2:	f813 2b01 	ldrb.w	r2, [r3], #1
 800a6e6:	b10a      	cbz	r2, 800a6ec <_svfiprintf_r+0x60>
 800a6e8:	2a25      	cmp	r2, #37	@ 0x25
 800a6ea:	d1f9      	bne.n	800a6e0 <_svfiprintf_r+0x54>
 800a6ec:	ebba 0b04 	subs.w	fp, sl, r4
 800a6f0:	d00b      	beq.n	800a70a <_svfiprintf_r+0x7e>
 800a6f2:	465b      	mov	r3, fp
 800a6f4:	4622      	mov	r2, r4
 800a6f6:	4629      	mov	r1, r5
 800a6f8:	4638      	mov	r0, r7
 800a6fa:	f7ff ff67 	bl	800a5cc <__ssputs_r>
 800a6fe:	3001      	adds	r0, #1
 800a700:	f000 80a7 	beq.w	800a852 <_svfiprintf_r+0x1c6>
 800a704:	9a09      	ldr	r2, [sp, #36]	@ 0x24
 800a706:	445a      	add	r2, fp
 800a708:	9209      	str	r2, [sp, #36]	@ 0x24
 800a70a:	f89a 3000 	ldrb.w	r3, [sl]
 800a70e:	2b00      	cmp	r3, #0
 800a710:	f000 809f 	beq.w	800a852 <_svfiprintf_r+0x1c6>
 800a714:	2300      	movs	r3, #0
 800a716:	f04f 32ff 	mov.w	r2, #4294967295
 800a71a:	e9cd 2305 	strd	r2, r3, [sp, #20]
 800a71e:	f10a 0a01 	add.w	sl, sl, #1
 800a722:	9304      	str	r3, [sp, #16]
 800a724:	9307      	str	r3, [sp, #28]
 800a726:	f88d 3053 	strb.w	r3, [sp, #83]	@ 0x53
 800a72a:	931a      	str	r3, [sp, #104]	@ 0x68
 800a72c:	4654      	mov	r4, sl
 800a72e:	2205      	movs	r2, #5
 800a730:	f814 1b01 	ldrb.w	r1, [r4], #1
 800a734:	484e      	ldr	r0, [pc, #312]	@ (800a870 <_svfiprintf_r+0x1e4>)
 800a736:	f7f5 fd43 	bl	80001c0 <memchr>
 800a73a:	9a04      	ldr	r2, [sp, #16]
 800a73c:	b9d8      	cbnz	r0, 800a776 <_svfiprintf_r+0xea>
 800a73e:	06d0      	lsls	r0, r2, #27
 800a740:	bf44      	itt	mi
 800a742:	2320      	movmi	r3, #32
 800a744:	f88d 3053 	strbmi.w	r3, [sp, #83]	@ 0x53
 800a748:	0711      	lsls	r1, r2, #28
 800a74a:	bf44      	itt	mi
 800a74c:	232b      	movmi	r3, #43	@ 0x2b
 800a74e:	f88d 3053 	strbmi.w	r3, [sp, #83]	@ 0x53
 800a752:	f89a 3000 	ldrb.w	r3, [sl]
 800a756:	2b2a      	cmp	r3, #42	@ 0x2a
 800a758:	d015      	beq.n	800a786 <_svfiprintf_r+0xfa>
 800a75a:	9a07      	ldr	r2, [sp, #28]
 800a75c:	4654      	mov	r4, sl
 800a75e:	2000      	movs	r0, #0
 800a760:	f04f 0c0a 	mov.w	ip, #10
 800a764:	4621      	mov	r1, r4
 800a766:	f811 3b01 	ldrb.w	r3, [r1], #1
 800a76a:	3b30      	subs	r3, #48	@ 0x30
 800a76c:	2b09      	cmp	r3, #9
 800a76e:	d94b      	bls.n	800a808 <_svfiprintf_r+0x17c>
 800a770:	b1b0      	cbz	r0, 800a7a0 <_svfiprintf_r+0x114>
 800a772:	9207      	str	r2, [sp, #28]
 800a774:	e014      	b.n	800a7a0 <_svfiprintf_r+0x114>
 800a776:	eba0 0308 	sub.w	r3, r0, r8
 800a77a:	fa09 f303 	lsl.w	r3, r9, r3
 800a77e:	4313      	orrs	r3, r2
 800a780:	9304      	str	r3, [sp, #16]
 800a782:	46a2      	mov	sl, r4
 800a784:	e7d2      	b.n	800a72c <_svfiprintf_r+0xa0>
 800a786:	9b03      	ldr	r3, [sp, #12]
 800a788:	1d19      	adds	r1, r3, #4
 800a78a:	681b      	ldr	r3, [r3, #0]
 800a78c:	9103      	str	r1, [sp, #12]
 800a78e:	2b00      	cmp	r3, #0
 800a790:	bfbb      	ittet	lt
 800a792:	425b      	neglt	r3, r3
 800a794:	f042 0202 	orrlt.w	r2, r2, #2
 800a798:	9307      	strge	r3, [sp, #28]
 800a79a:	9307      	strlt	r3, [sp, #28]
 800a79c:	bfb8      	it	lt
 800a79e:	9204      	strlt	r2, [sp, #16]
 800a7a0:	7823      	ldrb	r3, [r4, #0]
 800a7a2:	2b2e      	cmp	r3, #46	@ 0x2e
 800a7a4:	d10a      	bne.n	800a7bc <_svfiprintf_r+0x130>
 800a7a6:	7863      	ldrb	r3, [r4, #1]
 800a7a8:	2b2a      	cmp	r3, #42	@ 0x2a
 800a7aa:	d132      	bne.n	800a812 <_svfiprintf_r+0x186>
 800a7ac:	9b03      	ldr	r3, [sp, #12]
 800a7ae:	1d1a      	adds	r2, r3, #4
 800a7b0:	681b      	ldr	r3, [r3, #0]
 800a7b2:	9203      	str	r2, [sp, #12]
 800a7b4:	ea43 73e3 	orr.w	r3, r3, r3, asr #31
 800a7b8:	3402      	adds	r4, #2
 800a7ba:	9305      	str	r3, [sp, #20]
 800a7bc:	f8df a0c0 	ldr.w	sl, [pc, #192]	@ 800a880 <_svfiprintf_r+0x1f4>
 800a7c0:	7821      	ldrb	r1, [r4, #0]
 800a7c2:	2203      	movs	r2, #3
 800a7c4:	4650      	mov	r0, sl
 800a7c6:	f7f5 fcfb 	bl	80001c0 <memchr>
 800a7ca:	b138      	cbz	r0, 800a7dc <_svfiprintf_r+0x150>
 800a7cc:	9b04      	ldr	r3, [sp, #16]
 800a7ce:	eba0 000a 	sub.w	r0, r0, sl
 800a7d2:	2240      	movs	r2, #64	@ 0x40
 800a7d4:	4082      	lsls	r2, r0
 800a7d6:	4313      	orrs	r3, r2
 800a7d8:	3401      	adds	r4, #1
 800a7da:	9304      	str	r3, [sp, #16]
 800a7dc:	f814 1b01 	ldrb.w	r1, [r4], #1
 800a7e0:	4824      	ldr	r0, [pc, #144]	@ (800a874 <_svfiprintf_r+0x1e8>)
 800a7e2:	f88d 1028 	strb.w	r1, [sp, #40]	@ 0x28
 800a7e6:	2206      	movs	r2, #6
 800a7e8:	f7f5 fcea 	bl	80001c0 <memchr>
 800a7ec:	2800      	cmp	r0, #0
 800a7ee:	d036      	beq.n	800a85e <_svfiprintf_r+0x1d2>
 800a7f0:	4b21      	ldr	r3, [pc, #132]	@ (800a878 <_svfiprintf_r+0x1ec>)
 800a7f2:	bb1b      	cbnz	r3, 800a83c <_svfiprintf_r+0x1b0>
 800a7f4:	9b03      	ldr	r3, [sp, #12]
 800a7f6:	3307      	adds	r3, #7
 800a7f8:	f023 0307 	bic.w	r3, r3, #7
 800a7fc:	3308      	adds	r3, #8
 800a7fe:	9303      	str	r3, [sp, #12]
 800a800:	9b09      	ldr	r3, [sp, #36]	@ 0x24
 800a802:	4433      	add	r3, r6
 800a804:	9309      	str	r3, [sp, #36]	@ 0x24
 800a806:	e76a      	b.n	800a6de <_svfiprintf_r+0x52>
 800a808:	fb0c 3202 	mla	r2, ip, r2, r3
 800a80c:	460c      	mov	r4, r1
 800a80e:	2001      	movs	r0, #1
 800a810:	e7a8      	b.n	800a764 <_svfiprintf_r+0xd8>
 800a812:	2300      	movs	r3, #0
 800a814:	3401      	adds	r4, #1
 800a816:	9305      	str	r3, [sp, #20]
 800a818:	4619      	mov	r1, r3
 800a81a:	f04f 0c0a 	mov.w	ip, #10
 800a81e:	4620      	mov	r0, r4
 800a820:	f810 2b01 	ldrb.w	r2, [r0], #1
 800a824:	3a30      	subs	r2, #48	@ 0x30
 800a826:	2a09      	cmp	r2, #9
 800a828:	d903      	bls.n	800a832 <_svfiprintf_r+0x1a6>
 800a82a:	2b00      	cmp	r3, #0
 800a82c:	d0c6      	beq.n	800a7bc <_svfiprintf_r+0x130>
 800a82e:	9105      	str	r1, [sp, #20]
 800a830:	e7c4      	b.n	800a7bc <_svfiprintf_r+0x130>
 800a832:	fb0c 2101 	mla	r1, ip, r1, r2
 800a836:	4604      	mov	r4, r0
 800a838:	2301      	movs	r3, #1
 800a83a:	e7f0      	b.n	800a81e <_svfiprintf_r+0x192>
 800a83c:	ab03      	add	r3, sp, #12
 800a83e:	9300      	str	r3, [sp, #0]
 800a840:	462a      	mov	r2, r5
 800a842:	4b0e      	ldr	r3, [pc, #56]	@ (800a87c <_svfiprintf_r+0x1f0>)
 800a844:	a904      	add	r1, sp, #16
 800a846:	4638      	mov	r0, r7
 800a848:	f3af 8000 	nop.w
 800a84c:	1c42      	adds	r2, r0, #1
 800a84e:	4606      	mov	r6, r0
 800a850:	d1d6      	bne.n	800a800 <_svfiprintf_r+0x174>
 800a852:	89ab      	ldrh	r3, [r5, #12]
 800a854:	065b      	lsls	r3, r3, #25
 800a856:	f53f af2d 	bmi.w	800a6b4 <_svfiprintf_r+0x28>
 800a85a:	9809      	ldr	r0, [sp, #36]	@ 0x24
 800a85c:	e72c      	b.n	800a6b8 <_svfiprintf_r+0x2c>
 800a85e:	ab03      	add	r3, sp, #12
 800a860:	9300      	str	r3, [sp, #0]
 800a862:	462a      	mov	r2, r5
 800a864:	4b05      	ldr	r3, [pc, #20]	@ (800a87c <_svfiprintf_r+0x1f0>)
 800a866:	a904      	add	r1, sp, #16
 800a868:	4638      	mov	r0, r7
 800a86a:	f000 f879 	bl	800a960 <_printf_i>
 800a86e:	e7ed      	b.n	800a84c <_svfiprintf_r+0x1c0>
 800a870:	0800cec2 	.word	0x0800cec2
 800a874:	0800cecc 	.word	0x0800cecc
 800a878:	00000000 	.word	0x00000000
 800a87c:	0800a5cd 	.word	0x0800a5cd
 800a880:	0800cec8 	.word	0x0800cec8

0800a884 <_printf_common>:
 800a884:	e92d 47f0 	stmdb	sp!, {r4, r5, r6, r7, r8, r9, sl, lr}
 800a888:	4616      	mov	r6, r2
 800a88a:	4698      	mov	r8, r3
 800a88c:	688a      	ldr	r2, [r1, #8]
 800a88e:	690b      	ldr	r3, [r1, #16]
 800a890:	f8dd 9020 	ldr.w	r9, [sp, #32]
 800a894:	4293      	cmp	r3, r2
 800a896:	bfb8      	it	lt
 800a898:	4613      	movlt	r3, r2
 800a89a:	6033      	str	r3, [r6, #0]
 800a89c:	f891 2043 	ldrb.w	r2, [r1, #67]	@ 0x43
 800a8a0:	4607      	mov	r7, r0
 800a8a2:	460c      	mov	r4, r1
 800a8a4:	b10a      	cbz	r2, 800a8aa <_printf_common+0x26>
 800a8a6:	3301      	adds	r3, #1
 800a8a8:	6033      	str	r3, [r6, #0]
 800a8aa:	6823      	ldr	r3, [r4, #0]
 800a8ac:	0699      	lsls	r1, r3, #26
 800a8ae:	bf42      	ittt	mi
 800a8b0:	6833      	ldrmi	r3, [r6, #0]
 800a8b2:	3302      	addmi	r3, #2
 800a8b4:	6033      	strmi	r3, [r6, #0]
 800a8b6:	6825      	ldr	r5, [r4, #0]
 800a8b8:	f015 0506 	ands.w	r5, r5, #6
 800a8bc:	d106      	bne.n	800a8cc <_printf_common+0x48>
 800a8be:	f104 0a19 	add.w	sl, r4, #25
 800a8c2:	68e3      	ldr	r3, [r4, #12]
 800a8c4:	6832      	ldr	r2, [r6, #0]
 800a8c6:	1a9b      	subs	r3, r3, r2
 800a8c8:	42ab      	cmp	r3, r5
 800a8ca:	dc26      	bgt.n	800a91a <_printf_common+0x96>
 800a8cc:	f894 3043 	ldrb.w	r3, [r4, #67]	@ 0x43
 800a8d0:	6822      	ldr	r2, [r4, #0]
 800a8d2:	3b00      	subs	r3, #0
 800a8d4:	bf18      	it	ne
 800a8d6:	2301      	movne	r3, #1
 800a8d8:	0692      	lsls	r2, r2, #26
 800a8da:	d42b      	bmi.n	800a934 <_printf_common+0xb0>
 800a8dc:	f104 0243 	add.w	r2, r4, #67	@ 0x43
 800a8e0:	4641      	mov	r1, r8
 800a8e2:	4638      	mov	r0, r7
 800a8e4:	47c8      	blx	r9
 800a8e6:	3001      	adds	r0, #1
 800a8e8:	d01e      	beq.n	800a928 <_printf_common+0xa4>
 800a8ea:	6823      	ldr	r3, [r4, #0]
 800a8ec:	6922      	ldr	r2, [r4, #16]
 800a8ee:	f003 0306 	and.w	r3, r3, #6
 800a8f2:	2b04      	cmp	r3, #4
 800a8f4:	bf02      	ittt	eq
 800a8f6:	68e5      	ldreq	r5, [r4, #12]
 800a8f8:	6833      	ldreq	r3, [r6, #0]
 800a8fa:	1aed      	subeq	r5, r5, r3
 800a8fc:	68a3      	ldr	r3, [r4, #8]
 800a8fe:	bf0c      	ite	eq
 800a900:	ea25 75e5 	biceq.w	r5, r5, r5, asr #31
 800a904:	2500      	movne	r5, #0
 800a906:	4293      	cmp	r3, r2
 800a908:	bfc4      	itt	gt
 800a90a:	1a9b      	subgt	r3, r3, r2
 800a90c:	18ed      	addgt	r5, r5, r3
 800a90e:	2600      	movs	r6, #0
 800a910:	341a      	adds	r4, #26
 800a912:	42b5      	cmp	r5, r6
 800a914:	d11a      	bne.n	800a94c <_printf_common+0xc8>
 800a916:	2000      	movs	r0, #0
 800a918:	e008      	b.n	800a92c <_printf_common+0xa8>
 800a91a:	2301      	movs	r3, #1
 800a91c:	4652      	mov	r2, sl
 800a91e:	4641      	mov	r1, r8
 800a920:	4638      	mov	r0, r7
 800a922:	47c8      	blx	r9
 800a924:	3001      	adds	r0, #1
 800a926:	d103      	bne.n	800a930 <_printf_common+0xac>
 800a928:	f04f 30ff 	mov.w	r0, #4294967295
 800a92c:	e8bd 87f0 	ldmia.w	sp!, {r4, r5, r6, r7, r8, r9, sl, pc}
 800a930:	3501      	adds	r5, #1
 800a932:	e7c6      	b.n	800a8c2 <_printf_common+0x3e>
 800a934:	18e1      	adds	r1, r4, r3
 800a936:	1c5a      	adds	r2, r3, #1
 800a938:	2030      	movs	r0, #48	@ 0x30
 800a93a:	f881 0043 	strb.w	r0, [r1, #67]	@ 0x43
 800a93e:	4422      	add	r2, r4
 800a940:	f894 1045 	ldrb.w	r1, [r4, #69]	@ 0x45
 800a944:	f882 1043 	strb.w	r1, [r2, #67]	@ 0x43
 800a948:	3302      	adds	r3, #2
 800a94a:	e7c7      	b.n	800a8dc <_printf_common+0x58>
 800a94c:	2301      	movs	r3, #1
 800a94e:	4622      	mov	r2, r4
 800a950:	4641      	mov	r1, r8
 800a952:	4638      	mov	r0, r7
 800a954:	47c8      	blx	r9
 800a956:	3001      	adds	r0, #1
 800a958:	d0e6      	beq.n	800a928 <_printf_common+0xa4>
 800a95a:	3601      	adds	r6, #1
 800a95c:	e7d9      	b.n	800a912 <_printf_common+0x8e>
	...

0800a960 <_printf_i>:
 800a960:	e92d 47ff 	stmdb	sp!, {r0, r1, r2, r3, r4, r5, r6, r7, r8, r9, sl, lr}
 800a964:	7e0f      	ldrb	r7, [r1, #24]
 800a966:	9e0c      	ldr	r6, [sp, #48]	@ 0x30
 800a968:	2f78      	cmp	r7, #120	@ 0x78
 800a96a:	4691      	mov	r9, r2
 800a96c:	4680      	mov	r8, r0
 800a96e:	460c      	mov	r4, r1
 800a970:	469a      	mov	sl, r3
 800a972:	f101 0243 	add.w	r2, r1, #67	@ 0x43
 800a976:	d807      	bhi.n	800a988 <_printf_i+0x28>
 800a978:	2f62      	cmp	r7, #98	@ 0x62
 800a97a:	d80a      	bhi.n	800a992 <_printf_i+0x32>
 800a97c:	2f00      	cmp	r7, #0
 800a97e:	f000 80d2 	beq.w	800ab26 <_printf_i+0x1c6>
 800a982:	2f58      	cmp	r7, #88	@ 0x58
 800a984:	f000 80b7 	beq.w	800aaf6 <_printf_i+0x196>
 800a988:	f104 0642 	add.w	r6, r4, #66	@ 0x42
 800a98c:	f884 7042 	strb.w	r7, [r4, #66]	@ 0x42
 800a990:	e03a      	b.n	800aa08 <_printf_i+0xa8>
 800a992:	f1a7 0363 	sub.w	r3, r7, #99	@ 0x63
 800a996:	2b15      	cmp	r3, #21
 800a998:	d8f6      	bhi.n	800a988 <_printf_i+0x28>
 800a99a:	a101      	add	r1, pc, #4	@ (adr r1, 800a9a0 <_printf_i+0x40>)
 800a99c:	f851 f023 	ldr.w	pc, [r1, r3, lsl #2]
 800a9a0:	0800a9f9 	.word	0x0800a9f9
 800a9a4:	0800aa0d 	.word	0x0800aa0d
 800a9a8:	0800a989 	.word	0x0800a989
 800a9ac:	0800a989 	.word	0x0800a989
 800a9b0:	0800a989 	.word	0x0800a989
 800a9b4:	0800a989 	.word	0x0800a989
 800a9b8:	0800aa0d 	.word	0x0800aa0d
 800a9bc:	0800a989 	.word	0x0800a989
 800a9c0:	0800a989 	.word	0x0800a989
 800a9c4:	0800a989 	.word	0x0800a989
 800a9c8:	0800a989 	.word	0x0800a989
 800a9cc:	0800ab0d 	.word	0x0800ab0d
 800a9d0:	0800aa37 	.word	0x0800aa37
 800a9d4:	0800aac3 	.word	0x0800aac3
 800a9d8:	0800a989 	.word	0x0800a989
 800a9dc:	0800a989 	.word	0x0800a989
 800a9e0:	0800ab2f 	.word	0x0800ab2f
 800a9e4:	0800a989 	.word	0x0800a989
 800a9e8:	0800aa37 	.word	0x0800aa37
 800a9ec:	0800a989 	.word	0x0800a989
 800a9f0:	0800a989 	.word	0x0800a989
 800a9f4:	0800aacb 	.word	0x0800aacb
 800a9f8:	6833      	ldr	r3, [r6, #0]
 800a9fa:	1d1a      	adds	r2, r3, #4
 800a9fc:	681b      	ldr	r3, [r3, #0]
 800a9fe:	6032      	str	r2, [r6, #0]
 800aa00:	f104 0642 	add.w	r6, r4, #66	@ 0x42
 800aa04:	f884 3042 	strb.w	r3, [r4, #66]	@ 0x42
 800aa08:	2301      	movs	r3, #1
 800aa0a:	e09d      	b.n	800ab48 <_printf_i+0x1e8>
 800aa0c:	6833      	ldr	r3, [r6, #0]
 800aa0e:	6820      	ldr	r0, [r4, #0]
 800aa10:	1d19      	adds	r1, r3, #4
 800aa12:	6031      	str	r1, [r6, #0]
 800aa14:	0606      	lsls	r6, r0, #24
 800aa16:	d501      	bpl.n	800aa1c <_printf_i+0xbc>
 800aa18:	681d      	ldr	r5, [r3, #0]
 800aa1a:	e003      	b.n	800aa24 <_printf_i+0xc4>
 800aa1c:	0645      	lsls	r5, r0, #25
 800aa1e:	d5fb      	bpl.n	800aa18 <_printf_i+0xb8>
 800aa20:	f9b3 5000 	ldrsh.w	r5, [r3]
 800aa24:	2d00      	cmp	r5, #0
 800aa26:	da03      	bge.n	800aa30 <_printf_i+0xd0>
 800aa28:	232d      	movs	r3, #45	@ 0x2d
 800aa2a:	426d      	negs	r5, r5
 800aa2c:	f884 3043 	strb.w	r3, [r4, #67]	@ 0x43
 800aa30:	4859      	ldr	r0, [pc, #356]	@ (800ab98 <_printf_i+0x238>)
 800aa32:	230a      	movs	r3, #10
 800aa34:	e010      	b.n	800aa58 <_printf_i+0xf8>
 800aa36:	6821      	ldr	r1, [r4, #0]
 800aa38:	6833      	ldr	r3, [r6, #0]
 800aa3a:	0608      	lsls	r0, r1, #24
 800aa3c:	f853 5b04 	ldr.w	r5, [r3], #4
 800aa40:	d402      	bmi.n	800aa48 <_printf_i+0xe8>
 800aa42:	0649      	lsls	r1, r1, #25
 800aa44:	bf48      	it	mi
 800aa46:	b2ad      	uxthmi	r5, r5
 800aa48:	2f6f      	cmp	r7, #111	@ 0x6f
 800aa4a:	4853      	ldr	r0, [pc, #332]	@ (800ab98 <_printf_i+0x238>)
 800aa4c:	6033      	str	r3, [r6, #0]
 800aa4e:	d159      	bne.n	800ab04 <_printf_i+0x1a4>
 800aa50:	2308      	movs	r3, #8
 800aa52:	2100      	movs	r1, #0
 800aa54:	f884 1043 	strb.w	r1, [r4, #67]	@ 0x43
 800aa58:	6866      	ldr	r6, [r4, #4]
 800aa5a:	60a6      	str	r6, [r4, #8]
 800aa5c:	2e00      	cmp	r6, #0
 800aa5e:	db05      	blt.n	800aa6c <_printf_i+0x10c>
 800aa60:	6821      	ldr	r1, [r4, #0]
 800aa62:	432e      	orrs	r6, r5
 800aa64:	f021 0104 	bic.w	r1, r1, #4
 800aa68:	6021      	str	r1, [r4, #0]
 800aa6a:	d04d      	beq.n	800ab08 <_printf_i+0x1a8>
 800aa6c:	4616      	mov	r6, r2
 800aa6e:	fbb5 f1f3 	udiv	r1, r5, r3
 800aa72:	fb03 5711 	mls	r7, r3, r1, r5
 800aa76:	5dc7      	ldrb	r7, [r0, r7]
 800aa78:	f806 7d01 	strb.w	r7, [r6, #-1]!
 800aa7c:	462f      	mov	r7, r5
 800aa7e:	42bb      	cmp	r3, r7
 800aa80:	460d      	mov	r5, r1
 800aa82:	d9f4      	bls.n	800aa6e <_printf_i+0x10e>
 800aa84:	2b08      	cmp	r3, #8
 800aa86:	d10b      	bne.n	800aaa0 <_printf_i+0x140>
 800aa88:	6823      	ldr	r3, [r4, #0]
 800aa8a:	07df      	lsls	r7, r3, #31
 800aa8c:	d508      	bpl.n	800aaa0 <_printf_i+0x140>
 800aa8e:	6923      	ldr	r3, [r4, #16]
 800aa90:	6861      	ldr	r1, [r4, #4]
 800aa92:	4299      	cmp	r1, r3
 800aa94:	bfde      	ittt	le
 800aa96:	2330      	movle	r3, #48	@ 0x30
 800aa98:	f806 3c01 	strble.w	r3, [r6, #-1]
 800aa9c:	f106 36ff 	addle.w	r6, r6, #4294967295
 800aaa0:	1b92      	subs	r2, r2, r6
 800aaa2:	6122      	str	r2, [r4, #16]
 800aaa4:	f8cd a000 	str.w	sl, [sp]
 800aaa8:	464b      	mov	r3, r9
 800aaaa:	aa03      	add	r2, sp, #12
 800aaac:	4621      	mov	r1, r4
 800aaae:	4640      	mov	r0, r8
 800aab0:	f7ff fee8 	bl	800a884 <_printf_common>
 800aab4:	3001      	adds	r0, #1
 800aab6:	d14c      	bne.n	800ab52 <_printf_i+0x1f2>
 800aab8:	f04f 30ff 	mov.w	r0, #4294967295
 800aabc:	b004      	add	sp, #16
 800aabe:	e8bd 87f0 	ldmia.w	sp!, {r4, r5, r6, r7, r8, r9, sl, pc}
 800aac2:	6823      	ldr	r3, [r4, #0]
 800aac4:	f043 0320 	orr.w	r3, r3, #32
 800aac8:	6023      	str	r3, [r4, #0]
 800aaca:	4834      	ldr	r0, [pc, #208]	@ (800ab9c <_printf_i+0x23c>)
 800aacc:	2778      	movs	r7, #120	@ 0x78
 800aace:	f884 7045 	strb.w	r7, [r4, #69]	@ 0x45
 800aad2:	6823      	ldr	r3, [r4, #0]
 800aad4:	6831      	ldr	r1, [r6, #0]
 800aad6:	061f      	lsls	r7, r3, #24
 800aad8:	f851 5b04 	ldr.w	r5, [r1], #4
 800aadc:	d402      	bmi.n	800aae4 <_printf_i+0x184>
 800aade:	065f      	lsls	r7, r3, #25
 800aae0:	bf48      	it	mi
 800aae2:	b2ad      	uxthmi	r5, r5
 800aae4:	6031      	str	r1, [r6, #0]
 800aae6:	07d9      	lsls	r1, r3, #31
 800aae8:	bf44      	itt	mi
 800aaea:	f043 0320 	orrmi.w	r3, r3, #32
 800aaee:	6023      	strmi	r3, [r4, #0]
 800aaf0:	b11d      	cbz	r5, 800aafa <_printf_i+0x19a>
 800aaf2:	2310      	movs	r3, #16
 800aaf4:	e7ad      	b.n	800aa52 <_printf_i+0xf2>
 800aaf6:	4828      	ldr	r0, [pc, #160]	@ (800ab98 <_printf_i+0x238>)
 800aaf8:	e7e9      	b.n	800aace <_printf_i+0x16e>
 800aafa:	6823      	ldr	r3, [r4, #0]
 800aafc:	f023 0320 	bic.w	r3, r3, #32
 800ab00:	6023      	str	r3, [r4, #0]
 800ab02:	e7f6      	b.n	800aaf2 <_printf_i+0x192>
 800ab04:	230a      	movs	r3, #10
 800ab06:	e7a4      	b.n	800aa52 <_printf_i+0xf2>
 800ab08:	4616      	mov	r6, r2
 800ab0a:	e7bb      	b.n	800aa84 <_printf_i+0x124>
 800ab0c:	6833      	ldr	r3, [r6, #0]
 800ab0e:	6825      	ldr	r5, [r4, #0]
 800ab10:	6961      	ldr	r1, [r4, #20]
 800ab12:	1d18      	adds	r0, r3, #4
 800ab14:	6030      	str	r0, [r6, #0]
 800ab16:	062e      	lsls	r6, r5, #24
 800ab18:	681b      	ldr	r3, [r3, #0]
 800ab1a:	d501      	bpl.n	800ab20 <_printf_i+0x1c0>
 800ab1c:	6019      	str	r1, [r3, #0]
 800ab1e:	e002      	b.n	800ab26 <_printf_i+0x1c6>
 800ab20:	0668      	lsls	r0, r5, #25
 800ab22:	d5fb      	bpl.n	800ab1c <_printf_i+0x1bc>
 800ab24:	8019      	strh	r1, [r3, #0]
 800ab26:	2300      	movs	r3, #0
 800ab28:	6123      	str	r3, [r4, #16]
 800ab2a:	4616      	mov	r6, r2
 800ab2c:	e7ba      	b.n	800aaa4 <_printf_i+0x144>
 800ab2e:	6833      	ldr	r3, [r6, #0]
 800ab30:	1d1a      	adds	r2, r3, #4
 800ab32:	6032      	str	r2, [r6, #0]
 800ab34:	681e      	ldr	r6, [r3, #0]
 800ab36:	6862      	ldr	r2, [r4, #4]
 800ab38:	2100      	movs	r1, #0
 800ab3a:	4630      	mov	r0, r6
 800ab3c:	f7f5 fb40 	bl	80001c0 <memchr>
 800ab40:	b108      	cbz	r0, 800ab46 <_printf_i+0x1e6>
 800ab42:	1b80      	subs	r0, r0, r6
 800ab44:	6060      	str	r0, [r4, #4]
 800ab46:	6863      	ldr	r3, [r4, #4]
 800ab48:	6123      	str	r3, [r4, #16]
 800ab4a:	2300      	movs	r3, #0
 800ab4c:	f884 3043 	strb.w	r3, [r4, #67]	@ 0x43
 800ab50:	e7a8      	b.n	800aaa4 <_printf_i+0x144>
 800ab52:	6923      	ldr	r3, [r4, #16]
 800ab54:	4632      	mov	r2, r6
 800ab56:	4649      	mov	r1, r9
 800ab58:	4640      	mov	r0, r8
 800ab5a:	47d0      	blx	sl
 800ab5c:	3001      	adds	r0, #1
 800ab5e:	d0ab      	beq.n	800aab8 <_printf_i+0x158>
 800ab60:	6823      	ldr	r3, [r4, #0]
 800ab62:	079b      	lsls	r3, r3, #30
 800ab64:	d413      	bmi.n	800ab8e <_printf_i+0x22e>
 800ab66:	68e0      	ldr	r0, [r4, #12]
 800ab68:	9b03      	ldr	r3, [sp, #12]
 800ab6a:	4298      	cmp	r0, r3
 800ab6c:	bfb8      	it	lt
 800ab6e:	4618      	movlt	r0, r3
 800ab70:	e7a4      	b.n	800aabc <_printf_i+0x15c>
 800ab72:	2301      	movs	r3, #1
 800ab74:	4632      	mov	r2, r6
 800ab76:	4649      	mov	r1, r9
 800ab78:	4640      	mov	r0, r8
 800ab7a:	47d0      	blx	sl
 800ab7c:	3001      	adds	r0, #1
 800ab7e:	d09b      	beq.n	800aab8 <_printf_i+0x158>
 800ab80:	3501      	adds	r5, #1
 800ab82:	68e3      	ldr	r3, [r4, #12]
 800ab84:	9903      	ldr	r1, [sp, #12]
 800ab86:	1a5b      	subs	r3, r3, r1
 800ab88:	42ab      	cmp	r3, r5
 800ab8a:	dcf2      	bgt.n	800ab72 <_printf_i+0x212>
 800ab8c:	e7eb      	b.n	800ab66 <_printf_i+0x206>
 800ab8e:	2500      	movs	r5, #0
 800ab90:	f104 0619 	add.w	r6, r4, #25
 800ab94:	e7f5      	b.n	800ab82 <_printf_i+0x222>
 800ab96:	bf00      	nop
 800ab98:	0800ced3 	.word	0x0800ced3
 800ab9c:	0800cee4 	.word	0x0800cee4

0800aba0 <siscanf>:
 800aba0:	b40e      	push	{r1, r2, r3}
 800aba2:	b570      	push	{r4, r5, r6, lr}
 800aba4:	b09d      	sub	sp, #116	@ 0x74
 800aba6:	ac21      	add	r4, sp, #132	@ 0x84
 800aba8:	2500      	movs	r5, #0
 800abaa:	f44f 7201 	mov.w	r2, #516	@ 0x204
 800abae:	f854 6b04 	ldr.w	r6, [r4], #4
 800abb2:	f8ad 2014 	strh.w	r2, [sp, #20]
 800abb6:	951b      	str	r5, [sp, #108]	@ 0x6c
 800abb8:	9002      	str	r0, [sp, #8]
 800abba:	9006      	str	r0, [sp, #24]
 800abbc:	f7f5 faf2 	bl	80001a4 <strlen>
 800abc0:	4b0b      	ldr	r3, [pc, #44]	@ (800abf0 <siscanf+0x50>)
 800abc2:	9003      	str	r0, [sp, #12]
 800abc4:	9007      	str	r0, [sp, #28]
 800abc6:	480b      	ldr	r0, [pc, #44]	@ (800abf4 <siscanf+0x54>)
 800abc8:	930b      	str	r3, [sp, #44]	@ 0x2c
 800abca:	f64f 73ff 	movw	r3, #65535	@ 0xffff
 800abce:	f8ad 3016 	strh.w	r3, [sp, #22]
 800abd2:	4632      	mov	r2, r6
 800abd4:	4623      	mov	r3, r4
 800abd6:	a902      	add	r1, sp, #8
 800abd8:	6800      	ldr	r0, [r0, #0]
 800abda:	950f      	str	r5, [sp, #60]	@ 0x3c
 800abdc:	9514      	str	r5, [sp, #80]	@ 0x50
 800abde:	9401      	str	r4, [sp, #4]
 800abe0:	f000 f8ec 	bl	800adbc <__ssvfiscanf_r>
 800abe4:	b01d      	add	sp, #116	@ 0x74
 800abe6:	e8bd 4070 	ldmia.w	sp!, {r4, r5, r6, lr}
 800abea:	b003      	add	sp, #12
 800abec:	4770      	bx	lr
 800abee:	bf00      	nop
 800abf0:	080096d5 	.word	0x080096d5
 800abf4:	200001cc 	.word	0x200001cc

0800abf8 <memmove>:
 800abf8:	4288      	cmp	r0, r1
 800abfa:	b510      	push	{r4, lr}
 800abfc:	eb01 0402 	add.w	r4, r1, r2
 800ac00:	d902      	bls.n	800ac08 <memmove+0x10>
 800ac02:	4284      	cmp	r4, r0
 800ac04:	4623      	mov	r3, r4
 800ac06:	d807      	bhi.n	800ac18 <memmove+0x20>
 800ac08:	1e43      	subs	r3, r0, #1
 800ac0a:	42a1      	cmp	r1, r4
 800ac0c:	d007      	beq.n	800ac1e <memmove+0x26>
 800ac0e:	f811 2b01 	ldrb.w	r2, [r1], #1
 800ac12:	f803 2f01 	strb.w	r2, [r3, #1]!
 800ac16:	e7f8      	b.n	800ac0a <memmove+0x12>
 800ac18:	4402      	add	r2, r0
 800ac1a:	4282      	cmp	r2, r0
 800ac1c:	d100      	bne.n	800ac20 <memmove+0x28>
 800ac1e:	bd10      	pop	{r4, pc}
 800ac20:	f813 1d01 	ldrb.w	r1, [r3, #-1]!
 800ac24:	f802 1d01 	strb.w	r1, [r2, #-1]!
 800ac28:	e7f7      	b.n	800ac1a <memmove+0x22>

0800ac2a <strncmp>:
 800ac2a:	b510      	push	{r4, lr}
 800ac2c:	b16a      	cbz	r2, 800ac4a <strncmp+0x20>
 800ac2e:	3901      	subs	r1, #1
 800ac30:	1884      	adds	r4, r0, r2
 800ac32:	f810 2b01 	ldrb.w	r2, [r0], #1
 800ac36:	f811 3f01 	ldrb.w	r3, [r1, #1]!
 800ac3a:	429a      	cmp	r2, r3
 800ac3c:	d103      	bne.n	800ac46 <strncmp+0x1c>
 800ac3e:	42a0      	cmp	r0, r4
 800ac40:	d001      	beq.n	800ac46 <strncmp+0x1c>
 800ac42:	2a00      	cmp	r2, #0
 800ac44:	d1f5      	bne.n	800ac32 <strncmp+0x8>
 800ac46:	1ad0      	subs	r0, r2, r3
 800ac48:	bd10      	pop	{r4, pc}
 800ac4a:	4610      	mov	r0, r2
 800ac4c:	e7fc      	b.n	800ac48 <strncmp+0x1e>
	...

0800ac50 <__gettzinfo>:
 800ac50:	4800      	ldr	r0, [pc, #0]	@ (800ac54 <__gettzinfo+0x4>)
 800ac52:	4770      	bx	lr
 800ac54:	20000220 	.word	0x20000220

0800ac58 <_sbrk_r>:
 800ac58:	b538      	push	{r3, r4, r5, lr}
 800ac5a:	4d06      	ldr	r5, [pc, #24]	@ (800ac74 <_sbrk_r+0x1c>)
 800ac5c:	2300      	movs	r3, #0
 800ac5e:	4604      	mov	r4, r0
 800ac60:	4608      	mov	r0, r1
 800ac62:	602b      	str	r3, [r5, #0]
 800ac64:	f7fd f9b6 	bl	8007fd4 <_sbrk>
 800ac68:	1c43      	adds	r3, r0, #1
 800ac6a:	d102      	bne.n	800ac72 <_sbrk_r+0x1a>
 800ac6c:	682b      	ldr	r3, [r5, #0]
 800ac6e:	b103      	cbz	r3, 800ac72 <_sbrk_r+0x1a>
 800ac70:	6023      	str	r3, [r4, #0]
 800ac72:	bd38      	pop	{r3, r4, r5, pc}
 800ac74:	20001844 	.word	0x20001844

0800ac78 <memcpy>:
 800ac78:	440a      	add	r2, r1
 800ac7a:	4291      	cmp	r1, r2
 800ac7c:	f100 33ff 	add.w	r3, r0, #4294967295
 800ac80:	d100      	bne.n	800ac84 <memcpy+0xc>
 800ac82:	4770      	bx	lr
 800ac84:	b510      	push	{r4, lr}
 800ac86:	f811 4b01 	ldrb.w	r4, [r1], #1
 800ac8a:	f803 4f01 	strb.w	r4, [r3, #1]!
 800ac8e:	4291      	cmp	r1, r2
 800ac90:	d1f9      	bne.n	800ac86 <memcpy+0xe>
 800ac92:	bd10      	pop	{r4, pc}

0800ac94 <__env_lock>:
 800ac94:	4801      	ldr	r0, [pc, #4]	@ (800ac9c <__env_lock+0x8>)
 800ac96:	f7ff bac8 	b.w	800a22a <__retarget_lock_acquire_recursive>
 800ac9a:	bf00      	nop
 800ac9c:	20001849 	.word	0x20001849

0800aca0 <__env_unlock>:
 800aca0:	4801      	ldr	r0, [pc, #4]	@ (800aca8 <__env_unlock+0x8>)
 800aca2:	f7ff bac4 	b.w	800a22e <__retarget_lock_release_recursive>
 800aca6:	bf00      	nop
 800aca8:	20001849 	.word	0x20001849

0800acac <_realloc_r>:
 800acac:	e92d 41f0 	stmdb	sp!, {r4, r5, r6, r7, r8, lr}
 800acb0:	4607      	mov	r7, r0
 800acb2:	4614      	mov	r4, r2
 800acb4:	460d      	mov	r5, r1
 800acb6:	b921      	cbnz	r1, 800acc2 <_realloc_r+0x16>
 800acb8:	e8bd 41f0 	ldmia.w	sp!, {r4, r5, r6, r7, r8, lr}
 800acbc:	4611      	mov	r1, r2
 800acbe:	f7ff bb7f 	b.w	800a3c0 <_malloc_r>
 800acc2:	b92a      	cbnz	r2, 800acd0 <_realloc_r+0x24>
 800acc4:	f7ff fac4 	bl	800a250 <_free_r>
 800acc8:	4625      	mov	r5, r4
 800acca:	4628      	mov	r0, r5
 800accc:	e8bd 81f0 	ldmia.w	sp!, {r4, r5, r6, r7, r8, pc}
 800acd0:	f000 fbb1 	bl	800b436 <_malloc_usable_size_r>
 800acd4:	4284      	cmp	r4, r0
 800acd6:	4606      	mov	r6, r0
 800acd8:	d802      	bhi.n	800ace0 <_realloc_r+0x34>
 800acda:	ebb4 0f50 	cmp.w	r4, r0, lsr #1
 800acde:	d8f4      	bhi.n	800acca <_realloc_r+0x1e>
 800ace0:	4621      	mov	r1, r4
 800ace2:	4638      	mov	r0, r7
 800ace4:	f7ff fb6c 	bl	800a3c0 <_malloc_r>
 800ace8:	4680      	mov	r8, r0
 800acea:	b908      	cbnz	r0, 800acf0 <_realloc_r+0x44>
 800acec:	4645      	mov	r5, r8
 800acee:	e7ec      	b.n	800acca <_realloc_r+0x1e>
 800acf0:	42b4      	cmp	r4, r6
 800acf2:	4622      	mov	r2, r4
 800acf4:	4629      	mov	r1, r5
 800acf6:	bf28      	it	cs
 800acf8:	4632      	movcs	r2, r6
 800acfa:	f7ff ffbd 	bl	800ac78 <memcpy>
 800acfe:	4629      	mov	r1, r5
 800ad00:	4638      	mov	r0, r7
 800ad02:	f7ff faa5 	bl	800a250 <_free_r>
 800ad06:	e7f1      	b.n	800acec <_realloc_r+0x40>

0800ad08 <_sungetc_r>:
 800ad08:	b538      	push	{r3, r4, r5, lr}
 800ad0a:	1c4b      	adds	r3, r1, #1
 800ad0c:	4614      	mov	r4, r2
 800ad0e:	d103      	bne.n	800ad18 <_sungetc_r+0x10>
 800ad10:	f04f 35ff 	mov.w	r5, #4294967295
 800ad14:	4628      	mov	r0, r5
 800ad16:	bd38      	pop	{r3, r4, r5, pc}
 800ad18:	8993      	ldrh	r3, [r2, #12]
 800ad1a:	f023 0320 	bic.w	r3, r3, #32
 800ad1e:	8193      	strh	r3, [r2, #12]
 800ad20:	6b63      	ldr	r3, [r4, #52]	@ 0x34
 800ad22:	6852      	ldr	r2, [r2, #4]
 800ad24:	b2cd      	uxtb	r5, r1
 800ad26:	b18b      	cbz	r3, 800ad4c <_sungetc_r+0x44>
 800ad28:	6ba3      	ldr	r3, [r4, #56]	@ 0x38
 800ad2a:	4293      	cmp	r3, r2
 800ad2c:	dd08      	ble.n	800ad40 <_sungetc_r+0x38>
 800ad2e:	6823      	ldr	r3, [r4, #0]
 800ad30:	1e5a      	subs	r2, r3, #1
 800ad32:	6022      	str	r2, [r4, #0]
 800ad34:	f803 5c01 	strb.w	r5, [r3, #-1]
 800ad38:	6863      	ldr	r3, [r4, #4]
 800ad3a:	3301      	adds	r3, #1
 800ad3c:	6063      	str	r3, [r4, #4]
 800ad3e:	e7e9      	b.n	800ad14 <_sungetc_r+0xc>
 800ad40:	4621      	mov	r1, r4
 800ad42:	f000 fb3e 	bl	800b3c2 <__submore>
 800ad46:	2800      	cmp	r0, #0
 800ad48:	d0f1      	beq.n	800ad2e <_sungetc_r+0x26>
 800ad4a:	e7e1      	b.n	800ad10 <_sungetc_r+0x8>
 800ad4c:	6921      	ldr	r1, [r4, #16]
 800ad4e:	6823      	ldr	r3, [r4, #0]
 800ad50:	b151      	cbz	r1, 800ad68 <_sungetc_r+0x60>
 800ad52:	4299      	cmp	r1, r3
 800ad54:	d208      	bcs.n	800ad68 <_sungetc_r+0x60>
 800ad56:	f813 1c01 	ldrb.w	r1, [r3, #-1]
 800ad5a:	42a9      	cmp	r1, r5
 800ad5c:	d104      	bne.n	800ad68 <_sungetc_r+0x60>
 800ad5e:	3b01      	subs	r3, #1
 800ad60:	3201      	adds	r2, #1
 800ad62:	6023      	str	r3, [r4, #0]
 800ad64:	6062      	str	r2, [r4, #4]
 800ad66:	e7d5      	b.n	800ad14 <_sungetc_r+0xc>
 800ad68:	e9c4 320f 	strd	r3, r2, [r4, #60]	@ 0x3c
 800ad6c:	f104 0344 	add.w	r3, r4, #68	@ 0x44
 800ad70:	6363      	str	r3, [r4, #52]	@ 0x34
 800ad72:	2303      	movs	r3, #3
 800ad74:	63a3      	str	r3, [r4, #56]	@ 0x38
 800ad76:	4623      	mov	r3, r4
 800ad78:	f803 5f46 	strb.w	r5, [r3, #70]!
 800ad7c:	6023      	str	r3, [r4, #0]
 800ad7e:	2301      	movs	r3, #1
 800ad80:	e7dc      	b.n	800ad3c <_sungetc_r+0x34>

0800ad82 <__ssrefill_r>:
 800ad82:	b510      	push	{r4, lr}
 800ad84:	460c      	mov	r4, r1
 800ad86:	6b49      	ldr	r1, [r1, #52]	@ 0x34
 800ad88:	b169      	cbz	r1, 800ada6 <__ssrefill_r+0x24>
 800ad8a:	f104 0344 	add.w	r3, r4, #68	@ 0x44
 800ad8e:	4299      	cmp	r1, r3
 800ad90:	d001      	beq.n	800ad96 <__ssrefill_r+0x14>
 800ad92:	f7ff fa5d 	bl	800a250 <_free_r>
 800ad96:	6c23      	ldr	r3, [r4, #64]	@ 0x40
 800ad98:	6063      	str	r3, [r4, #4]
 800ad9a:	2000      	movs	r0, #0
 800ad9c:	6360      	str	r0, [r4, #52]	@ 0x34
 800ad9e:	b113      	cbz	r3, 800ada6 <__ssrefill_r+0x24>
 800ada0:	6be3      	ldr	r3, [r4, #60]	@ 0x3c
 800ada2:	6023      	str	r3, [r4, #0]
 800ada4:	bd10      	pop	{r4, pc}
 800ada6:	6923      	ldr	r3, [r4, #16]
 800ada8:	6023      	str	r3, [r4, #0]
 800adaa:	2300      	movs	r3, #0
 800adac:	6063      	str	r3, [r4, #4]
 800adae:	89a3      	ldrh	r3, [r4, #12]
 800adb0:	f043 0320 	orr.w	r3, r3, #32
 800adb4:	81a3      	strh	r3, [r4, #12]
 800adb6:	f04f 30ff 	mov.w	r0, #4294967295
 800adba:	e7f3      	b.n	800ada4 <__ssrefill_r+0x22>

0800adbc <__ssvfiscanf_r>:
 800adbc:	e92d 4ff0 	stmdb	sp!, {r4, r5, r6, r7, r8, r9, sl, fp, lr}
 800adc0:	f5ad 7d23 	sub.w	sp, sp, #652	@ 0x28c
 800adc4:	ac41      	add	r4, sp, #260	@ 0x104
 800adc6:	460d      	mov	r5, r1
 800adc8:	2100      	movs	r1, #0
 800adca:	e9c4 1103 	strd	r1, r1, [r4, #12]
 800adce:	a901      	add	r1, sp, #4
 800add0:	6161      	str	r1, [r4, #20]
 800add2:	49af      	ldr	r1, [pc, #700]	@ (800b090 <__ssvfiscanf_r+0x2d4>)
 800add4:	f8c4 117c 	str.w	r1, [r4, #380]	@ 0x17c
 800add8:	f8df b2c4 	ldr.w	fp, [pc, #708]	@ 800b0a0 <__ssvfiscanf_r+0x2e4>
 800addc:	49ad      	ldr	r1, [pc, #692]	@ (800b094 <__ssvfiscanf_r+0x2d8>)
 800adde:	f8c4 1180 	str.w	r1, [r4, #384]	@ 0x180
 800ade2:	4607      	mov	r7, r0
 800ade4:	46e8      	mov	r8, sp
 800ade6:	9300      	str	r3, [sp, #0]
 800ade8:	f892 9000 	ldrb.w	r9, [r2]
 800adec:	f1b9 0f00 	cmp.w	r9, #0
 800adf0:	f000 8160 	beq.w	800b0b4 <__ssvfiscanf_r+0x2f8>
 800adf4:	f81b 3009 	ldrb.w	r3, [fp, r9]
 800adf8:	f013 0308 	ands.w	r3, r3, #8
 800adfc:	f102 0601 	add.w	r6, r2, #1
 800ae00:	d01b      	beq.n	800ae3a <__ssvfiscanf_r+0x7e>
 800ae02:	686b      	ldr	r3, [r5, #4]
 800ae04:	2b00      	cmp	r3, #0
 800ae06:	dd10      	ble.n	800ae2a <__ssvfiscanf_r+0x6e>
 800ae08:	682b      	ldr	r3, [r5, #0]
 800ae0a:	781a      	ldrb	r2, [r3, #0]
 800ae0c:	f81b 2002 	ldrb.w	r2, [fp, r2]
 800ae10:	0712      	lsls	r2, r2, #28
 800ae12:	d401      	bmi.n	800ae18 <__ssvfiscanf_r+0x5c>
 800ae14:	4632      	mov	r2, r6
 800ae16:	e7e7      	b.n	800ade8 <__ssvfiscanf_r+0x2c>
 800ae18:	6922      	ldr	r2, [r4, #16]
 800ae1a:	3201      	adds	r2, #1
 800ae1c:	6122      	str	r2, [r4, #16]
 800ae1e:	686a      	ldr	r2, [r5, #4]
 800ae20:	3301      	adds	r3, #1
 800ae22:	3a01      	subs	r2, #1
 800ae24:	606a      	str	r2, [r5, #4]
 800ae26:	602b      	str	r3, [r5, #0]
 800ae28:	e7eb      	b.n	800ae02 <__ssvfiscanf_r+0x46>
 800ae2a:	f8d4 3180 	ldr.w	r3, [r4, #384]	@ 0x180
 800ae2e:	4629      	mov	r1, r5
 800ae30:	4638      	mov	r0, r7
 800ae32:	4798      	blx	r3
 800ae34:	2800      	cmp	r0, #0
 800ae36:	d0e7      	beq.n	800ae08 <__ssvfiscanf_r+0x4c>
 800ae38:	e7ec      	b.n	800ae14 <__ssvfiscanf_r+0x58>
 800ae3a:	f1b9 0f25 	cmp.w	r9, #37	@ 0x25
 800ae3e:	f040 8084 	bne.w	800af4a <__ssvfiscanf_r+0x18e>
 800ae42:	6023      	str	r3, [r4, #0]
 800ae44:	60a3      	str	r3, [r4, #8]
 800ae46:	7853      	ldrb	r3, [r2, #1]
 800ae48:	2b2a      	cmp	r3, #42	@ 0x2a
 800ae4a:	bf02      	ittt	eq
 800ae4c:	2310      	moveq	r3, #16
 800ae4e:	1c96      	addeq	r6, r2, #2
 800ae50:	6023      	streq	r3, [r4, #0]
 800ae52:	220a      	movs	r2, #10
 800ae54:	46b2      	mov	sl, r6
 800ae56:	f81a 1b01 	ldrb.w	r1, [sl], #1
 800ae5a:	f1a1 0330 	sub.w	r3, r1, #48	@ 0x30
 800ae5e:	2b09      	cmp	r3, #9
 800ae60:	d91d      	bls.n	800ae9e <__ssvfiscanf_r+0xe2>
 800ae62:	4b8d      	ldr	r3, [pc, #564]	@ (800b098 <__ssvfiscanf_r+0x2dc>)
 800ae64:	2203      	movs	r2, #3
 800ae66:	4618      	mov	r0, r3
 800ae68:	f7f5 f9aa 	bl	80001c0 <memchr>
 800ae6c:	b138      	cbz	r0, 800ae7e <__ssvfiscanf_r+0xc2>
 800ae6e:	4b8a      	ldr	r3, [pc, #552]	@ (800b098 <__ssvfiscanf_r+0x2dc>)
 800ae70:	6822      	ldr	r2, [r4, #0]
 800ae72:	1ac0      	subs	r0, r0, r3
 800ae74:	2301      	movs	r3, #1
 800ae76:	4083      	lsls	r3, r0
 800ae78:	4313      	orrs	r3, r2
 800ae7a:	6023      	str	r3, [r4, #0]
 800ae7c:	4656      	mov	r6, sl
 800ae7e:	f816 3b01 	ldrb.w	r3, [r6], #1
 800ae82:	2b78      	cmp	r3, #120	@ 0x78
 800ae84:	d806      	bhi.n	800ae94 <__ssvfiscanf_r+0xd8>
 800ae86:	2b57      	cmp	r3, #87	@ 0x57
 800ae88:	d810      	bhi.n	800aeac <__ssvfiscanf_r+0xf0>
 800ae8a:	2b25      	cmp	r3, #37	@ 0x25
 800ae8c:	d05d      	beq.n	800af4a <__ssvfiscanf_r+0x18e>
 800ae8e:	d857      	bhi.n	800af40 <__ssvfiscanf_r+0x184>
 800ae90:	2b00      	cmp	r3, #0
 800ae92:	d076      	beq.n	800af82 <__ssvfiscanf_r+0x1c6>
 800ae94:	2303      	movs	r3, #3
 800ae96:	61a3      	str	r3, [r4, #24]
 800ae98:	230a      	movs	r3, #10
 800ae9a:	6063      	str	r3, [r4, #4]
 800ae9c:	e089      	b.n	800afb2 <__ssvfiscanf_r+0x1f6>
 800ae9e:	68a3      	ldr	r3, [r4, #8]
 800aea0:	fb02 1103 	mla	r1, r2, r3, r1
 800aea4:	3930      	subs	r1, #48	@ 0x30
 800aea6:	60a1      	str	r1, [r4, #8]
 800aea8:	4656      	mov	r6, sl
 800aeaa:	e7d3      	b.n	800ae54 <__ssvfiscanf_r+0x98>
 800aeac:	f1a3 0258 	sub.w	r2, r3, #88	@ 0x58
 800aeb0:	2a20      	cmp	r2, #32
 800aeb2:	d8ef      	bhi.n	800ae94 <__ssvfiscanf_r+0xd8>
 800aeb4:	a101      	add	r1, pc, #4	@ (adr r1, 800aebc <__ssvfiscanf_r+0x100>)
 800aeb6:	f851 f022 	ldr.w	pc, [r1, r2, lsl #2]
 800aeba:	bf00      	nop
 800aebc:	0800af91 	.word	0x0800af91
 800aec0:	0800ae95 	.word	0x0800ae95
 800aec4:	0800ae95 	.word	0x0800ae95
 800aec8:	0800afed 	.word	0x0800afed
 800aecc:	0800ae95 	.word	0x0800ae95
 800aed0:	0800ae95 	.word	0x0800ae95
 800aed4:	0800ae95 	.word	0x0800ae95
 800aed8:	0800ae95 	.word	0x0800ae95
 800aedc:	0800ae95 	.word	0x0800ae95
 800aee0:	0800ae95 	.word	0x0800ae95
 800aee4:	0800ae95 	.word	0x0800ae95
 800aee8:	0800b003 	.word	0x0800b003
 800aeec:	0800afe9 	.word	0x0800afe9
 800aef0:	0800af47 	.word	0x0800af47
 800aef4:	0800af47 	.word	0x0800af47
 800aef8:	0800af47 	.word	0x0800af47
 800aefc:	0800ae95 	.word	0x0800ae95
 800af00:	0800afa3 	.word	0x0800afa3
 800af04:	0800ae95 	.word	0x0800ae95
 800af08:	0800ae95 	.word	0x0800ae95
 800af0c:	0800ae95 	.word	0x0800ae95
 800af10:	0800ae95 	.word	0x0800ae95
 800af14:	0800b013 	.word	0x0800b013
 800af18:	0800afab 	.word	0x0800afab
 800af1c:	0800af89 	.word	0x0800af89
 800af20:	0800ae95 	.word	0x0800ae95
 800af24:	0800ae95 	.word	0x0800ae95
 800af28:	0800b00f 	.word	0x0800b00f
 800af2c:	0800ae95 	.word	0x0800ae95
 800af30:	0800afe9 	.word	0x0800afe9
 800af34:	0800ae95 	.word	0x0800ae95
 800af38:	0800ae95 	.word	0x0800ae95
 800af3c:	0800af91 	.word	0x0800af91
 800af40:	3b45      	subs	r3, #69	@ 0x45
 800af42:	2b02      	cmp	r3, #2
 800af44:	d8a6      	bhi.n	800ae94 <__ssvfiscanf_r+0xd8>
 800af46:	2305      	movs	r3, #5
 800af48:	e032      	b.n	800afb0 <__ssvfiscanf_r+0x1f4>
 800af4a:	686b      	ldr	r3, [r5, #4]
 800af4c:	2b00      	cmp	r3, #0
 800af4e:	dd0d      	ble.n	800af6c <__ssvfiscanf_r+0x1b0>
 800af50:	682b      	ldr	r3, [r5, #0]
 800af52:	781a      	ldrb	r2, [r3, #0]
 800af54:	454a      	cmp	r2, r9
 800af56:	f040 80ad 	bne.w	800b0b4 <__ssvfiscanf_r+0x2f8>
 800af5a:	3301      	adds	r3, #1
 800af5c:	686a      	ldr	r2, [r5, #4]
 800af5e:	602b      	str	r3, [r5, #0]
 800af60:	6923      	ldr	r3, [r4, #16]
 800af62:	3a01      	subs	r2, #1
 800af64:	3301      	adds	r3, #1
 800af66:	606a      	str	r2, [r5, #4]
 800af68:	6123      	str	r3, [r4, #16]
 800af6a:	e753      	b.n	800ae14 <__ssvfiscanf_r+0x58>
 800af6c:	f8d4 3180 	ldr.w	r3, [r4, #384]	@ 0x180
 800af70:	4629      	mov	r1, r5
 800af72:	4638      	mov	r0, r7
 800af74:	4798      	blx	r3
 800af76:	2800      	cmp	r0, #0
 800af78:	d0ea      	beq.n	800af50 <__ssvfiscanf_r+0x194>
 800af7a:	68e0      	ldr	r0, [r4, #12]
 800af7c:	2800      	cmp	r0, #0
 800af7e:	f040 8091 	bne.w	800b0a4 <__ssvfiscanf_r+0x2e8>
 800af82:	f04f 30ff 	mov.w	r0, #4294967295
 800af86:	e091      	b.n	800b0ac <__ssvfiscanf_r+0x2f0>
 800af88:	6822      	ldr	r2, [r4, #0]
 800af8a:	f042 0220 	orr.w	r2, r2, #32
 800af8e:	6022      	str	r2, [r4, #0]
 800af90:	6822      	ldr	r2, [r4, #0]
 800af92:	f442 7200 	orr.w	r2, r2, #512	@ 0x200
 800af96:	6022      	str	r2, [r4, #0]
 800af98:	2210      	movs	r2, #16
 800af9a:	2b6e      	cmp	r3, #110	@ 0x6e
 800af9c:	6062      	str	r2, [r4, #4]
 800af9e:	d806      	bhi.n	800afae <__ssvfiscanf_r+0x1f2>
 800afa0:	e001      	b.n	800afa6 <__ssvfiscanf_r+0x1ea>
 800afa2:	2300      	movs	r3, #0
 800afa4:	6063      	str	r3, [r4, #4]
 800afa6:	2303      	movs	r3, #3
 800afa8:	e002      	b.n	800afb0 <__ssvfiscanf_r+0x1f4>
 800afaa:	2308      	movs	r3, #8
 800afac:	6063      	str	r3, [r4, #4]
 800afae:	2304      	movs	r3, #4
 800afb0:	61a3      	str	r3, [r4, #24]
 800afb2:	686b      	ldr	r3, [r5, #4]
 800afb4:	2b00      	cmp	r3, #0
 800afb6:	dd3c      	ble.n	800b032 <__ssvfiscanf_r+0x276>
 800afb8:	6823      	ldr	r3, [r4, #0]
 800afba:	0659      	lsls	r1, r3, #25
 800afbc:	d405      	bmi.n	800afca <__ssvfiscanf_r+0x20e>
 800afbe:	682b      	ldr	r3, [r5, #0]
 800afc0:	781a      	ldrb	r2, [r3, #0]
 800afc2:	f81b 2002 	ldrb.w	r2, [fp, r2]
 800afc6:	0712      	lsls	r2, r2, #28
 800afc8:	d43b      	bmi.n	800b042 <__ssvfiscanf_r+0x286>
 800afca:	69a3      	ldr	r3, [r4, #24]
 800afcc:	2b02      	cmp	r3, #2
 800afce:	dc4b      	bgt.n	800b068 <__ssvfiscanf_r+0x2ac>
 800afd0:	4643      	mov	r3, r8
 800afd2:	462a      	mov	r2, r5
 800afd4:	4621      	mov	r1, r4
 800afd6:	4638      	mov	r0, r7
 800afd8:	f000 f86e 	bl	800b0b8 <_scanf_chars>
 800afdc:	2801      	cmp	r0, #1
 800afde:	d069      	beq.n	800b0b4 <__ssvfiscanf_r+0x2f8>
 800afe0:	2802      	cmp	r0, #2
 800afe2:	f47f af17 	bne.w	800ae14 <__ssvfiscanf_r+0x58>
 800afe6:	e7c8      	b.n	800af7a <__ssvfiscanf_r+0x1be>
 800afe8:	220a      	movs	r2, #10
 800afea:	e7d6      	b.n	800af9a <__ssvfiscanf_r+0x1de>
 800afec:	4631      	mov	r1, r6
 800afee:	a801      	add	r0, sp, #4
 800aff0:	f000 f9ae 	bl	800b350 <__sccl>
 800aff4:	6823      	ldr	r3, [r4, #0]
 800aff6:	f043 0340 	orr.w	r3, r3, #64	@ 0x40
 800affa:	6023      	str	r3, [r4, #0]
 800affc:	4606      	mov	r6, r0
 800affe:	2301      	movs	r3, #1
 800b000:	e7d6      	b.n	800afb0 <__ssvfiscanf_r+0x1f4>
 800b002:	6823      	ldr	r3, [r4, #0]
 800b004:	f043 0340 	orr.w	r3, r3, #64	@ 0x40
 800b008:	6023      	str	r3, [r4, #0]
 800b00a:	2300      	movs	r3, #0
 800b00c:	e7d0      	b.n	800afb0 <__ssvfiscanf_r+0x1f4>
 800b00e:	2302      	movs	r3, #2
 800b010:	e7ce      	b.n	800afb0 <__ssvfiscanf_r+0x1f4>
 800b012:	6820      	ldr	r0, [r4, #0]
 800b014:	06c3      	lsls	r3, r0, #27
 800b016:	f53f aefd 	bmi.w	800ae14 <__ssvfiscanf_r+0x58>
 800b01a:	f8d8 3000 	ldr.w	r3, [r8]
 800b01e:	6922      	ldr	r2, [r4, #16]
 800b020:	1d19      	adds	r1, r3, #4
 800b022:	f8c8 1000 	str.w	r1, [r8]
 800b026:	681b      	ldr	r3, [r3, #0]
 800b028:	07c0      	lsls	r0, r0, #31
 800b02a:	bf4c      	ite	mi
 800b02c:	801a      	strhmi	r2, [r3, #0]
 800b02e:	601a      	strpl	r2, [r3, #0]
 800b030:	e6f0      	b.n	800ae14 <__ssvfiscanf_r+0x58>
 800b032:	f8d4 3180 	ldr.w	r3, [r4, #384]	@ 0x180
 800b036:	4629      	mov	r1, r5
 800b038:	4638      	mov	r0, r7
 800b03a:	4798      	blx	r3
 800b03c:	2800      	cmp	r0, #0
 800b03e:	d0bb      	beq.n	800afb8 <__ssvfiscanf_r+0x1fc>
 800b040:	e79b      	b.n	800af7a <__ssvfiscanf_r+0x1be>
 800b042:	6922      	ldr	r2, [r4, #16]
 800b044:	3201      	adds	r2, #1
 800b046:	6122      	str	r2, [r4, #16]
 800b048:	686a      	ldr	r2, [r5, #4]
 800b04a:	3a01      	subs	r2, #1
 800b04c:	2a00      	cmp	r2, #0
 800b04e:	606a      	str	r2, [r5, #4]
 800b050:	dd02      	ble.n	800b058 <__ssvfiscanf_r+0x29c>
 800b052:	3301      	adds	r3, #1
 800b054:	602b      	str	r3, [r5, #0]
 800b056:	e7b2      	b.n	800afbe <__ssvfiscanf_r+0x202>
 800b058:	f8d4 3180 	ldr.w	r3, [r4, #384]	@ 0x180
 800b05c:	4629      	mov	r1, r5
 800b05e:	4638      	mov	r0, r7
 800b060:	4798      	blx	r3
 800b062:	2800      	cmp	r0, #0
 800b064:	d0ab      	beq.n	800afbe <__ssvfiscanf_r+0x202>
 800b066:	e788      	b.n	800af7a <__ssvfiscanf_r+0x1be>
 800b068:	2b04      	cmp	r3, #4
 800b06a:	dc06      	bgt.n	800b07a <__ssvfiscanf_r+0x2be>
 800b06c:	4643      	mov	r3, r8
 800b06e:	462a      	mov	r2, r5
 800b070:	4621      	mov	r1, r4
 800b072:	4638      	mov	r0, r7
 800b074:	f000 f87a 	bl	800b16c <_scanf_i>
 800b078:	e7b0      	b.n	800afdc <__ssvfiscanf_r+0x220>
 800b07a:	4b08      	ldr	r3, [pc, #32]	@ (800b09c <__ssvfiscanf_r+0x2e0>)
 800b07c:	2b00      	cmp	r3, #0
 800b07e:	f43f aec9 	beq.w	800ae14 <__ssvfiscanf_r+0x58>
 800b082:	4643      	mov	r3, r8
 800b084:	462a      	mov	r2, r5
 800b086:	4621      	mov	r1, r4
 800b088:	4638      	mov	r0, r7
 800b08a:	f3af 8000 	nop.w
 800b08e:	e7a5      	b.n	800afdc <__ssvfiscanf_r+0x220>
 800b090:	0800ad09 	.word	0x0800ad09
 800b094:	0800ad83 	.word	0x0800ad83
 800b098:	0800cec8 	.word	0x0800cec8
 800b09c:	00000000 	.word	0x00000000
 800b0a0:	0800cf11 	.word	0x0800cf11
 800b0a4:	89ab      	ldrh	r3, [r5, #12]
 800b0a6:	065b      	lsls	r3, r3, #25
 800b0a8:	f53f af6b 	bmi.w	800af82 <__ssvfiscanf_r+0x1c6>
 800b0ac:	f50d 7d23 	add.w	sp, sp, #652	@ 0x28c
 800b0b0:	e8bd 8ff0 	ldmia.w	sp!, {r4, r5, r6, r7, r8, r9, sl, fp, pc}
 800b0b4:	68e0      	ldr	r0, [r4, #12]
 800b0b6:	e7f9      	b.n	800b0ac <__ssvfiscanf_r+0x2f0>

0800b0b8 <_scanf_chars>:
 800b0b8:	e92d 43f8 	stmdb	sp!, {r3, r4, r5, r6, r7, r8, r9, lr}
 800b0bc:	4615      	mov	r5, r2
 800b0be:	688a      	ldr	r2, [r1, #8]
 800b0c0:	4680      	mov	r8, r0
 800b0c2:	460c      	mov	r4, r1
 800b0c4:	b932      	cbnz	r2, 800b0d4 <_scanf_chars+0x1c>
 800b0c6:	698a      	ldr	r2, [r1, #24]
 800b0c8:	2a00      	cmp	r2, #0
 800b0ca:	bf14      	ite	ne
 800b0cc:	f04f 32ff 	movne.w	r2, #4294967295
 800b0d0:	2201      	moveq	r2, #1
 800b0d2:	608a      	str	r2, [r1, #8]
 800b0d4:	6822      	ldr	r2, [r4, #0]
 800b0d6:	f8df 9090 	ldr.w	r9, [pc, #144]	@ 800b168 <_scanf_chars+0xb0>
 800b0da:	06d1      	lsls	r1, r2, #27
 800b0dc:	bf5f      	itttt	pl
 800b0de:	681a      	ldrpl	r2, [r3, #0]
 800b0e0:	1d11      	addpl	r1, r2, #4
 800b0e2:	6019      	strpl	r1, [r3, #0]
 800b0e4:	6816      	ldrpl	r6, [r2, #0]
 800b0e6:	2700      	movs	r7, #0
 800b0e8:	69a0      	ldr	r0, [r4, #24]
 800b0ea:	b188      	cbz	r0, 800b110 <_scanf_chars+0x58>
 800b0ec:	2801      	cmp	r0, #1
 800b0ee:	d107      	bne.n	800b100 <_scanf_chars+0x48>
 800b0f0:	682b      	ldr	r3, [r5, #0]
 800b0f2:	781a      	ldrb	r2, [r3, #0]
 800b0f4:	6963      	ldr	r3, [r4, #20]
 800b0f6:	5c9b      	ldrb	r3, [r3, r2]
 800b0f8:	b953      	cbnz	r3, 800b110 <_scanf_chars+0x58>
 800b0fa:	2f00      	cmp	r7, #0
 800b0fc:	d031      	beq.n	800b162 <_scanf_chars+0xaa>
 800b0fe:	e022      	b.n	800b146 <_scanf_chars+0x8e>
 800b100:	2802      	cmp	r0, #2
 800b102:	d120      	bne.n	800b146 <_scanf_chars+0x8e>
 800b104:	682b      	ldr	r3, [r5, #0]
 800b106:	781b      	ldrb	r3, [r3, #0]
 800b108:	f819 3003 	ldrb.w	r3, [r9, r3]
 800b10c:	071b      	lsls	r3, r3, #28
 800b10e:	d41a      	bmi.n	800b146 <_scanf_chars+0x8e>
 800b110:	6823      	ldr	r3, [r4, #0]
 800b112:	06da      	lsls	r2, r3, #27
 800b114:	bf5e      	ittt	pl
 800b116:	682b      	ldrpl	r3, [r5, #0]
 800b118:	781b      	ldrbpl	r3, [r3, #0]
 800b11a:	f806 3b01 	strbpl.w	r3, [r6], #1
 800b11e:	682a      	ldr	r2, [r5, #0]
 800b120:	686b      	ldr	r3, [r5, #4]
 800b122:	3201      	adds	r2, #1
 800b124:	602a      	str	r2, [r5, #0]
 800b126:	68a2      	ldr	r2, [r4, #8]
 800b128:	3b01      	subs	r3, #1
 800b12a:	3a01      	subs	r2, #1
 800b12c:	606b      	str	r3, [r5, #4]
 800b12e:	3701      	adds	r7, #1
 800b130:	60a2      	str	r2, [r4, #8]
 800b132:	b142      	cbz	r2, 800b146 <_scanf_chars+0x8e>
 800b134:	2b00      	cmp	r3, #0
 800b136:	dcd7      	bgt.n	800b0e8 <_scanf_chars+0x30>
 800b138:	f8d4 3180 	ldr.w	r3, [r4, #384]	@ 0x180
 800b13c:	4629      	mov	r1, r5
 800b13e:	4640      	mov	r0, r8
 800b140:	4798      	blx	r3
 800b142:	2800      	cmp	r0, #0
 800b144:	d0d0      	beq.n	800b0e8 <_scanf_chars+0x30>
 800b146:	6823      	ldr	r3, [r4, #0]
 800b148:	f013 0310 	ands.w	r3, r3, #16
 800b14c:	d105      	bne.n	800b15a <_scanf_chars+0xa2>
 800b14e:	68e2      	ldr	r2, [r4, #12]
 800b150:	3201      	adds	r2, #1
 800b152:	60e2      	str	r2, [r4, #12]
 800b154:	69a2      	ldr	r2, [r4, #24]
 800b156:	b102      	cbz	r2, 800b15a <_scanf_chars+0xa2>
 800b158:	7033      	strb	r3, [r6, #0]
 800b15a:	6923      	ldr	r3, [r4, #16]
 800b15c:	443b      	add	r3, r7
 800b15e:	6123      	str	r3, [r4, #16]
 800b160:	2000      	movs	r0, #0
 800b162:	e8bd 83f8 	ldmia.w	sp!, {r3, r4, r5, r6, r7, r8, r9, pc}
 800b166:	bf00      	nop
 800b168:	0800cf11 	.word	0x0800cf11

0800b16c <_scanf_i>:
 800b16c:	e92d 4ff0 	stmdb	sp!, {r4, r5, r6, r7, r8, r9, sl, fp, lr}
 800b170:	4698      	mov	r8, r3
 800b172:	4b73      	ldr	r3, [pc, #460]	@ (800b340 <_scanf_i+0x1d4>)
 800b174:	460c      	mov	r4, r1
 800b176:	4682      	mov	sl, r0
 800b178:	4616      	mov	r6, r2
 800b17a:	e893 0007 	ldmia.w	r3, {r0, r1, r2}
 800b17e:	b087      	sub	sp, #28
 800b180:	ab03      	add	r3, sp, #12
 800b182:	e883 0007 	stmia.w	r3, {r0, r1, r2}
 800b186:	4b6f      	ldr	r3, [pc, #444]	@ (800b344 <_scanf_i+0x1d8>)
 800b188:	69a1      	ldr	r1, [r4, #24]
 800b18a:	4a6f      	ldr	r2, [pc, #444]	@ (800b348 <_scanf_i+0x1dc>)
 800b18c:	2903      	cmp	r1, #3
 800b18e:	bf08      	it	eq
 800b190:	461a      	moveq	r2, r3
 800b192:	68a3      	ldr	r3, [r4, #8]
 800b194:	9201      	str	r2, [sp, #4]
 800b196:	1e5a      	subs	r2, r3, #1
 800b198:	f5b2 7fae 	cmp.w	r2, #348	@ 0x15c
 800b19c:	bf88      	it	hi
 800b19e:	f46f 75ae 	mvnhi.w	r5, #348	@ 0x15c
 800b1a2:	4627      	mov	r7, r4
 800b1a4:	bf82      	ittt	hi
 800b1a6:	eb03 0905 	addhi.w	r9, r3, r5
 800b1aa:	f240 135d 	movwhi	r3, #349	@ 0x15d
 800b1ae:	60a3      	strhi	r3, [r4, #8]
 800b1b0:	f857 3b1c 	ldr.w	r3, [r7], #28
 800b1b4:	f443 6350 	orr.w	r3, r3, #3328	@ 0xd00
 800b1b8:	bf98      	it	ls
 800b1ba:	f04f 0900 	movls.w	r9, #0
 800b1be:	6023      	str	r3, [r4, #0]
 800b1c0:	463d      	mov	r5, r7
 800b1c2:	f04f 0b00 	mov.w	fp, #0
 800b1c6:	6831      	ldr	r1, [r6, #0]
 800b1c8:	ab03      	add	r3, sp, #12
 800b1ca:	7809      	ldrb	r1, [r1, #0]
 800b1cc:	f853 002b 	ldr.w	r0, [r3, fp, lsl #2]
 800b1d0:	2202      	movs	r2, #2
 800b1d2:	f7f4 fff5 	bl	80001c0 <memchr>
 800b1d6:	b328      	cbz	r0, 800b224 <_scanf_i+0xb8>
 800b1d8:	f1bb 0f01 	cmp.w	fp, #1
 800b1dc:	d158      	bne.n	800b290 <_scanf_i+0x124>
 800b1de:	6862      	ldr	r2, [r4, #4]
 800b1e0:	b92a      	cbnz	r2, 800b1ee <_scanf_i+0x82>
 800b1e2:	6822      	ldr	r2, [r4, #0]
 800b1e4:	2108      	movs	r1, #8
 800b1e6:	f442 7200 	orr.w	r2, r2, #512	@ 0x200
 800b1ea:	6061      	str	r1, [r4, #4]
 800b1ec:	6022      	str	r2, [r4, #0]
 800b1ee:	6822      	ldr	r2, [r4, #0]
 800b1f0:	f422 62a0 	bic.w	r2, r2, #1280	@ 0x500
 800b1f4:	6022      	str	r2, [r4, #0]
 800b1f6:	68a2      	ldr	r2, [r4, #8]
 800b1f8:	1e51      	subs	r1, r2, #1
 800b1fa:	60a1      	str	r1, [r4, #8]
 800b1fc:	b192      	cbz	r2, 800b224 <_scanf_i+0xb8>
 800b1fe:	6832      	ldr	r2, [r6, #0]
 800b200:	1c51      	adds	r1, r2, #1
 800b202:	6031      	str	r1, [r6, #0]
 800b204:	7812      	ldrb	r2, [r2, #0]
 800b206:	f805 2b01 	strb.w	r2, [r5], #1
 800b20a:	6872      	ldr	r2, [r6, #4]
 800b20c:	3a01      	subs	r2, #1
 800b20e:	2a00      	cmp	r2, #0
 800b210:	6072      	str	r2, [r6, #4]
 800b212:	dc07      	bgt.n	800b224 <_scanf_i+0xb8>
 800b214:	f8d4 2180 	ldr.w	r2, [r4, #384]	@ 0x180
 800b218:	4631      	mov	r1, r6
 800b21a:	4650      	mov	r0, sl
 800b21c:	4790      	blx	r2
 800b21e:	2800      	cmp	r0, #0
 800b220:	f040 8083 	bne.w	800b32a <_scanf_i+0x1be>
 800b224:	f10b 0b01 	add.w	fp, fp, #1
 800b228:	f1bb 0f03 	cmp.w	fp, #3
 800b22c:	d1cb      	bne.n	800b1c6 <_scanf_i+0x5a>
 800b22e:	6861      	ldr	r1, [r4, #4]
 800b230:	b909      	cbnz	r1, 800b236 <_scanf_i+0xca>
 800b232:	210a      	movs	r1, #10
 800b234:	6061      	str	r1, [r4, #4]
 800b236:	4b45      	ldr	r3, [pc, #276]	@ (800b34c <_scanf_i+0x1e0>)
 800b238:	6960      	ldr	r0, [r4, #20]
 800b23a:	1a59      	subs	r1, r3, r1
 800b23c:	f000 f888 	bl	800b350 <__sccl>
 800b240:	f04f 0b00 	mov.w	fp, #0
 800b244:	68a3      	ldr	r3, [r4, #8]
 800b246:	6822      	ldr	r2, [r4, #0]
 800b248:	2b00      	cmp	r3, #0
 800b24a:	d03d      	beq.n	800b2c8 <_scanf_i+0x15c>
 800b24c:	6831      	ldr	r1, [r6, #0]
 800b24e:	6960      	ldr	r0, [r4, #20]
 800b250:	f891 c000 	ldrb.w	ip, [r1]
 800b254:	f810 000c 	ldrb.w	r0, [r0, ip]
 800b258:	2800      	cmp	r0, #0
 800b25a:	d035      	beq.n	800b2c8 <_scanf_i+0x15c>
 800b25c:	f1bc 0f30 	cmp.w	ip, #48	@ 0x30
 800b260:	d124      	bne.n	800b2ac <_scanf_i+0x140>
 800b262:	0510      	lsls	r0, r2, #20
 800b264:	d522      	bpl.n	800b2ac <_scanf_i+0x140>
 800b266:	f10b 0b01 	add.w	fp, fp, #1
 800b26a:	f1b9 0f00 	cmp.w	r9, #0
 800b26e:	d003      	beq.n	800b278 <_scanf_i+0x10c>
 800b270:	3301      	adds	r3, #1
 800b272:	f109 39ff 	add.w	r9, r9, #4294967295
 800b276:	60a3      	str	r3, [r4, #8]
 800b278:	6873      	ldr	r3, [r6, #4]
 800b27a:	3b01      	subs	r3, #1
 800b27c:	2b00      	cmp	r3, #0
 800b27e:	6073      	str	r3, [r6, #4]
 800b280:	dd1b      	ble.n	800b2ba <_scanf_i+0x14e>
 800b282:	6833      	ldr	r3, [r6, #0]
 800b284:	3301      	adds	r3, #1
 800b286:	6033      	str	r3, [r6, #0]
 800b288:	68a3      	ldr	r3, [r4, #8]
 800b28a:	3b01      	subs	r3, #1
 800b28c:	60a3      	str	r3, [r4, #8]
 800b28e:	e7d9      	b.n	800b244 <_scanf_i+0xd8>
 800b290:	f1bb 0f02 	cmp.w	fp, #2
 800b294:	d1af      	bne.n	800b1f6 <_scanf_i+0x8a>
 800b296:	6822      	ldr	r2, [r4, #0]
 800b298:	f402 61c0 	and.w	r1, r2, #1536	@ 0x600
 800b29c:	f5b1 7f00 	cmp.w	r1, #512	@ 0x200
 800b2a0:	d1c5      	bne.n	800b22e <_scanf_i+0xc2>
 800b2a2:	2110      	movs	r1, #16
 800b2a4:	6061      	str	r1, [r4, #4]
 800b2a6:	f442 7280 	orr.w	r2, r2, #256	@ 0x100
 800b2aa:	e7a3      	b.n	800b1f4 <_scanf_i+0x88>
 800b2ac:	f422 6210 	bic.w	r2, r2, #2304	@ 0x900
 800b2b0:	6022      	str	r2, [r4, #0]
 800b2b2:	780b      	ldrb	r3, [r1, #0]
 800b2b4:	f805 3b01 	strb.w	r3, [r5], #1
 800b2b8:	e7de      	b.n	800b278 <_scanf_i+0x10c>
 800b2ba:	f8d4 3180 	ldr.w	r3, [r4, #384]	@ 0x180
 800b2be:	4631      	mov	r1, r6
 800b2c0:	4650      	mov	r0, sl
 800b2c2:	4798      	blx	r3
 800b2c4:	2800      	cmp	r0, #0
 800b2c6:	d0df      	beq.n	800b288 <_scanf_i+0x11c>
 800b2c8:	6823      	ldr	r3, [r4, #0]
 800b2ca:	05db      	lsls	r3, r3, #23
 800b2cc:	d50d      	bpl.n	800b2ea <_scanf_i+0x17e>
 800b2ce:	42bd      	cmp	r5, r7
 800b2d0:	d909      	bls.n	800b2e6 <_scanf_i+0x17a>
 800b2d2:	f815 1c01 	ldrb.w	r1, [r5, #-1]
 800b2d6:	f8d4 317c 	ldr.w	r3, [r4, #380]	@ 0x17c
 800b2da:	4632      	mov	r2, r6
 800b2dc:	4650      	mov	r0, sl
 800b2de:	4798      	blx	r3
 800b2e0:	f105 39ff 	add.w	r9, r5, #4294967295
 800b2e4:	464d      	mov	r5, r9
 800b2e6:	42bd      	cmp	r5, r7
 800b2e8:	d027      	beq.n	800b33a <_scanf_i+0x1ce>
 800b2ea:	6822      	ldr	r2, [r4, #0]
 800b2ec:	f012 0210 	ands.w	r2, r2, #16
 800b2f0:	d112      	bne.n	800b318 <_scanf_i+0x1ac>
 800b2f2:	702a      	strb	r2, [r5, #0]
 800b2f4:	6863      	ldr	r3, [r4, #4]
 800b2f6:	9e01      	ldr	r6, [sp, #4]
 800b2f8:	4639      	mov	r1, r7
 800b2fa:	4650      	mov	r0, sl
 800b2fc:	47b0      	blx	r6
 800b2fe:	f8d8 3000 	ldr.w	r3, [r8]
 800b302:	6821      	ldr	r1, [r4, #0]
 800b304:	1d1a      	adds	r2, r3, #4
 800b306:	f8c8 2000 	str.w	r2, [r8]
 800b30a:	068e      	lsls	r6, r1, #26
 800b30c:	681b      	ldr	r3, [r3, #0]
 800b30e:	d50f      	bpl.n	800b330 <_scanf_i+0x1c4>
 800b310:	6018      	str	r0, [r3, #0]
 800b312:	68e3      	ldr	r3, [r4, #12]
 800b314:	3301      	adds	r3, #1
 800b316:	60e3      	str	r3, [r4, #12]
 800b318:	6923      	ldr	r3, [r4, #16]
 800b31a:	1bed      	subs	r5, r5, r7
 800b31c:	445d      	add	r5, fp
 800b31e:	442b      	add	r3, r5
 800b320:	6123      	str	r3, [r4, #16]
 800b322:	2000      	movs	r0, #0
 800b324:	b007      	add	sp, #28
 800b326:	e8bd 8ff0 	ldmia.w	sp!, {r4, r5, r6, r7, r8, r9, sl, fp, pc}
 800b32a:	f04f 0b00 	mov.w	fp, #0
 800b32e:	e7cb      	b.n	800b2c8 <_scanf_i+0x15c>
 800b330:	07ca      	lsls	r2, r1, #31
 800b332:	bf4c      	ite	mi
 800b334:	8018      	strhmi	r0, [r3, #0]
 800b336:	6018      	strpl	r0, [r3, #0]
 800b338:	e7eb      	b.n	800b312 <_scanf_i+0x1a6>
 800b33a:	2001      	movs	r0, #1
 800b33c:	e7f2      	b.n	800b324 <_scanf_i+0x1b8>
 800b33e:	bf00      	nop
 800b340:	0800b850 	.word	0x0800b850
 800b344:	0800b53d 	.word	0x0800b53d
 800b348:	0800a5b5 	.word	0x0800a5b5
 800b34c:	0800cf05 	.word	0x0800cf05

0800b350 <__sccl>:
 800b350:	b570      	push	{r4, r5, r6, lr}
 800b352:	780b      	ldrb	r3, [r1, #0]
 800b354:	4604      	mov	r4, r0
 800b356:	2b5e      	cmp	r3, #94	@ 0x5e
 800b358:	bf0b      	itete	eq
 800b35a:	784b      	ldrbeq	r3, [r1, #1]
 800b35c:	1c4a      	addne	r2, r1, #1
 800b35e:	1c8a      	addeq	r2, r1, #2
 800b360:	2100      	movne	r1, #0
 800b362:	bf08      	it	eq
 800b364:	2101      	moveq	r1, #1
 800b366:	3801      	subs	r0, #1
 800b368:	f104 05ff 	add.w	r5, r4, #255	@ 0xff
 800b36c:	f800 1f01 	strb.w	r1, [r0, #1]!
 800b370:	42a8      	cmp	r0, r5
 800b372:	d1fb      	bne.n	800b36c <__sccl+0x1c>
 800b374:	b90b      	cbnz	r3, 800b37a <__sccl+0x2a>
 800b376:	1e50      	subs	r0, r2, #1
 800b378:	bd70      	pop	{r4, r5, r6, pc}
 800b37a:	f081 0101 	eor.w	r1, r1, #1
 800b37e:	54e1      	strb	r1, [r4, r3]
 800b380:	4610      	mov	r0, r2
 800b382:	4602      	mov	r2, r0
 800b384:	f812 5b01 	ldrb.w	r5, [r2], #1
 800b388:	2d2d      	cmp	r5, #45	@ 0x2d
 800b38a:	d005      	beq.n	800b398 <__sccl+0x48>
 800b38c:	2d5d      	cmp	r5, #93	@ 0x5d
 800b38e:	d016      	beq.n	800b3be <__sccl+0x6e>
 800b390:	2d00      	cmp	r5, #0
 800b392:	d0f1      	beq.n	800b378 <__sccl+0x28>
 800b394:	462b      	mov	r3, r5
 800b396:	e7f2      	b.n	800b37e <__sccl+0x2e>
 800b398:	7846      	ldrb	r6, [r0, #1]
 800b39a:	2e5d      	cmp	r6, #93	@ 0x5d
 800b39c:	d0fa      	beq.n	800b394 <__sccl+0x44>
 800b39e:	42b3      	cmp	r3, r6
 800b3a0:	dcf8      	bgt.n	800b394 <__sccl+0x44>
 800b3a2:	3002      	adds	r0, #2
 800b3a4:	461a      	mov	r2, r3
 800b3a6:	3201      	adds	r2, #1
 800b3a8:	4296      	cmp	r6, r2
 800b3aa:	54a1      	strb	r1, [r4, r2]
 800b3ac:	dcfb      	bgt.n	800b3a6 <__sccl+0x56>
 800b3ae:	1af2      	subs	r2, r6, r3
 800b3b0:	3a01      	subs	r2, #1
 800b3b2:	42b3      	cmp	r3, r6
 800b3b4:	bfa8      	it	ge
 800b3b6:	2200      	movge	r2, #0
 800b3b8:	3301      	adds	r3, #1
 800b3ba:	4413      	add	r3, r2
 800b3bc:	e7e1      	b.n	800b382 <__sccl+0x32>
 800b3be:	4610      	mov	r0, r2
 800b3c0:	e7da      	b.n	800b378 <__sccl+0x28>

0800b3c2 <__submore>:
 800b3c2:	e92d 41f0 	stmdb	sp!, {r4, r5, r6, r7, r8, lr}
 800b3c6:	460c      	mov	r4, r1
 800b3c8:	6b49      	ldr	r1, [r1, #52]	@ 0x34
 800b3ca:	f104 0344 	add.w	r3, r4, #68	@ 0x44
 800b3ce:	4299      	cmp	r1, r3
 800b3d0:	d11d      	bne.n	800b40e <__submore+0x4c>
 800b3d2:	f44f 6180 	mov.w	r1, #1024	@ 0x400
 800b3d6:	f7fe fff3 	bl	800a3c0 <_malloc_r>
 800b3da:	b918      	cbnz	r0, 800b3e4 <__submore+0x22>
 800b3dc:	f04f 30ff 	mov.w	r0, #4294967295
 800b3e0:	e8bd 81f0 	ldmia.w	sp!, {r4, r5, r6, r7, r8, pc}
 800b3e4:	f44f 6380 	mov.w	r3, #1024	@ 0x400
 800b3e8:	63a3      	str	r3, [r4, #56]	@ 0x38
 800b3ea:	f894 3046 	ldrb.w	r3, [r4, #70]	@ 0x46
 800b3ee:	6360      	str	r0, [r4, #52]	@ 0x34
 800b3f0:	f880 33ff 	strb.w	r3, [r0, #1023]	@ 0x3ff
 800b3f4:	f894 3045 	ldrb.w	r3, [r4, #69]	@ 0x45
 800b3f8:	f880 33fe 	strb.w	r3, [r0, #1022]	@ 0x3fe
 800b3fc:	f894 3044 	ldrb.w	r3, [r4, #68]	@ 0x44
 800b400:	f880 33fd 	strb.w	r3, [r0, #1021]	@ 0x3fd
 800b404:	f200 30fd 	addw	r0, r0, #1021	@ 0x3fd
 800b408:	6020      	str	r0, [r4, #0]
 800b40a:	2000      	movs	r0, #0
 800b40c:	e7e8      	b.n	800b3e0 <__submore+0x1e>
 800b40e:	6ba6      	ldr	r6, [r4, #56]	@ 0x38
 800b410:	0077      	lsls	r7, r6, #1
 800b412:	463a      	mov	r2, r7
 800b414:	f7ff fc4a 	bl	800acac <_realloc_r>
 800b418:	4605      	mov	r5, r0
 800b41a:	2800      	cmp	r0, #0
 800b41c:	d0de      	beq.n	800b3dc <__submore+0x1a>
 800b41e:	eb00 0806 	add.w	r8, r0, r6
 800b422:	4601      	mov	r1, r0
 800b424:	4632      	mov	r2, r6
 800b426:	4640      	mov	r0, r8
 800b428:	f7ff fc26 	bl	800ac78 <memcpy>
 800b42c:	e9c4 570d 	strd	r5, r7, [r4, #52]	@ 0x34
 800b430:	f8c4 8000 	str.w	r8, [r4]
 800b434:	e7e9      	b.n	800b40a <__submore+0x48>

0800b436 <_malloc_usable_size_r>:
 800b436:	f851 3c04 	ldr.w	r3, [r1, #-4]
 800b43a:	1f18      	subs	r0, r3, #4
 800b43c:	2b00      	cmp	r3, #0
 800b43e:	bfbc      	itt	lt
 800b440:	580b      	ldrlt	r3, [r1, r0]
 800b442:	18c0      	addlt	r0, r0, r3
 800b444:	4770      	bx	lr
	...

0800b448 <_strtol_l.isra.0>:
 800b448:	2b24      	cmp	r3, #36	@ 0x24
 800b44a:	e92d 47f0 	stmdb	sp!, {r4, r5, r6, r7, r8, r9, sl, lr}
 800b44e:	4686      	mov	lr, r0
 800b450:	4690      	mov	r8, r2
 800b452:	d801      	bhi.n	800b458 <_strtol_l.isra.0+0x10>
 800b454:	2b01      	cmp	r3, #1
 800b456:	d106      	bne.n	800b466 <_strtol_l.isra.0+0x1e>
 800b458:	f7fe febc 	bl	800a1d4 <__errno>
 800b45c:	2316      	movs	r3, #22
 800b45e:	6003      	str	r3, [r0, #0]
 800b460:	2000      	movs	r0, #0
 800b462:	e8bd 87f0 	ldmia.w	sp!, {r4, r5, r6, r7, r8, r9, sl, pc}
 800b466:	4834      	ldr	r0, [pc, #208]	@ (800b538 <_strtol_l.isra.0+0xf0>)
 800b468:	460d      	mov	r5, r1
 800b46a:	462a      	mov	r2, r5
 800b46c:	f815 4b01 	ldrb.w	r4, [r5], #1
 800b470:	5d06      	ldrb	r6, [r0, r4]
 800b472:	f016 0608 	ands.w	r6, r6, #8
 800b476:	d1f8      	bne.n	800b46a <_strtol_l.isra.0+0x22>
 800b478:	2c2d      	cmp	r4, #45	@ 0x2d
 800b47a:	d110      	bne.n	800b49e <_strtol_l.isra.0+0x56>
 800b47c:	782c      	ldrb	r4, [r5, #0]
 800b47e:	2601      	movs	r6, #1
 800b480:	1c95      	adds	r5, r2, #2
 800b482:	f033 0210 	bics.w	r2, r3, #16
 800b486:	d115      	bne.n	800b4b4 <_strtol_l.isra.0+0x6c>
 800b488:	2c30      	cmp	r4, #48	@ 0x30
 800b48a:	d10d      	bne.n	800b4a8 <_strtol_l.isra.0+0x60>
 800b48c:	782a      	ldrb	r2, [r5, #0]
 800b48e:	f002 02df 	and.w	r2, r2, #223	@ 0xdf
 800b492:	2a58      	cmp	r2, #88	@ 0x58
 800b494:	d108      	bne.n	800b4a8 <_strtol_l.isra.0+0x60>
 800b496:	786c      	ldrb	r4, [r5, #1]
 800b498:	3502      	adds	r5, #2
 800b49a:	2310      	movs	r3, #16
 800b49c:	e00a      	b.n	800b4b4 <_strtol_l.isra.0+0x6c>
 800b49e:	2c2b      	cmp	r4, #43	@ 0x2b
 800b4a0:	bf04      	itt	eq
 800b4a2:	782c      	ldrbeq	r4, [r5, #0]
 800b4a4:	1c95      	addeq	r5, r2, #2
 800b4a6:	e7ec      	b.n	800b482 <_strtol_l.isra.0+0x3a>
 800b4a8:	2b00      	cmp	r3, #0
 800b4aa:	d1f6      	bne.n	800b49a <_strtol_l.isra.0+0x52>
 800b4ac:	2c30      	cmp	r4, #48	@ 0x30
 800b4ae:	bf14      	ite	ne
 800b4b0:	230a      	movne	r3, #10
 800b4b2:	2308      	moveq	r3, #8
 800b4b4:	f106 4c00 	add.w	ip, r6, #2147483648	@ 0x80000000
 800b4b8:	f10c 3cff 	add.w	ip, ip, #4294967295
 800b4bc:	2200      	movs	r2, #0
 800b4be:	fbbc f9f3 	udiv	r9, ip, r3
 800b4c2:	4610      	mov	r0, r2
 800b4c4:	fb03 ca19 	mls	sl, r3, r9, ip
 800b4c8:	f1a4 0730 	sub.w	r7, r4, #48	@ 0x30
 800b4cc:	2f09      	cmp	r7, #9
 800b4ce:	d80f      	bhi.n	800b4f0 <_strtol_l.isra.0+0xa8>
 800b4d0:	463c      	mov	r4, r7
 800b4d2:	42a3      	cmp	r3, r4
 800b4d4:	dd1b      	ble.n	800b50e <_strtol_l.isra.0+0xc6>
 800b4d6:	1c57      	adds	r7, r2, #1
 800b4d8:	d007      	beq.n	800b4ea <_strtol_l.isra.0+0xa2>
 800b4da:	4581      	cmp	r9, r0
 800b4dc:	d314      	bcc.n	800b508 <_strtol_l.isra.0+0xc0>
 800b4de:	d101      	bne.n	800b4e4 <_strtol_l.isra.0+0x9c>
 800b4e0:	45a2      	cmp	sl, r4
 800b4e2:	db11      	blt.n	800b508 <_strtol_l.isra.0+0xc0>
 800b4e4:	fb00 4003 	mla	r0, r0, r3, r4
 800b4e8:	2201      	movs	r2, #1
 800b4ea:	f815 4b01 	ldrb.w	r4, [r5], #1
 800b4ee:	e7eb      	b.n	800b4c8 <_strtol_l.isra.0+0x80>
 800b4f0:	f1a4 0741 	sub.w	r7, r4, #65	@ 0x41
 800b4f4:	2f19      	cmp	r7, #25
 800b4f6:	d801      	bhi.n	800b4fc <_strtol_l.isra.0+0xb4>
 800b4f8:	3c37      	subs	r4, #55	@ 0x37
 800b4fa:	e7ea      	b.n	800b4d2 <_strtol_l.isra.0+0x8a>
 800b4fc:	f1a4 0761 	sub.w	r7, r4, #97	@ 0x61
 800b500:	2f19      	cmp	r7, #25
 800b502:	d804      	bhi.n	800b50e <_strtol_l.isra.0+0xc6>
 800b504:	3c57      	subs	r4, #87	@ 0x57
 800b506:	e7e4      	b.n	800b4d2 <_strtol_l.isra.0+0x8a>
 800b508:	f04f 32ff 	mov.w	r2, #4294967295
 800b50c:	e7ed      	b.n	800b4ea <_strtol_l.isra.0+0xa2>
 800b50e:	1c53      	adds	r3, r2, #1
 800b510:	d108      	bne.n	800b524 <_strtol_l.isra.0+0xdc>
 800b512:	2322      	movs	r3, #34	@ 0x22
 800b514:	f8ce 3000 	str.w	r3, [lr]
 800b518:	4660      	mov	r0, ip
 800b51a:	f1b8 0f00 	cmp.w	r8, #0
 800b51e:	d0a0      	beq.n	800b462 <_strtol_l.isra.0+0x1a>
 800b520:	1e69      	subs	r1, r5, #1
 800b522:	e006      	b.n	800b532 <_strtol_l.isra.0+0xea>
 800b524:	b106      	cbz	r6, 800b528 <_strtol_l.isra.0+0xe0>
 800b526:	4240      	negs	r0, r0
 800b528:	f1b8 0f00 	cmp.w	r8, #0
 800b52c:	d099      	beq.n	800b462 <_strtol_l.isra.0+0x1a>
 800b52e:	2a00      	cmp	r2, #0
 800b530:	d1f6      	bne.n	800b520 <_strtol_l.isra.0+0xd8>
 800b532:	f8c8 1000 	str.w	r1, [r8]
 800b536:	e794      	b.n	800b462 <_strtol_l.isra.0+0x1a>
 800b538:	0800cf11 	.word	0x0800cf11

0800b53c <_strtol_r>:
 800b53c:	f7ff bf84 	b.w	800b448 <_strtol_l.isra.0>

0800b540 <__udivmoddi4>:
 800b540:	e92d 47f0 	stmdb	sp!, {r4, r5, r6, r7, r8, r9, sl, lr}
 800b544:	9d08      	ldr	r5, [sp, #32]
 800b546:	460f      	mov	r7, r1
 800b548:	4604      	mov	r4, r0
 800b54a:	468c      	mov	ip, r1
 800b54c:	2b00      	cmp	r3, #0
 800b54e:	d148      	bne.n	800b5e2 <__udivmoddi4+0xa2>
 800b550:	428a      	cmp	r2, r1
 800b552:	4616      	mov	r6, r2
 800b554:	d961      	bls.n	800b61a <__udivmoddi4+0xda>
 800b556:	fab2 f382 	clz	r3, r2
 800b55a:	b14b      	cbz	r3, 800b570 <__udivmoddi4+0x30>
 800b55c:	f1c3 0220 	rsb	r2, r3, #32
 800b560:	fa01 fc03 	lsl.w	ip, r1, r3
 800b564:	fa20 f202 	lsr.w	r2, r0, r2
 800b568:	409e      	lsls	r6, r3
 800b56a:	ea42 0c0c 	orr.w	ip, r2, ip
 800b56e:	409c      	lsls	r4, r3
 800b570:	ea4f 4e16 	mov.w	lr, r6, lsr #16
 800b574:	b2b7      	uxth	r7, r6
 800b576:	fbbc f1fe 	udiv	r1, ip, lr
 800b57a:	0c22      	lsrs	r2, r4, #16
 800b57c:	fb0e cc11 	mls	ip, lr, r1, ip
 800b580:	ea42 420c 	orr.w	r2, r2, ip, lsl #16
 800b584:	fb01 f007 	mul.w	r0, r1, r7
 800b588:	4290      	cmp	r0, r2
 800b58a:	d909      	bls.n	800b5a0 <__udivmoddi4+0x60>
 800b58c:	18b2      	adds	r2, r6, r2
 800b58e:	f101 3cff 	add.w	ip, r1, #4294967295
 800b592:	f080 80ee 	bcs.w	800b772 <__udivmoddi4+0x232>
 800b596:	4290      	cmp	r0, r2
 800b598:	f240 80eb 	bls.w	800b772 <__udivmoddi4+0x232>
 800b59c:	3902      	subs	r1, #2
 800b59e:	4432      	add	r2, r6
 800b5a0:	1a12      	subs	r2, r2, r0
 800b5a2:	b2a4      	uxth	r4, r4
 800b5a4:	fbb2 f0fe 	udiv	r0, r2, lr
 800b5a8:	fb0e 2210 	mls	r2, lr, r0, r2
 800b5ac:	ea44 4402 	orr.w	r4, r4, r2, lsl #16
 800b5b0:	fb00 f707 	mul.w	r7, r0, r7
 800b5b4:	42a7      	cmp	r7, r4
 800b5b6:	d909      	bls.n	800b5cc <__udivmoddi4+0x8c>
 800b5b8:	1934      	adds	r4, r6, r4
 800b5ba:	f100 32ff 	add.w	r2, r0, #4294967295
 800b5be:	f080 80da 	bcs.w	800b776 <__udivmoddi4+0x236>
 800b5c2:	42a7      	cmp	r7, r4
 800b5c4:	f240 80d7 	bls.w	800b776 <__udivmoddi4+0x236>
 800b5c8:	4434      	add	r4, r6
 800b5ca:	3802      	subs	r0, #2
 800b5cc:	ea40 4001 	orr.w	r0, r0, r1, lsl #16
 800b5d0:	1be4      	subs	r4, r4, r7
 800b5d2:	2100      	movs	r1, #0
 800b5d4:	b11d      	cbz	r5, 800b5de <__udivmoddi4+0x9e>
 800b5d6:	40dc      	lsrs	r4, r3
 800b5d8:	2300      	movs	r3, #0
 800b5da:	e9c5 4300 	strd	r4, r3, [r5]
 800b5de:	e8bd 87f0 	ldmia.w	sp!, {r4, r5, r6, r7, r8, r9, sl, pc}
 800b5e2:	428b      	cmp	r3, r1
 800b5e4:	d906      	bls.n	800b5f4 <__udivmoddi4+0xb4>
 800b5e6:	b10d      	cbz	r5, 800b5ec <__udivmoddi4+0xac>
 800b5e8:	e9c5 0100 	strd	r0, r1, [r5]
 800b5ec:	2100      	movs	r1, #0
 800b5ee:	4608      	mov	r0, r1
 800b5f0:	e8bd 87f0 	ldmia.w	sp!, {r4, r5, r6, r7, r8, r9, sl, pc}
 800b5f4:	fab3 f183 	clz	r1, r3
 800b5f8:	2900      	cmp	r1, #0
 800b5fa:	d148      	bne.n	800b68e <__udivmoddi4+0x14e>
 800b5fc:	42bb      	cmp	r3, r7
 800b5fe:	d302      	bcc.n	800b606 <__udivmoddi4+0xc6>
 800b600:	4282      	cmp	r2, r0
 800b602:	f200 8107 	bhi.w	800b814 <__udivmoddi4+0x2d4>
 800b606:	1a84      	subs	r4, r0, r2
 800b608:	eb67 0203 	sbc.w	r2, r7, r3
 800b60c:	2001      	movs	r0, #1
 800b60e:	4694      	mov	ip, r2
 800b610:	2d00      	cmp	r5, #0
 800b612:	d0e4      	beq.n	800b5de <__udivmoddi4+0x9e>
 800b614:	e9c5 4c00 	strd	r4, ip, [r5]
 800b618:	e7e1      	b.n	800b5de <__udivmoddi4+0x9e>
 800b61a:	2a00      	cmp	r2, #0
 800b61c:	f000 8092 	beq.w	800b744 <__udivmoddi4+0x204>
 800b620:	fab2 f382 	clz	r3, r2
 800b624:	2b00      	cmp	r3, #0
 800b626:	f040 80a8 	bne.w	800b77a <__udivmoddi4+0x23a>
 800b62a:	1a8a      	subs	r2, r1, r2
 800b62c:	ea4f 4e16 	mov.w	lr, r6, lsr #16
 800b630:	fa1f fc86 	uxth.w	ip, r6
 800b634:	2101      	movs	r1, #1
 800b636:	0c20      	lsrs	r0, r4, #16
 800b638:	fbb2 f7fe 	udiv	r7, r2, lr
 800b63c:	fb0e 2217 	mls	r2, lr, r7, r2
 800b640:	ea40 4202 	orr.w	r2, r0, r2, lsl #16
 800b644:	fb0c f007 	mul.w	r0, ip, r7
 800b648:	4290      	cmp	r0, r2
 800b64a:	d907      	bls.n	800b65c <__udivmoddi4+0x11c>
 800b64c:	18b2      	adds	r2, r6, r2
 800b64e:	f107 38ff 	add.w	r8, r7, #4294967295
 800b652:	d202      	bcs.n	800b65a <__udivmoddi4+0x11a>
 800b654:	4290      	cmp	r0, r2
 800b656:	f200 80e2 	bhi.w	800b81e <__udivmoddi4+0x2de>
 800b65a:	4647      	mov	r7, r8
 800b65c:	1a12      	subs	r2, r2, r0
 800b65e:	b2a4      	uxth	r4, r4
 800b660:	fbb2 f0fe 	udiv	r0, r2, lr
 800b664:	fb0e 2210 	mls	r2, lr, r0, r2
 800b668:	ea44 4402 	orr.w	r4, r4, r2, lsl #16
 800b66c:	fb0c fc00 	mul.w	ip, ip, r0
 800b670:	45a4      	cmp	ip, r4
 800b672:	d907      	bls.n	800b684 <__udivmoddi4+0x144>
 800b674:	1934      	adds	r4, r6, r4
 800b676:	f100 32ff 	add.w	r2, r0, #4294967295
 800b67a:	d202      	bcs.n	800b682 <__udivmoddi4+0x142>
 800b67c:	45a4      	cmp	ip, r4
 800b67e:	f200 80cb 	bhi.w	800b818 <__udivmoddi4+0x2d8>
 800b682:	4610      	mov	r0, r2
 800b684:	eba4 040c 	sub.w	r4, r4, ip
 800b688:	ea40 4007 	orr.w	r0, r0, r7, lsl #16
 800b68c:	e7a2      	b.n	800b5d4 <__udivmoddi4+0x94>
 800b68e:	f1c1 0620 	rsb	r6, r1, #32
 800b692:	408b      	lsls	r3, r1
 800b694:	fa22 fc06 	lsr.w	ip, r2, r6
 800b698:	ea4c 0c03 	orr.w	ip, ip, r3
 800b69c:	fa07 f401 	lsl.w	r4, r7, r1
 800b6a0:	fa20 f306 	lsr.w	r3, r0, r6
 800b6a4:	40f7      	lsrs	r7, r6
 800b6a6:	ea4f 491c 	mov.w	r9, ip, lsr #16
 800b6aa:	4323      	orrs	r3, r4
 800b6ac:	fa00 f801 	lsl.w	r8, r0, r1
 800b6b0:	fa1f fe8c 	uxth.w	lr, ip
 800b6b4:	fbb7 f0f9 	udiv	r0, r7, r9
 800b6b8:	0c1c      	lsrs	r4, r3, #16
 800b6ba:	fb09 7710 	mls	r7, r9, r0, r7
 800b6be:	ea44 4407 	orr.w	r4, r4, r7, lsl #16
 800b6c2:	fb00 f70e 	mul.w	r7, r0, lr
 800b6c6:	42a7      	cmp	r7, r4
 800b6c8:	fa02 f201 	lsl.w	r2, r2, r1
 800b6cc:	d90a      	bls.n	800b6e4 <__udivmoddi4+0x1a4>
 800b6ce:	eb1c 0404 	adds.w	r4, ip, r4
 800b6d2:	f100 3aff 	add.w	sl, r0, #4294967295
 800b6d6:	f080 809b 	bcs.w	800b810 <__udivmoddi4+0x2d0>
 800b6da:	42a7      	cmp	r7, r4
 800b6dc:	f240 8098 	bls.w	800b810 <__udivmoddi4+0x2d0>
 800b6e0:	3802      	subs	r0, #2
 800b6e2:	4464      	add	r4, ip
 800b6e4:	1be4      	subs	r4, r4, r7
 800b6e6:	b29f      	uxth	r7, r3
 800b6e8:	fbb4 f3f9 	udiv	r3, r4, r9
 800b6ec:	fb09 4413 	mls	r4, r9, r3, r4
 800b6f0:	ea47 4404 	orr.w	r4, r7, r4, lsl #16
 800b6f4:	fb03 fe0e 	mul.w	lr, r3, lr
 800b6f8:	45a6      	cmp	lr, r4
 800b6fa:	d909      	bls.n	800b710 <__udivmoddi4+0x1d0>
 800b6fc:	eb1c 0404 	adds.w	r4, ip, r4
 800b700:	f103 37ff 	add.w	r7, r3, #4294967295
 800b704:	f080 8082 	bcs.w	800b80c <__udivmoddi4+0x2cc>
 800b708:	45a6      	cmp	lr, r4
 800b70a:	d97f      	bls.n	800b80c <__udivmoddi4+0x2cc>
 800b70c:	3b02      	subs	r3, #2
 800b70e:	4464      	add	r4, ip
 800b710:	ea43 4000 	orr.w	r0, r3, r0, lsl #16
 800b714:	eba4 040e 	sub.w	r4, r4, lr
 800b718:	fba0 e702 	umull	lr, r7, r0, r2
 800b71c:	42bc      	cmp	r4, r7
 800b71e:	4673      	mov	r3, lr
 800b720:	46b9      	mov	r9, r7
 800b722:	d363      	bcc.n	800b7ec <__udivmoddi4+0x2ac>
 800b724:	d060      	beq.n	800b7e8 <__udivmoddi4+0x2a8>
 800b726:	b15d      	cbz	r5, 800b740 <__udivmoddi4+0x200>
 800b728:	ebb8 0203 	subs.w	r2, r8, r3
 800b72c:	eb64 0409 	sbc.w	r4, r4, r9
 800b730:	fa04 f606 	lsl.w	r6, r4, r6
 800b734:	fa22 f301 	lsr.w	r3, r2, r1
 800b738:	431e      	orrs	r6, r3
 800b73a:	40cc      	lsrs	r4, r1
 800b73c:	e9c5 6400 	strd	r6, r4, [r5]
 800b740:	2100      	movs	r1, #0
 800b742:	e74c      	b.n	800b5de <__udivmoddi4+0x9e>
 800b744:	0862      	lsrs	r2, r4, #1
 800b746:	0848      	lsrs	r0, r1, #1
 800b748:	ea42 71c1 	orr.w	r1, r2, r1, lsl #31
 800b74c:	0c0b      	lsrs	r3, r1, #16
 800b74e:	ea43 4300 	orr.w	r3, r3, r0, lsl #16
 800b752:	b28a      	uxth	r2, r1
 800b754:	ea42 4203 	orr.w	r2, r2, r3, lsl #16
 800b758:	fbb3 f1f6 	udiv	r1, r3, r6
 800b75c:	07e4      	lsls	r4, r4, #31
 800b75e:	46b4      	mov	ip, r6
 800b760:	4637      	mov	r7, r6
 800b762:	46b6      	mov	lr, r6
 800b764:	231f      	movs	r3, #31
 800b766:	fbb0 f0f6 	udiv	r0, r0, r6
 800b76a:	1bd2      	subs	r2, r2, r7
 800b76c:	ea41 4100 	orr.w	r1, r1, r0, lsl #16
 800b770:	e761      	b.n	800b636 <__udivmoddi4+0xf6>
 800b772:	4661      	mov	r1, ip
 800b774:	e714      	b.n	800b5a0 <__udivmoddi4+0x60>
 800b776:	4610      	mov	r0, r2
 800b778:	e728      	b.n	800b5cc <__udivmoddi4+0x8c>
 800b77a:	f1c3 0120 	rsb	r1, r3, #32
 800b77e:	fa20 f201 	lsr.w	r2, r0, r1
 800b782:	409e      	lsls	r6, r3
 800b784:	fa27 f101 	lsr.w	r1, r7, r1
 800b788:	409f      	lsls	r7, r3
 800b78a:	433a      	orrs	r2, r7
 800b78c:	ea4f 4e16 	mov.w	lr, r6, lsr #16
 800b790:	fa1f fc86 	uxth.w	ip, r6
 800b794:	fbb1 f7fe 	udiv	r7, r1, lr
 800b798:	fb0e 1017 	mls	r0, lr, r7, r1
 800b79c:	0c11      	lsrs	r1, r2, #16
 800b79e:	ea41 4100 	orr.w	r1, r1, r0, lsl #16
 800b7a2:	fb07 f80c 	mul.w	r8, r7, ip
 800b7a6:	4588      	cmp	r8, r1
 800b7a8:	fa04 f403 	lsl.w	r4, r4, r3
 800b7ac:	d93a      	bls.n	800b824 <__udivmoddi4+0x2e4>
 800b7ae:	1871      	adds	r1, r6, r1
 800b7b0:	f107 30ff 	add.w	r0, r7, #4294967295
 800b7b4:	d201      	bcs.n	800b7ba <__udivmoddi4+0x27a>
 800b7b6:	4588      	cmp	r8, r1
 800b7b8:	d81f      	bhi.n	800b7fa <__udivmoddi4+0x2ba>
 800b7ba:	eba1 0108 	sub.w	r1, r1, r8
 800b7be:	fbb1 f8fe 	udiv	r8, r1, lr
 800b7c2:	fb08 f70c 	mul.w	r7, r8, ip
 800b7c6:	fb0e 1118 	mls	r1, lr, r8, r1
 800b7ca:	b292      	uxth	r2, r2
 800b7cc:	ea42 4201 	orr.w	r2, r2, r1, lsl #16
 800b7d0:	42ba      	cmp	r2, r7
 800b7d2:	d22f      	bcs.n	800b834 <__udivmoddi4+0x2f4>
 800b7d4:	18b2      	adds	r2, r6, r2
 800b7d6:	f108 31ff 	add.w	r1, r8, #4294967295
 800b7da:	d2c6      	bcs.n	800b76a <__udivmoddi4+0x22a>
 800b7dc:	42ba      	cmp	r2, r7
 800b7de:	d2c4      	bcs.n	800b76a <__udivmoddi4+0x22a>
 800b7e0:	f1a8 0102 	sub.w	r1, r8, #2
 800b7e4:	4432      	add	r2, r6
 800b7e6:	e7c0      	b.n	800b76a <__udivmoddi4+0x22a>
 800b7e8:	45f0      	cmp	r8, lr
 800b7ea:	d29c      	bcs.n	800b726 <__udivmoddi4+0x1e6>
 800b7ec:	ebbe 0302 	subs.w	r3, lr, r2
 800b7f0:	eb67 070c 	sbc.w	r7, r7, ip
 800b7f4:	3801      	subs	r0, #1
 800b7f6:	46b9      	mov	r9, r7
 800b7f8:	e795      	b.n	800b726 <__udivmoddi4+0x1e6>
 800b7fa:	eba6 0808 	sub.w	r8, r6, r8
 800b7fe:	4441      	add	r1, r8
 800b800:	1eb8      	subs	r0, r7, #2
 800b802:	fbb1 f8fe 	udiv	r8, r1, lr
 800b806:	fb08 f70c 	mul.w	r7, r8, ip
 800b80a:	e7dc      	b.n	800b7c6 <__udivmoddi4+0x286>
 800b80c:	463b      	mov	r3, r7
 800b80e:	e77f      	b.n	800b710 <__udivmoddi4+0x1d0>
 800b810:	4650      	mov	r0, sl
 800b812:	e767      	b.n	800b6e4 <__udivmoddi4+0x1a4>
 800b814:	4608      	mov	r0, r1
 800b816:	e6fb      	b.n	800b610 <__udivmoddi4+0xd0>
 800b818:	4434      	add	r4, r6
 800b81a:	3802      	subs	r0, #2
 800b81c:	e732      	b.n	800b684 <__udivmoddi4+0x144>
 800b81e:	3f02      	subs	r7, #2
 800b820:	4432      	add	r2, r6
 800b822:	e71b      	b.n	800b65c <__udivmoddi4+0x11c>
 800b824:	eba1 0108 	sub.w	r1, r1, r8
 800b828:	4638      	mov	r0, r7
 800b82a:	fbb1 f8fe 	udiv	r8, r1, lr
 800b82e:	fb08 f70c 	mul.w	r7, r8, ip
 800b832:	e7c8      	b.n	800b7c6 <__udivmoddi4+0x286>
 800b834:	4641      	mov	r1, r8
 800b836:	e798      	b.n	800b76a <__udivmoddi4+0x22a>

0800b838 <_init>:
 800b838:	b5f8      	push	{r3, r4, r5, r6, r7, lr}
 800b83a:	bf00      	nop
 800b83c:	bcf8      	pop	{r3, r4, r5, r6, r7}
 800b83e:	bc08      	pop	{r3}
 800b840:	469e      	mov	lr, r3
 800b842:	4770      	bx	lr

0800b844 <_fini>:
 800b844:	b5f8      	push	{r3, r4, r5, r6, r7, lr}
 800b846:	bf00      	nop
 800b848:	bcf8      	pop	{r3, r4, r5, r6, r7}
 800b84a:	bc08      	pop	{r3}
 800b84c:	469e      	mov	lr, r3
 800b84e:	4770      	bx	lr
