ARM GAS  C:\Users\kroko\AppData\Local\Temp\ccQvQr2a.s 			page 1


   1              		.cpu cortex-m4
   2              		.arch armv7e-m
   3              		.fpu fpv4-sp-d16
   4              		.eabi_attribute 27, 1
   5              		.eabi_attribute 28, 1
   6              		.eabi_attribute 20, 1
   7              		.eabi_attribute 21, 1
   8              		.eabi_attribute 23, 3
   9              		.eabi_attribute 24, 1
  10              		.eabi_attribute 25, 1
  11              		.eabi_attribute 26, 1
  12              		.eabi_attribute 30, 1
  13              		.eabi_attribute 34, 1
  14              		.eabi_attribute 18, 4
  15              		.file	"usbd_cdc_if.c"
  16              		.text
  17              		.section	.text.CDC_DeInit_FS,"ax",%progbits
  18              		.align	1
  19              		.syntax unified
  20              		.thumb
  21              		.thumb_func
  23              	CDC_DeInit_FS:
  24              		@ args = 0, pretend = 0, frame = 0
  25              		@ frame_needed = 0, uses_anonymous_args = 0
  26              		@ link register save eliminated.
  27 0000 0020     		movs	r0, #0
  28 0002 7047     		bx	lr
  30              		.section	.text.CDC_Control_FS,"ax",%progbits
  31              		.align	1
  32              		.syntax unified
  33              		.thumb
  34              		.thumb_func
  36              	CDC_Control_FS:
  37              		@ args = 0, pretend = 0, frame = 0
  38              		@ frame_needed = 0, uses_anonymous_args = 0
  39              		@ link register save eliminated.
  40 0000 0020     		movs	r0, #0
  41 0002 7047     		bx	lr
  43              		.section	.text.CDC_TransmitCplt_FS,"ax",%progbits
  44              		.align	1
  45              		.syntax unified
  46              		.thumb
  47              		.thumb_func
  49              	CDC_TransmitCplt_FS:
  50              		@ args = 0, pretend = 0, frame = 0
  51              		@ frame_needed = 0, uses_anonymous_args = 0
  52              		@ link register save eliminated.
  53 0000 0020     		movs	r0, #0
  54 0002 7047     		bx	lr
  56              		.section	.text.CDC_Receive_FS,"ax",%progbits
  57              		.align	1
  58              		.syntax unified
  59              		.thumb
  60              		.thumb_func
  62              	CDC_Receive_FS:
  63              		@ args = 0, pretend = 0, frame = 0
  64              		@ frame_needed = 0, uses_anonymous_args = 0
ARM GAS  C:\Users\kroko\AppData\Local\Temp\ccQvQr2a.s 			page 2


  65 0000 38B5     		push	{r3, r4, r5, lr}
  66 0002 0446     		mov	r4, r0
  67 0004 0968     		ldr	r1, [r1]
  68 0006 FFF7FEFF 		bl	USB_CDC_RxHandler
  69 000a 054D     		ldr	r5, .L6
  70 000c 2146     		mov	r1, r4
  71 000e 2846     		mov	r0, r5
  72 0010 FFF7FEFF 		bl	USBD_CDC_SetRxBuffer
  73 0014 2846     		mov	r0, r5
  74 0016 FFF7FEFF 		bl	USBD_CDC_ReceivePacket
  75 001a 0020     		movs	r0, #0
  76 001c 38BD     		pop	{r3, r4, r5, pc}
  77              	.L7:
  78 001e 00BF     		.align	2
  79              	.L6:
  80 0020 00000000 		.word	hUsbDeviceFS
  82              		.section	.text.CDC_Init_FS,"ax",%progbits
  83              		.align	1
  84              		.syntax unified
  85              		.thumb
  86              		.thumb_func
  88              	CDC_Init_FS:
  89              		@ args = 0, pretend = 0, frame = 0
  90              		@ frame_needed = 0, uses_anonymous_args = 0
  91 0000 10B5     		push	{r4, lr}
  92 0002 064C     		ldr	r4, .L10
  93 0004 0022     		movs	r2, #0
  94 0006 0649     		ldr	r1, .L10+4
  95 0008 2046     		mov	r0, r4
  96 000a FFF7FEFF 		bl	USBD_CDC_SetTxBuffer
  97 000e 0549     		ldr	r1, .L10+8
  98 0010 2046     		mov	r0, r4
  99 0012 FFF7FEFF 		bl	USBD_CDC_SetRxBuffer
 100 0016 0020     		movs	r0, #0
 101 0018 10BD     		pop	{r4, pc}
 102              	.L11:
 103 001a 00BF     		.align	2
 104              	.L10:
 105 001c 00000000 		.word	hUsbDeviceFS
 106 0020 00000000 		.word	UserTxBufferFS
 107 0024 00000000 		.word	UserRxBufferFS
 109              		.section	.text.CDC_Transmit_FS,"ax",%progbits
 110              		.align	1
 111              		.global	CDC_Transmit_FS
 112              		.syntax unified
 113              		.thumb
 114              		.thumb_func
 116              	CDC_Transmit_FS:
 117              		@ args = 0, pretend = 0, frame = 0
 118              		@ frame_needed = 0, uses_anonymous_args = 0
 119 0000 094B     		ldr	r3, .L20
 120 0002 D3F8BC32 		ldr	r3, [r3, #700]
 121 0006 D3F81432 		ldr	r3, [r3, #532]
 122 000a 0BB1     		cbz	r3, .L19
 123 000c 0120     		movs	r0, #1
 124 000e 7047     		bx	lr
 125              	.L19:
ARM GAS  C:\Users\kroko\AppData\Local\Temp\ccQvQr2a.s 			page 3


 126 0010 10B5     		push	{r4, lr}
 127 0012 054C     		ldr	r4, .L20
 128 0014 0A46     		mov	r2, r1
 129 0016 0146     		mov	r1, r0
 130 0018 2046     		mov	r0, r4
 131 001a FFF7FEFF 		bl	USBD_CDC_SetTxBuffer
 132 001e 2046     		mov	r0, r4
 133 0020 FFF7FEFF 		bl	USBD_CDC_TransmitPacket
 134 0024 10BD     		pop	{r4, pc}
 135              	.L21:
 136 0026 00BF     		.align	2
 137              	.L20:
 138 0028 00000000 		.word	hUsbDeviceFS
 140              		.global	USBD_Interface_fops_FS
 141              		.section	.data.USBD_Interface_fops_FS,"aw"
 142              		.align	2
 145              	USBD_Interface_fops_FS:
 146 0000 00000000 		.word	CDC_Init_FS
 147 0004 00000000 		.word	CDC_DeInit_FS
 148 0008 00000000 		.word	CDC_Control_FS
 149 000c 00000000 		.word	CDC_Receive_FS
 150 0010 00000000 		.word	CDC_TransmitCplt_FS
 151              		.global	UserTxBufferFS
 152              		.section	.bss.UserTxBufferFS,"aw",%nobits
 153              		.align	2
 156              	UserTxBufferFS:
 157 0000 00000000 		.space	1024
 157      00000000 
 157      00000000 
 157      00000000 
 157      00000000 
 158              		.global	UserRxBufferFS
 159              		.section	.bss.UserRxBufferFS,"aw",%nobits
 160              		.align	2
 163              	UserRxBufferFS:
 164 0000 00000000 		.space	1024
 164      00000000 
 164      00000000 
 164      00000000 
 164      00000000 
 165              		.ident	"GCC: (Arm GNU Toolchain 14.2.Rel1 (Build arm-14.52)) 14.2.1 20241119"
ARM GAS  C:\Users\kroko\AppData\Local\Temp\ccQvQr2a.s 			page 4


DEFINED SYMBOLS
                            *ABS*:00000000 usbd_cdc_if.c
C:\Users\kroko\AppData\Local\Temp\ccQvQr2a.s:18     .text.CDC_DeInit_FS:00000000 $t
C:\Users\kroko\AppData\Local\Temp\ccQvQr2a.s:23     .text.CDC_DeInit_FS:00000000 CDC_DeInit_FS
C:\Users\kroko\AppData\Local\Temp\ccQvQr2a.s:31     .text.CDC_Control_FS:00000000 $t
C:\Users\kroko\AppData\Local\Temp\ccQvQr2a.s:36     .text.CDC_Control_FS:00000000 CDC_Control_FS
C:\Users\kroko\AppData\Local\Temp\ccQvQr2a.s:44     .text.CDC_TransmitCplt_FS:00000000 $t
C:\Users\kroko\AppData\Local\Temp\ccQvQr2a.s:49     .text.CDC_TransmitCplt_FS:00000000 CDC_TransmitCplt_FS
C:\Users\kroko\AppData\Local\Temp\ccQvQr2a.s:57     .text.CDC_Receive_FS:00000000 $t
C:\Users\kroko\AppData\Local\Temp\ccQvQr2a.s:62     .text.CDC_Receive_FS:00000000 CDC_Receive_FS
C:\Users\kroko\AppData\Local\Temp\ccQvQr2a.s:80     .text.CDC_Receive_FS:00000020 $d
C:\Users\kroko\AppData\Local\Temp\ccQvQr2a.s:83     .text.CDC_Init_FS:00000000 $t
C:\Users\kroko\AppData\Local\Temp\ccQvQr2a.s:88     .text.CDC_Init_FS:00000000 CDC_Init_FS
C:\Users\kroko\AppData\Local\Temp\ccQvQr2a.s:105    .text.CDC_Init_FS:0000001c $d
C:\Users\kroko\AppData\Local\Temp\ccQvQr2a.s:156    .bss.UserTxBufferFS:00000000 UserTxBufferFS
C:\Users\kroko\AppData\Local\Temp\ccQvQr2a.s:163    .bss.UserRxBufferFS:00000000 UserRxBufferFS
C:\Users\kroko\AppData\Local\Temp\ccQvQr2a.s:110    .text.CDC_Transmit_FS:00000000 $t
C:\Users\kroko\AppData\Local\Temp\ccQvQr2a.s:116    .text.CDC_Transmit_FS:00000000 CDC_Transmit_FS
C:\Users\kroko\AppData\Local\Temp\ccQvQr2a.s:138    .text.CDC_Transmit_FS:00000028 $d
C:\Users\kroko\AppData\Local\Temp\ccQvQr2a.s:145    .data.USBD_Interface_fops_FS:00000000 USBD_Interface_fops_FS
C:\Users\kroko\AppData\Local\Temp\ccQvQr2a.s:142    .data.USBD_Interface_fops_FS:00000000 $d
C:\Users\kroko\AppData\Local\Temp\ccQvQr2a.s:153    .bss.UserTxBufferFS:00000000 $d
C:\Users\kroko\AppData\Local\Temp\ccQvQr2a.s:160    .bss.UserRxBufferFS:00000000 $d

UNDEFINED SYMBOLS
USB_CDC_RxHandler
USBD_CDC_SetRxBuffer
USBD_CDC_ReceivePacket
hUsbDeviceFS
USBD_CDC_SetTxBuffer
USBD_CDC_TransmitPacket
